ARM GAS  C:\Users\bmt\AppData\Local\Temp\ccDxMJSM.s 			page 1


   1              		.syntax unified
   2              		.cpu cortex-m3
   3              		.fpu softvfp
   4              		.eabi_attribute 20, 1
   5              		.eabi_attribute 21, 1
   6              		.eabi_attribute 23, 3
   7              		.eabi_attribute 24, 1
   8              		.eabi_attribute 25, 1
   9              		.eabi_attribute 26, 1
  10              		.eabi_attribute 30, 6
  11              		.eabi_attribute 34, 1
  12              		.eabi_attribute 18, 4
  13              		.thumb
  14              		.file	"BlockQ.c"
  15              		.text
  16              	.Ltext0:
  17              		.cfi_sections	.debug_frame
  18              		.bss
  19              		.align	2
  20              	sBlockingConsumerCount:
  21 0000 00000000 		.space	6
  21      0000
  22 0006 0000     		.align	2
  23              	sBlockingProducerCount:
  24 0008 00000000 		.space	6
  24      0000
  25              		.section	.rodata
  26              		.align	2
  27              	.LC0:
  28 0000 51436F6E 		.ascii	"QConsB1\000"
  28      73423100 
  29              		.align	2
  30              	.LC1:
  31 0008 5150726F 		.ascii	"QProdB2\000"
  31      64423200 
  32              		.align	2
  33              	.LC2:
  34 0010 51436F6E 		.ascii	"QConsB3\000"
  34      73423300 
  35              		.align	2
  36              	.LC3:
  37 0018 5150726F 		.ascii	"QProdB4\000"
  37      64423400 
  38              		.align	2
  39              	.LC4:
  40 0020 5150726F 		.ascii	"QProdB5\000"
  40      64423500 
  41              		.align	2
  42              	.LC5:
  43 0028 51436F6E 		.ascii	"QConsB6\000"
  43      73423600 
  44              		.section	.text.vStartBlockingQueueTasks,"ax",%progbits
  45              		.align	2
  46              		.global	vStartBlockingQueueTasks
  47              		.thumb
  48              		.thumb_func
  49              		.type	vStartBlockingQueueTasks, %function
ARM GAS  C:\Users\bmt\AppData\Local\Temp\ccDxMJSM.s 			page 2


  50              	vStartBlockingQueueTasks:
  51              	.LFB68:
  52              		.file 1 "..\\Common\\Minimal\\BlockQ.c"
   1:..\Common\Minimal/BlockQ.c **** /*
   2:..\Common\Minimal/BlockQ.c ****     FreeRTOS V9.0.0 - Copyright (C) 2016 Real Time Engineers Ltd.
   3:..\Common\Minimal/BlockQ.c ****     All rights reserved
   4:..\Common\Minimal/BlockQ.c **** 
   5:..\Common\Minimal/BlockQ.c ****     VISIT http://www.FreeRTOS.org TO ENSURE YOU ARE USING THE LATEST VERSION.
   6:..\Common\Minimal/BlockQ.c **** 
   7:..\Common\Minimal/BlockQ.c ****     This file is part of the FreeRTOS distribution.
   8:..\Common\Minimal/BlockQ.c **** 
   9:..\Common\Minimal/BlockQ.c ****     FreeRTOS is free software; you can redistribute it and/or modify it under
  10:..\Common\Minimal/BlockQ.c ****     the terms of the GNU General Public License (version 2) as published by the
  11:..\Common\Minimal/BlockQ.c ****     Free Software Foundation >>>> AND MODIFIED BY <<<< the FreeRTOS exception.
  12:..\Common\Minimal/BlockQ.c **** 
  13:..\Common\Minimal/BlockQ.c ****     ***************************************************************************
  14:..\Common\Minimal/BlockQ.c ****     >>!   NOTE: The modification to the GPL is included to allow you to     !<<
  15:..\Common\Minimal/BlockQ.c ****     >>!   distribute a combined work that includes FreeRTOS without being   !<<
  16:..\Common\Minimal/BlockQ.c ****     >>!   obliged to provide the source code for proprietary components     !<<
  17:..\Common\Minimal/BlockQ.c ****     >>!   outside of the FreeRTOS kernel.                                   !<<
  18:..\Common\Minimal/BlockQ.c ****     ***************************************************************************
  19:..\Common\Minimal/BlockQ.c **** 
  20:..\Common\Minimal/BlockQ.c ****     FreeRTOS is distributed in the hope that it will be useful, but WITHOUT ANY
  21:..\Common\Minimal/BlockQ.c ****     WARRANTY; without even the implied warranty of MERCHANTABILITY or FITNESS
  22:..\Common\Minimal/BlockQ.c ****     FOR A PARTICULAR PURPOSE.  Full license text is available on the following
  23:..\Common\Minimal/BlockQ.c ****     link: http://www.freertos.org/a00114.html
  24:..\Common\Minimal/BlockQ.c **** 
  25:..\Common\Minimal/BlockQ.c ****     ***************************************************************************
  26:..\Common\Minimal/BlockQ.c ****      *                                                                       *
  27:..\Common\Minimal/BlockQ.c ****      *    FreeRTOS provides completely free yet professionally developed,    *
  28:..\Common\Minimal/BlockQ.c ****      *    robust, strictly quality controlled, supported, and cross          *
  29:..\Common\Minimal/BlockQ.c ****      *    platform software that is more than just the market leader, it     *
  30:..\Common\Minimal/BlockQ.c ****      *    is the industry's de facto standard.                               *
  31:..\Common\Minimal/BlockQ.c ****      *                                                                       *
  32:..\Common\Minimal/BlockQ.c ****      *    Help yourself get started quickly while simultaneously helping     *
  33:..\Common\Minimal/BlockQ.c ****      *    to support the FreeRTOS project by purchasing a FreeRTOS           *
  34:..\Common\Minimal/BlockQ.c ****      *    tutorial book, reference manual, or both:                          *
  35:..\Common\Minimal/BlockQ.c ****      *    http://www.FreeRTOS.org/Documentation                              *
  36:..\Common\Minimal/BlockQ.c ****      *                                                                       *
  37:..\Common\Minimal/BlockQ.c ****     ***************************************************************************
  38:..\Common\Minimal/BlockQ.c **** 
  39:..\Common\Minimal/BlockQ.c ****     http://www.FreeRTOS.org/FAQHelp.html - Having a problem?  Start by reading
  40:..\Common\Minimal/BlockQ.c ****     the FAQ page "My application does not run, what could be wrong?".  Have you
  41:..\Common\Minimal/BlockQ.c ****     defined configASSERT()?
  42:..\Common\Minimal/BlockQ.c **** 
  43:..\Common\Minimal/BlockQ.c ****     http://www.FreeRTOS.org/support - In return for receiving this top quality
  44:..\Common\Minimal/BlockQ.c ****     embedded software for free we request you assist our global community by
  45:..\Common\Minimal/BlockQ.c ****     participating in the support forum.
  46:..\Common\Minimal/BlockQ.c **** 
  47:..\Common\Minimal/BlockQ.c ****     http://www.FreeRTOS.org/training - Investing in training allows your team to
  48:..\Common\Minimal/BlockQ.c ****     be as productive as possible as early as possible.  Now you can receive
  49:..\Common\Minimal/BlockQ.c ****     FreeRTOS training directly from Richard Barry, CEO of Real Time Engineers
  50:..\Common\Minimal/BlockQ.c ****     Ltd, and the world's leading authority on the world's leading RTOS.
  51:..\Common\Minimal/BlockQ.c **** 
  52:..\Common\Minimal/BlockQ.c ****     http://www.FreeRTOS.org/plus - A selection of FreeRTOS ecosystem products,
  53:..\Common\Minimal/BlockQ.c ****     including FreeRTOS+Trace - an indispensable productivity tool, a DOS
  54:..\Common\Minimal/BlockQ.c ****     compatible FAT file system, and our tiny thread aware UDP/IP stack.
ARM GAS  C:\Users\bmt\AppData\Local\Temp\ccDxMJSM.s 			page 3


  55:..\Common\Minimal/BlockQ.c **** 
  56:..\Common\Minimal/BlockQ.c ****     http://www.FreeRTOS.org/labs - Where new FreeRTOS products go to incubate.
  57:..\Common\Minimal/BlockQ.c ****     Come and try FreeRTOS+TCP, our new open source TCP/IP stack for FreeRTOS.
  58:..\Common\Minimal/BlockQ.c **** 
  59:..\Common\Minimal/BlockQ.c ****     http://www.OpenRTOS.com - Real Time Engineers ltd. license FreeRTOS to High
  60:..\Common\Minimal/BlockQ.c ****     Integrity Systems ltd. to sell under the OpenRTOS brand.  Low cost OpenRTOS
  61:..\Common\Minimal/BlockQ.c ****     licenses offer ticketed support, indemnification and commercial middleware.
  62:..\Common\Minimal/BlockQ.c **** 
  63:..\Common\Minimal/BlockQ.c ****     http://www.SafeRTOS.com - High Integrity Systems also provide a safety
  64:..\Common\Minimal/BlockQ.c ****     engineered and independently SIL3 certified version for use in safety and
  65:..\Common\Minimal/BlockQ.c ****     mission critical applications that require provable dependability.
  66:..\Common\Minimal/BlockQ.c **** 
  67:..\Common\Minimal/BlockQ.c ****     1 tab == 4 spaces!
  68:..\Common\Minimal/BlockQ.c **** */
  69:..\Common\Minimal/BlockQ.c **** 
  70:..\Common\Minimal/BlockQ.c **** /*
  71:..\Common\Minimal/BlockQ.c ****  * Creates six tasks that operate on three queues as follows:
  72:..\Common\Minimal/BlockQ.c ****  *
  73:..\Common\Minimal/BlockQ.c ****  * The first two tasks send and receive an incrementing number to/from a queue.
  74:..\Common\Minimal/BlockQ.c ****  * One task acts as a producer and the other as the consumer.  The consumer is a
  75:..\Common\Minimal/BlockQ.c ****  * higher priority than the producer and is set to block on queue reads.  The queue
  76:..\Common\Minimal/BlockQ.c ****  * only has space for one item - as soon as the producer posts a message on the
  77:..\Common\Minimal/BlockQ.c ****  * queue the consumer will unblock, pre-empt the producer, and remove the item.
  78:..\Common\Minimal/BlockQ.c ****  *
  79:..\Common\Minimal/BlockQ.c ****  * The second two tasks work the other way around.  Again the queue used only has
  80:..\Common\Minimal/BlockQ.c ****  * enough space for one item.  This time the consumer has a lower priority than the
  81:..\Common\Minimal/BlockQ.c ****  * producer.  The producer will try to post on the queue blocking when the queue is
  82:..\Common\Minimal/BlockQ.c ****  * full.  When the consumer wakes it will remove the item from the queue, causing
  83:..\Common\Minimal/BlockQ.c ****  * the producer to unblock, pre-empt the consumer, and immediately re-fill the
  84:..\Common\Minimal/BlockQ.c ****  * queue.
  85:..\Common\Minimal/BlockQ.c ****  *
  86:..\Common\Minimal/BlockQ.c ****  * The last two tasks use the same queue producer and consumer functions.  This time the queue has
  87:..\Common\Minimal/BlockQ.c ****  * enough space for lots of items and the tasks operate at the same priority.  The
  88:..\Common\Minimal/BlockQ.c ****  * producer will execute, placing items into the queue.  The consumer will start
  89:..\Common\Minimal/BlockQ.c ****  * executing when either the queue becomes full (causing the producer to block) or
  90:..\Common\Minimal/BlockQ.c ****  * a context switch occurs (tasks of the same priority will time slice).
  91:..\Common\Minimal/BlockQ.c ****  *
  92:..\Common\Minimal/BlockQ.c ****  */
  93:..\Common\Minimal/BlockQ.c **** 
  94:..\Common\Minimal/BlockQ.c **** #include <stdlib.h>
  95:..\Common\Minimal/BlockQ.c **** 
  96:..\Common\Minimal/BlockQ.c **** /* Scheduler include files. */
  97:..\Common\Minimal/BlockQ.c **** #include "FreeRTOS.h"
  98:..\Common\Minimal/BlockQ.c **** #include "task.h"
  99:..\Common\Minimal/BlockQ.c **** #include "queue.h"
 100:..\Common\Minimal/BlockQ.c **** 
 101:..\Common\Minimal/BlockQ.c **** /* Demo program include files. */
 102:..\Common\Minimal/BlockQ.c **** #include "BlockQ.h"
 103:..\Common\Minimal/BlockQ.c **** 
 104:..\Common\Minimal/BlockQ.c **** #define blckqSTACK_SIZE		configMINIMAL_STACK_SIZE
 105:..\Common\Minimal/BlockQ.c **** #define blckqNUM_TASK_SETS	( 3 )
 106:..\Common\Minimal/BlockQ.c **** 
 107:..\Common\Minimal/BlockQ.c **** #if( configSUPPORT_DYNAMIC_ALLOCATION == 0 )
 108:..\Common\Minimal/BlockQ.c **** 	#error This example cannot be used if dynamic allocation is not allowed.
 109:..\Common\Minimal/BlockQ.c **** #endif
 110:..\Common\Minimal/BlockQ.c **** 
 111:..\Common\Minimal/BlockQ.c **** /* Structure used to pass parameters to the blocking queue tasks. */
ARM GAS  C:\Users\bmt\AppData\Local\Temp\ccDxMJSM.s 			page 4


 112:..\Common\Minimal/BlockQ.c **** typedef struct BLOCKING_QUEUE_PARAMETERS
 113:..\Common\Minimal/BlockQ.c **** {
 114:..\Common\Minimal/BlockQ.c **** 	QueueHandle_t xQueue;					/*< The queue to be used by the task. */
 115:..\Common\Minimal/BlockQ.c **** 	TickType_t xBlockTime;				/*< The block time to use on queue reads/writes. */
 116:..\Common\Minimal/BlockQ.c **** 	volatile short *psCheckVariable;	/*< Incremented on each successful cycle to check the task is sti
 117:..\Common\Minimal/BlockQ.c **** } xBlockingQueueParameters;
 118:..\Common\Minimal/BlockQ.c **** 
 119:..\Common\Minimal/BlockQ.c **** /* Task function that creates an incrementing number and posts it on a queue. */
 120:..\Common\Minimal/BlockQ.c **** static portTASK_FUNCTION_PROTO( vBlockingQueueProducer, pvParameters );
 121:..\Common\Minimal/BlockQ.c **** 
 122:..\Common\Minimal/BlockQ.c **** /* Task function that removes the incrementing number from a queue and checks that
 123:..\Common\Minimal/BlockQ.c **** it is the expected number. */
 124:..\Common\Minimal/BlockQ.c **** static portTASK_FUNCTION_PROTO( vBlockingQueueConsumer, pvParameters );
 125:..\Common\Minimal/BlockQ.c **** 
 126:..\Common\Minimal/BlockQ.c **** /* Variables which are incremented each time an item is removed from a queue, and
 127:..\Common\Minimal/BlockQ.c **** found to be the expected value.
 128:..\Common\Minimal/BlockQ.c **** These are used to check that the tasks are still running. */
 129:..\Common\Minimal/BlockQ.c **** static volatile short sBlockingConsumerCount[ blckqNUM_TASK_SETS ] = { ( uint16_t ) 0, ( uint16_t )
 130:..\Common\Minimal/BlockQ.c **** 
 131:..\Common\Minimal/BlockQ.c **** /* Variable which are incremented each time an item is posted on a queue.   These
 132:..\Common\Minimal/BlockQ.c **** are used to check that the tasks are still running. */
 133:..\Common\Minimal/BlockQ.c **** static volatile short sBlockingProducerCount[ blckqNUM_TASK_SETS ] = { ( uint16_t ) 0, ( uint16_t )
 134:..\Common\Minimal/BlockQ.c **** 
 135:..\Common\Minimal/BlockQ.c **** /*-----------------------------------------------------------*/
 136:..\Common\Minimal/BlockQ.c **** 
 137:..\Common\Minimal/BlockQ.c **** void vStartBlockingQueueTasks( UBaseType_t uxPriority )
 138:..\Common\Minimal/BlockQ.c **** {
  53              		.loc 1 138 0
  54              		.cfi_startproc
  55              		@ args = 0, pretend = 0, frame = 48
  56              		@ frame_needed = 1, uses_anonymous_args = 0
  57 0000 80B5     		push	{r7, lr}
  58              		.cfi_def_cfa_offset 8
  59              		.cfi_offset 7, -8
  60              		.cfi_offset 14, -4
  61 0002 8EB0     		sub	sp, sp, #56
  62              		.cfi_def_cfa_offset 64
  63 0004 02AF     		add	r7, sp, #8
  64              		.cfi_def_cfa 7, 56
  65 0006 7860     		str	r0, [r7, #4]
 139:..\Common\Minimal/BlockQ.c **** xBlockingQueueParameters *pxQueueParameters1, *pxQueueParameters2;
 140:..\Common\Minimal/BlockQ.c **** xBlockingQueueParameters *pxQueueParameters3, *pxQueueParameters4;
 141:..\Common\Minimal/BlockQ.c **** xBlockingQueueParameters *pxQueueParameters5, *pxQueueParameters6;
 142:..\Common\Minimal/BlockQ.c **** const UBaseType_t uxQueueSize1 = 1, uxQueueSize5 = 5;
  66              		.loc 1 142 0
  67 0008 0123     		movs	r3, #1
  68 000a FB62     		str	r3, [r7, #44]
  69 000c 0523     		movs	r3, #5
  70 000e BB62     		str	r3, [r7, #40]
 143:..\Common\Minimal/BlockQ.c **** const TickType_t xBlockTime = pdMS_TO_TICKS( ( TickType_t ) 1000 );
  71              		.loc 1 143 0
  72 0010 4FF47A73 		mov	r3, #1000
  73 0014 7B62     		str	r3, [r7, #36]
 144:..\Common\Minimal/BlockQ.c **** const TickType_t xDontBlock = ( TickType_t ) 0;
  74              		.loc 1 144 0
  75 0016 0023     		movs	r3, #0
  76 0018 3B62     		str	r3, [r7, #32]
ARM GAS  C:\Users\bmt\AppData\Local\Temp\ccDxMJSM.s 			page 5


 145:..\Common\Minimal/BlockQ.c **** 
 146:..\Common\Minimal/BlockQ.c **** 	/* Create the first two tasks as described at the top of the file. */
 147:..\Common\Minimal/BlockQ.c **** 
 148:..\Common\Minimal/BlockQ.c **** 	/* First create the structure used to pass parameters to the consumer tasks. */
 149:..\Common\Minimal/BlockQ.c **** 	pxQueueParameters1 = ( xBlockingQueueParameters * ) pvPortMalloc( sizeof( xBlockingQueueParameters
  77              		.loc 1 149 0
  78 001a 0C20     		movs	r0, #12
  79 001c FFF7FEFF 		bl	pvPortMalloc
  80 0020 F861     		str	r0, [r7, #28]
 150:..\Common\Minimal/BlockQ.c **** 
 151:..\Common\Minimal/BlockQ.c **** 	/* Create the queue used by the first two tasks to pass the incrementing number.
 152:..\Common\Minimal/BlockQ.c **** 	Pass a pointer to the queue in the parameter structure. */
 153:..\Common\Minimal/BlockQ.c **** 	pxQueueParameters1->xQueue = xQueueCreate( uxQueueSize1, ( UBaseType_t ) sizeof( uint16_t ) );
  81              		.loc 1 153 0
  82 0022 F86A     		ldr	r0, [r7, #44]
  83 0024 0221     		movs	r1, #2
  84 0026 0022     		movs	r2, #0
  85 0028 FFF7FEFF 		bl	xQueueGenericCreate
  86 002c 0246     		mov	r2, r0
  87 002e FB69     		ldr	r3, [r7, #28]
  88 0030 1A60     		str	r2, [r3]
 154:..\Common\Minimal/BlockQ.c **** 
 155:..\Common\Minimal/BlockQ.c **** 	/* The consumer is created first so gets a block time as described above. */
 156:..\Common\Minimal/BlockQ.c **** 	pxQueueParameters1->xBlockTime = xBlockTime;
  89              		.loc 1 156 0
  90 0032 FB69     		ldr	r3, [r7, #28]
  91 0034 7A6A     		ldr	r2, [r7, #36]
  92 0036 5A60     		str	r2, [r3, #4]
 157:..\Common\Minimal/BlockQ.c **** 
 158:..\Common\Minimal/BlockQ.c **** 	/* Pass in the variable that this task is going to increment so we can check it
 159:..\Common\Minimal/BlockQ.c **** 	is still running. */
 160:..\Common\Minimal/BlockQ.c **** 	pxQueueParameters1->psCheckVariable = &( sBlockingConsumerCount[ 0 ] );
  93              		.loc 1 160 0
  94 0038 FB69     		ldr	r3, [r7, #28]
  95 003a 474A     		ldr	r2, .L2
  96 003c 9A60     		str	r2, [r3, #8]
 161:..\Common\Minimal/BlockQ.c **** 
 162:..\Common\Minimal/BlockQ.c **** 	/* Create the structure used to pass parameters to the producer task. */
 163:..\Common\Minimal/BlockQ.c **** 	pxQueueParameters2 = ( xBlockingQueueParameters * ) pvPortMalloc( sizeof( xBlockingQueueParameters
  97              		.loc 1 163 0
  98 003e 0C20     		movs	r0, #12
  99 0040 FFF7FEFF 		bl	pvPortMalloc
 100 0044 B861     		str	r0, [r7, #24]
 164:..\Common\Minimal/BlockQ.c **** 
 165:..\Common\Minimal/BlockQ.c **** 	/* Pass the queue to this task also, using the parameter structure. */
 166:..\Common\Minimal/BlockQ.c **** 	pxQueueParameters2->xQueue = pxQueueParameters1->xQueue;
 101              		.loc 1 166 0
 102 0046 FB69     		ldr	r3, [r7, #28]
 103 0048 1A68     		ldr	r2, [r3]
 104 004a BB69     		ldr	r3, [r7, #24]
 105 004c 1A60     		str	r2, [r3]
 167:..\Common\Minimal/BlockQ.c **** 
 168:..\Common\Minimal/BlockQ.c **** 	/* The producer is not going to block - as soon as it posts the consumer will
 169:..\Common\Minimal/BlockQ.c **** 	wake and remove the item so the producer should always have room to post. */
 170:..\Common\Minimal/BlockQ.c **** 	pxQueueParameters2->xBlockTime = xDontBlock;
 106              		.loc 1 170 0
 107 004e BB69     		ldr	r3, [r7, #24]
ARM GAS  C:\Users\bmt\AppData\Local\Temp\ccDxMJSM.s 			page 6


 108 0050 3A6A     		ldr	r2, [r7, #32]
 109 0052 5A60     		str	r2, [r3, #4]
 171:..\Common\Minimal/BlockQ.c **** 
 172:..\Common\Minimal/BlockQ.c **** 	/* Pass in the variable that this task is going to increment so we can check
 173:..\Common\Minimal/BlockQ.c **** 	it is still running. */
 174:..\Common\Minimal/BlockQ.c **** 	pxQueueParameters2->psCheckVariable = &( sBlockingProducerCount[ 0 ] );
 110              		.loc 1 174 0
 111 0054 BB69     		ldr	r3, [r7, #24]
 112 0056 414A     		ldr	r2, .L2+4
 113 0058 9A60     		str	r2, [r3, #8]
 175:..\Common\Minimal/BlockQ.c **** 
 176:..\Common\Minimal/BlockQ.c **** 
 177:..\Common\Minimal/BlockQ.c **** 	/* Note the producer has a lower priority than the consumer when the tasks are
 178:..\Common\Minimal/BlockQ.c **** 	spawned. */
 179:..\Common\Minimal/BlockQ.c **** 	xTaskCreate( vBlockingQueueConsumer, "QConsB1", blckqSTACK_SIZE, ( void * ) pxQueueParameters1, ux
 114              		.loc 1 179 0
 115 005a 7B68     		ldr	r3, [r7, #4]
 116 005c 0093     		str	r3, [sp]
 117 005e 0023     		movs	r3, #0
 118 0060 0193     		str	r3, [sp, #4]
 119 0062 3F48     		ldr	r0, .L2+8
 120 0064 3F49     		ldr	r1, .L2+12
 121 0066 6422     		movs	r2, #100
 122 0068 FB69     		ldr	r3, [r7, #28]
 123 006a FFF7FEFF 		bl	xTaskCreate
 180:..\Common\Minimal/BlockQ.c **** 	xTaskCreate( vBlockingQueueProducer, "QProdB2", blckqSTACK_SIZE, ( void * ) pxQueueParameters2, ts
 124              		.loc 1 180 0
 125 006e 0023     		movs	r3, #0
 126 0070 0093     		str	r3, [sp]
 127 0072 0023     		movs	r3, #0
 128 0074 0193     		str	r3, [sp, #4]
 129 0076 3C48     		ldr	r0, .L2+16
 130 0078 3C49     		ldr	r1, .L2+20
 131 007a 6422     		movs	r2, #100
 132 007c BB69     		ldr	r3, [r7, #24]
 133 007e FFF7FEFF 		bl	xTaskCreate
 181:..\Common\Minimal/BlockQ.c **** 
 182:..\Common\Minimal/BlockQ.c **** 
 183:..\Common\Minimal/BlockQ.c **** 
 184:..\Common\Minimal/BlockQ.c **** 	/* Create the second two tasks as described at the top of the file.   This uses
 185:..\Common\Minimal/BlockQ.c **** 	the same mechanism but reverses the task priorities. */
 186:..\Common\Minimal/BlockQ.c **** 
 187:..\Common\Minimal/BlockQ.c **** 	pxQueueParameters3 = ( xBlockingQueueParameters * ) pvPortMalloc( sizeof( xBlockingQueueParameters
 134              		.loc 1 187 0
 135 0082 0C20     		movs	r0, #12
 136 0084 FFF7FEFF 		bl	pvPortMalloc
 137 0088 7861     		str	r0, [r7, #20]
 188:..\Common\Minimal/BlockQ.c **** 	pxQueueParameters3->xQueue = xQueueCreate( uxQueueSize1, ( UBaseType_t ) sizeof( uint16_t ) );
 138              		.loc 1 188 0
 139 008a F86A     		ldr	r0, [r7, #44]
 140 008c 0221     		movs	r1, #2
 141 008e 0022     		movs	r2, #0
 142 0090 FFF7FEFF 		bl	xQueueGenericCreate
 143 0094 0246     		mov	r2, r0
 144 0096 7B69     		ldr	r3, [r7, #20]
 145 0098 1A60     		str	r2, [r3]
 189:..\Common\Minimal/BlockQ.c **** 	pxQueueParameters3->xBlockTime = xDontBlock;
ARM GAS  C:\Users\bmt\AppData\Local\Temp\ccDxMJSM.s 			page 7


 146              		.loc 1 189 0
 147 009a 7B69     		ldr	r3, [r7, #20]
 148 009c 3A6A     		ldr	r2, [r7, #32]
 149 009e 5A60     		str	r2, [r3, #4]
 190:..\Common\Minimal/BlockQ.c **** 	pxQueueParameters3->psCheckVariable = &( sBlockingProducerCount[ 1 ] );
 150              		.loc 1 190 0
 151 00a0 7B69     		ldr	r3, [r7, #20]
 152 00a2 334A     		ldr	r2, .L2+24
 153 00a4 9A60     		str	r2, [r3, #8]
 191:..\Common\Minimal/BlockQ.c **** 
 192:..\Common\Minimal/BlockQ.c **** 	pxQueueParameters4 = ( xBlockingQueueParameters * ) pvPortMalloc( sizeof( xBlockingQueueParameters
 154              		.loc 1 192 0
 155 00a6 0C20     		movs	r0, #12
 156 00a8 FFF7FEFF 		bl	pvPortMalloc
 157 00ac 3861     		str	r0, [r7, #16]
 193:..\Common\Minimal/BlockQ.c **** 	pxQueueParameters4->xQueue = pxQueueParameters3->xQueue;
 158              		.loc 1 193 0
 159 00ae 7B69     		ldr	r3, [r7, #20]
 160 00b0 1A68     		ldr	r2, [r3]
 161 00b2 3B69     		ldr	r3, [r7, #16]
 162 00b4 1A60     		str	r2, [r3]
 194:..\Common\Minimal/BlockQ.c **** 	pxQueueParameters4->xBlockTime = xBlockTime;
 163              		.loc 1 194 0
 164 00b6 3B69     		ldr	r3, [r7, #16]
 165 00b8 7A6A     		ldr	r2, [r7, #36]
 166 00ba 5A60     		str	r2, [r3, #4]
 195:..\Common\Minimal/BlockQ.c **** 	pxQueueParameters4->psCheckVariable = &( sBlockingConsumerCount[ 1 ] );
 167              		.loc 1 195 0
 168 00bc 3B69     		ldr	r3, [r7, #16]
 169 00be 2D4A     		ldr	r2, .L2+28
 170 00c0 9A60     		str	r2, [r3, #8]
 196:..\Common\Minimal/BlockQ.c **** 
 197:..\Common\Minimal/BlockQ.c **** 	xTaskCreate( vBlockingQueueConsumer, "QConsB3", blckqSTACK_SIZE, ( void * ) pxQueueParameters3, ts
 171              		.loc 1 197 0
 172 00c2 0023     		movs	r3, #0
 173 00c4 0093     		str	r3, [sp]
 174 00c6 0023     		movs	r3, #0
 175 00c8 0193     		str	r3, [sp, #4]
 176 00ca 2548     		ldr	r0, .L2+8
 177 00cc 2A49     		ldr	r1, .L2+32
 178 00ce 6422     		movs	r2, #100
 179 00d0 7B69     		ldr	r3, [r7, #20]
 180 00d2 FFF7FEFF 		bl	xTaskCreate
 198:..\Common\Minimal/BlockQ.c **** 	xTaskCreate( vBlockingQueueProducer, "QProdB4", blckqSTACK_SIZE, ( void * ) pxQueueParameters4, ux
 181              		.loc 1 198 0
 182 00d6 7B68     		ldr	r3, [r7, #4]
 183 00d8 0093     		str	r3, [sp]
 184 00da 0023     		movs	r3, #0
 185 00dc 0193     		str	r3, [sp, #4]
 186 00de 2248     		ldr	r0, .L2+16
 187 00e0 2649     		ldr	r1, .L2+36
 188 00e2 6422     		movs	r2, #100
 189 00e4 3B69     		ldr	r3, [r7, #16]
 190 00e6 FFF7FEFF 		bl	xTaskCreate
 199:..\Common\Minimal/BlockQ.c **** 
 200:..\Common\Minimal/BlockQ.c **** 
 201:..\Common\Minimal/BlockQ.c **** 
ARM GAS  C:\Users\bmt\AppData\Local\Temp\ccDxMJSM.s 			page 8


 202:..\Common\Minimal/BlockQ.c **** 	/* Create the last two tasks as described above.  The mechanism is again just
 203:..\Common\Minimal/BlockQ.c **** 	the same.  This time both parameter structures are given a block time. */
 204:..\Common\Minimal/BlockQ.c **** 	pxQueueParameters5 = ( xBlockingQueueParameters * ) pvPortMalloc( sizeof( xBlockingQueueParameters
 191              		.loc 1 204 0
 192 00ea 0C20     		movs	r0, #12
 193 00ec FFF7FEFF 		bl	pvPortMalloc
 194 00f0 F860     		str	r0, [r7, #12]
 205:..\Common\Minimal/BlockQ.c **** 	pxQueueParameters5->xQueue = xQueueCreate( uxQueueSize5, ( UBaseType_t ) sizeof( uint16_t ) );
 195              		.loc 1 205 0
 196 00f2 B86A     		ldr	r0, [r7, #40]
 197 00f4 0221     		movs	r1, #2
 198 00f6 0022     		movs	r2, #0
 199 00f8 FFF7FEFF 		bl	xQueueGenericCreate
 200 00fc 0246     		mov	r2, r0
 201 00fe FB68     		ldr	r3, [r7, #12]
 202 0100 1A60     		str	r2, [r3]
 206:..\Common\Minimal/BlockQ.c **** 	pxQueueParameters5->xBlockTime = xBlockTime;
 203              		.loc 1 206 0
 204 0102 FB68     		ldr	r3, [r7, #12]
 205 0104 7A6A     		ldr	r2, [r7, #36]
 206 0106 5A60     		str	r2, [r3, #4]
 207:..\Common\Minimal/BlockQ.c **** 	pxQueueParameters5->psCheckVariable = &( sBlockingProducerCount[ 2 ] );
 207              		.loc 1 207 0
 208 0108 FB68     		ldr	r3, [r7, #12]
 209 010a 1D4A     		ldr	r2, .L2+40
 210 010c 9A60     		str	r2, [r3, #8]
 208:..\Common\Minimal/BlockQ.c **** 
 209:..\Common\Minimal/BlockQ.c **** 	pxQueueParameters6 = ( xBlockingQueueParameters * ) pvPortMalloc( sizeof( xBlockingQueueParameters
 211              		.loc 1 209 0
 212 010e 0C20     		movs	r0, #12
 213 0110 FFF7FEFF 		bl	pvPortMalloc
 214 0114 B860     		str	r0, [r7, #8]
 210:..\Common\Minimal/BlockQ.c **** 	pxQueueParameters6->xQueue = pxQueueParameters5->xQueue;
 215              		.loc 1 210 0
 216 0116 FB68     		ldr	r3, [r7, #12]
 217 0118 1A68     		ldr	r2, [r3]
 218 011a BB68     		ldr	r3, [r7, #8]
 219 011c 1A60     		str	r2, [r3]
 211:..\Common\Minimal/BlockQ.c **** 	pxQueueParameters6->xBlockTime = xBlockTime;
 220              		.loc 1 211 0
 221 011e BB68     		ldr	r3, [r7, #8]
 222 0120 7A6A     		ldr	r2, [r7, #36]
 223 0122 5A60     		str	r2, [r3, #4]
 212:..\Common\Minimal/BlockQ.c **** 	pxQueueParameters6->psCheckVariable = &( sBlockingConsumerCount[ 2 ] );
 224              		.loc 1 212 0
 225 0124 BB68     		ldr	r3, [r7, #8]
 226 0126 174A     		ldr	r2, .L2+44
 227 0128 9A60     		str	r2, [r3, #8]
 213:..\Common\Minimal/BlockQ.c **** 
 214:..\Common\Minimal/BlockQ.c **** 	xTaskCreate( vBlockingQueueProducer, "QProdB5", blckqSTACK_SIZE, ( void * ) pxQueueParameters5, ts
 228              		.loc 1 214 0
 229 012a 0023     		movs	r3, #0
 230 012c 0093     		str	r3, [sp]
 231 012e 0023     		movs	r3, #0
 232 0130 0193     		str	r3, [sp, #4]
 233 0132 0D48     		ldr	r0, .L2+16
 234 0134 1449     		ldr	r1, .L2+48
ARM GAS  C:\Users\bmt\AppData\Local\Temp\ccDxMJSM.s 			page 9


 235 0136 6422     		movs	r2, #100
 236 0138 FB68     		ldr	r3, [r7, #12]
 237 013a FFF7FEFF 		bl	xTaskCreate
 215:..\Common\Minimal/BlockQ.c **** 	xTaskCreate( vBlockingQueueConsumer, "QConsB6", blckqSTACK_SIZE, ( void * ) pxQueueParameters6, ts
 238              		.loc 1 215 0
 239 013e 0023     		movs	r3, #0
 240 0140 0093     		str	r3, [sp]
 241 0142 0023     		movs	r3, #0
 242 0144 0193     		str	r3, [sp, #4]
 243 0146 0648     		ldr	r0, .L2+8
 244 0148 1049     		ldr	r1, .L2+52
 245 014a 6422     		movs	r2, #100
 246 014c BB68     		ldr	r3, [r7, #8]
 247 014e FFF7FEFF 		bl	xTaskCreate
 216:..\Common\Minimal/BlockQ.c **** }
 248              		.loc 1 216 0
 249 0152 3037     		adds	r7, r7, #48
 250              		.cfi_def_cfa_offset 8
 251 0154 BD46     		mov	sp, r7
 252              		.cfi_def_cfa_register 13
 253              		@ sp needed
 254 0156 80BD     		pop	{r7, pc}
 255              	.L3:
 256              		.align	2
 257              	.L2:
 258 0158 00000000 		.word	sBlockingConsumerCount
 259 015c 08000000 		.word	sBlockingProducerCount
 260 0160 00000000 		.word	vBlockingQueueConsumer
 261 0164 00000000 		.word	.LC0
 262 0168 00000000 		.word	vBlockingQueueProducer
 263 016c 08000000 		.word	.LC1
 264 0170 0A000000 		.word	sBlockingProducerCount+2
 265 0174 02000000 		.word	sBlockingConsumerCount+2
 266 0178 10000000 		.word	.LC2
 267 017c 18000000 		.word	.LC3
 268 0180 0C000000 		.word	sBlockingProducerCount+4
 269 0184 04000000 		.word	sBlockingConsumerCount+4
 270 0188 20000000 		.word	.LC4
 271 018c 28000000 		.word	.LC5
 272              		.cfi_endproc
 273              	.LFE68:
 274              		.size	vStartBlockingQueueTasks, .-vStartBlockingQueueTasks
 275              		.section	.text.vBlockingQueueProducer,"ax",%progbits
 276              		.align	2
 277              		.thumb
 278              		.thumb_func
 279              		.type	vBlockingQueueProducer, %function
 280              	vBlockingQueueProducer:
 281              	.LFB69:
 217:..\Common\Minimal/BlockQ.c **** /*-----------------------------------------------------------*/
 218:..\Common\Minimal/BlockQ.c **** 
 219:..\Common\Minimal/BlockQ.c **** static portTASK_FUNCTION( vBlockingQueueProducer, pvParameters )
 220:..\Common\Minimal/BlockQ.c **** {
 282              		.loc 1 220 0
 283              		.cfi_startproc
 284              		@ args = 0, pretend = 0, frame = 24
 285              		@ frame_needed = 1, uses_anonymous_args = 0
ARM GAS  C:\Users\bmt\AppData\Local\Temp\ccDxMJSM.s 			page 10


 286 0000 80B5     		push	{r7, lr}
 287              		.cfi_def_cfa_offset 8
 288              		.cfi_offset 7, -8
 289              		.cfi_offset 14, -4
 290 0002 86B0     		sub	sp, sp, #24
 291              		.cfi_def_cfa_offset 32
 292 0004 00AF     		add	r7, sp, #0
 293              		.cfi_def_cfa_register 7
 294 0006 7860     		str	r0, [r7, #4]
 221:..\Common\Minimal/BlockQ.c **** uint16_t usValue = 0;
 295              		.loc 1 221 0
 296 0008 0023     		movs	r3, #0
 297 000a FB81     		strh	r3, [r7, #14]	@ movhi
 222:..\Common\Minimal/BlockQ.c **** xBlockingQueueParameters *pxQueueParameters;
 223:..\Common\Minimal/BlockQ.c **** short sErrorEverOccurred = pdFALSE;
 298              		.loc 1 223 0
 299 000c 0023     		movs	r3, #0
 300 000e FB82     		strh	r3, [r7, #22]	@ movhi
 224:..\Common\Minimal/BlockQ.c **** 
 225:..\Common\Minimal/BlockQ.c **** 	pxQueueParameters = ( xBlockingQueueParameters * ) pvParameters;
 301              		.loc 1 225 0
 302 0010 7B68     		ldr	r3, [r7, #4]
 303 0012 3B61     		str	r3, [r7, #16]
 304              	.L8:
 226:..\Common\Minimal/BlockQ.c **** 
 227:..\Common\Minimal/BlockQ.c **** 	for( ;; )
 228:..\Common\Minimal/BlockQ.c **** 	{
 229:..\Common\Minimal/BlockQ.c **** 		if( xQueueSend( pxQueueParameters->xQueue, ( void * ) &usValue, pxQueueParameters->xBlockTime ) !
 305              		.loc 1 229 0
 306 0014 3B69     		ldr	r3, [r7, #16]
 307 0016 1968     		ldr	r1, [r3]
 308 0018 3B69     		ldr	r3, [r7, #16]
 309 001a 5B68     		ldr	r3, [r3, #4]
 310 001c 07F10E02 		add	r2, r7, #14
 311 0020 0846     		mov	r0, r1
 312 0022 1146     		mov	r1, r2
 313 0024 1A46     		mov	r2, r3
 314 0026 0023     		movs	r3, #0
 315 0028 FFF7FEFF 		bl	xQueueGenericSend
 316 002c 0346     		mov	r3, r0
 317 002e 012B     		cmp	r3, #1
 318 0030 02D0     		beq	.L5
 230:..\Common\Minimal/BlockQ.c **** 		{
 231:..\Common\Minimal/BlockQ.c **** 			sErrorEverOccurred = pdTRUE;
 319              		.loc 1 231 0
 320 0032 0123     		movs	r3, #1
 321 0034 FB82     		strh	r3, [r7, #22]	@ movhi
 322 0036 11E0     		b	.L6
 323              	.L5:
 232:..\Common\Minimal/BlockQ.c **** 		}
 233:..\Common\Minimal/BlockQ.c **** 		else
 234:..\Common\Minimal/BlockQ.c **** 		{
 235:..\Common\Minimal/BlockQ.c **** 			/* We have successfully posted a message, so increment the variable
 236:..\Common\Minimal/BlockQ.c **** 			used to check we are still running. */
 237:..\Common\Minimal/BlockQ.c **** 			if( sErrorEverOccurred == pdFALSE )
 324              		.loc 1 237 0
 325 0038 B7F91630 		ldrsh	r3, [r7, #22]
ARM GAS  C:\Users\bmt\AppData\Local\Temp\ccDxMJSM.s 			page 11


 326 003c 002B     		cmp	r3, #0
 327 003e 09D1     		bne	.L7
 238:..\Common\Minimal/BlockQ.c **** 			{
 239:..\Common\Minimal/BlockQ.c **** 				( *pxQueueParameters->psCheckVariable )++;
 328              		.loc 1 239 0
 329 0040 3B69     		ldr	r3, [r7, #16]
 330 0042 9A68     		ldr	r2, [r3, #8]
 331 0044 1388     		ldrh	r3, [r2]	@ movhi
 332 0046 9BB2     		uxth	r3, r3
 333 0048 9BB2     		uxth	r3, r3
 334 004a 9BB2     		uxth	r3, r3
 335 004c 0133     		adds	r3, r3, #1
 336 004e 9BB2     		uxth	r3, r3
 337 0050 9BB2     		uxth	r3, r3
 338 0052 1380     		strh	r3, [r2]	@ movhi
 339              	.L7:
 240:..\Common\Minimal/BlockQ.c **** 			}
 241:..\Common\Minimal/BlockQ.c **** 
 242:..\Common\Minimal/BlockQ.c **** 			/* Increment the variable we are going to post next time round.  The
 243:..\Common\Minimal/BlockQ.c **** 			consumer will expect the numbers to	follow in numerical order. */
 244:..\Common\Minimal/BlockQ.c **** 			++usValue;
 340              		.loc 1 244 0
 341 0054 FB89     		ldrh	r3, [r7, #14]
 342 0056 0133     		adds	r3, r3, #1
 343 0058 9BB2     		uxth	r3, r3
 344 005a FB81     		strh	r3, [r7, #14]	@ movhi
 345              	.L6:
 245:..\Common\Minimal/BlockQ.c **** 
 246:..\Common\Minimal/BlockQ.c **** 			#if configUSE_PREEMPTION == 0
 247:..\Common\Minimal/BlockQ.c **** 				taskYIELD();
 248:..\Common\Minimal/BlockQ.c **** 			#endif
 249:..\Common\Minimal/BlockQ.c **** 		}
 250:..\Common\Minimal/BlockQ.c **** 	}
 346              		.loc 1 250 0
 347 005c DAE7     		b	.L8
 348              		.cfi_endproc
 349              	.LFE69:
 350              		.size	vBlockingQueueProducer, .-vBlockingQueueProducer
 351 005e 00BF     		.section	.text.vBlockingQueueConsumer,"ax",%progbits
 352              		.align	2
 353              		.thumb
 354              		.thumb_func
 355              		.type	vBlockingQueueConsumer, %function
 356              	vBlockingQueueConsumer:
 357              	.LFB70:
 251:..\Common\Minimal/BlockQ.c **** }
 252:..\Common\Minimal/BlockQ.c **** /*-----------------------------------------------------------*/
 253:..\Common\Minimal/BlockQ.c **** 
 254:..\Common\Minimal/BlockQ.c **** static portTASK_FUNCTION( vBlockingQueueConsumer, pvParameters )
 255:..\Common\Minimal/BlockQ.c **** {
 358              		.loc 1 255 0
 359              		.cfi_startproc
 360              		@ args = 0, pretend = 0, frame = 24
 361              		@ frame_needed = 1, uses_anonymous_args = 0
 362 0000 80B5     		push	{r7, lr}
 363              		.cfi_def_cfa_offset 8
 364              		.cfi_offset 7, -8
ARM GAS  C:\Users\bmt\AppData\Local\Temp\ccDxMJSM.s 			page 12


 365              		.cfi_offset 14, -4
 366 0002 86B0     		sub	sp, sp, #24
 367              		.cfi_def_cfa_offset 32
 368 0004 00AF     		add	r7, sp, #0
 369              		.cfi_def_cfa_register 7
 370 0006 7860     		str	r0, [r7, #4]
 256:..\Common\Minimal/BlockQ.c **** uint16_t usData, usExpectedValue = 0;
 371              		.loc 1 256 0
 372 0008 0023     		movs	r3, #0
 373 000a FB82     		strh	r3, [r7, #22]	@ movhi
 257:..\Common\Minimal/BlockQ.c **** xBlockingQueueParameters *pxQueueParameters;
 258:..\Common\Minimal/BlockQ.c **** short sErrorEverOccurred = pdFALSE;
 374              		.loc 1 258 0
 375 000c 0023     		movs	r3, #0
 376 000e BB82     		strh	r3, [r7, #20]	@ movhi
 259:..\Common\Minimal/BlockQ.c **** 
 260:..\Common\Minimal/BlockQ.c **** 	pxQueueParameters = ( xBlockingQueueParameters * ) pvParameters;
 377              		.loc 1 260 0
 378 0010 7B68     		ldr	r3, [r7, #4]
 379 0012 3B61     		str	r3, [r7, #16]
 380              	.L13:
 261:..\Common\Minimal/BlockQ.c **** 
 262:..\Common\Minimal/BlockQ.c **** 	for( ;; )
 263:..\Common\Minimal/BlockQ.c **** 	{
 264:..\Common\Minimal/BlockQ.c **** 		if( xQueueReceive( pxQueueParameters->xQueue, &usData, pxQueueParameters->xBlockTime ) == pdPASS 
 381              		.loc 1 264 0
 382 0014 3B69     		ldr	r3, [r7, #16]
 383 0016 1968     		ldr	r1, [r3]
 384 0018 3B69     		ldr	r3, [r7, #16]
 385 001a 5B68     		ldr	r3, [r3, #4]
 386 001c 07F10E02 		add	r2, r7, #14
 387 0020 0846     		mov	r0, r1
 388 0022 1146     		mov	r1, r2
 389 0024 1A46     		mov	r2, r3
 390 0026 0023     		movs	r3, #0
 391 0028 FFF7FEFF 		bl	xQueueGenericReceive
 392 002c 0346     		mov	r3, r0
 393 002e 012B     		cmp	r3, #1
 394 0030 19D1     		bne	.L10
 265:..\Common\Minimal/BlockQ.c **** 		{
 266:..\Common\Minimal/BlockQ.c **** 			if( usData != usExpectedValue )
 395              		.loc 1 266 0
 396 0032 FB89     		ldrh	r3, [r7, #14]
 397 0034 FA8A     		ldrh	r2, [r7, #22]
 398 0036 9A42     		cmp	r2, r3
 399 0038 04D0     		beq	.L11
 267:..\Common\Minimal/BlockQ.c **** 			{
 268:..\Common\Minimal/BlockQ.c **** 				/* Catch-up. */
 269:..\Common\Minimal/BlockQ.c **** 				usExpectedValue = usData;
 400              		.loc 1 269 0
 401 003a FB89     		ldrh	r3, [r7, #14]	@ movhi
 402 003c FB82     		strh	r3, [r7, #22]	@ movhi
 270:..\Common\Minimal/BlockQ.c **** 
 271:..\Common\Minimal/BlockQ.c **** 				sErrorEverOccurred = pdTRUE;
 403              		.loc 1 271 0
 404 003e 0123     		movs	r3, #1
 405 0040 BB82     		strh	r3, [r7, #20]	@ movhi
ARM GAS  C:\Users\bmt\AppData\Local\Temp\ccDxMJSM.s 			page 13


 406 0042 10E0     		b	.L10
 407              	.L11:
 272:..\Common\Minimal/BlockQ.c **** 			}
 273:..\Common\Minimal/BlockQ.c **** 			else
 274:..\Common\Minimal/BlockQ.c **** 			{
 275:..\Common\Minimal/BlockQ.c **** 				/* We have successfully received a message, so increment the
 276:..\Common\Minimal/BlockQ.c **** 				variable used to check we are still running. */
 277:..\Common\Minimal/BlockQ.c **** 				if( sErrorEverOccurred == pdFALSE )
 408              		.loc 1 277 0
 409 0044 B7F91430 		ldrsh	r3, [r7, #20]
 410 0048 002B     		cmp	r3, #0
 411 004a 09D1     		bne	.L12
 278:..\Common\Minimal/BlockQ.c **** 				{
 279:..\Common\Minimal/BlockQ.c **** 					( *pxQueueParameters->psCheckVariable )++;
 412              		.loc 1 279 0
 413 004c 3B69     		ldr	r3, [r7, #16]
 414 004e 9A68     		ldr	r2, [r3, #8]
 415 0050 1388     		ldrh	r3, [r2]	@ movhi
 416 0052 9BB2     		uxth	r3, r3
 417 0054 9BB2     		uxth	r3, r3
 418 0056 9BB2     		uxth	r3, r3
 419 0058 0133     		adds	r3, r3, #1
 420 005a 9BB2     		uxth	r3, r3
 421 005c 9BB2     		uxth	r3, r3
 422 005e 1380     		strh	r3, [r2]	@ movhi
 423              	.L12:
 280:..\Common\Minimal/BlockQ.c **** 				}
 281:..\Common\Minimal/BlockQ.c **** 
 282:..\Common\Minimal/BlockQ.c **** 				/* Increment the value we expect to remove from the queue next time
 283:..\Common\Minimal/BlockQ.c **** 				round. */
 284:..\Common\Minimal/BlockQ.c **** 				++usExpectedValue;
 424              		.loc 1 284 0
 425 0060 FB8A     		ldrh	r3, [r7, #22]	@ movhi
 426 0062 0133     		adds	r3, r3, #1
 427 0064 FB82     		strh	r3, [r7, #22]	@ movhi
 428              	.L10:
 285:..\Common\Minimal/BlockQ.c **** 			}
 286:..\Common\Minimal/BlockQ.c **** 
 287:..\Common\Minimal/BlockQ.c **** 			#if configUSE_PREEMPTION == 0
 288:..\Common\Minimal/BlockQ.c **** 			{
 289:..\Common\Minimal/BlockQ.c **** 				if( pxQueueParameters->xBlockTime == 0 )
 290:..\Common\Minimal/BlockQ.c **** 				{
 291:..\Common\Minimal/BlockQ.c **** 					taskYIELD();
 292:..\Common\Minimal/BlockQ.c **** 				}
 293:..\Common\Minimal/BlockQ.c **** 			}
 294:..\Common\Minimal/BlockQ.c **** 			#endif
 295:..\Common\Minimal/BlockQ.c **** 		}
 296:..\Common\Minimal/BlockQ.c **** 	}
 429              		.loc 1 296 0
 430 0066 D5E7     		b	.L13
 431              		.cfi_endproc
 432              	.LFE70:
 433              		.size	vBlockingQueueConsumer, .-vBlockingQueueConsumer
 434              		.section	.text.xAreBlockingQueuesStillRunning,"ax",%progbits
 435              		.align	2
 436              		.global	xAreBlockingQueuesStillRunning
 437              		.thumb
ARM GAS  C:\Users\bmt\AppData\Local\Temp\ccDxMJSM.s 			page 14


 438              		.thumb_func
 439              		.type	xAreBlockingQueuesStillRunning, %function
 440              	xAreBlockingQueuesStillRunning:
 441              	.LFB71:
 297:..\Common\Minimal/BlockQ.c **** }
 298:..\Common\Minimal/BlockQ.c **** /*-----------------------------------------------------------*/
 299:..\Common\Minimal/BlockQ.c **** 
 300:..\Common\Minimal/BlockQ.c **** /* This is called to check that all the created tasks are still running. */
 301:..\Common\Minimal/BlockQ.c **** BaseType_t xAreBlockingQueuesStillRunning( void )
 302:..\Common\Minimal/BlockQ.c **** {
 442              		.loc 1 302 0
 443              		.cfi_startproc
 444              		@ args = 0, pretend = 0, frame = 8
 445              		@ frame_needed = 1, uses_anonymous_args = 0
 446              		@ link register save eliminated.
 447 0000 80B4     		push	{r7}
 448              		.cfi_def_cfa_offset 4
 449              		.cfi_offset 7, -4
 450 0002 83B0     		sub	sp, sp, #12
 451              		.cfi_def_cfa_offset 16
 452 0004 00AF     		add	r7, sp, #0
 453              		.cfi_def_cfa_register 7
 303:..\Common\Minimal/BlockQ.c **** static short sLastBlockingConsumerCount[ blckqNUM_TASK_SETS ] = { ( uint16_t ) 0, ( uint16_t ) 0, (
 304:..\Common\Minimal/BlockQ.c **** static short sLastBlockingProducerCount[ blckqNUM_TASK_SETS ] = { ( uint16_t ) 0, ( uint16_t ) 0, (
 305:..\Common\Minimal/BlockQ.c **** BaseType_t xReturn = pdPASS, xTasks;
 454              		.loc 1 305 0
 455 0006 0123     		movs	r3, #1
 456 0008 7B60     		str	r3, [r7, #4]
 306:..\Common\Minimal/BlockQ.c **** 
 307:..\Common\Minimal/BlockQ.c **** 	/* Not too worried about mutual exclusion on these variables as they are 16
 308:..\Common\Minimal/BlockQ.c **** 	bits and we are only reading them. We also only care to see if they have
 309:..\Common\Minimal/BlockQ.c **** 	changed or not.
 310:..\Common\Minimal/BlockQ.c **** 
 311:..\Common\Minimal/BlockQ.c **** 	Loop through each check variable to and return pdFALSE if any are found not
 312:..\Common\Minimal/BlockQ.c **** 	to have changed since the last call. */
 313:..\Common\Minimal/BlockQ.c **** 
 314:..\Common\Minimal/BlockQ.c **** 	for( xTasks = 0; xTasks < blckqNUM_TASK_SETS; xTasks++ )
 457              		.loc 1 314 0
 458 000a 0023     		movs	r3, #0
 459 000c 3B60     		str	r3, [r7]
 460 000e 32E0     		b	.L15
 461              	.L18:
 315:..\Common\Minimal/BlockQ.c **** 	{
 316:..\Common\Minimal/BlockQ.c **** 		if( sBlockingConsumerCount[ xTasks ] == sLastBlockingConsumerCount[ xTasks ]  )
 462              		.loc 1 316 0
 463 0010 1E4A     		ldr	r2, .L20
 464 0012 3B68     		ldr	r3, [r7]
 465 0014 32F81330 		ldrh	r3, [r2, r3, lsl #1]	@ movhi
 466 0018 99B2     		uxth	r1, r3
 467 001a 1D4A     		ldr	r2, .L20+4
 468 001c 3B68     		ldr	r3, [r7]
 469 001e 32F81330 		ldrh	r3, [r2, r3, lsl #1]
 470 0022 0AB2     		sxth	r2, r1
 471 0024 1BB2     		sxth	r3, r3
 472 0026 9A42     		cmp	r2, r3
 473 0028 01D1     		bne	.L16
 317:..\Common\Minimal/BlockQ.c **** 		{
ARM GAS  C:\Users\bmt\AppData\Local\Temp\ccDxMJSM.s 			page 15


 318:..\Common\Minimal/BlockQ.c **** 			xReturn = pdFALSE;
 474              		.loc 1 318 0
 475 002a 0023     		movs	r3, #0
 476 002c 7B60     		str	r3, [r7, #4]
 477              	.L16:
 319:..\Common\Minimal/BlockQ.c **** 		}
 320:..\Common\Minimal/BlockQ.c **** 		sLastBlockingConsumerCount[ xTasks ] = sBlockingConsumerCount[ xTasks ];
 478              		.loc 1 320 0
 479 002e 174A     		ldr	r2, .L20
 480 0030 3B68     		ldr	r3, [r7]
 481 0032 32F81330 		ldrh	r3, [r2, r3, lsl #1]	@ movhi
 482 0036 99B2     		uxth	r1, r3
 483 0038 154A     		ldr	r2, .L20+4
 484 003a 3B68     		ldr	r3, [r7]
 485 003c 22F81310 		strh	r1, [r2, r3, lsl #1]	@ movhi
 321:..\Common\Minimal/BlockQ.c **** 
 322:..\Common\Minimal/BlockQ.c **** 
 323:..\Common\Minimal/BlockQ.c **** 		if( sBlockingProducerCount[ xTasks ] == sLastBlockingProducerCount[ xTasks ]  )
 486              		.loc 1 323 0
 487 0040 144A     		ldr	r2, .L20+8
 488 0042 3B68     		ldr	r3, [r7]
 489 0044 32F81330 		ldrh	r3, [r2, r3, lsl #1]	@ movhi
 490 0048 99B2     		uxth	r1, r3
 491 004a 134A     		ldr	r2, .L20+12
 492 004c 3B68     		ldr	r3, [r7]
 493 004e 32F81330 		ldrh	r3, [r2, r3, lsl #1]
 494 0052 0AB2     		sxth	r2, r1
 495 0054 1BB2     		sxth	r3, r3
 496 0056 9A42     		cmp	r2, r3
 497 0058 01D1     		bne	.L17
 324:..\Common\Minimal/BlockQ.c **** 		{
 325:..\Common\Minimal/BlockQ.c **** 			xReturn = pdFALSE;
 498              		.loc 1 325 0
 499 005a 0023     		movs	r3, #0
 500 005c 7B60     		str	r3, [r7, #4]
 501              	.L17:
 326:..\Common\Minimal/BlockQ.c **** 		}
 327:..\Common\Minimal/BlockQ.c **** 		sLastBlockingProducerCount[ xTasks ] = sBlockingProducerCount[ xTasks ];
 502              		.loc 1 327 0 discriminator 2
 503 005e 0D4A     		ldr	r2, .L20+8
 504 0060 3B68     		ldr	r3, [r7]
 505 0062 32F81330 		ldrh	r3, [r2, r3, lsl #1]	@ movhi
 506 0066 99B2     		uxth	r1, r3
 507 0068 0B4A     		ldr	r2, .L20+12
 508 006a 3B68     		ldr	r3, [r7]
 509 006c 22F81310 		strh	r1, [r2, r3, lsl #1]	@ movhi
 314:..\Common\Minimal/BlockQ.c **** 	{
 510              		.loc 1 314 0 discriminator 2
 511 0070 3B68     		ldr	r3, [r7]
 512 0072 0133     		adds	r3, r3, #1
 513 0074 3B60     		str	r3, [r7]
 514              	.L15:
 314:..\Common\Minimal/BlockQ.c **** 	{
 515              		.loc 1 314 0 is_stmt 0 discriminator 1
 516 0076 3B68     		ldr	r3, [r7]
 517 0078 022B     		cmp	r3, #2
 518 007a C9DD     		ble	.L18
ARM GAS  C:\Users\bmt\AppData\Local\Temp\ccDxMJSM.s 			page 16


 328:..\Common\Minimal/BlockQ.c **** 	}
 329:..\Common\Minimal/BlockQ.c **** 
 330:..\Common\Minimal/BlockQ.c **** 	return xReturn;
 519              		.loc 1 330 0 is_stmt 1
 520 007c 7B68     		ldr	r3, [r7, #4]
 331:..\Common\Minimal/BlockQ.c **** }
 521              		.loc 1 331 0
 522 007e 1846     		mov	r0, r3
 523 0080 0C37     		adds	r7, r7, #12
 524              		.cfi_def_cfa_offset 4
 525 0082 BD46     		mov	sp, r7
 526              		.cfi_def_cfa_register 13
 527              		@ sp needed
 528 0084 5DF8047B 		ldr	r7, [sp], #4
 529              		.cfi_restore 7
 530              		.cfi_def_cfa_offset 0
 531 0088 7047     		bx	lr
 532              	.L21:
 533 008a 00BF     		.align	2
 534              	.L20:
 535 008c 00000000 		.word	sBlockingConsumerCount
 536 0090 10000000 		.word	sLastBlockingConsumerCount.7094
 537 0094 08000000 		.word	sBlockingProducerCount
 538 0098 18000000 		.word	sLastBlockingProducerCount.7095
 539              		.cfi_endproc
 540              	.LFE71:
 541              		.size	xAreBlockingQueuesStillRunning, .-xAreBlockingQueuesStillRunning
 542              		.bss
 543 000e 0000     		.align	2
 544              	sLastBlockingConsumerCount.7094:
 545 0010 00000000 		.space	6
 545      0000
 546 0016 0000     		.align	2
 547              	sLastBlockingProducerCount.7095:
 548 0018 00000000 		.space	6
 548      0000
 549 001e 0000     		.text
 550              	.Letext0:
 551              		.file 2 "c:\\program files (x86)\\cypress\\psoc creator\\4.0\\psoc creator\\import\\gnu\\arm\\4.9.
 552              		.file 3 "c:\\program files (x86)\\cypress\\psoc creator\\4.0\\psoc creator\\import\\gnu\\arm\\4.9.
 553              		.file 4 "..\\Source\\portable\\GCC\\ARM_CM3/portmacro.h"
 554              		.file 5 "..\\Source\\include/queue.h"
 555              		.file 6 "Generated_Source\\PSoC5/core_cm3.h"