ARM GAS  C:\Users\bmt\AppData\Local\Temp\ccYnayrm.s 			page 1


   1              		.syntax unified
   2              		.cpu cortex-m3
   3              		.fpu softvfp
   4              		.eabi_attribute 20, 1
   5              		.eabi_attribute 21, 1
   6              		.eabi_attribute 23, 3
   7              		.eabi_attribute 24, 1
   8              		.eabi_attribute 25, 1
   9              		.eabi_attribute 26, 1
  10              		.eabi_attribute 30, 6
  11              		.eabi_attribute 34, 1
  12              		.eabi_attribute 18, 4
  13              		.thumb
  14              		.file	"countsem.c"
  15              		.text
  16              	.Ltext0:
  17              		.cfi_sections	.debug_frame
  18              		.bss
  19              		.align	2
  20              	xErrorDetected:
  21 0000 00000000 		.space	4
  22              		.align	2
  23              	xParameters:
  24 0004 00000000 		.space	24
  24      00000000 
  24      00000000 
  24      00000000 
  24      00000000 
  25              		.section	.rodata
  26              		.align	2
  27              	.LC0:
  28 0000 436F756E 		.ascii	"Counting_Sem_1\000"
  28      74696E67 
  28      5F53656D 
  28      5F3100
  29 000f 00       		.align	2
  30              	.LC1:
  31 0010 436F756E 		.ascii	"Counting_Sem_2\000"
  31      74696E67 
  31      5F53656D 
  31      5F3200
  32 001f 00       		.align	2
  33              	.LC2:
  34 0020 434E5431 		.ascii	"CNT1\000"
  34      00
  35 0025 000000   		.align	2
  36              	.LC3:
  37 0028 434E5432 		.ascii	"CNT2\000"
  37      00
  38 002d 000000   		.section	.text.vStartCountingSemaphoreTasks,"ax",%progbits
  39              		.align	2
  40              		.global	vStartCountingSemaphoreTasks
  41              		.thumb
  42              		.thumb_func
  43              		.type	vStartCountingSemaphoreTasks, %function
  44              	vStartCountingSemaphoreTasks:
  45              	.LFB68:
ARM GAS  C:\Users\bmt\AppData\Local\Temp\ccYnayrm.s 			page 2


  46              		.file 1 "..\\Common\\Minimal\\countsem.c"
   1:..\Common\Minimal/countsem.c **** /*
   2:..\Common\Minimal/countsem.c ****     FreeRTOS V9.0.0 - Copyright (C) 2016 Real Time Engineers Ltd.
   3:..\Common\Minimal/countsem.c ****     All rights reserved
   4:..\Common\Minimal/countsem.c **** 
   5:..\Common\Minimal/countsem.c ****     VISIT http://www.FreeRTOS.org TO ENSURE YOU ARE USING THE LATEST VERSION.
   6:..\Common\Minimal/countsem.c **** 
   7:..\Common\Minimal/countsem.c ****     This file is part of the FreeRTOS distribution.
   8:..\Common\Minimal/countsem.c **** 
   9:..\Common\Minimal/countsem.c ****     FreeRTOS is free software; you can redistribute it and/or modify it under
  10:..\Common\Minimal/countsem.c ****     the terms of the GNU General Public License (version 2) as published by the
  11:..\Common\Minimal/countsem.c ****     Free Software Foundation >>>> AND MODIFIED BY <<<< the FreeRTOS exception.
  12:..\Common\Minimal/countsem.c **** 
  13:..\Common\Minimal/countsem.c ****     ***************************************************************************
  14:..\Common\Minimal/countsem.c ****     >>!   NOTE: The modification to the GPL is included to allow you to     !<<
  15:..\Common\Minimal/countsem.c ****     >>!   distribute a combined work that includes FreeRTOS without being   !<<
  16:..\Common\Minimal/countsem.c ****     >>!   obliged to provide the source code for proprietary components     !<<
  17:..\Common\Minimal/countsem.c ****     >>!   outside of the FreeRTOS kernel.                                   !<<
  18:..\Common\Minimal/countsem.c ****     ***************************************************************************
  19:..\Common\Minimal/countsem.c **** 
  20:..\Common\Minimal/countsem.c ****     FreeRTOS is distributed in the hope that it will be useful, but WITHOUT ANY
  21:..\Common\Minimal/countsem.c ****     WARRANTY; without even the implied warranty of MERCHANTABILITY or FITNESS
  22:..\Common\Minimal/countsem.c ****     FOR A PARTICULAR PURPOSE.  Full license text is available on the following
  23:..\Common\Minimal/countsem.c ****     link: http://www.freertos.org/a00114.html
  24:..\Common\Minimal/countsem.c **** 
  25:..\Common\Minimal/countsem.c ****     ***************************************************************************
  26:..\Common\Minimal/countsem.c ****      *                                                                       *
  27:..\Common\Minimal/countsem.c ****      *    FreeRTOS provides completely free yet professionally developed,    *
  28:..\Common\Minimal/countsem.c ****      *    robust, strictly quality controlled, supported, and cross          *
  29:..\Common\Minimal/countsem.c ****      *    platform software that is more than just the market leader, it     *
  30:..\Common\Minimal/countsem.c ****      *    is the industry's de facto standard.                               *
  31:..\Common\Minimal/countsem.c ****      *                                                                       *
  32:..\Common\Minimal/countsem.c ****      *    Help yourself get started quickly while simultaneously helping     *
  33:..\Common\Minimal/countsem.c ****      *    to support the FreeRTOS project by purchasing a FreeRTOS           *
  34:..\Common\Minimal/countsem.c ****      *    tutorial book, reference manual, or both:                          *
  35:..\Common\Minimal/countsem.c ****      *    http://www.FreeRTOS.org/Documentation                              *
  36:..\Common\Minimal/countsem.c ****      *                                                                       *
  37:..\Common\Minimal/countsem.c ****     ***************************************************************************
  38:..\Common\Minimal/countsem.c **** 
  39:..\Common\Minimal/countsem.c ****     http://www.FreeRTOS.org/FAQHelp.html - Having a problem?  Start by reading
  40:..\Common\Minimal/countsem.c ****     the FAQ page "My application does not run, what could be wrong?".  Have you
  41:..\Common\Minimal/countsem.c ****     defined configASSERT()?
  42:..\Common\Minimal/countsem.c **** 
  43:..\Common\Minimal/countsem.c ****     http://www.FreeRTOS.org/support - In return for receiving this top quality
  44:..\Common\Minimal/countsem.c ****     embedded software for free we request you assist our global community by
  45:..\Common\Minimal/countsem.c ****     participating in the support forum.
  46:..\Common\Minimal/countsem.c **** 
  47:..\Common\Minimal/countsem.c ****     http://www.FreeRTOS.org/training - Investing in training allows your team to
  48:..\Common\Minimal/countsem.c ****     be as productive as possible as early as possible.  Now you can receive
  49:..\Common\Minimal/countsem.c ****     FreeRTOS training directly from Richard Barry, CEO of Real Time Engineers
  50:..\Common\Minimal/countsem.c ****     Ltd, and the world's leading authority on the world's leading RTOS.
  51:..\Common\Minimal/countsem.c **** 
  52:..\Common\Minimal/countsem.c ****     http://www.FreeRTOS.org/plus - A selection of FreeRTOS ecosystem products,
  53:..\Common\Minimal/countsem.c ****     including FreeRTOS+Trace - an indispensable productivity tool, a DOS
  54:..\Common\Minimal/countsem.c ****     compatible FAT file system, and our tiny thread aware UDP/IP stack.
  55:..\Common\Minimal/countsem.c **** 
  56:..\Common\Minimal/countsem.c ****     http://www.FreeRTOS.org/labs - Where new FreeRTOS products go to incubate.
ARM GAS  C:\Users\bmt\AppData\Local\Temp\ccYnayrm.s 			page 3


  57:..\Common\Minimal/countsem.c ****     Come and try FreeRTOS+TCP, our new open source TCP/IP stack for FreeRTOS.
  58:..\Common\Minimal/countsem.c **** 
  59:..\Common\Minimal/countsem.c ****     http://www.OpenRTOS.com - Real Time Engineers ltd. license FreeRTOS to High
  60:..\Common\Minimal/countsem.c ****     Integrity Systems ltd. to sell under the OpenRTOS brand.  Low cost OpenRTOS
  61:..\Common\Minimal/countsem.c ****     licenses offer ticketed support, indemnification and commercial middleware.
  62:..\Common\Minimal/countsem.c **** 
  63:..\Common\Minimal/countsem.c ****     http://www.SafeRTOS.com - High Integrity Systems also provide a safety
  64:..\Common\Minimal/countsem.c ****     engineered and independently SIL3 certified version for use in safety and
  65:..\Common\Minimal/countsem.c ****     mission critical applications that require provable dependability.
  66:..\Common\Minimal/countsem.c **** 
  67:..\Common\Minimal/countsem.c ****     1 tab == 4 spaces!
  68:..\Common\Minimal/countsem.c **** */
  69:..\Common\Minimal/countsem.c **** 
  70:..\Common\Minimal/countsem.c **** 
  71:..\Common\Minimal/countsem.c **** /*
  72:..\Common\Minimal/countsem.c ****  * Simple demonstration of the usage of counting semaphore.
  73:..\Common\Minimal/countsem.c ****  */
  74:..\Common\Minimal/countsem.c **** 
  75:..\Common\Minimal/countsem.c **** /* Scheduler include files. */
  76:..\Common\Minimal/countsem.c **** #include "FreeRTOS.h"
  77:..\Common\Minimal/countsem.c **** #include "task.h"
  78:..\Common\Minimal/countsem.c **** #include "semphr.h"
  79:..\Common\Minimal/countsem.c **** 
  80:..\Common\Minimal/countsem.c **** /* Demo program include files. */
  81:..\Common\Minimal/countsem.c **** #include "countsem.h"
  82:..\Common\Minimal/countsem.c **** 
  83:..\Common\Minimal/countsem.c **** /* The maximum count value that the semaphore used for the demo can hold. */
  84:..\Common\Minimal/countsem.c **** #define countMAX_COUNT_VALUE	( 200 )
  85:..\Common\Minimal/countsem.c **** 
  86:..\Common\Minimal/countsem.c **** /* Constants used to indicate whether or not the semaphore should have been
  87:..\Common\Minimal/countsem.c **** created with its maximum count value, or its minimum count value.  These
  88:..\Common\Minimal/countsem.c **** numbers are used to ensure that the pointers passed in as the task parameters
  89:..\Common\Minimal/countsem.c **** are valid. */
  90:..\Common\Minimal/countsem.c **** #define countSTART_AT_MAX_COUNT	( 0xaa )
  91:..\Common\Minimal/countsem.c **** #define countSTART_AT_ZERO		( 0x55 )
  92:..\Common\Minimal/countsem.c **** 
  93:..\Common\Minimal/countsem.c **** /* Two tasks are created for the test.  One uses a semaphore created with its
  94:..\Common\Minimal/countsem.c **** count value set to the maximum, and one with the count value set to zero. */
  95:..\Common\Minimal/countsem.c **** #define countNUM_TEST_TASKS		( 2 )
  96:..\Common\Minimal/countsem.c **** #define countDONT_BLOCK			( 0 )
  97:..\Common\Minimal/countsem.c **** 
  98:..\Common\Minimal/countsem.c **** /*-----------------------------------------------------------*/
  99:..\Common\Minimal/countsem.c **** 
 100:..\Common\Minimal/countsem.c **** /* Flag that will be latched to pdTRUE should any unexpected behaviour be
 101:..\Common\Minimal/countsem.c **** detected in any of the tasks. */
 102:..\Common\Minimal/countsem.c **** static volatile BaseType_t xErrorDetected = pdFALSE;
 103:..\Common\Minimal/countsem.c **** 
 104:..\Common\Minimal/countsem.c **** /*-----------------------------------------------------------*/
 105:..\Common\Minimal/countsem.c **** 
 106:..\Common\Minimal/countsem.c **** /*
 107:..\Common\Minimal/countsem.c ****  * The demo task.  This simply counts the semaphore up to its maximum value,
 108:..\Common\Minimal/countsem.c ****  * the counts it back down again.  The result of each semaphore 'give' and
 109:..\Common\Minimal/countsem.c ****  * 'take' is inspected, with an error being flagged if it is found not to be
 110:..\Common\Minimal/countsem.c ****  * the expected result.
 111:..\Common\Minimal/countsem.c ****  */
 112:..\Common\Minimal/countsem.c **** static void prvCountingSemaphoreTask( void *pvParameters );
 113:..\Common\Minimal/countsem.c **** 
ARM GAS  C:\Users\bmt\AppData\Local\Temp\ccYnayrm.s 			page 4


 114:..\Common\Minimal/countsem.c **** /*
 115:..\Common\Minimal/countsem.c ****  * Utility function to increment the semaphore count value up from zero to
 116:..\Common\Minimal/countsem.c ****  * countMAX_COUNT_VALUE.
 117:..\Common\Minimal/countsem.c ****  */
 118:..\Common\Minimal/countsem.c **** static void prvIncrementSemaphoreCount( SemaphoreHandle_t xSemaphore, UBaseType_t *puxLoopCounter )
 119:..\Common\Minimal/countsem.c **** 
 120:..\Common\Minimal/countsem.c **** /*
 121:..\Common\Minimal/countsem.c ****  * Utility function to decrement the semaphore count value up from
 122:..\Common\Minimal/countsem.c ****  * countMAX_COUNT_VALUE to zero.
 123:..\Common\Minimal/countsem.c ****  */
 124:..\Common\Minimal/countsem.c **** static void prvDecrementSemaphoreCount( SemaphoreHandle_t xSemaphore, UBaseType_t *puxLoopCounter )
 125:..\Common\Minimal/countsem.c **** 
 126:..\Common\Minimal/countsem.c **** /*-----------------------------------------------------------*/
 127:..\Common\Minimal/countsem.c **** 
 128:..\Common\Minimal/countsem.c **** /* The structure that is passed into the task as the task parameter. */
 129:..\Common\Minimal/countsem.c **** typedef struct COUNT_SEM_STRUCT
 130:..\Common\Minimal/countsem.c **** {
 131:..\Common\Minimal/countsem.c **** 	/* The semaphore to be used for the demo. */
 132:..\Common\Minimal/countsem.c **** 	SemaphoreHandle_t xSemaphore;
 133:..\Common\Minimal/countsem.c **** 
 134:..\Common\Minimal/countsem.c **** 	/* Set to countSTART_AT_MAX_COUNT if the semaphore should be created with
 135:..\Common\Minimal/countsem.c **** 	its count value set to its max count value, or countSTART_AT_ZERO if it
 136:..\Common\Minimal/countsem.c **** 	should have been created with its count value set to 0. */
 137:..\Common\Minimal/countsem.c **** 	UBaseType_t uxExpectedStartCount;
 138:..\Common\Minimal/countsem.c **** 
 139:..\Common\Minimal/countsem.c **** 	/* Incremented on each cycle of the demo task.  Used to detect a stalled
 140:..\Common\Minimal/countsem.c **** 	task. */
 141:..\Common\Minimal/countsem.c **** 	UBaseType_t uxLoopCounter;
 142:..\Common\Minimal/countsem.c **** } xCountSemStruct;
 143:..\Common\Minimal/countsem.c **** 
 144:..\Common\Minimal/countsem.c **** /* Two structures are defined, one is passed to each test task. */
 145:..\Common\Minimal/countsem.c **** static volatile xCountSemStruct xParameters[ countNUM_TEST_TASKS ];
 146:..\Common\Minimal/countsem.c **** 
 147:..\Common\Minimal/countsem.c **** /*-----------------------------------------------------------*/
 148:..\Common\Minimal/countsem.c **** 
 149:..\Common\Minimal/countsem.c **** void vStartCountingSemaphoreTasks( void )
 150:..\Common\Minimal/countsem.c **** {
  47              		.loc 1 150 0
  48              		.cfi_startproc
  49              		@ args = 0, pretend = 0, frame = 0
  50              		@ frame_needed = 1, uses_anonymous_args = 0
  51 0000 80B5     		push	{r7, lr}
  52              		.cfi_def_cfa_offset 8
  53              		.cfi_offset 7, -8
  54              		.cfi_offset 14, -4
  55 0002 82B0     		sub	sp, sp, #8
  56              		.cfi_def_cfa_offset 16
  57 0004 02AF     		add	r7, sp, #8
  58              		.cfi_def_cfa 7, 8
 151:..\Common\Minimal/countsem.c **** 	/* Create the semaphores that we are going to use for the test/demo.  The
 152:..\Common\Minimal/countsem.c **** 	first should be created such that it starts at its maximum count value,
 153:..\Common\Minimal/countsem.c **** 	the second should be created such that it starts with a count value of zero. */
 154:..\Common\Minimal/countsem.c **** 	xParameters[ 0 ].xSemaphore = xSemaphoreCreateCounting( countMAX_COUNT_VALUE, countMAX_COUNT_VALUE
  59              		.loc 1 154 0
  60 0006 C820     		movs	r0, #200
  61 0008 C821     		movs	r1, #200
  62 000a FFF7FEFF 		bl	xQueueCreateCountingSemaphore
ARM GAS  C:\Users\bmt\AppData\Local\Temp\ccYnayrm.s 			page 5


  63 000e 0246     		mov	r2, r0
  64 0010 1F4B     		ldr	r3, .L4
  65 0012 1A60     		str	r2, [r3]
 155:..\Common\Minimal/countsem.c **** 	xParameters[ 0 ].uxExpectedStartCount = countSTART_AT_MAX_COUNT;
  66              		.loc 1 155 0
  67 0014 1E4B     		ldr	r3, .L4
  68 0016 AA22     		movs	r2, #170
  69 0018 5A60     		str	r2, [r3, #4]
 156:..\Common\Minimal/countsem.c **** 	xParameters[ 0 ].uxLoopCounter = 0;
  70              		.loc 1 156 0
  71 001a 1D4B     		ldr	r3, .L4
  72 001c 0022     		movs	r2, #0
  73 001e 9A60     		str	r2, [r3, #8]
 157:..\Common\Minimal/countsem.c **** 
 158:..\Common\Minimal/countsem.c **** 	xParameters[ 1 ].xSemaphore = xSemaphoreCreateCounting( countMAX_COUNT_VALUE, 0 );
  74              		.loc 1 158 0
  75 0020 C820     		movs	r0, #200
  76 0022 0021     		movs	r1, #0
  77 0024 FFF7FEFF 		bl	xQueueCreateCountingSemaphore
  78 0028 0246     		mov	r2, r0
  79 002a 194B     		ldr	r3, .L4
  80 002c DA60     		str	r2, [r3, #12]
 159:..\Common\Minimal/countsem.c **** 	xParameters[ 1 ].uxExpectedStartCount = 0;
  81              		.loc 1 159 0
  82 002e 184B     		ldr	r3, .L4
  83 0030 0022     		movs	r2, #0
  84 0032 1A61     		str	r2, [r3, #16]
 160:..\Common\Minimal/countsem.c **** 	xParameters[ 1 ].uxLoopCounter = 0;
  85              		.loc 1 160 0
  86 0034 164B     		ldr	r3, .L4
  87 0036 0022     		movs	r2, #0
  88 0038 5A61     		str	r2, [r3, #20]
 161:..\Common\Minimal/countsem.c **** 
 162:..\Common\Minimal/countsem.c **** 	/* Were the semaphores created? */
 163:..\Common\Minimal/countsem.c **** 	if( ( xParameters[ 0 ].xSemaphore != NULL ) || ( xParameters[ 1 ].xSemaphore != NULL ) )
  89              		.loc 1 163 0
  90 003a 154B     		ldr	r3, .L4
  91 003c 1B68     		ldr	r3, [r3]
  92 003e 002B     		cmp	r3, #0
  93 0040 03D1     		bne	.L2
  94              		.loc 1 163 0 is_stmt 0 discriminator 1
  95 0042 134B     		ldr	r3, .L4
  96 0044 DB68     		ldr	r3, [r3, #12]
  97 0046 002B     		cmp	r3, #0
  98 0048 1FD0     		beq	.L1
  99              	.L2:
 164:..\Common\Minimal/countsem.c **** 	{
 165:..\Common\Minimal/countsem.c **** 		/* vQueueAddToRegistry() adds the semaphore to the registry, if one is
 166:..\Common\Minimal/countsem.c **** 		in use.  The registry is provided as a means for kernel aware
 167:..\Common\Minimal/countsem.c **** 		debuggers to locate semaphores and has no purpose if a kernel aware
 168:..\Common\Minimal/countsem.c **** 		debugger is not being used.  The call to vQueueAddToRegistry() will be
 169:..\Common\Minimal/countsem.c **** 		removed by the pre-processor if configQUEUE_REGISTRY_SIZE is not
 170:..\Common\Minimal/countsem.c **** 		defined or is defined to be less than 1. */
 171:..\Common\Minimal/countsem.c **** 		vQueueAddToRegistry( ( QueueHandle_t ) xParameters[ 0 ].xSemaphore, "Counting_Sem_1" );
 100              		.loc 1 171 0 is_stmt 1
 101 004a 114B     		ldr	r3, .L4
 102 004c 1B68     		ldr	r3, [r3]
ARM GAS  C:\Users\bmt\AppData\Local\Temp\ccYnayrm.s 			page 6


 103 004e 1846     		mov	r0, r3
 104 0050 1049     		ldr	r1, .L4+4
 105 0052 FFF7FEFF 		bl	vQueueAddToRegistry
 172:..\Common\Minimal/countsem.c **** 		vQueueAddToRegistry( ( QueueHandle_t ) xParameters[ 1 ].xSemaphore, "Counting_Sem_2" );
 106              		.loc 1 172 0
 107 0056 0E4B     		ldr	r3, .L4
 108 0058 DB68     		ldr	r3, [r3, #12]
 109 005a 1846     		mov	r0, r3
 110 005c 0E49     		ldr	r1, .L4+8
 111 005e FFF7FEFF 		bl	vQueueAddToRegistry
 173:..\Common\Minimal/countsem.c **** 
 174:..\Common\Minimal/countsem.c **** 		/* Create the demo tasks, passing in the semaphore to use as the parameter. */
 175:..\Common\Minimal/countsem.c **** 		xTaskCreate( prvCountingSemaphoreTask, "CNT1", configMINIMAL_STACK_SIZE, ( void * ) &( xParameter
 112              		.loc 1 175 0
 113 0062 0023     		movs	r3, #0
 114 0064 0093     		str	r3, [sp]
 115 0066 0023     		movs	r3, #0
 116 0068 0193     		str	r3, [sp, #4]
 117 006a 0C48     		ldr	r0, .L4+12
 118 006c 0C49     		ldr	r1, .L4+16
 119 006e 6422     		movs	r2, #100
 120 0070 074B     		ldr	r3, .L4
 121 0072 FFF7FEFF 		bl	xTaskCreate
 176:..\Common\Minimal/countsem.c **** 		xTaskCreate( prvCountingSemaphoreTask, "CNT2", configMINIMAL_STACK_SIZE, ( void * ) &( xParameter
 122              		.loc 1 176 0
 123 0076 0023     		movs	r3, #0
 124 0078 0093     		str	r3, [sp]
 125 007a 0023     		movs	r3, #0
 126 007c 0193     		str	r3, [sp, #4]
 127 007e 0748     		ldr	r0, .L4+12
 128 0080 0849     		ldr	r1, .L4+20
 129 0082 6422     		movs	r2, #100
 130 0084 084B     		ldr	r3, .L4+24
 131 0086 FFF7FEFF 		bl	xTaskCreate
 132              	.L1:
 177:..\Common\Minimal/countsem.c **** 	}
 178:..\Common\Minimal/countsem.c **** }
 133              		.loc 1 178 0
 134 008a BD46     		mov	sp, r7
 135              		.cfi_def_cfa_register 13
 136              		@ sp needed
 137 008c 80BD     		pop	{r7, pc}
 138              	.L5:
 139 008e 00BF     		.align	2
 140              	.L4:
 141 0090 04000000 		.word	xParameters
 142 0094 00000000 		.word	.LC0
 143 0098 10000000 		.word	.LC1
 144 009c 00000000 		.word	prvCountingSemaphoreTask
 145 00a0 20000000 		.word	.LC2
 146 00a4 28000000 		.word	.LC3
 147 00a8 10000000 		.word	xParameters+12
 148              		.cfi_endproc
 149              	.LFE68:
 150              		.size	vStartCountingSemaphoreTasks, .-vStartCountingSemaphoreTasks
 151              		.section	.text.prvDecrementSemaphoreCount,"ax",%progbits
 152              		.align	2
ARM GAS  C:\Users\bmt\AppData\Local\Temp\ccYnayrm.s 			page 7


 153              		.thumb
 154              		.thumb_func
 155              		.type	prvDecrementSemaphoreCount, %function
 156              	prvDecrementSemaphoreCount:
 157              	.LFB69:
 179:..\Common\Minimal/countsem.c **** /*-----------------------------------------------------------*/
 180:..\Common\Minimal/countsem.c **** 
 181:..\Common\Minimal/countsem.c **** static void prvDecrementSemaphoreCount( SemaphoreHandle_t xSemaphore, UBaseType_t *puxLoopCounter )
 182:..\Common\Minimal/countsem.c **** {
 158              		.loc 1 182 0
 159              		.cfi_startproc
 160              		@ args = 0, pretend = 0, frame = 16
 161              		@ frame_needed = 1, uses_anonymous_args = 0
 162 0000 80B5     		push	{r7, lr}
 163              		.cfi_def_cfa_offset 8
 164              		.cfi_offset 7, -8
 165              		.cfi_offset 14, -4
 166 0002 84B0     		sub	sp, sp, #16
 167              		.cfi_def_cfa_offset 24
 168 0004 00AF     		add	r7, sp, #0
 169              		.cfi_def_cfa_register 7
 170 0006 7860     		str	r0, [r7, #4]
 171 0008 3960     		str	r1, [r7]
 183:..\Common\Minimal/countsem.c **** UBaseType_t ux;
 184:..\Common\Minimal/countsem.c **** 
 185:..\Common\Minimal/countsem.c **** 	/* If the semaphore count is at its maximum then we should not be able to
 186:..\Common\Minimal/countsem.c **** 	'give' the semaphore. */
 187:..\Common\Minimal/countsem.c **** 	if( xSemaphoreGive( xSemaphore ) == pdPASS )
 172              		.loc 1 187 0
 173 000a 7868     		ldr	r0, [r7, #4]
 174 000c 0021     		movs	r1, #0
 175 000e 0022     		movs	r2, #0
 176 0010 0023     		movs	r3, #0
 177 0012 FFF7FEFF 		bl	xQueueGenericSend
 178 0016 0346     		mov	r3, r0
 179 0018 012B     		cmp	r3, #1
 180 001a 02D1     		bne	.L7
 188:..\Common\Minimal/countsem.c **** 	{
 189:..\Common\Minimal/countsem.c **** 		xErrorDetected = pdTRUE;
 181              		.loc 1 189 0
 182 001c 154B     		ldr	r3, .L12
 183 001e 0122     		movs	r2, #1
 184 0020 1A60     		str	r2, [r3]
 185              	.L7:
 190:..\Common\Minimal/countsem.c **** 	}
 191:..\Common\Minimal/countsem.c **** 
 192:..\Common\Minimal/countsem.c **** 	/* We should be able to 'take' the semaphore countMAX_COUNT_VALUE times. */
 193:..\Common\Minimal/countsem.c **** 	for( ux = 0; ux < countMAX_COUNT_VALUE; ux++ )
 186              		.loc 1 193 0
 187 0022 0023     		movs	r3, #0
 188 0024 FB60     		str	r3, [r7, #12]
 189 0026 13E0     		b	.L8
 190              	.L10:
 194:..\Common\Minimal/countsem.c **** 	{
 195:..\Common\Minimal/countsem.c **** 		configASSERT( uxSemaphoreGetCount( xSemaphore ) == ( countMAX_COUNT_VALUE - ux ) );
 196:..\Common\Minimal/countsem.c **** 
 197:..\Common\Minimal/countsem.c **** 		if( xSemaphoreTake( xSemaphore, countDONT_BLOCK ) != pdPASS )
ARM GAS  C:\Users\bmt\AppData\Local\Temp\ccYnayrm.s 			page 8


 191              		.loc 1 197 0
 192 0028 7868     		ldr	r0, [r7, #4]
 193 002a 0021     		movs	r1, #0
 194 002c 0022     		movs	r2, #0
 195 002e 0023     		movs	r3, #0
 196 0030 FFF7FEFF 		bl	xQueueGenericReceive
 197 0034 0346     		mov	r3, r0
 198 0036 012B     		cmp	r3, #1
 199 0038 02D0     		beq	.L9
 198:..\Common\Minimal/countsem.c **** 		{
 199:..\Common\Minimal/countsem.c **** 			/* We expected to be able to take the semaphore. */
 200:..\Common\Minimal/countsem.c **** 			xErrorDetected = pdTRUE;
 200              		.loc 1 200 0
 201 003a 0E4B     		ldr	r3, .L12
 202 003c 0122     		movs	r2, #1
 203 003e 1A60     		str	r2, [r3]
 204              	.L9:
 201:..\Common\Minimal/countsem.c **** 		}
 202:..\Common\Minimal/countsem.c **** 
 203:..\Common\Minimal/countsem.c **** 		( *puxLoopCounter )++;
 205              		.loc 1 203 0 discriminator 2
 206 0040 3B68     		ldr	r3, [r7]
 207 0042 1B68     		ldr	r3, [r3]
 208 0044 5A1C     		adds	r2, r3, #1
 209 0046 3B68     		ldr	r3, [r7]
 210 0048 1A60     		str	r2, [r3]
 193:..\Common\Minimal/countsem.c **** 	{
 211              		.loc 1 193 0 discriminator 2
 212 004a FB68     		ldr	r3, [r7, #12]
 213 004c 0133     		adds	r3, r3, #1
 214 004e FB60     		str	r3, [r7, #12]
 215              	.L8:
 193:..\Common\Minimal/countsem.c **** 	{
 216              		.loc 1 193 0 is_stmt 0 discriminator 1
 217 0050 FB68     		ldr	r3, [r7, #12]
 218 0052 C72B     		cmp	r3, #199
 219 0054 E8D9     		bls	.L10
 204:..\Common\Minimal/countsem.c **** 	}
 205:..\Common\Minimal/countsem.c **** 
 206:..\Common\Minimal/countsem.c **** 	#if configUSE_PREEMPTION == 0
 207:..\Common\Minimal/countsem.c **** 		taskYIELD();
 208:..\Common\Minimal/countsem.c **** 	#endif
 209:..\Common\Minimal/countsem.c **** 
 210:..\Common\Minimal/countsem.c **** 	/* If the semaphore count is zero then we should not be able to	'take'
 211:..\Common\Minimal/countsem.c **** 	the semaphore. */
 212:..\Common\Minimal/countsem.c **** 	configASSERT( uxSemaphoreGetCount( xSemaphore ) == 0 );
 213:..\Common\Minimal/countsem.c **** 	if( xSemaphoreTake( xSemaphore, countDONT_BLOCK ) == pdPASS )
 220              		.loc 1 213 0 is_stmt 1
 221 0056 7868     		ldr	r0, [r7, #4]
 222 0058 0021     		movs	r1, #0
 223 005a 0022     		movs	r2, #0
 224 005c 0023     		movs	r3, #0
 225 005e FFF7FEFF 		bl	xQueueGenericReceive
 226 0062 0346     		mov	r3, r0
 227 0064 012B     		cmp	r3, #1
 228 0066 02D1     		bne	.L6
 214:..\Common\Minimal/countsem.c **** 	{
ARM GAS  C:\Users\bmt\AppData\Local\Temp\ccYnayrm.s 			page 9


 215:..\Common\Minimal/countsem.c **** 		xErrorDetected = pdTRUE;
 229              		.loc 1 215 0
 230 0068 024B     		ldr	r3, .L12
 231 006a 0122     		movs	r2, #1
 232 006c 1A60     		str	r2, [r3]
 233              	.L6:
 216:..\Common\Minimal/countsem.c **** 	}
 217:..\Common\Minimal/countsem.c **** }
 234              		.loc 1 217 0
 235 006e 1037     		adds	r7, r7, #16
 236              		.cfi_def_cfa_offset 8
 237 0070 BD46     		mov	sp, r7
 238              		.cfi_def_cfa_register 13
 239              		@ sp needed
 240 0072 80BD     		pop	{r7, pc}
 241              	.L13:
 242              		.align	2
 243              	.L12:
 244 0074 00000000 		.word	xErrorDetected
 245              		.cfi_endproc
 246              	.LFE69:
 247              		.size	prvDecrementSemaphoreCount, .-prvDecrementSemaphoreCount
 248              		.section	.text.prvIncrementSemaphoreCount,"ax",%progbits
 249              		.align	2
 250              		.thumb
 251              		.thumb_func
 252              		.type	prvIncrementSemaphoreCount, %function
 253              	prvIncrementSemaphoreCount:
 254              	.LFB70:
 218:..\Common\Minimal/countsem.c **** /*-----------------------------------------------------------*/
 219:..\Common\Minimal/countsem.c **** 
 220:..\Common\Minimal/countsem.c **** static void prvIncrementSemaphoreCount( SemaphoreHandle_t xSemaphore, UBaseType_t *puxLoopCounter )
 221:..\Common\Minimal/countsem.c **** {
 255              		.loc 1 221 0
 256              		.cfi_startproc
 257              		@ args = 0, pretend = 0, frame = 16
 258              		@ frame_needed = 1, uses_anonymous_args = 0
 259 0000 80B5     		push	{r7, lr}
 260              		.cfi_def_cfa_offset 8
 261              		.cfi_offset 7, -8
 262              		.cfi_offset 14, -4
 263 0002 84B0     		sub	sp, sp, #16
 264              		.cfi_def_cfa_offset 24
 265 0004 00AF     		add	r7, sp, #0
 266              		.cfi_def_cfa_register 7
 267 0006 7860     		str	r0, [r7, #4]
 268 0008 3960     		str	r1, [r7]
 222:..\Common\Minimal/countsem.c **** UBaseType_t ux;
 223:..\Common\Minimal/countsem.c **** 
 224:..\Common\Minimal/countsem.c **** 	/* If the semaphore count is zero then we should not be able to	'take'
 225:..\Common\Minimal/countsem.c **** 	the semaphore. */
 226:..\Common\Minimal/countsem.c **** 	if( xSemaphoreTake( xSemaphore, countDONT_BLOCK ) == pdPASS )
 269              		.loc 1 226 0
 270 000a 7868     		ldr	r0, [r7, #4]
 271 000c 0021     		movs	r1, #0
 272 000e 0022     		movs	r2, #0
 273 0010 0023     		movs	r3, #0
ARM GAS  C:\Users\bmt\AppData\Local\Temp\ccYnayrm.s 			page 10


 274 0012 FFF7FEFF 		bl	xQueueGenericReceive
 275 0016 0346     		mov	r3, r0
 276 0018 012B     		cmp	r3, #1
 277 001a 02D1     		bne	.L15
 227:..\Common\Minimal/countsem.c **** 	{
 228:..\Common\Minimal/countsem.c **** 		xErrorDetected = pdTRUE;
 278              		.loc 1 228 0
 279 001c 154B     		ldr	r3, .L20
 280 001e 0122     		movs	r2, #1
 281 0020 1A60     		str	r2, [r3]
 282              	.L15:
 229:..\Common\Minimal/countsem.c **** 	}
 230:..\Common\Minimal/countsem.c **** 
 231:..\Common\Minimal/countsem.c **** 	/* We should be able to 'give' the semaphore countMAX_COUNT_VALUE times. */
 232:..\Common\Minimal/countsem.c **** 	for( ux = 0; ux < countMAX_COUNT_VALUE; ux++ )
 283              		.loc 1 232 0
 284 0022 0023     		movs	r3, #0
 285 0024 FB60     		str	r3, [r7, #12]
 286 0026 13E0     		b	.L16
 287              	.L18:
 233:..\Common\Minimal/countsem.c **** 	{
 234:..\Common\Minimal/countsem.c **** 		configASSERT( uxSemaphoreGetCount( xSemaphore ) == ux );
 235:..\Common\Minimal/countsem.c **** 
 236:..\Common\Minimal/countsem.c **** 		if( xSemaphoreGive( xSemaphore ) != pdPASS )
 288              		.loc 1 236 0
 289 0028 7868     		ldr	r0, [r7, #4]
 290 002a 0021     		movs	r1, #0
 291 002c 0022     		movs	r2, #0
 292 002e 0023     		movs	r3, #0
 293 0030 FFF7FEFF 		bl	xQueueGenericSend
 294 0034 0346     		mov	r3, r0
 295 0036 012B     		cmp	r3, #1
 296 0038 02D0     		beq	.L17
 237:..\Common\Minimal/countsem.c **** 		{
 238:..\Common\Minimal/countsem.c **** 			/* We expected to be able to take the semaphore. */
 239:..\Common\Minimal/countsem.c **** 			xErrorDetected = pdTRUE;
 297              		.loc 1 239 0
 298 003a 0E4B     		ldr	r3, .L20
 299 003c 0122     		movs	r2, #1
 300 003e 1A60     		str	r2, [r3]
 301              	.L17:
 240:..\Common\Minimal/countsem.c **** 		}
 241:..\Common\Minimal/countsem.c **** 
 242:..\Common\Minimal/countsem.c **** 		( *puxLoopCounter )++;
 302              		.loc 1 242 0 discriminator 2
 303 0040 3B68     		ldr	r3, [r7]
 304 0042 1B68     		ldr	r3, [r3]
 305 0044 5A1C     		adds	r2, r3, #1
 306 0046 3B68     		ldr	r3, [r7]
 307 0048 1A60     		str	r2, [r3]
 232:..\Common\Minimal/countsem.c **** 	{
 308              		.loc 1 232 0 discriminator 2
 309 004a FB68     		ldr	r3, [r7, #12]
 310 004c 0133     		adds	r3, r3, #1
 311 004e FB60     		str	r3, [r7, #12]
 312              	.L16:
 232:..\Common\Minimal/countsem.c **** 	{
ARM GAS  C:\Users\bmt\AppData\Local\Temp\ccYnayrm.s 			page 11


 313              		.loc 1 232 0 is_stmt 0 discriminator 1
 314 0050 FB68     		ldr	r3, [r7, #12]
 315 0052 C72B     		cmp	r3, #199
 316 0054 E8D9     		bls	.L18
 243:..\Common\Minimal/countsem.c **** 	}
 244:..\Common\Minimal/countsem.c **** 
 245:..\Common\Minimal/countsem.c **** 	#if configUSE_PREEMPTION == 0
 246:..\Common\Minimal/countsem.c **** 		taskYIELD();
 247:..\Common\Minimal/countsem.c **** 	#endif
 248:..\Common\Minimal/countsem.c **** 
 249:..\Common\Minimal/countsem.c **** 	/* If the semaphore count is at its maximum then we should not be able to
 250:..\Common\Minimal/countsem.c **** 	'give' the semaphore. */
 251:..\Common\Minimal/countsem.c **** 	if( xSemaphoreGive( xSemaphore ) == pdPASS )
 317              		.loc 1 251 0 is_stmt 1
 318 0056 7868     		ldr	r0, [r7, #4]
 319 0058 0021     		movs	r1, #0
 320 005a 0022     		movs	r2, #0
 321 005c 0023     		movs	r3, #0
 322 005e FFF7FEFF 		bl	xQueueGenericSend
 323 0062 0346     		mov	r3, r0
 324 0064 012B     		cmp	r3, #1
 325 0066 02D1     		bne	.L14
 252:..\Common\Minimal/countsem.c **** 	{
 253:..\Common\Minimal/countsem.c **** 		xErrorDetected = pdTRUE;
 326              		.loc 1 253 0
 327 0068 024B     		ldr	r3, .L20
 328 006a 0122     		movs	r2, #1
 329 006c 1A60     		str	r2, [r3]
 330              	.L14:
 254:..\Common\Minimal/countsem.c **** 	}
 255:..\Common\Minimal/countsem.c **** }
 331              		.loc 1 255 0
 332 006e 1037     		adds	r7, r7, #16
 333              		.cfi_def_cfa_offset 8
 334 0070 BD46     		mov	sp, r7
 335              		.cfi_def_cfa_register 13
 336              		@ sp needed
 337 0072 80BD     		pop	{r7, pc}
 338              	.L21:
 339              		.align	2
 340              	.L20:
 341 0074 00000000 		.word	xErrorDetected
 342              		.cfi_endproc
 343              	.LFE70:
 344              		.size	prvIncrementSemaphoreCount, .-prvIncrementSemaphoreCount
 345              		.section	.text.prvCountingSemaphoreTask,"ax",%progbits
 346              		.align	2
 347              		.thumb
 348              		.thumb_func
 349              		.type	prvCountingSemaphoreTask, %function
 350              	prvCountingSemaphoreTask:
 351              	.LFB71:
 256:..\Common\Minimal/countsem.c **** /*-----------------------------------------------------------*/
 257:..\Common\Minimal/countsem.c **** 
 258:..\Common\Minimal/countsem.c **** static void prvCountingSemaphoreTask( void *pvParameters )
 259:..\Common\Minimal/countsem.c **** {
 352              		.loc 1 259 0
ARM GAS  C:\Users\bmt\AppData\Local\Temp\ccYnayrm.s 			page 12


 353              		.cfi_startproc
 354              		@ args = 0, pretend = 0, frame = 16
 355              		@ frame_needed = 1, uses_anonymous_args = 0
 356 0000 80B5     		push	{r7, lr}
 357              		.cfi_def_cfa_offset 8
 358              		.cfi_offset 7, -8
 359              		.cfi_offset 14, -4
 360 0002 84B0     		sub	sp, sp, #16
 361              		.cfi_def_cfa_offset 24
 362 0004 00AF     		add	r7, sp, #0
 363              		.cfi_def_cfa_register 7
 364 0006 7860     		str	r0, [r7, #4]
 260:..\Common\Minimal/countsem.c **** xCountSemStruct *pxParameter;
 261:..\Common\Minimal/countsem.c **** 
 262:..\Common\Minimal/countsem.c **** 	#ifdef USE_STDIO
 263:..\Common\Minimal/countsem.c **** 	void vPrintDisplayMessage( const char * const * ppcMessageToSend );
 264:..\Common\Minimal/countsem.c **** 
 265:..\Common\Minimal/countsem.c **** 		const char * const pcTaskStartMsg = "Counting semaphore demo started.\r\n";
 266:..\Common\Minimal/countsem.c **** 
 267:..\Common\Minimal/countsem.c **** 		/* Queue a message for printing to say the task has started. */
 268:..\Common\Minimal/countsem.c **** 		vPrintDisplayMessage( &pcTaskStartMsg );
 269:..\Common\Minimal/countsem.c **** 	#endif
 270:..\Common\Minimal/countsem.c **** 
 271:..\Common\Minimal/countsem.c **** 	/* The semaphore to be used was passed as the parameter. */
 272:..\Common\Minimal/countsem.c **** 	pxParameter = ( xCountSemStruct * ) pvParameters;
 365              		.loc 1 272 0
 366 0008 7B68     		ldr	r3, [r7, #4]
 367 000a FB60     		str	r3, [r7, #12]
 273:..\Common\Minimal/countsem.c **** 
 274:..\Common\Minimal/countsem.c **** 	/* Did we expect to find the semaphore already at its max count value, or
 275:..\Common\Minimal/countsem.c **** 	at zero? */
 276:..\Common\Minimal/countsem.c **** 	if( pxParameter->uxExpectedStartCount == countSTART_AT_MAX_COUNT )
 368              		.loc 1 276 0
 369 000c FB68     		ldr	r3, [r7, #12]
 370 000e 5B68     		ldr	r3, [r3, #4]
 371 0010 AA2B     		cmp	r3, #170
 372 0012 07D1     		bne	.L23
 277:..\Common\Minimal/countsem.c **** 	{
 278:..\Common\Minimal/countsem.c **** 		prvDecrementSemaphoreCount( pxParameter->xSemaphore, &( pxParameter->uxLoopCounter ) );
 373              		.loc 1 278 0
 374 0014 FB68     		ldr	r3, [r7, #12]
 375 0016 1A68     		ldr	r2, [r3]
 376 0018 FB68     		ldr	r3, [r7, #12]
 377 001a 0833     		adds	r3, r3, #8
 378 001c 1046     		mov	r0, r2
 379 001e 1946     		mov	r1, r3
 380 0020 FFF7FEFF 		bl	prvDecrementSemaphoreCount
 381              	.L23:
 279:..\Common\Minimal/countsem.c **** 	}
 280:..\Common\Minimal/countsem.c **** 
 281:..\Common\Minimal/countsem.c **** 	/* Now we expect the semaphore count to be 0, so this time there is an
 282:..\Common\Minimal/countsem.c **** 	error if we can take the semaphore. */
 283:..\Common\Minimal/countsem.c **** 	if( xSemaphoreTake( pxParameter->xSemaphore, 0 ) == pdPASS )
 382              		.loc 1 283 0
 383 0024 FB68     		ldr	r3, [r7, #12]
 384 0026 1B68     		ldr	r3, [r3]
 385 0028 1846     		mov	r0, r3
ARM GAS  C:\Users\bmt\AppData\Local\Temp\ccYnayrm.s 			page 13


 386 002a 0021     		movs	r1, #0
 387 002c 0022     		movs	r2, #0
 388 002e 0023     		movs	r3, #0
 389 0030 FFF7FEFF 		bl	xQueueGenericReceive
 390 0034 0346     		mov	r3, r0
 391 0036 012B     		cmp	r3, #1
 392 0038 02D1     		bne	.L24
 284:..\Common\Minimal/countsem.c **** 	{
 285:..\Common\Minimal/countsem.c **** 		xErrorDetected = pdTRUE;
 393              		.loc 1 285 0
 394 003a 0A4B     		ldr	r3, .L25
 395 003c 0122     		movs	r2, #1
 396 003e 1A60     		str	r2, [r3]
 397              	.L24:
 286:..\Common\Minimal/countsem.c **** 	}
 287:..\Common\Minimal/countsem.c **** 
 288:..\Common\Minimal/countsem.c **** 	for( ;; )
 289:..\Common\Minimal/countsem.c **** 	{
 290:..\Common\Minimal/countsem.c **** 		prvIncrementSemaphoreCount( pxParameter->xSemaphore, &( pxParameter->uxLoopCounter ) );
 398              		.loc 1 290 0 discriminator 1
 399 0040 FB68     		ldr	r3, [r7, #12]
 400 0042 1A68     		ldr	r2, [r3]
 401 0044 FB68     		ldr	r3, [r7, #12]
 402 0046 0833     		adds	r3, r3, #8
 403 0048 1046     		mov	r0, r2
 404 004a 1946     		mov	r1, r3
 405 004c FFF7FEFF 		bl	prvIncrementSemaphoreCount
 291:..\Common\Minimal/countsem.c **** 		prvDecrementSemaphoreCount( pxParameter->xSemaphore, &( pxParameter->uxLoopCounter ) );
 406              		.loc 1 291 0 discriminator 1
 407 0050 FB68     		ldr	r3, [r7, #12]
 408 0052 1A68     		ldr	r2, [r3]
 409 0054 FB68     		ldr	r3, [r7, #12]
 410 0056 0833     		adds	r3, r3, #8
 411 0058 1046     		mov	r0, r2
 412 005a 1946     		mov	r1, r3
 413 005c FFF7FEFF 		bl	prvDecrementSemaphoreCount
 292:..\Common\Minimal/countsem.c **** 	}
 414              		.loc 1 292 0 discriminator 1
 415 0060 EEE7     		b	.L24
 416              	.L26:
 417 0062 00BF     		.align	2
 418              	.L25:
 419 0064 00000000 		.word	xErrorDetected
 420              		.cfi_endproc
 421              	.LFE71:
 422              		.size	prvCountingSemaphoreTask, .-prvCountingSemaphoreTask
 423              		.section	.text.xAreCountingSemaphoreTasksStillRunning,"ax",%progbits
 424              		.align	2
 425              		.global	xAreCountingSemaphoreTasksStillRunning
 426              		.thumb
 427              		.thumb_func
 428              		.type	xAreCountingSemaphoreTasksStillRunning, %function
 429              	xAreCountingSemaphoreTasksStillRunning:
 430              	.LFB72:
 293:..\Common\Minimal/countsem.c **** }
 294:..\Common\Minimal/countsem.c **** /*-----------------------------------------------------------*/
 295:..\Common\Minimal/countsem.c **** 
ARM GAS  C:\Users\bmt\AppData\Local\Temp\ccYnayrm.s 			page 14


 296:..\Common\Minimal/countsem.c **** BaseType_t xAreCountingSemaphoreTasksStillRunning( void )
 297:..\Common\Minimal/countsem.c **** {
 431              		.loc 1 297 0
 432              		.cfi_startproc
 433              		@ args = 0, pretend = 0, frame = 8
 434              		@ frame_needed = 1, uses_anonymous_args = 0
 435              		@ link register save eliminated.
 436 0000 80B4     		push	{r7}
 437              		.cfi_def_cfa_offset 4
 438              		.cfi_offset 7, -4
 439 0002 83B0     		sub	sp, sp, #12
 440              		.cfi_def_cfa_offset 16
 441 0004 00AF     		add	r7, sp, #0
 442              		.cfi_def_cfa_register 7
 298:..\Common\Minimal/countsem.c **** static UBaseType_t uxLastCount0 = 0, uxLastCount1 = 0;
 299:..\Common\Minimal/countsem.c **** BaseType_t xReturn = pdPASS;
 443              		.loc 1 299 0
 444 0006 0123     		movs	r3, #1
 445 0008 7B60     		str	r3, [r7, #4]
 300:..\Common\Minimal/countsem.c **** 
 301:..\Common\Minimal/countsem.c **** 	/* Return fail if any 'give' or 'take' did not result in the expected
 302:..\Common\Minimal/countsem.c **** 	behaviour. */
 303:..\Common\Minimal/countsem.c **** 	if( xErrorDetected != pdFALSE )
 446              		.loc 1 303 0
 447 000a 134B     		ldr	r3, .L34
 448 000c 1B68     		ldr	r3, [r3]
 449 000e 002B     		cmp	r3, #0
 450 0010 01D0     		beq	.L28
 304:..\Common\Minimal/countsem.c **** 	{
 305:..\Common\Minimal/countsem.c **** 		xReturn = pdFAIL;
 451              		.loc 1 305 0
 452 0012 0023     		movs	r3, #0
 453 0014 7B60     		str	r3, [r7, #4]
 454              	.L28:
 306:..\Common\Minimal/countsem.c **** 	}
 307:..\Common\Minimal/countsem.c **** 
 308:..\Common\Minimal/countsem.c **** 	/* Return fail if either task is not still incrementing its loop counter. */
 309:..\Common\Minimal/countsem.c **** 	if( uxLastCount0 == xParameters[ 0 ].uxLoopCounter )
 455              		.loc 1 309 0
 456 0016 114B     		ldr	r3, .L34+4
 457 0018 9A68     		ldr	r2, [r3, #8]
 458 001a 114B     		ldr	r3, .L34+8
 459 001c 1B68     		ldr	r3, [r3]
 460 001e 9A42     		cmp	r2, r3
 461 0020 02D1     		bne	.L29
 310:..\Common\Minimal/countsem.c **** 	{
 311:..\Common\Minimal/countsem.c **** 		xReturn = pdFAIL;
 462              		.loc 1 311 0
 463 0022 0023     		movs	r3, #0
 464 0024 7B60     		str	r3, [r7, #4]
 465 0026 03E0     		b	.L30
 466              	.L29:
 312:..\Common\Minimal/countsem.c **** 	}
 313:..\Common\Minimal/countsem.c **** 	else
 314:..\Common\Minimal/countsem.c **** 	{
 315:..\Common\Minimal/countsem.c **** 		uxLastCount0 = xParameters[ 0 ].uxLoopCounter;
 467              		.loc 1 315 0
ARM GAS  C:\Users\bmt\AppData\Local\Temp\ccYnayrm.s 			page 15


 468 0028 0C4B     		ldr	r3, .L34+4
 469 002a 9B68     		ldr	r3, [r3, #8]
 470 002c 0C4A     		ldr	r2, .L34+8
 471 002e 1360     		str	r3, [r2]
 472              	.L30:
 316:..\Common\Minimal/countsem.c **** 	}
 317:..\Common\Minimal/countsem.c **** 
 318:..\Common\Minimal/countsem.c **** 	if( uxLastCount1 == xParameters[ 1 ].uxLoopCounter )
 473              		.loc 1 318 0
 474 0030 0A4B     		ldr	r3, .L34+4
 475 0032 5A69     		ldr	r2, [r3, #20]
 476 0034 0B4B     		ldr	r3, .L34+12
 477 0036 1B68     		ldr	r3, [r3]
 478 0038 9A42     		cmp	r2, r3
 479 003a 02D1     		bne	.L31
 319:..\Common\Minimal/countsem.c **** 	{
 320:..\Common\Minimal/countsem.c **** 		xReturn = pdFAIL;
 480              		.loc 1 320 0
 481 003c 0023     		movs	r3, #0
 482 003e 7B60     		str	r3, [r7, #4]
 483 0040 03E0     		b	.L32
 484              	.L31:
 321:..\Common\Minimal/countsem.c **** 	}
 322:..\Common\Minimal/countsem.c **** 	else
 323:..\Common\Minimal/countsem.c **** 	{
 324:..\Common\Minimal/countsem.c **** 		uxLastCount1 = xParameters[ 1 ].uxLoopCounter;
 485              		.loc 1 324 0
 486 0042 064B     		ldr	r3, .L34+4
 487 0044 5B69     		ldr	r3, [r3, #20]
 488 0046 074A     		ldr	r2, .L34+12
 489 0048 1360     		str	r3, [r2]
 490              	.L32:
 325:..\Common\Minimal/countsem.c **** 	}
 326:..\Common\Minimal/countsem.c **** 
 327:..\Common\Minimal/countsem.c **** 	return xReturn;
 491              		.loc 1 327 0
 492 004a 7B68     		ldr	r3, [r7, #4]
 328:..\Common\Minimal/countsem.c **** }
 493              		.loc 1 328 0
 494 004c 1846     		mov	r0, r3
 495 004e 0C37     		adds	r7, r7, #12
 496              		.cfi_def_cfa_offset 4
 497 0050 BD46     		mov	sp, r7
 498              		.cfi_def_cfa_register 13
 499              		@ sp needed
 500 0052 5DF8047B 		ldr	r7, [sp], #4
 501              		.cfi_restore 7
 502              		.cfi_def_cfa_offset 0
 503 0056 7047     		bx	lr
 504              	.L35:
 505              		.align	2
 506              	.L34:
 507 0058 00000000 		.word	xErrorDetected
 508 005c 04000000 		.word	xParameters
 509 0060 1C000000 		.word	uxLastCount0.6675
 510 0064 20000000 		.word	uxLastCount1.6676
 511              		.cfi_endproc
ARM GAS  C:\Users\bmt\AppData\Local\Temp\ccYnayrm.s 			page 16


 512              	.LFE72:
 513              		.size	xAreCountingSemaphoreTasksStillRunning, .-xAreCountingSemaphoreTasksStillRunning
 514              		.bss
 515              		.align	2
 516              	uxLastCount0.6675:
 517 001c 00000000 		.space	4
 518              		.align	2
 519              	uxLastCount1.6676:
 520 0020 00000000 		.space	4
 521              		.text
 522              	.Letext0:
 523              		.file 2 "c:\\program files (x86)\\cypress\\psoc creator\\4.0\\psoc creator\\import\\gnu\\arm\\4.9.
 524              		.file 3 "c:\\program files (x86)\\cypress\\psoc creator\\4.0\\psoc creator\\import\\gnu\\arm\\4.9.
 525              		.file 4 "..\\Source\\portable\\GCC\\ARM_CM3/portmacro.h"
 526              		.file 5 "..\\Source\\include/queue.h"
 527              		.file 6 "..\\Source\\include/semphr.h"
 528              		.file 7 "Generated_Source\\PSoC5/core_cm3.h"