ARM GAS  C:\Users\bmt\AppData\Local\Temp\ccGaoXrB.s 			page 1


   1              		.syntax unified
   2              		.cpu cortex-m3
   3              		.fpu softvfp
   4              		.eabi_attribute 20, 1
   5              		.eabi_attribute 21, 1
   6              		.eabi_attribute 23, 3
   7              		.eabi_attribute 24, 1
   8              		.eabi_attribute 25, 1
   9              		.eabi_attribute 26, 1
  10              		.eabi_attribute 30, 6
  11              		.eabi_attribute 34, 1
  12              		.eabi_attribute 18, 4
  13              		.thumb
  14              		.file	"death.c"
  15              		.text
  16              	.Ltext0:
  17              		.cfi_sections	.debug_frame
  18              		.bss
  19              		.align	1
  20              	usCreationCount:
  21 0000 0000     		.space	2
  22 0002 0000     		.align	2
  23              	uxTasksRunningAtStart:
  24 0004 00000000 		.space	4
  25              		.section	.rodata
  26              		.align	2
  27              		.type	uxMaxNumberOfExtraTasksRunning, %object
  28              		.size	uxMaxNumberOfExtraTasksRunning, 4
  29              	uxMaxNumberOfExtraTasksRunning:
  30 0000 03000000 		.word	3
  31              		.comm	xCreatedTask,4,4
  32              		.align	2
  33              	.LC0:
  34 0004 43524541 		.ascii	"CREATOR\000"
  34      544F5200 
  35              		.section	.text.vCreateSuicidalTasks,"ax",%progbits
  36              		.align	2
  37              		.global	vCreateSuicidalTasks
  38              		.thumb
  39              		.thumb_func
  40              		.type	vCreateSuicidalTasks, %function
  41              	vCreateSuicidalTasks:
  42              	.LFB68:
  43              		.file 1 "..\\Common\\Minimal\\death.c"
   1:..\Common\Minimal/death.c **** /*
   2:..\Common\Minimal/death.c ****     FreeRTOS V9.0.0 - Copyright (C) 2016 Real Time Engineers Ltd.
   3:..\Common\Minimal/death.c ****     All rights reserved
   4:..\Common\Minimal/death.c **** 
   5:..\Common\Minimal/death.c ****     VISIT http://www.FreeRTOS.org TO ENSURE YOU ARE USING THE LATEST VERSION.
   6:..\Common\Minimal/death.c **** 
   7:..\Common\Minimal/death.c ****     This file is part of the FreeRTOS distribution.
   8:..\Common\Minimal/death.c **** 
   9:..\Common\Minimal/death.c ****     FreeRTOS is free software; you can redistribute it and/or modify it under
  10:..\Common\Minimal/death.c ****     the terms of the GNU General Public License (version 2) as published by the
  11:..\Common\Minimal/death.c ****     Free Software Foundation >>>> AND MODIFIED BY <<<< the FreeRTOS exception.
  12:..\Common\Minimal/death.c **** 
  13:..\Common\Minimal/death.c ****     ***************************************************************************
ARM GAS  C:\Users\bmt\AppData\Local\Temp\ccGaoXrB.s 			page 2


  14:..\Common\Minimal/death.c ****     >>!   NOTE: The modification to the GPL is included to allow you to     !<<
  15:..\Common\Minimal/death.c ****     >>!   distribute a combined work that includes FreeRTOS without being   !<<
  16:..\Common\Minimal/death.c ****     >>!   obliged to provide the source code for proprietary components     !<<
  17:..\Common\Minimal/death.c ****     >>!   outside of the FreeRTOS kernel.                                   !<<
  18:..\Common\Minimal/death.c ****     ***************************************************************************
  19:..\Common\Minimal/death.c **** 
  20:..\Common\Minimal/death.c ****     FreeRTOS is distributed in the hope that it will be useful, but WITHOUT ANY
  21:..\Common\Minimal/death.c ****     WARRANTY; without even the implied warranty of MERCHANTABILITY or FITNESS
  22:..\Common\Minimal/death.c ****     FOR A PARTICULAR PURPOSE.  Full license text is available on the following
  23:..\Common\Minimal/death.c ****     link: http://www.freertos.org/a00114.html
  24:..\Common\Minimal/death.c **** 
  25:..\Common\Minimal/death.c ****     ***************************************************************************
  26:..\Common\Minimal/death.c ****      *                                                                       *
  27:..\Common\Minimal/death.c ****      *    FreeRTOS provides completely free yet professionally developed,    *
  28:..\Common\Minimal/death.c ****      *    robust, strictly quality controlled, supported, and cross          *
  29:..\Common\Minimal/death.c ****      *    platform software that is more than just the market leader, it     *
  30:..\Common\Minimal/death.c ****      *    is the industry's de facto standard.                               *
  31:..\Common\Minimal/death.c ****      *                                                                       *
  32:..\Common\Minimal/death.c ****      *    Help yourself get started quickly while simultaneously helping     *
  33:..\Common\Minimal/death.c ****      *    to support the FreeRTOS project by purchasing a FreeRTOS           *
  34:..\Common\Minimal/death.c ****      *    tutorial book, reference manual, or both:                          *
  35:..\Common\Minimal/death.c ****      *    http://www.FreeRTOS.org/Documentation                              *
  36:..\Common\Minimal/death.c ****      *                                                                       *
  37:..\Common\Minimal/death.c ****     ***************************************************************************
  38:..\Common\Minimal/death.c **** 
  39:..\Common\Minimal/death.c ****     http://www.FreeRTOS.org/FAQHelp.html - Having a problem?  Start by reading
  40:..\Common\Minimal/death.c ****     the FAQ page "My application does not run, what could be wrong?".  Have you
  41:..\Common\Minimal/death.c ****     defined configASSERT()?
  42:..\Common\Minimal/death.c **** 
  43:..\Common\Minimal/death.c ****     http://www.FreeRTOS.org/support - In return for receiving this top quality
  44:..\Common\Minimal/death.c ****     embedded software for free we request you assist our global community by
  45:..\Common\Minimal/death.c ****     participating in the support forum.
  46:..\Common\Minimal/death.c **** 
  47:..\Common\Minimal/death.c ****     http://www.FreeRTOS.org/training - Investing in training allows your team to
  48:..\Common\Minimal/death.c ****     be as productive as possible as early as possible.  Now you can receive
  49:..\Common\Minimal/death.c ****     FreeRTOS training directly from Richard Barry, CEO of Real Time Engineers
  50:..\Common\Minimal/death.c ****     Ltd, and the world's leading authority on the world's leading RTOS.
  51:..\Common\Minimal/death.c **** 
  52:..\Common\Minimal/death.c ****     http://www.FreeRTOS.org/plus - A selection of FreeRTOS ecosystem products,
  53:..\Common\Minimal/death.c ****     including FreeRTOS+Trace - an indispensable productivity tool, a DOS
  54:..\Common\Minimal/death.c ****     compatible FAT file system, and our tiny thread aware UDP/IP stack.
  55:..\Common\Minimal/death.c **** 
  56:..\Common\Minimal/death.c ****     http://www.FreeRTOS.org/labs - Where new FreeRTOS products go to incubate.
  57:..\Common\Minimal/death.c ****     Come and try FreeRTOS+TCP, our new open source TCP/IP stack for FreeRTOS.
  58:..\Common\Minimal/death.c **** 
  59:..\Common\Minimal/death.c ****     http://www.OpenRTOS.com - Real Time Engineers ltd. license FreeRTOS to High
  60:..\Common\Minimal/death.c ****     Integrity Systems ltd. to sell under the OpenRTOS brand.  Low cost OpenRTOS
  61:..\Common\Minimal/death.c ****     licenses offer ticketed support, indemnification and commercial middleware.
  62:..\Common\Minimal/death.c **** 
  63:..\Common\Minimal/death.c ****     http://www.SafeRTOS.com - High Integrity Systems also provide a safety
  64:..\Common\Minimal/death.c ****     engineered and independently SIL3 certified version for use in safety and
  65:..\Common\Minimal/death.c ****     mission critical applications that require provable dependability.
  66:..\Common\Minimal/death.c **** 
  67:..\Common\Minimal/death.c ****     1 tab == 4 spaces!
  68:..\Common\Minimal/death.c **** */
  69:..\Common\Minimal/death.c **** 
  70:..\Common\Minimal/death.c **** /**
ARM GAS  C:\Users\bmt\AppData\Local\Temp\ccGaoXrB.s 			page 3


  71:..\Common\Minimal/death.c ****  * Create a single persistent task which periodically dynamically creates another
  72:..\Common\Minimal/death.c ****  * two tasks.  The original task is called the creator task, the two tasks it
  73:..\Common\Minimal/death.c ****  * creates are called suicidal tasks.
  74:..\Common\Minimal/death.c ****  *
  75:..\Common\Minimal/death.c ****  * One of the created suicidal tasks kill one other suicidal task before killing
  76:..\Common\Minimal/death.c ****  * itself - leaving just the original task remaining.
  77:..\Common\Minimal/death.c ****  *
  78:..\Common\Minimal/death.c ****  * The creator task must be spawned after all of the other demo application tasks
  79:..\Common\Minimal/death.c ****  * as it keeps a check on the number of tasks under the scheduler control.  The
  80:..\Common\Minimal/death.c ****  * number of tasks it expects to see running should never be greater than the
  81:..\Common\Minimal/death.c ****  * number of tasks that were in existence when the creator task was spawned, plus
  82:..\Common\Minimal/death.c ****  * one set of four suicidal tasks.  If this number is exceeded an error is flagged.
  83:..\Common\Minimal/death.c ****  *
  84:..\Common\Minimal/death.c ****  * \page DeathC death.c
  85:..\Common\Minimal/death.c ****  * \ingroup DemoFiles
  86:..\Common\Minimal/death.c ****  * <HR>
  87:..\Common\Minimal/death.c ****  */
  88:..\Common\Minimal/death.c **** 
  89:..\Common\Minimal/death.c **** 
  90:..\Common\Minimal/death.c **** #include <stdlib.h>
  91:..\Common\Minimal/death.c **** 
  92:..\Common\Minimal/death.c **** /* Scheduler include files. */
  93:..\Common\Minimal/death.c **** #include "FreeRTOS.h"
  94:..\Common\Minimal/death.c **** #include "task.h"
  95:..\Common\Minimal/death.c **** 
  96:..\Common\Minimal/death.c **** /* Demo program include files. */
  97:..\Common\Minimal/death.c **** #include "death.h"
  98:..\Common\Minimal/death.c **** 
  99:..\Common\Minimal/death.c **** #define deathSTACK_SIZE		( configMINIMAL_STACK_SIZE + 60 )
 100:..\Common\Minimal/death.c **** 
 101:..\Common\Minimal/death.c **** /* The task originally created which is responsible for periodically dynamically
 102:..\Common\Minimal/death.c **** creating another four tasks. */
 103:..\Common\Minimal/death.c **** static portTASK_FUNCTION_PROTO( vCreateTasks, pvParameters );
 104:..\Common\Minimal/death.c **** 
 105:..\Common\Minimal/death.c **** /* The task function of the dynamically created tasks. */
 106:..\Common\Minimal/death.c **** static portTASK_FUNCTION_PROTO( vSuicidalTask, pvParameters );
 107:..\Common\Minimal/death.c **** 
 108:..\Common\Minimal/death.c **** /* A variable which is incremented every time the dynamic tasks are created.  This
 109:..\Common\Minimal/death.c **** is used to check that the task is still running. */
 110:..\Common\Minimal/death.c **** static volatile uint16_t usCreationCount = 0;
 111:..\Common\Minimal/death.c **** 
 112:..\Common\Minimal/death.c **** /* Used to store the number of tasks that were originally running so the creator
 113:..\Common\Minimal/death.c **** task can tell if any of the suicidal tasks have failed to die.
 114:..\Common\Minimal/death.c **** */
 115:..\Common\Minimal/death.c **** static volatile UBaseType_t uxTasksRunningAtStart = 0;
 116:..\Common\Minimal/death.c **** 
 117:..\Common\Minimal/death.c **** /* When a task deletes itself, it stack and TCB are cleaned up by the Idle task.
 118:..\Common\Minimal/death.c **** Under heavy load the idle task might not get much processing time, so it would
 119:..\Common\Minimal/death.c **** be legitimate for several tasks to remain undeleted for a short period.  There
 120:..\Common\Minimal/death.c **** may also be a few other unexpected tasks if, for example, the tasks that test
 121:..\Common\Minimal/death.c **** static allocation are also being used. */
 122:..\Common\Minimal/death.c **** static const UBaseType_t uxMaxNumberOfExtraTasksRunning = 3;
 123:..\Common\Minimal/death.c **** 
 124:..\Common\Minimal/death.c **** /* Used to store a handle to the task that should be killed by a suicidal task,
 125:..\Common\Minimal/death.c **** before it kills itself. */
 126:..\Common\Minimal/death.c **** TaskHandle_t xCreatedTask;
 127:..\Common\Minimal/death.c **** 
ARM GAS  C:\Users\bmt\AppData\Local\Temp\ccGaoXrB.s 			page 4


 128:..\Common\Minimal/death.c **** /*-----------------------------------------------------------*/
 129:..\Common\Minimal/death.c **** 
 130:..\Common\Minimal/death.c **** void vCreateSuicidalTasks( UBaseType_t uxPriority )
 131:..\Common\Minimal/death.c **** {
  44              		.loc 1 131 0
  45              		.cfi_startproc
  46              		@ args = 0, pretend = 0, frame = 8
  47              		@ frame_needed = 1, uses_anonymous_args = 0
  48 0000 80B5     		push	{r7, lr}
  49              		.cfi_def_cfa_offset 8
  50              		.cfi_offset 7, -8
  51              		.cfi_offset 14, -4
  52 0002 84B0     		sub	sp, sp, #16
  53              		.cfi_def_cfa_offset 24
  54 0004 02AF     		add	r7, sp, #8
  55              		.cfi_def_cfa 7, 16
  56 0006 7860     		str	r0, [r7, #4]
 132:..\Common\Minimal/death.c **** 	xTaskCreate( vCreateTasks, "CREATOR", deathSTACK_SIZE, ( void * ) NULL, uxPriority, NULL );
  57              		.loc 1 132 0
  58 0008 7B68     		ldr	r3, [r7, #4]
  59 000a 0093     		str	r3, [sp]
  60 000c 0023     		movs	r3, #0
  61 000e 0193     		str	r3, [sp, #4]
  62 0010 0948     		ldr	r0, .L2
  63 0012 0A49     		ldr	r1, .L2+4
  64 0014 A022     		movs	r2, #160
  65 0016 0023     		movs	r3, #0
  66 0018 FFF7FEFF 		bl	xTaskCreate
 133:..\Common\Minimal/death.c **** 
 134:..\Common\Minimal/death.c **** 	/* Record the number of tasks that are running now so we know if any of the
 135:..\Common\Minimal/death.c **** 	suicidal tasks have failed to be killed. */
 136:..\Common\Minimal/death.c **** 	uxTasksRunningAtStart = ( UBaseType_t ) uxTaskGetNumberOfTasks();
  67              		.loc 1 136 0
  68 001c FFF7FEFF 		bl	uxTaskGetNumberOfTasks
  69 0020 0246     		mov	r2, r0
  70 0022 074B     		ldr	r3, .L2+8
  71 0024 1A60     		str	r2, [r3]
 137:..\Common\Minimal/death.c **** 
 138:..\Common\Minimal/death.c **** 	/* FreeRTOS.org versions before V3.0 started the idle-task as the very
 139:..\Common\Minimal/death.c **** 	first task. The idle task was then already included in uxTasksRunningAtStart.
 140:..\Common\Minimal/death.c **** 	From FreeRTOS V3.0 on, the idle task is started when the scheduler is
 141:..\Common\Minimal/death.c **** 	started. Therefore the idle task is not yet accounted for. We correct
 142:..\Common\Minimal/death.c **** 	this by increasing uxTasksRunningAtStart by 1. */
 143:..\Common\Minimal/death.c **** 	uxTasksRunningAtStart++;
  72              		.loc 1 143 0
  73 0026 064B     		ldr	r3, .L2+8
  74 0028 1B68     		ldr	r3, [r3]
  75 002a 0133     		adds	r3, r3, #1
  76 002c 044A     		ldr	r2, .L2+8
  77 002e 1360     		str	r3, [r2]
 144:..\Common\Minimal/death.c **** 
 145:..\Common\Minimal/death.c **** 	/* From FreeRTOS version 7.0.0 can optionally create a timer service task.
 146:..\Common\Minimal/death.c **** 	If this is done, then uxTasksRunningAtStart needs incrementing again as that
 147:..\Common\Minimal/death.c **** 	too is created when the scheduler is started. */
 148:..\Common\Minimal/death.c **** 	#if configUSE_TIMERS == 1
 149:..\Common\Minimal/death.c **** 	{
 150:..\Common\Minimal/death.c **** 		uxTasksRunningAtStart++;
ARM GAS  C:\Users\bmt\AppData\Local\Temp\ccGaoXrB.s 			page 5


 151:..\Common\Minimal/death.c **** 	}
 152:..\Common\Minimal/death.c **** 	#endif
 153:..\Common\Minimal/death.c **** }
  78              		.loc 1 153 0
  79 0030 0837     		adds	r7, r7, #8
  80              		.cfi_def_cfa_offset 8
  81 0032 BD46     		mov	sp, r7
  82              		.cfi_def_cfa_register 13
  83              		@ sp needed
  84 0034 80BD     		pop	{r7, pc}
  85              	.L3:
  86 0036 00BF     		.align	2
  87              	.L2:
  88 0038 00000000 		.word	vCreateTasks
  89 003c 04000000 		.word	.LC0
  90 0040 04000000 		.word	uxTasksRunningAtStart
  91              		.cfi_endproc
  92              	.LFE68:
  93              		.size	vCreateSuicidalTasks, .-vCreateSuicidalTasks
  94              		.section	.text.vSuicidalTask,"ax",%progbits
  95              		.align	2
  96              		.thumb
  97              		.thumb_func
  98              		.type	vSuicidalTask, %function
  99              	vSuicidalTask:
 100              	.LFB69:
 154:..\Common\Minimal/death.c **** /*-----------------------------------------------------------*/
 155:..\Common\Minimal/death.c **** 
 156:..\Common\Minimal/death.c **** static portTASK_FUNCTION( vSuicidalTask, pvParameters )
 157:..\Common\Minimal/death.c **** {
 101              		.loc 1 157 0
 102              		.cfi_startproc
 103              		@ args = 0, pretend = 0, frame = 24
 104              		@ frame_needed = 1, uses_anonymous_args = 0
 105 0000 80B5     		push	{r7, lr}
 106              		.cfi_def_cfa_offset 8
 107              		.cfi_offset 7, -8
 108              		.cfi_offset 14, -4
 109 0002 86B0     		sub	sp, sp, #24
 110              		.cfi_def_cfa_offset 32
 111 0004 00AF     		add	r7, sp, #0
 112              		.cfi_def_cfa_register 7
 113 0006 7860     		str	r0, [r7, #4]
 158:..\Common\Minimal/death.c **** volatile long l1, l2;
 159:..\Common\Minimal/death.c **** TaskHandle_t xTaskToKill;
 160:..\Common\Minimal/death.c **** const TickType_t xDelay = pdMS_TO_TICKS( ( TickType_t ) 200 );
 114              		.loc 1 160 0
 115 0008 C823     		movs	r3, #200
 116 000a 3B61     		str	r3, [r7, #16]
 161:..\Common\Minimal/death.c **** 
 162:..\Common\Minimal/death.c **** 	if( pvParameters != NULL )
 117              		.loc 1 162 0
 118 000c 7B68     		ldr	r3, [r7, #4]
 119 000e 002B     		cmp	r3, #0
 120 0010 03D0     		beq	.L5
 163:..\Common\Minimal/death.c **** 	{
 164:..\Common\Minimal/death.c **** 		/* This task is periodically created four times.  Two created tasks are
ARM GAS  C:\Users\bmt\AppData\Local\Temp\ccGaoXrB.s 			page 6


 165:..\Common\Minimal/death.c **** 		passed a handle to the other task so it can kill it before killing itself.
 166:..\Common\Minimal/death.c **** 		The other task is passed in null. */
 167:..\Common\Minimal/death.c **** 		xTaskToKill = *( TaskHandle_t* )pvParameters;
 121              		.loc 1 167 0
 122 0012 7B68     		ldr	r3, [r7, #4]
 123 0014 1B68     		ldr	r3, [r3]
 124 0016 7B61     		str	r3, [r7, #20]
 125 0018 01E0     		b	.L6
 126              	.L5:
 168:..\Common\Minimal/death.c **** 	}
 169:..\Common\Minimal/death.c **** 	else
 170:..\Common\Minimal/death.c **** 	{
 171:..\Common\Minimal/death.c **** 		xTaskToKill = NULL;
 127              		.loc 1 171 0
 128 001a 0023     		movs	r3, #0
 129 001c 7B61     		str	r3, [r7, #20]
 130              	.L6:
 172:..\Common\Minimal/death.c **** 	}
 173:..\Common\Minimal/death.c **** 
 174:..\Common\Minimal/death.c **** 	for( ;; )
 175:..\Common\Minimal/death.c **** 	{
 176:..\Common\Minimal/death.c **** 		/* Do something random just to use some stack and registers. */
 177:..\Common\Minimal/death.c **** 		l1 = 2;
 131              		.loc 1 177 0
 132 001e 0223     		movs	r3, #2
 133 0020 FB60     		str	r3, [r7, #12]
 178:..\Common\Minimal/death.c **** 		l2 = 89;
 134              		.loc 1 178 0
 135 0022 5923     		movs	r3, #89
 136 0024 BB60     		str	r3, [r7, #8]
 179:..\Common\Minimal/death.c **** 		l2 *= l1;
 137              		.loc 1 179 0
 138 0026 FB68     		ldr	r3, [r7, #12]
 139 0028 BA68     		ldr	r2, [r7, #8]
 140 002a 02FB03F3 		mul	r3, r2, r3
 141 002e BB60     		str	r3, [r7, #8]
 180:..\Common\Minimal/death.c **** 		vTaskDelay( xDelay );
 142              		.loc 1 180 0
 143 0030 3869     		ldr	r0, [r7, #16]
 144 0032 FFF7FEFF 		bl	vTaskDelay
 181:..\Common\Minimal/death.c **** 
 182:..\Common\Minimal/death.c **** 		if( xTaskToKill != NULL )
 145              		.loc 1 182 0
 146 0036 7B69     		ldr	r3, [r7, #20]
 147 0038 002B     		cmp	r3, #0
 148 003a 08D0     		beq	.L7
 183:..\Common\Minimal/death.c **** 		{
 184:..\Common\Minimal/death.c **** 			/* Make sure the other task has a go before we delete it. */
 185:..\Common\Minimal/death.c **** 			vTaskDelay( ( TickType_t ) 0 );
 149              		.loc 1 185 0
 150 003c 0020     		movs	r0, #0
 151 003e FFF7FEFF 		bl	vTaskDelay
 186:..\Common\Minimal/death.c **** 
 187:..\Common\Minimal/death.c **** 			/* Kill the other task that was created by vCreateTasks(). */
 188:..\Common\Minimal/death.c **** 			vTaskDelete( xTaskToKill );
 152              		.loc 1 188 0
 153 0042 7869     		ldr	r0, [r7, #20]
ARM GAS  C:\Users\bmt\AppData\Local\Temp\ccGaoXrB.s 			page 7


 154 0044 FFF7FEFF 		bl	vTaskDelete
 189:..\Common\Minimal/death.c **** 
 190:..\Common\Minimal/death.c **** 			/* Kill ourselves. */
 191:..\Common\Minimal/death.c **** 			vTaskDelete( NULL );
 155              		.loc 1 191 0
 156 0048 0020     		movs	r0, #0
 157 004a FFF7FEFF 		bl	vTaskDelete
 158              	.L7:
 192:..\Common\Minimal/death.c **** 		}
 193:..\Common\Minimal/death.c **** 	}
 159              		.loc 1 193 0
 160 004e E6E7     		b	.L6
 161              		.cfi_endproc
 162              	.LFE69:
 163              		.size	vSuicidalTask, .-vSuicidalTask
 164              		.section	.rodata
 165              		.align	2
 166              	.LC1:
 167 000c 53554943 		.ascii	"SUICID1\000"
 167      49443100 
 168              		.align	2
 169              	.LC2:
 170 0014 53554943 		.ascii	"SUICID2\000"
 170      49443200 
 171              		.section	.text.vCreateTasks,"ax",%progbits
 172              		.align	2
 173              		.thumb
 174              		.thumb_func
 175              		.type	vCreateTasks, %function
 176              	vCreateTasks:
 177              	.LFB70:
 194:..\Common\Minimal/death.c **** }/*lint !e818 !e550 Function prototype must be as per standard for task functions. */
 195:..\Common\Minimal/death.c **** /*-----------------------------------------------------------*/
 196:..\Common\Minimal/death.c **** 
 197:..\Common\Minimal/death.c **** static portTASK_FUNCTION( vCreateTasks, pvParameters )
 198:..\Common\Minimal/death.c **** {
 178              		.loc 1 198 0
 179              		.cfi_startproc
 180              		@ args = 0, pretend = 0, frame = 16
 181              		@ frame_needed = 1, uses_anonymous_args = 0
 182 0000 80B5     		push	{r7, lr}
 183              		.cfi_def_cfa_offset 8
 184              		.cfi_offset 7, -8
 185              		.cfi_offset 14, -4
 186 0002 86B0     		sub	sp, sp, #24
 187              		.cfi_def_cfa_offset 32
 188 0004 02AF     		add	r7, sp, #8
 189              		.cfi_def_cfa 7, 24
 190 0006 7860     		str	r0, [r7, #4]
 199:..\Common\Minimal/death.c **** const TickType_t xDelay = pdMS_TO_TICKS( ( TickType_t ) 1000 );
 191              		.loc 1 199 0
 192 0008 4FF47A73 		mov	r3, #1000
 193 000c FB60     		str	r3, [r7, #12]
 200:..\Common\Minimal/death.c **** UBaseType_t uxPriority;
 201:..\Common\Minimal/death.c **** 
 202:..\Common\Minimal/death.c **** 	/* Remove compiler warning about unused parameter. */
 203:..\Common\Minimal/death.c **** 	( void ) pvParameters;
ARM GAS  C:\Users\bmt\AppData\Local\Temp\ccGaoXrB.s 			page 8


 204:..\Common\Minimal/death.c **** 
 205:..\Common\Minimal/death.c **** 	uxPriority = uxTaskPriorityGet( NULL );
 194              		.loc 1 205 0
 195 000e 0020     		movs	r0, #0
 196 0010 FFF7FEFF 		bl	uxTaskPriorityGet
 197 0014 B860     		str	r0, [r7, #8]
 198              	.L9:
 206:..\Common\Minimal/death.c **** 
 207:..\Common\Minimal/death.c **** 	for( ;; )
 208:..\Common\Minimal/death.c **** 	{
 209:..\Common\Minimal/death.c **** 		/* Just loop round, delaying then creating the four suicidal tasks. */
 210:..\Common\Minimal/death.c **** 		vTaskDelay( xDelay );
 199              		.loc 1 210 0 discriminator 1
 200 0016 F868     		ldr	r0, [r7, #12]
 201 0018 FFF7FEFF 		bl	vTaskDelay
 211:..\Common\Minimal/death.c **** 
 212:..\Common\Minimal/death.c **** 		xCreatedTask = NULL;
 202              		.loc 1 212 0 discriminator 1
 203 001c 0F4B     		ldr	r3, .L10
 204 001e 0022     		movs	r2, #0
 205 0020 1A60     		str	r2, [r3]
 213:..\Common\Minimal/death.c **** 
 214:..\Common\Minimal/death.c **** 		xTaskCreate( vSuicidalTask, "SUICID1", configMINIMAL_STACK_SIZE, NULL, uxPriority, &xCreatedTask 
 206              		.loc 1 214 0 discriminator 1
 207 0022 BB68     		ldr	r3, [r7, #8]
 208 0024 0093     		str	r3, [sp]
 209 0026 0D4B     		ldr	r3, .L10
 210 0028 0193     		str	r3, [sp, #4]
 211 002a 0D48     		ldr	r0, .L10+4
 212 002c 0D49     		ldr	r1, .L10+8
 213 002e 6422     		movs	r2, #100
 214 0030 0023     		movs	r3, #0
 215 0032 FFF7FEFF 		bl	xTaskCreate
 215:..\Common\Minimal/death.c **** 		xTaskCreate( vSuicidalTask, "SUICID2", configMINIMAL_STACK_SIZE, &xCreatedTask, uxPriority, NULL 
 216              		.loc 1 215 0 discriminator 1
 217 0036 BB68     		ldr	r3, [r7, #8]
 218 0038 0093     		str	r3, [sp]
 219 003a 0023     		movs	r3, #0
 220 003c 0193     		str	r3, [sp, #4]
 221 003e 0848     		ldr	r0, .L10+4
 222 0040 0949     		ldr	r1, .L10+12
 223 0042 6422     		movs	r2, #100
 224 0044 054B     		ldr	r3, .L10
 225 0046 FFF7FEFF 		bl	xTaskCreate
 216:..\Common\Minimal/death.c **** 
 217:..\Common\Minimal/death.c **** 		++usCreationCount;
 226              		.loc 1 217 0 discriminator 1
 227 004a 084B     		ldr	r3, .L10+16
 228 004c 1B88     		ldrh	r3, [r3]	@ movhi
 229 004e 9BB2     		uxth	r3, r3
 230 0050 0133     		adds	r3, r3, #1
 231 0052 9AB2     		uxth	r2, r3
 232 0054 054B     		ldr	r3, .L10+16
 233 0056 1A80     		strh	r2, [r3]	@ movhi
 218:..\Common\Minimal/death.c **** 	}
 234              		.loc 1 218 0 discriminator 1
 235 0058 DDE7     		b	.L9
ARM GAS  C:\Users\bmt\AppData\Local\Temp\ccGaoXrB.s 			page 9


 236              	.L11:
 237 005a 00BF     		.align	2
 238              	.L10:
 239 005c 00000000 		.word	xCreatedTask
 240 0060 00000000 		.word	vSuicidalTask
 241 0064 0C000000 		.word	.LC1
 242 0068 14000000 		.word	.LC2
 243 006c 00000000 		.word	usCreationCount
 244              		.cfi_endproc
 245              	.LFE70:
 246              		.size	vCreateTasks, .-vCreateTasks
 247              		.section	.text.xIsCreateTaskStillRunning,"ax",%progbits
 248              		.align	2
 249              		.global	xIsCreateTaskStillRunning
 250              		.thumb
 251              		.thumb_func
 252              		.type	xIsCreateTaskStillRunning, %function
 253              	xIsCreateTaskStillRunning:
 254              	.LFB71:
 219:..\Common\Minimal/death.c **** }
 220:..\Common\Minimal/death.c **** /*-----------------------------------------------------------*/
 221:..\Common\Minimal/death.c **** 
 222:..\Common\Minimal/death.c **** /* This is called to check that the creator task is still running and that there
 223:..\Common\Minimal/death.c **** are not any more than four extra tasks. */
 224:..\Common\Minimal/death.c **** BaseType_t xIsCreateTaskStillRunning( void )
 225:..\Common\Minimal/death.c **** {
 255              		.loc 1 225 0
 256              		.cfi_startproc
 257              		@ args = 0, pretend = 0, frame = 8
 258              		@ frame_needed = 1, uses_anonymous_args = 0
 259 0000 80B5     		push	{r7, lr}
 260              		.cfi_def_cfa_offset 8
 261              		.cfi_offset 7, -8
 262              		.cfi_offset 14, -4
 263 0002 82B0     		sub	sp, sp, #8
 264              		.cfi_def_cfa_offset 16
 265 0004 00AF     		add	r7, sp, #0
 266              		.cfi_def_cfa_register 7
 226:..\Common\Minimal/death.c **** static uint16_t usLastCreationCount = 0xfff;
 227:..\Common\Minimal/death.c **** BaseType_t xReturn = pdTRUE;
 267              		.loc 1 227 0
 268 0006 0123     		movs	r3, #1
 269 0008 7B60     		str	r3, [r7, #4]
 228:..\Common\Minimal/death.c **** static UBaseType_t uxTasksRunningNow;
 229:..\Common\Minimal/death.c **** 
 230:..\Common\Minimal/death.c **** 	if( usLastCreationCount == usCreationCount )
 270              		.loc 1 230 0
 271 000a 164B     		ldr	r3, .L18
 272 000c 1A88     		ldrh	r2, [r3]
 273 000e 164B     		ldr	r3, .L18+4
 274 0010 1B88     		ldrh	r3, [r3]	@ movhi
 275 0012 9BB2     		uxth	r3, r3
 276 0014 9A42     		cmp	r2, r3
 277 0016 02D1     		bne	.L13
 231:..\Common\Minimal/death.c **** 	{
 232:..\Common\Minimal/death.c **** 		xReturn = pdFALSE;
 278              		.loc 1 232 0
ARM GAS  C:\Users\bmt\AppData\Local\Temp\ccGaoXrB.s 			page 10


 279 0018 0023     		movs	r3, #0
 280 001a 7B60     		str	r3, [r7, #4]
 281 001c 04E0     		b	.L14
 282              	.L13:
 233:..\Common\Minimal/death.c **** 	}
 234:..\Common\Minimal/death.c **** 	else
 235:..\Common\Minimal/death.c **** 	{
 236:..\Common\Minimal/death.c **** 		usLastCreationCount = usCreationCount;
 283              		.loc 1 236 0
 284 001e 124B     		ldr	r3, .L18+4
 285 0020 1B88     		ldrh	r3, [r3]	@ movhi
 286 0022 9AB2     		uxth	r2, r3
 287 0024 0F4B     		ldr	r3, .L18
 288 0026 1A80     		strh	r2, [r3]	@ movhi
 289              	.L14:
 237:..\Common\Minimal/death.c **** 	}
 238:..\Common\Minimal/death.c **** 
 239:..\Common\Minimal/death.c **** 	uxTasksRunningNow = ( UBaseType_t ) uxTaskGetNumberOfTasks();
 290              		.loc 1 239 0
 291 0028 FFF7FEFF 		bl	uxTaskGetNumberOfTasks
 292 002c 0246     		mov	r2, r0
 293 002e 0F4B     		ldr	r3, .L18+8
 294 0030 1A60     		str	r2, [r3]
 240:..\Common\Minimal/death.c **** 
 241:..\Common\Minimal/death.c **** 	if( uxTasksRunningNow < uxTasksRunningAtStart )
 295              		.loc 1 241 0
 296 0032 0E4B     		ldr	r3, .L18+8
 297 0034 1A68     		ldr	r2, [r3]
 298 0036 0E4B     		ldr	r3, .L18+12
 299 0038 1B68     		ldr	r3, [r3]
 300 003a 9A42     		cmp	r2, r3
 301 003c 02D2     		bcs	.L15
 242:..\Common\Minimal/death.c **** 	{
 243:..\Common\Minimal/death.c **** 		xReturn = pdFALSE;
 302              		.loc 1 243 0
 303 003e 0023     		movs	r3, #0
 304 0040 7B60     		str	r3, [r7, #4]
 305 0042 09E0     		b	.L16
 306              	.L15:
 244:..\Common\Minimal/death.c **** 	}
 245:..\Common\Minimal/death.c **** 	else if( ( uxTasksRunningNow - uxTasksRunningAtStart ) > uxMaxNumberOfExtraTasksRunning )
 307              		.loc 1 245 0
 308 0044 094B     		ldr	r3, .L18+8
 309 0046 1A68     		ldr	r2, [r3]
 310 0048 094B     		ldr	r3, .L18+12
 311 004a 1B68     		ldr	r3, [r3]
 312 004c D31A     		subs	r3, r2, r3
 313 004e 0322     		movs	r2, #3
 314 0050 9342     		cmp	r3, r2
 315 0052 01D9     		bls	.L16
 246:..\Common\Minimal/death.c **** 	{
 247:..\Common\Minimal/death.c **** 		xReturn = pdFALSE;
 316              		.loc 1 247 0
 317 0054 0023     		movs	r3, #0
 318 0056 7B60     		str	r3, [r7, #4]
 319              	.L16:
 248:..\Common\Minimal/death.c **** 	}
ARM GAS  C:\Users\bmt\AppData\Local\Temp\ccGaoXrB.s 			page 11


 249:..\Common\Minimal/death.c **** 	else
 250:..\Common\Minimal/death.c **** 	{
 251:..\Common\Minimal/death.c **** 		/* Everything is okay. */
 252:..\Common\Minimal/death.c **** 	}
 253:..\Common\Minimal/death.c **** 
 254:..\Common\Minimal/death.c **** 	return xReturn;
 320              		.loc 1 254 0
 321 0058 7B68     		ldr	r3, [r7, #4]
 255:..\Common\Minimal/death.c **** }
 322              		.loc 1 255 0
 323 005a 1846     		mov	r0, r3
 324 005c 0837     		adds	r7, r7, #8
 325              		.cfi_def_cfa_offset 8
 326 005e BD46     		mov	sp, r7
 327              		.cfi_def_cfa_register 13
 328              		@ sp needed
 329 0060 80BD     		pop	{r7, pc}
 330              	.L19:
 331 0062 00BF     		.align	2
 332              	.L18:
 333 0064 00000000 		.word	usLastCreationCount.6967
 334 0068 00000000 		.word	usCreationCount
 335 006c 08000000 		.word	uxTasksRunningNow.6969
 336 0070 04000000 		.word	uxTasksRunningAtStart
 337              		.cfi_endproc
 338              	.LFE71:
 339              		.size	xIsCreateTaskStillRunning, .-xIsCreateTaskStillRunning
 340              		.data
 341              		.align	1
 342              		.type	usLastCreationCount.6967, %object
 343              		.size	usLastCreationCount.6967, 2
 344              	usLastCreationCount.6967:
 345 0000 FF0F     		.short	4095
 346              		.bss
 347              		.align	2
 348              	uxTasksRunningNow.6969:
 349 0008 00000000 		.space	4
 350              		.text
 351              	.Letext0:
 352              		.file 2 "c:\\program files (x86)\\cypress\\psoc creator\\4.0\\psoc creator\\import\\gnu\\arm\\4.9.
 353              		.file 3 "c:\\program files (x86)\\cypress\\psoc creator\\4.0\\psoc creator\\import\\gnu\\arm\\4.9.
 354              		.file 4 "..\\Source\\portable\\GCC\\ARM_CM3/portmacro.h"
 355              		.file 5 "..\\Source\\include/task.h"
 356              		.file 6 "Generated_Source\\PSoC5/core_cm3.h"