ARM GAS  C:\Users\bmt\AppData\Local\Temp\ccAB5zDP.s 			page 1


   1              		.syntax unified
   2              		.cpu cortex-m3
   3              		.fpu softvfp
   4              		.eabi_attribute 20, 1
   5              		.eabi_attribute 21, 1
   6              		.eabi_attribute 23, 3
   7              		.eabi_attribute 24, 1
   8              		.eabi_attribute 25, 1
   9              		.eabi_attribute 26, 1
  10              		.eabi_attribute 30, 6
  11              		.eabi_attribute 34, 1
  12              		.eabi_attribute 18, 4
  13              		.thumb
  14              		.file	"dynamic.c"
  15              		.text
  16              	.Ltext0:
  17              		.cfi_sections	.debug_frame
  18              		.bss
  19              		.align	2
  20              	xContinuousIncrementHandle:
  21 0000 00000000 		.space	4
  22              		.align	2
  23              	xLimitedIncrementHandle:
  24 0004 00000000 		.space	4
  25              		.align	2
  26              	ulCounter:
  27 0008 00000000 		.space	4
  28              		.align	1
  29              	usCheckVariable:
  30 000c 0000     		.space	2
  31 000e 0000     		.align	2
  32              	xSuspendedQueueSendError:
  33 0010 00000000 		.space	4
  34              		.align	2
  35              	xSuspendedQueueReceiveError:
  36 0014 00000000 		.space	4
  37              		.comm	xSuspendedTestQueue,4,4
  38              		.align	2
  39              	ulExpectedValue:
  40 0018 00000000 		.space	4
  41              		.section	.rodata
  42              		.align	2
  43              	.LC0:
  44 0000 53757370 		.ascii	"Suspended_Test_Queue\000"
  44      656E6465 
  44      645F5465 
  44      73745F51 
  44      75657565 
  45 0015 000000   		.align	2
  46              	.LC1:
  47 0018 434E545F 		.ascii	"CNT_INC\000"
  47      494E4300 
  48              		.align	2
  49              	.LC2:
  50 0020 4C494D5F 		.ascii	"LIM_INC\000"
  50      494E4300 
  51              		.align	2
ARM GAS  C:\Users\bmt\AppData\Local\Temp\ccAB5zDP.s 			page 2


  52              	.LC3:
  53 0028 435F4354 		.ascii	"C_CTRL\000"
  53      524C00
  54 002f 00       		.align	2
  55              	.LC4:
  56 0030 53555350 		.ascii	"SUSP_TX\000"
  56      5F545800 
  57              		.align	2
  58              	.LC5:
  59 0038 53555350 		.ascii	"SUSP_RX\000"
  59      5F525800 
  60              		.section	.text.vStartDynamicPriorityTasks,"ax",%progbits
  61              		.align	2
  62              		.global	vStartDynamicPriorityTasks
  63              		.thumb
  64              		.thumb_func
  65              		.type	vStartDynamicPriorityTasks, %function
  66              	vStartDynamicPriorityTasks:
  67              	.LFB68:
  68              		.file 1 "..\\Common\\Minimal\\dynamic.c"
   1:..\Common\Minimal/dynamic.c **** /*
   2:..\Common\Minimal/dynamic.c ****     FreeRTOS V9.0.0 - Copyright (C) 2016 Real Time Engineers Ltd.
   3:..\Common\Minimal/dynamic.c ****     All rights reserved
   4:..\Common\Minimal/dynamic.c **** 
   5:..\Common\Minimal/dynamic.c ****     VISIT http://www.FreeRTOS.org TO ENSURE YOU ARE USING THE LATEST VERSION.
   6:..\Common\Minimal/dynamic.c **** 
   7:..\Common\Minimal/dynamic.c ****     This file is part of the FreeRTOS distribution.
   8:..\Common\Minimal/dynamic.c **** 
   9:..\Common\Minimal/dynamic.c ****     FreeRTOS is free software; you can redistribute it and/or modify it under
  10:..\Common\Minimal/dynamic.c ****     the terms of the GNU General Public License (version 2) as published by the
  11:..\Common\Minimal/dynamic.c ****     Free Software Foundation >>>> AND MODIFIED BY <<<< the FreeRTOS exception.
  12:..\Common\Minimal/dynamic.c **** 
  13:..\Common\Minimal/dynamic.c ****     ***************************************************************************
  14:..\Common\Minimal/dynamic.c ****     >>!   NOTE: The modification to the GPL is included to allow you to     !<<
  15:..\Common\Minimal/dynamic.c ****     >>!   distribute a combined work that includes FreeRTOS without being   !<<
  16:..\Common\Minimal/dynamic.c ****     >>!   obliged to provide the source code for proprietary components     !<<
  17:..\Common\Minimal/dynamic.c ****     >>!   outside of the FreeRTOS kernel.                                   !<<
  18:..\Common\Minimal/dynamic.c ****     ***************************************************************************
  19:..\Common\Minimal/dynamic.c **** 
  20:..\Common\Minimal/dynamic.c ****     FreeRTOS is distributed in the hope that it will be useful, but WITHOUT ANY
  21:..\Common\Minimal/dynamic.c ****     WARRANTY; without even the implied warranty of MERCHANTABILITY or FITNESS
  22:..\Common\Minimal/dynamic.c ****     FOR A PARTICULAR PURPOSE.  Full license text is available on the following
  23:..\Common\Minimal/dynamic.c ****     link: http://www.freertos.org/a00114.html
  24:..\Common\Minimal/dynamic.c **** 
  25:..\Common\Minimal/dynamic.c ****     ***************************************************************************
  26:..\Common\Minimal/dynamic.c ****      *                                                                       *
  27:..\Common\Minimal/dynamic.c ****      *    FreeRTOS provides completely free yet professionally developed,    *
  28:..\Common\Minimal/dynamic.c ****      *    robust, strictly quality controlled, supported, and cross          *
  29:..\Common\Minimal/dynamic.c ****      *    platform software that is more than just the market leader, it     *
  30:..\Common\Minimal/dynamic.c ****      *    is the industry's de facto standard.                               *
  31:..\Common\Minimal/dynamic.c ****      *                                                                       *
  32:..\Common\Minimal/dynamic.c ****      *    Help yourself get started quickly while simultaneously helping     *
  33:..\Common\Minimal/dynamic.c ****      *    to support the FreeRTOS project by purchasing a FreeRTOS           *
  34:..\Common\Minimal/dynamic.c ****      *    tutorial book, reference manual, or both:                          *
  35:..\Common\Minimal/dynamic.c ****      *    http://www.FreeRTOS.org/Documentation                              *
  36:..\Common\Minimal/dynamic.c ****      *                                                                       *
  37:..\Common\Minimal/dynamic.c ****     ***************************************************************************
ARM GAS  C:\Users\bmt\AppData\Local\Temp\ccAB5zDP.s 			page 3


  38:..\Common\Minimal/dynamic.c **** 
  39:..\Common\Minimal/dynamic.c ****     http://www.FreeRTOS.org/FAQHelp.html - Having a problem?  Start by reading
  40:..\Common\Minimal/dynamic.c ****     the FAQ page "My application does not run, what could be wrong?".  Have you
  41:..\Common\Minimal/dynamic.c ****     defined configASSERT()?
  42:..\Common\Minimal/dynamic.c **** 
  43:..\Common\Minimal/dynamic.c ****     http://www.FreeRTOS.org/support - In return for receiving this top quality
  44:..\Common\Minimal/dynamic.c ****     embedded software for free we request you assist our global community by
  45:..\Common\Minimal/dynamic.c ****     participating in the support forum.
  46:..\Common\Minimal/dynamic.c **** 
  47:..\Common\Minimal/dynamic.c ****     http://www.FreeRTOS.org/training - Investing in training allows your team to
  48:..\Common\Minimal/dynamic.c ****     be as productive as possible as early as possible.  Now you can receive
  49:..\Common\Minimal/dynamic.c ****     FreeRTOS training directly from Richard Barry, CEO of Real Time Engineers
  50:..\Common\Minimal/dynamic.c ****     Ltd, and the world's leading authority on the world's leading RTOS.
  51:..\Common\Minimal/dynamic.c **** 
  52:..\Common\Minimal/dynamic.c ****     http://www.FreeRTOS.org/plus - A selection of FreeRTOS ecosystem products,
  53:..\Common\Minimal/dynamic.c ****     including FreeRTOS+Trace - an indispensable productivity tool, a DOS
  54:..\Common\Minimal/dynamic.c ****     compatible FAT file system, and our tiny thread aware UDP/IP stack.
  55:..\Common\Minimal/dynamic.c **** 
  56:..\Common\Minimal/dynamic.c ****     http://www.FreeRTOS.org/labs - Where new FreeRTOS products go to incubate.
  57:..\Common\Minimal/dynamic.c ****     Come and try FreeRTOS+TCP, our new open source TCP/IP stack for FreeRTOS.
  58:..\Common\Minimal/dynamic.c **** 
  59:..\Common\Minimal/dynamic.c ****     http://www.OpenRTOS.com - Real Time Engineers ltd. license FreeRTOS to High
  60:..\Common\Minimal/dynamic.c ****     Integrity Systems ltd. to sell under the OpenRTOS brand.  Low cost OpenRTOS
  61:..\Common\Minimal/dynamic.c ****     licenses offer ticketed support, indemnification and commercial middleware.
  62:..\Common\Minimal/dynamic.c **** 
  63:..\Common\Minimal/dynamic.c ****     http://www.SafeRTOS.com - High Integrity Systems also provide a safety
  64:..\Common\Minimal/dynamic.c ****     engineered and independently SIL3 certified version for use in safety and
  65:..\Common\Minimal/dynamic.c ****     mission critical applications that require provable dependability.
  66:..\Common\Minimal/dynamic.c **** 
  67:..\Common\Minimal/dynamic.c ****     1 tab == 4 spaces!
  68:..\Common\Minimal/dynamic.c **** */
  69:..\Common\Minimal/dynamic.c **** 
  70:..\Common\Minimal/dynamic.c **** /*
  71:..\Common\Minimal/dynamic.c ****  * The first test creates three tasks - two counter tasks (one continuous count
  72:..\Common\Minimal/dynamic.c ****  * and one limited count) and one controller.  A "count" variable is shared
  73:..\Common\Minimal/dynamic.c ****  * between all three tasks.  The two counter tasks should never be in a "ready"
  74:..\Common\Minimal/dynamic.c ****  * state at the same time.  The controller task runs at the same priority as
  75:..\Common\Minimal/dynamic.c ****  * the continuous count task, and at a lower priority than the limited count
  76:..\Common\Minimal/dynamic.c ****  * task.
  77:..\Common\Minimal/dynamic.c ****  *
  78:..\Common\Minimal/dynamic.c ****  * One counter task loops indefinitely, incrementing the shared count variable
  79:..\Common\Minimal/dynamic.c ****  * on each iteration.  To ensure it has exclusive access to the variable it
  80:..\Common\Minimal/dynamic.c ****  * raises its priority above that of the controller task before each
  81:..\Common\Minimal/dynamic.c ****  * increment, lowering it again to its original priority before starting the
  82:..\Common\Minimal/dynamic.c ****  * next iteration.
  83:..\Common\Minimal/dynamic.c ****  *
  84:..\Common\Minimal/dynamic.c ****  * The other counter task increments the shared count variable on each
  85:..\Common\Minimal/dynamic.c ****  * iteration of its loop until the count has reached a limit of 0xff - at
  86:..\Common\Minimal/dynamic.c ****  * which point it suspends itself.  It will not start a new loop until the
  87:..\Common\Minimal/dynamic.c ****  * controller task has made it "ready" again by calling vTaskResume().
  88:..\Common\Minimal/dynamic.c ****  * This second counter task operates at a higher priority than controller
  89:..\Common\Minimal/dynamic.c ****  * task so does not need to worry about mutual exclusion of the counter
  90:..\Common\Minimal/dynamic.c ****  * variable.
  91:..\Common\Minimal/dynamic.c ****  *
  92:..\Common\Minimal/dynamic.c ****  * The controller task is in two sections.  The first section controls and
  93:..\Common\Minimal/dynamic.c ****  * monitors the continuous count task.  When this section is operational the
  94:..\Common\Minimal/dynamic.c ****  * limited count task is suspended.  Likewise, the second section controls
ARM GAS  C:\Users\bmt\AppData\Local\Temp\ccAB5zDP.s 			page 4


  95:..\Common\Minimal/dynamic.c ****  * and monitors the limited count task.  When this section is operational the
  96:..\Common\Minimal/dynamic.c ****  * continuous count task is suspended.
  97:..\Common\Minimal/dynamic.c ****  *
  98:..\Common\Minimal/dynamic.c ****  * In the first section the controller task first takes a copy of the shared
  99:..\Common\Minimal/dynamic.c ****  * count variable.  To ensure mutual exclusion on the count variable it
 100:..\Common\Minimal/dynamic.c ****  * suspends the continuous count task, resuming it again when the copy has been
 101:..\Common\Minimal/dynamic.c ****  * taken.  The controller task then sleeps for a fixed period - during which
 102:..\Common\Minimal/dynamic.c ****  * the continuous count task will execute and increment the shared variable.
 103:..\Common\Minimal/dynamic.c ****  * When the controller task wakes it checks that the continuous count task
 104:..\Common\Minimal/dynamic.c ****  * has executed by comparing the copy of the shared variable with its current
 105:..\Common\Minimal/dynamic.c ****  * value.  This time, to ensure mutual exclusion, the scheduler itself is
 106:..\Common\Minimal/dynamic.c ****  * suspended with a call to vTaskSuspendAll ().  This is for demonstration
 107:..\Common\Minimal/dynamic.c ****  * purposes only and is not a recommended technique due to its inefficiency.
 108:..\Common\Minimal/dynamic.c ****  *
 109:..\Common\Minimal/dynamic.c ****  * After a fixed number of iterations the controller task suspends the
 110:..\Common\Minimal/dynamic.c ****  * continuous count task, and moves on to its second section.
 111:..\Common\Minimal/dynamic.c ****  *
 112:..\Common\Minimal/dynamic.c ****  * At the start of the second section the shared variable is cleared to zero.
 113:..\Common\Minimal/dynamic.c ****  * The limited count task is then woken from its suspension by a call to
 114:..\Common\Minimal/dynamic.c ****  * vTaskResume ().  As this counter task operates at a higher priority than
 115:..\Common\Minimal/dynamic.c ****  * the controller task the controller task should not run again until the
 116:..\Common\Minimal/dynamic.c ****  * shared variable has been counted up to the limited value causing the counter
 117:..\Common\Minimal/dynamic.c ****  * task to suspend itself.  The next line after vTaskResume () is therefore
 118:..\Common\Minimal/dynamic.c ****  * a check on the shared variable to ensure everything is as expected.
 119:..\Common\Minimal/dynamic.c ****  *
 120:..\Common\Minimal/dynamic.c ****  *
 121:..\Common\Minimal/dynamic.c ****  * The second test consists of a couple of very simple tasks that post onto a
 122:..\Common\Minimal/dynamic.c ****  * queue while the scheduler is suspended.  This test was added to test parts
 123:..\Common\Minimal/dynamic.c ****  * of the scheduler not exercised by the first test.
 124:..\Common\Minimal/dynamic.c ****  *
 125:..\Common\Minimal/dynamic.c ****  */
 126:..\Common\Minimal/dynamic.c **** 
 127:..\Common\Minimal/dynamic.c **** #include <stdlib.h>
 128:..\Common\Minimal/dynamic.c **** 
 129:..\Common\Minimal/dynamic.c **** /* Scheduler include files. */
 130:..\Common\Minimal/dynamic.c **** #include "FreeRTOS.h"
 131:..\Common\Minimal/dynamic.c **** #include "task.h"
 132:..\Common\Minimal/dynamic.c **** #include "semphr.h"
 133:..\Common\Minimal/dynamic.c **** 
 134:..\Common\Minimal/dynamic.c **** /* Demo app include files. */
 135:..\Common\Minimal/dynamic.c **** #include "dynamic.h"
 136:..\Common\Minimal/dynamic.c **** 
 137:..\Common\Minimal/dynamic.c **** /* Function that implements the "limited count" task as described above. */
 138:..\Common\Minimal/dynamic.c **** static portTASK_FUNCTION_PROTO( vLimitedIncrementTask, pvParameters );
 139:..\Common\Minimal/dynamic.c **** 
 140:..\Common\Minimal/dynamic.c **** /* Function that implements the "continuous count" task as described above. */
 141:..\Common\Minimal/dynamic.c **** static portTASK_FUNCTION_PROTO( vContinuousIncrementTask, pvParameters );
 142:..\Common\Minimal/dynamic.c **** 
 143:..\Common\Minimal/dynamic.c **** /* Function that implements the controller task as described above. */
 144:..\Common\Minimal/dynamic.c **** static portTASK_FUNCTION_PROTO( vCounterControlTask, pvParameters );
 145:..\Common\Minimal/dynamic.c **** 
 146:..\Common\Minimal/dynamic.c **** static portTASK_FUNCTION_PROTO( vQueueReceiveWhenSuspendedTask, pvParameters );
 147:..\Common\Minimal/dynamic.c **** static portTASK_FUNCTION_PROTO( vQueueSendWhenSuspendedTask, pvParameters );
 148:..\Common\Minimal/dynamic.c **** 
 149:..\Common\Minimal/dynamic.c **** /* Demo task specific constants. */
 150:..\Common\Minimal/dynamic.c **** #define priSTACK_SIZE				( configMINIMAL_STACK_SIZE )
 151:..\Common\Minimal/dynamic.c **** #define priSLEEP_TIME				pdMS_TO_TICKS( 128 )
ARM GAS  C:\Users\bmt\AppData\Local\Temp\ccAB5zDP.s 			page 5


 152:..\Common\Minimal/dynamic.c **** #define priLOOPS					( 5 )
 153:..\Common\Minimal/dynamic.c **** #define priMAX_COUNT				( ( uint32_t ) 0xff )
 154:..\Common\Minimal/dynamic.c **** #define priNO_BLOCK					( ( TickType_t ) 0 )
 155:..\Common\Minimal/dynamic.c **** #define priSUSPENDED_QUEUE_LENGTH	( 1 )
 156:..\Common\Minimal/dynamic.c **** 
 157:..\Common\Minimal/dynamic.c **** /*-----------------------------------------------------------*/
 158:..\Common\Minimal/dynamic.c **** 
 159:..\Common\Minimal/dynamic.c **** /* Handles to the two counter tasks.  These could be passed in as parameters
 160:..\Common\Minimal/dynamic.c **** to the controller task to prevent them having to be file scope. */
 161:..\Common\Minimal/dynamic.c **** static TaskHandle_t xContinuousIncrementHandle, xLimitedIncrementHandle;
 162:..\Common\Minimal/dynamic.c **** 
 163:..\Common\Minimal/dynamic.c **** /* The shared counter variable.  This is passed in as a parameter to the two
 164:..\Common\Minimal/dynamic.c **** counter variables for demonstration purposes. */
 165:..\Common\Minimal/dynamic.c **** static volatile uint32_t ulCounter;
 166:..\Common\Minimal/dynamic.c **** 
 167:..\Common\Minimal/dynamic.c **** /* Variables used to check that the tasks are still operating without error.
 168:..\Common\Minimal/dynamic.c **** Each complete iteration of the controller task increments this variable
 169:..\Common\Minimal/dynamic.c **** provided no errors have been found.  The variable maintaining the same value
 170:..\Common\Minimal/dynamic.c **** is therefore indication of an error. */
 171:..\Common\Minimal/dynamic.c **** static volatile uint16_t usCheckVariable = ( uint16_t ) 0;
 172:..\Common\Minimal/dynamic.c **** static volatile BaseType_t xSuspendedQueueSendError = pdFALSE;
 173:..\Common\Minimal/dynamic.c **** static volatile BaseType_t xSuspendedQueueReceiveError = pdFALSE;
 174:..\Common\Minimal/dynamic.c **** 
 175:..\Common\Minimal/dynamic.c **** /* Queue used by the second test. */
 176:..\Common\Minimal/dynamic.c **** QueueHandle_t xSuspendedTestQueue;
 177:..\Common\Minimal/dynamic.c **** 
 178:..\Common\Minimal/dynamic.c **** /* The value the queue receive task expects to receive next.  This is file
 179:..\Common\Minimal/dynamic.c **** scope so xAreDynamicPriorityTasksStillRunning() can ensure it is still
 180:..\Common\Minimal/dynamic.c **** incrementing. */
 181:..\Common\Minimal/dynamic.c **** static uint32_t ulExpectedValue = ( uint32_t ) 0;
 182:..\Common\Minimal/dynamic.c **** 
 183:..\Common\Minimal/dynamic.c **** /*-----------------------------------------------------------*/
 184:..\Common\Minimal/dynamic.c **** /*
 185:..\Common\Minimal/dynamic.c ****  * Start the three tasks as described at the top of the file.
 186:..\Common\Minimal/dynamic.c ****  * Note that the limited count task is given a higher priority.
 187:..\Common\Minimal/dynamic.c ****  */
 188:..\Common\Minimal/dynamic.c **** void vStartDynamicPriorityTasks( void )
 189:..\Common\Minimal/dynamic.c **** {
  69              		.loc 1 189 0
  70              		.cfi_startproc
  71              		@ args = 0, pretend = 0, frame = 0
  72              		@ frame_needed = 1, uses_anonymous_args = 0
  73 0000 80B5     		push	{r7, lr}
  74              		.cfi_def_cfa_offset 8
  75              		.cfi_offset 7, -8
  76              		.cfi_offset 14, -4
  77 0002 82B0     		sub	sp, sp, #8
  78              		.cfi_def_cfa_offset 16
  79 0004 02AF     		add	r7, sp, #8
  80              		.cfi_def_cfa 7, 8
 190:..\Common\Minimal/dynamic.c **** 	xSuspendedTestQueue = xQueueCreate( priSUSPENDED_QUEUE_LENGTH, sizeof( uint32_t ) );
  81              		.loc 1 190 0
  82 0006 0120     		movs	r0, #1
  83 0008 0421     		movs	r1, #4
  84 000a 0022     		movs	r2, #0
  85 000c FFF7FEFF 		bl	xQueueGenericCreate
  86 0010 0246     		mov	r2, r0
ARM GAS  C:\Users\bmt\AppData\Local\Temp\ccAB5zDP.s 			page 6


  87 0012 204B     		ldr	r3, .L3
  88 0014 1A60     		str	r2, [r3]
 191:..\Common\Minimal/dynamic.c **** 
 192:..\Common\Minimal/dynamic.c **** 	if( xSuspendedTestQueue != NULL )
  89              		.loc 1 192 0
  90 0016 1F4B     		ldr	r3, .L3
  91 0018 1B68     		ldr	r3, [r3]
  92 001a 002B     		cmp	r3, #0
  93 001c 37D0     		beq	.L1
 193:..\Common\Minimal/dynamic.c **** 	{
 194:..\Common\Minimal/dynamic.c **** 		/* vQueueAddToRegistry() adds the queue to the queue registry, if one is
 195:..\Common\Minimal/dynamic.c **** 		in use.  The queue registry is provided as a means for kernel aware
 196:..\Common\Minimal/dynamic.c **** 		debuggers to locate queues and has no purpose if a kernel aware debugger
 197:..\Common\Minimal/dynamic.c **** 		is not being used.  The call to vQueueAddToRegistry() will be removed
 198:..\Common\Minimal/dynamic.c **** 		by the pre-processor if configQUEUE_REGISTRY_SIZE is not defined or is
 199:..\Common\Minimal/dynamic.c **** 		defined to be less than 1. */
 200:..\Common\Minimal/dynamic.c **** 		vQueueAddToRegistry( xSuspendedTestQueue, "Suspended_Test_Queue" );
  94              		.loc 1 200 0
  95 001e 1D4B     		ldr	r3, .L3
  96 0020 1B68     		ldr	r3, [r3]
  97 0022 1846     		mov	r0, r3
  98 0024 1C49     		ldr	r1, .L3+4
  99 0026 FFF7FEFF 		bl	vQueueAddToRegistry
 201:..\Common\Minimal/dynamic.c **** 
 202:..\Common\Minimal/dynamic.c **** 		xTaskCreate( vContinuousIncrementTask, "CNT_INC", priSTACK_SIZE, ( void * ) &ulCounter, tskIDLE_P
 100              		.loc 1 202 0
 101 002a 0023     		movs	r3, #0
 102 002c 0093     		str	r3, [sp]
 103 002e 1B4B     		ldr	r3, .L3+8
 104 0030 0193     		str	r3, [sp, #4]
 105 0032 1B48     		ldr	r0, .L3+12
 106 0034 1B49     		ldr	r1, .L3+16
 107 0036 6422     		movs	r2, #100
 108 0038 1B4B     		ldr	r3, .L3+20
 109 003a FFF7FEFF 		bl	xTaskCreate
 203:..\Common\Minimal/dynamic.c **** 		xTaskCreate( vLimitedIncrementTask, "LIM_INC", priSTACK_SIZE, ( void * ) &ulCounter, tskIDLE_PRIO
 110              		.loc 1 203 0
 111 003e 0123     		movs	r3, #1
 112 0040 0093     		str	r3, [sp]
 113 0042 1A4B     		ldr	r3, .L3+24
 114 0044 0193     		str	r3, [sp, #4]
 115 0046 1A48     		ldr	r0, .L3+28
 116 0048 1A49     		ldr	r1, .L3+32
 117 004a 6422     		movs	r2, #100
 118 004c 164B     		ldr	r3, .L3+20
 119 004e FFF7FEFF 		bl	xTaskCreate
 204:..\Common\Minimal/dynamic.c **** 		xTaskCreate( vCounterControlTask, "C_CTRL", priSTACK_SIZE, NULL, tskIDLE_PRIORITY, NULL );
 120              		.loc 1 204 0
 121 0052 0023     		movs	r3, #0
 122 0054 0093     		str	r3, [sp]
 123 0056 0023     		movs	r3, #0
 124 0058 0193     		str	r3, [sp, #4]
 125 005a 1748     		ldr	r0, .L3+36
 126 005c 1749     		ldr	r1, .L3+40
 127 005e 6422     		movs	r2, #100
 128 0060 0023     		movs	r3, #0
 129 0062 FFF7FEFF 		bl	xTaskCreate
ARM GAS  C:\Users\bmt\AppData\Local\Temp\ccAB5zDP.s 			page 7


 205:..\Common\Minimal/dynamic.c **** 		xTaskCreate( vQueueSendWhenSuspendedTask, "SUSP_TX", priSTACK_SIZE, NULL, tskIDLE_PRIORITY, NULL 
 130              		.loc 1 205 0
 131 0066 0023     		movs	r3, #0
 132 0068 0093     		str	r3, [sp]
 133 006a 0023     		movs	r3, #0
 134 006c 0193     		str	r3, [sp, #4]
 135 006e 1448     		ldr	r0, .L3+44
 136 0070 1449     		ldr	r1, .L3+48
 137 0072 6422     		movs	r2, #100
 138 0074 0023     		movs	r3, #0
 139 0076 FFF7FEFF 		bl	xTaskCreate
 206:..\Common\Minimal/dynamic.c **** 		xTaskCreate( vQueueReceiveWhenSuspendedTask, "SUSP_RX", priSTACK_SIZE, NULL, tskIDLE_PRIORITY, NU
 140              		.loc 1 206 0
 141 007a 0023     		movs	r3, #0
 142 007c 0093     		str	r3, [sp]
 143 007e 0023     		movs	r3, #0
 144 0080 0193     		str	r3, [sp, #4]
 145 0082 1148     		ldr	r0, .L3+52
 146 0084 1149     		ldr	r1, .L3+56
 147 0086 6422     		movs	r2, #100
 148 0088 0023     		movs	r3, #0
 149 008a FFF7FEFF 		bl	xTaskCreate
 150              	.L1:
 207:..\Common\Minimal/dynamic.c **** 	}
 208:..\Common\Minimal/dynamic.c **** }
 151              		.loc 1 208 0
 152 008e BD46     		mov	sp, r7
 153              		.cfi_def_cfa_register 13
 154              		@ sp needed
 155 0090 80BD     		pop	{r7, pc}
 156              	.L4:
 157 0092 00BF     		.align	2
 158              	.L3:
 159 0094 00000000 		.word	xSuspendedTestQueue
 160 0098 00000000 		.word	.LC0
 161 009c 00000000 		.word	xContinuousIncrementHandle
 162 00a0 00000000 		.word	vContinuousIncrementTask
 163 00a4 18000000 		.word	.LC1
 164 00a8 08000000 		.word	ulCounter
 165 00ac 04000000 		.word	xLimitedIncrementHandle
 166 00b0 00000000 		.word	vLimitedIncrementTask
 167 00b4 20000000 		.word	.LC2
 168 00b8 00000000 		.word	vCounterControlTask
 169 00bc 28000000 		.word	.LC3
 170 00c0 00000000 		.word	vQueueSendWhenSuspendedTask
 171 00c4 30000000 		.word	.LC4
 172 00c8 00000000 		.word	vQueueReceiveWhenSuspendedTask
 173 00cc 38000000 		.word	.LC5
 174              		.cfi_endproc
 175              	.LFE68:
 176              		.size	vStartDynamicPriorityTasks, .-vStartDynamicPriorityTasks
 177              		.section	.text.vLimitedIncrementTask,"ax",%progbits
 178              		.align	2
 179              		.thumb
 180              		.thumb_func
 181              		.type	vLimitedIncrementTask, %function
 182              	vLimitedIncrementTask:
ARM GAS  C:\Users\bmt\AppData\Local\Temp\ccAB5zDP.s 			page 8


 183              	.LFB69:
 209:..\Common\Minimal/dynamic.c **** /*-----------------------------------------------------------*/
 210:..\Common\Minimal/dynamic.c **** 
 211:..\Common\Minimal/dynamic.c **** /*
 212:..\Common\Minimal/dynamic.c ****  * Just loops around incrementing the shared variable until the limit has been
 213:..\Common\Minimal/dynamic.c ****  * reached.  Once the limit has been reached it suspends itself.
 214:..\Common\Minimal/dynamic.c ****  */
 215:..\Common\Minimal/dynamic.c **** static portTASK_FUNCTION( vLimitedIncrementTask, pvParameters )
 216:..\Common\Minimal/dynamic.c **** {
 184              		.loc 1 216 0
 185              		.cfi_startproc
 186              		@ args = 0, pretend = 0, frame = 16
 187              		@ frame_needed = 1, uses_anonymous_args = 0
 188 0000 80B5     		push	{r7, lr}
 189              		.cfi_def_cfa_offset 8
 190              		.cfi_offset 7, -8
 191              		.cfi_offset 14, -4
 192 0002 84B0     		sub	sp, sp, #16
 193              		.cfi_def_cfa_offset 24
 194 0004 00AF     		add	r7, sp, #0
 195              		.cfi_def_cfa_register 7
 196 0006 7860     		str	r0, [r7, #4]
 217:..\Common\Minimal/dynamic.c **** uint32_t *pulCounter;
 218:..\Common\Minimal/dynamic.c **** 
 219:..\Common\Minimal/dynamic.c **** 	/* Take a pointer to the shared variable from the parameters passed into
 220:..\Common\Minimal/dynamic.c **** 	the task. */
 221:..\Common\Minimal/dynamic.c **** 	pulCounter = ( uint32_t * ) pvParameters;
 197              		.loc 1 221 0
 198 0008 7B68     		ldr	r3, [r7, #4]
 199 000a FB60     		str	r3, [r7, #12]
 222:..\Common\Minimal/dynamic.c **** 
 223:..\Common\Minimal/dynamic.c **** 	/* This will run before the control task, so the first thing it does is
 224:..\Common\Minimal/dynamic.c **** 	suspend - the control task will resume it when ready. */
 225:..\Common\Minimal/dynamic.c **** 	vTaskSuspend( NULL );
 200              		.loc 1 225 0
 201 000c 0020     		movs	r0, #0
 202 000e FFF7FEFF 		bl	vTaskSuspend
 203              	.L7:
 226:..\Common\Minimal/dynamic.c **** 
 227:..\Common\Minimal/dynamic.c **** 	for( ;; )
 228:..\Common\Minimal/dynamic.c **** 	{
 229:..\Common\Minimal/dynamic.c **** 		/* Just count up to a value then suspend. */
 230:..\Common\Minimal/dynamic.c **** 		( *pulCounter )++;
 204              		.loc 1 230 0
 205 0012 FB68     		ldr	r3, [r7, #12]
 206 0014 1B68     		ldr	r3, [r3]
 207 0016 5A1C     		adds	r2, r3, #1
 208 0018 FB68     		ldr	r3, [r7, #12]
 209 001a 1A60     		str	r2, [r3]
 231:..\Common\Minimal/dynamic.c **** 
 232:..\Common\Minimal/dynamic.c **** 		if( *pulCounter >= priMAX_COUNT )
 210              		.loc 1 232 0
 211 001c FB68     		ldr	r3, [r7, #12]
 212 001e 1B68     		ldr	r3, [r3]
 213 0020 FE2B     		cmp	r3, #254
 214 0022 02D9     		bls	.L6
 233:..\Common\Minimal/dynamic.c **** 		{
ARM GAS  C:\Users\bmt\AppData\Local\Temp\ccAB5zDP.s 			page 9


 234:..\Common\Minimal/dynamic.c **** 			vTaskSuspend( NULL );
 215              		.loc 1 234 0
 216 0024 0020     		movs	r0, #0
 217 0026 FFF7FEFF 		bl	vTaskSuspend
 218              	.L6:
 235:..\Common\Minimal/dynamic.c **** 		}
 236:..\Common\Minimal/dynamic.c **** 	}
 219              		.loc 1 236 0
 220 002a F2E7     		b	.L7
 221              		.cfi_endproc
 222              	.LFE69:
 223              		.size	vLimitedIncrementTask, .-vLimitedIncrementTask
 224              		.section	.text.vContinuousIncrementTask,"ax",%progbits
 225              		.align	2
 226              		.thumb
 227              		.thumb_func
 228              		.type	vContinuousIncrementTask, %function
 229              	vContinuousIncrementTask:
 230              	.LFB70:
 237:..\Common\Minimal/dynamic.c **** }
 238:..\Common\Minimal/dynamic.c **** /*-----------------------------------------------------------*/
 239:..\Common\Minimal/dynamic.c **** 
 240:..\Common\Minimal/dynamic.c **** /*
 241:..\Common\Minimal/dynamic.c ****  * Just keep counting the shared variable up.  The control task will suspend
 242:..\Common\Minimal/dynamic.c ****  * this task when it wants.
 243:..\Common\Minimal/dynamic.c ****  */
 244:..\Common\Minimal/dynamic.c **** static portTASK_FUNCTION( vContinuousIncrementTask, pvParameters )
 245:..\Common\Minimal/dynamic.c **** {
 231              		.loc 1 245 0
 232              		.cfi_startproc
 233              		@ args = 0, pretend = 0, frame = 16
 234              		@ frame_needed = 1, uses_anonymous_args = 0
 235 0000 80B5     		push	{r7, lr}
 236              		.cfi_def_cfa_offset 8
 237              		.cfi_offset 7, -8
 238              		.cfi_offset 14, -4
 239 0002 84B0     		sub	sp, sp, #16
 240              		.cfi_def_cfa_offset 24
 241 0004 00AF     		add	r7, sp, #0
 242              		.cfi_def_cfa_register 7
 243 0006 7860     		str	r0, [r7, #4]
 246:..\Common\Minimal/dynamic.c **** volatile uint32_t *pulCounter;
 247:..\Common\Minimal/dynamic.c **** UBaseType_t uxOurPriority;
 248:..\Common\Minimal/dynamic.c **** 
 249:..\Common\Minimal/dynamic.c **** 	/* Take a pointer to the shared variable from the parameters passed into
 250:..\Common\Minimal/dynamic.c **** 	the task. */
 251:..\Common\Minimal/dynamic.c **** 	pulCounter = ( uint32_t * ) pvParameters;
 244              		.loc 1 251 0
 245 0008 7B68     		ldr	r3, [r7, #4]
 246 000a FB60     		str	r3, [r7, #12]
 252:..\Common\Minimal/dynamic.c **** 
 253:..\Common\Minimal/dynamic.c **** 	/* Query our priority so we can raise it when exclusive access to the
 254:..\Common\Minimal/dynamic.c **** 	shared variable is required. */
 255:..\Common\Minimal/dynamic.c **** 	uxOurPriority = uxTaskPriorityGet( NULL );
 247              		.loc 1 255 0
 248 000c 0020     		movs	r0, #0
 249 000e FFF7FEFF 		bl	uxTaskPriorityGet
ARM GAS  C:\Users\bmt\AppData\Local\Temp\ccAB5zDP.s 			page 10


 250 0012 B860     		str	r0, [r7, #8]
 251              	.L9:
 256:..\Common\Minimal/dynamic.c **** 
 257:..\Common\Minimal/dynamic.c **** 	for( ;; )
 258:..\Common\Minimal/dynamic.c **** 	{
 259:..\Common\Minimal/dynamic.c **** 		/* Raise the priority above the controller task to ensure a context
 260:..\Common\Minimal/dynamic.c **** 		switch does not occur while the variable is being accessed. */
 261:..\Common\Minimal/dynamic.c **** 		vTaskPrioritySet( NULL, uxOurPriority + 1 );
 252              		.loc 1 261 0 discriminator 1
 253 0014 BB68     		ldr	r3, [r7, #8]
 254 0016 0133     		adds	r3, r3, #1
 255 0018 0020     		movs	r0, #0
 256 001a 1946     		mov	r1, r3
 257 001c FFF7FEFF 		bl	vTaskPrioritySet
 262:..\Common\Minimal/dynamic.c **** 		{
 263:..\Common\Minimal/dynamic.c **** 			configASSERT( ( uxTaskPriorityGet( NULL ) == ( uxOurPriority + 1 ) ) );
 264:..\Common\Minimal/dynamic.c **** 			( *pulCounter )++;
 258              		.loc 1 264 0 discriminator 1
 259 0020 FB68     		ldr	r3, [r7, #12]
 260 0022 1B68     		ldr	r3, [r3]
 261 0024 5A1C     		adds	r2, r3, #1
 262 0026 FB68     		ldr	r3, [r7, #12]
 263 0028 1A60     		str	r2, [r3]
 265:..\Common\Minimal/dynamic.c **** 		}
 266:..\Common\Minimal/dynamic.c **** 		vTaskPrioritySet( NULL, uxOurPriority );
 264              		.loc 1 266 0 discriminator 1
 265 002a 0020     		movs	r0, #0
 266 002c B968     		ldr	r1, [r7, #8]
 267 002e FFF7FEFF 		bl	vTaskPrioritySet
 267:..\Common\Minimal/dynamic.c **** 
 268:..\Common\Minimal/dynamic.c **** 		#if( configUSE_PREEMPTION == 0 )
 269:..\Common\Minimal/dynamic.c **** 			taskYIELD();
 270:..\Common\Minimal/dynamic.c **** 		#endif
 271:..\Common\Minimal/dynamic.c **** 
 272:..\Common\Minimal/dynamic.c **** 		configASSERT( ( uxTaskPriorityGet( NULL ) == uxOurPriority ) );
 273:..\Common\Minimal/dynamic.c **** 	}
 268              		.loc 1 273 0 discriminator 1
 269 0032 EFE7     		b	.L9
 270              		.cfi_endproc
 271              	.LFE70:
 272              		.size	vContinuousIncrementTask, .-vContinuousIncrementTask
 273              		.section	.text.vCounterControlTask,"ax",%progbits
 274              		.align	2
 275              		.thumb
 276              		.thumb_func
 277              		.type	vCounterControlTask, %function
 278              	vCounterControlTask:
 279              	.LFB71:
 274:..\Common\Minimal/dynamic.c **** }
 275:..\Common\Minimal/dynamic.c **** /*-----------------------------------------------------------*/
 276:..\Common\Minimal/dynamic.c **** 
 277:..\Common\Minimal/dynamic.c **** /*
 278:..\Common\Minimal/dynamic.c ****  * Controller task as described above.
 279:..\Common\Minimal/dynamic.c ****  */
 280:..\Common\Minimal/dynamic.c **** static portTASK_FUNCTION( vCounterControlTask, pvParameters )
 281:..\Common\Minimal/dynamic.c **** {
 280              		.loc 1 281 0
ARM GAS  C:\Users\bmt\AppData\Local\Temp\ccAB5zDP.s 			page 11


 281              		.cfi_startproc
 282              		@ args = 0, pretend = 0, frame = 16
 283              		@ frame_needed = 1, uses_anonymous_args = 0
 284 0000 80B5     		push	{r7, lr}
 285              		.cfi_def_cfa_offset 8
 286              		.cfi_offset 7, -8
 287              		.cfi_offset 14, -4
 288 0002 84B0     		sub	sp, sp, #16
 289              		.cfi_def_cfa_offset 24
 290 0004 00AF     		add	r7, sp, #0
 291              		.cfi_def_cfa_register 7
 292 0006 7860     		str	r0, [r7, #4]
 282:..\Common\Minimal/dynamic.c **** uint32_t ulLastCounter;
 283:..\Common\Minimal/dynamic.c **** short sLoops;
 284:..\Common\Minimal/dynamic.c **** short sError = pdFALSE;
 293              		.loc 1 284 0
 294 0008 0023     		movs	r3, #0
 295 000a BB81     		strh	r3, [r7, #12]	@ movhi
 296              	.L16:
 285:..\Common\Minimal/dynamic.c **** 
 286:..\Common\Minimal/dynamic.c **** 	/* Just to stop warning messages. */
 287:..\Common\Minimal/dynamic.c **** 	( void ) pvParameters;
 288:..\Common\Minimal/dynamic.c **** 
 289:..\Common\Minimal/dynamic.c **** 	for( ;; )
 290:..\Common\Minimal/dynamic.c **** 	{
 291:..\Common\Minimal/dynamic.c **** 		/* Start with the counter at zero. */
 292:..\Common\Minimal/dynamic.c **** 		ulCounter = ( uint32_t ) 0;
 297              		.loc 1 292 0
 298 000c 284B     		ldr	r3, .L17
 299 000e 0022     		movs	r2, #0
 300 0010 1A60     		str	r2, [r3]
 293:..\Common\Minimal/dynamic.c **** 
 294:..\Common\Minimal/dynamic.c **** 		/* First section : */
 295:..\Common\Minimal/dynamic.c **** 
 296:..\Common\Minimal/dynamic.c **** 		/* Check the continuous count task is running. */
 297:..\Common\Minimal/dynamic.c **** 		for( sLoops = 0; sLoops < priLOOPS; sLoops++ )
 301              		.loc 1 297 0
 302 0012 0023     		movs	r3, #0
 303 0014 FB81     		strh	r3, [r7, #14]	@ movhi
 304 0016 1FE0     		b	.L11
 305              	.L13:
 298:..\Common\Minimal/dynamic.c **** 		{
 299:..\Common\Minimal/dynamic.c **** 			/* Suspend the continuous count task so we can take a mirror of the
 300:..\Common\Minimal/dynamic.c **** 			shared variable without risk of corruption.  This is not really
 301:..\Common\Minimal/dynamic.c **** 			needed as the other task raises its priority above this task's
 302:..\Common\Minimal/dynamic.c **** 			priority. */
 303:..\Common\Minimal/dynamic.c **** 			vTaskSuspend( xContinuousIncrementHandle );
 306              		.loc 1 303 0
 307 0018 264B     		ldr	r3, .L17+4
 308 001a 1B68     		ldr	r3, [r3]
 309 001c 1846     		mov	r0, r3
 310 001e FFF7FEFF 		bl	vTaskSuspend
 304:..\Common\Minimal/dynamic.c **** 			{
 305:..\Common\Minimal/dynamic.c **** 				#if( INCLUDE_eTaskGetState == 1 )
 306:..\Common\Minimal/dynamic.c **** 				{
 307:..\Common\Minimal/dynamic.c **** 					configASSERT( eTaskGetState( xContinuousIncrementHandle ) == eSuspended );
 308:..\Common\Minimal/dynamic.c **** 				}
ARM GAS  C:\Users\bmt\AppData\Local\Temp\ccAB5zDP.s 			page 12


 309:..\Common\Minimal/dynamic.c **** 				#endif /* INCLUDE_eTaskGetState */
 310:..\Common\Minimal/dynamic.c **** 
 311:..\Common\Minimal/dynamic.c **** 				ulLastCounter = ulCounter;
 311              		.loc 1 311 0
 312 0022 234B     		ldr	r3, .L17
 313 0024 1B68     		ldr	r3, [r3]
 314 0026 BB60     		str	r3, [r7, #8]
 312:..\Common\Minimal/dynamic.c **** 			}
 313:..\Common\Minimal/dynamic.c **** 			vTaskResume( xContinuousIncrementHandle );
 315              		.loc 1 313 0
 316 0028 224B     		ldr	r3, .L17+4
 317 002a 1B68     		ldr	r3, [r3]
 318 002c 1846     		mov	r0, r3
 319 002e FFF7FEFF 		bl	vTaskResume
 314:..\Common\Minimal/dynamic.c **** 
 315:..\Common\Minimal/dynamic.c **** 			#if( configUSE_PREEMPTION == 0 )
 316:..\Common\Minimal/dynamic.c **** 				taskYIELD();
 317:..\Common\Minimal/dynamic.c **** 			#endif
 318:..\Common\Minimal/dynamic.c **** 
 319:..\Common\Minimal/dynamic.c **** 			#if( INCLUDE_eTaskGetState == 1 )
 320:..\Common\Minimal/dynamic.c **** 			{
 321:..\Common\Minimal/dynamic.c **** 				configASSERT( eTaskGetState( xContinuousIncrementHandle ) == eReady );
 322:..\Common\Minimal/dynamic.c **** 			}
 323:..\Common\Minimal/dynamic.c **** 			#endif /* INCLUDE_eTaskGetState */
 324:..\Common\Minimal/dynamic.c **** 
 325:..\Common\Minimal/dynamic.c **** 			/* Now delay to ensure the other task has processor time. */
 326:..\Common\Minimal/dynamic.c **** 			vTaskDelay( priSLEEP_TIME );
 320              		.loc 1 326 0
 321 0032 8020     		movs	r0, #128
 322 0034 FFF7FEFF 		bl	vTaskDelay
 327:..\Common\Minimal/dynamic.c **** 
 328:..\Common\Minimal/dynamic.c **** 			/* Check the shared variable again.  This time to ensure mutual
 329:..\Common\Minimal/dynamic.c **** 			exclusion the whole scheduler will be locked.  This is just for
 330:..\Common\Minimal/dynamic.c **** 			demo purposes! */
 331:..\Common\Minimal/dynamic.c **** 			vTaskSuspendAll();
 323              		.loc 1 331 0
 324 0038 FFF7FEFF 		bl	vTaskSuspendAll
 332:..\Common\Minimal/dynamic.c **** 			{
 333:..\Common\Minimal/dynamic.c **** 				if( ulLastCounter == ulCounter )
 325              		.loc 1 333 0
 326 003c 1C4B     		ldr	r3, .L17
 327 003e 1B68     		ldr	r3, [r3]
 328 0040 BA68     		ldr	r2, [r7, #8]
 329 0042 9A42     		cmp	r2, r3
 330 0044 01D1     		bne	.L12
 334:..\Common\Minimal/dynamic.c **** 				{
 335:..\Common\Minimal/dynamic.c **** 					/* The shared variable has not changed.  There is a problem
 336:..\Common\Minimal/dynamic.c **** 					with the continuous count task so flag an error. */
 337:..\Common\Minimal/dynamic.c **** 					sError = pdTRUE;
 331              		.loc 1 337 0
 332 0046 0123     		movs	r3, #1
 333 0048 BB81     		strh	r3, [r7, #12]	@ movhi
 334              	.L12:
 338:..\Common\Minimal/dynamic.c **** 				}
 339:..\Common\Minimal/dynamic.c **** 			}
 340:..\Common\Minimal/dynamic.c **** 			xTaskResumeAll();
 335              		.loc 1 340 0 discriminator 2
ARM GAS  C:\Users\bmt\AppData\Local\Temp\ccAB5zDP.s 			page 13


 336 004a FFF7FEFF 		bl	xTaskResumeAll
 297:..\Common\Minimal/dynamic.c **** 		{
 337              		.loc 1 297 0 discriminator 2
 338 004e FB89     		ldrh	r3, [r7, #14]
 339 0050 9BB2     		uxth	r3, r3
 340 0052 0133     		adds	r3, r3, #1
 341 0054 9BB2     		uxth	r3, r3
 342 0056 FB81     		strh	r3, [r7, #14]	@ movhi
 343              	.L11:
 297:..\Common\Minimal/dynamic.c **** 		{
 344              		.loc 1 297 0 is_stmt 0 discriminator 1
 345 0058 B7F90E30 		ldrsh	r3, [r7, #14]
 346 005c 042B     		cmp	r3, #4
 347 005e DBDD     		ble	.L13
 341:..\Common\Minimal/dynamic.c **** 		}
 342:..\Common\Minimal/dynamic.c **** 
 343:..\Common\Minimal/dynamic.c **** 		/* Second section: */
 344:..\Common\Minimal/dynamic.c **** 
 345:..\Common\Minimal/dynamic.c **** 		/* Suspend the continuous counter task so it stops accessing the shared
 346:..\Common\Minimal/dynamic.c **** 		variable. */
 347:..\Common\Minimal/dynamic.c **** 		vTaskSuspend( xContinuousIncrementHandle );
 348              		.loc 1 347 0 is_stmt 1
 349 0060 144B     		ldr	r3, .L17+4
 350 0062 1B68     		ldr	r3, [r3]
 351 0064 1846     		mov	r0, r3
 352 0066 FFF7FEFF 		bl	vTaskSuspend
 348:..\Common\Minimal/dynamic.c **** 
 349:..\Common\Minimal/dynamic.c **** 		/* Reset the variable. */
 350:..\Common\Minimal/dynamic.c **** 		ulCounter = ( uint32_t ) 0;
 353              		.loc 1 350 0
 354 006a 114B     		ldr	r3, .L17
 355 006c 0022     		movs	r2, #0
 356 006e 1A60     		str	r2, [r3]
 351:..\Common\Minimal/dynamic.c **** 
 352:..\Common\Minimal/dynamic.c **** 		#if( INCLUDE_eTaskGetState == 1 )
 353:..\Common\Minimal/dynamic.c **** 		{
 354:..\Common\Minimal/dynamic.c **** 			configASSERT( eTaskGetState( xLimitedIncrementHandle ) == eSuspended );
 355:..\Common\Minimal/dynamic.c **** 		}
 356:..\Common\Minimal/dynamic.c **** 		#endif /* INCLUDE_eTaskGetState */
 357:..\Common\Minimal/dynamic.c **** 
 358:..\Common\Minimal/dynamic.c **** 		/* Resume the limited count task which has a higher priority than us.
 359:..\Common\Minimal/dynamic.c **** 		We should therefore not return from this call until the limited count
 360:..\Common\Minimal/dynamic.c **** 		task has suspended itself with a known value in the counter variable. */
 361:..\Common\Minimal/dynamic.c **** 		vTaskResume( xLimitedIncrementHandle );
 357              		.loc 1 361 0
 358 0070 114B     		ldr	r3, .L17+8
 359 0072 1B68     		ldr	r3, [r3]
 360 0074 1846     		mov	r0, r3
 361 0076 FFF7FEFF 		bl	vTaskResume
 362:..\Common\Minimal/dynamic.c **** 
 363:..\Common\Minimal/dynamic.c **** 		#if( configUSE_PREEMPTION == 0 )
 364:..\Common\Minimal/dynamic.c **** 			taskYIELD();
 365:..\Common\Minimal/dynamic.c **** 		#endif
 366:..\Common\Minimal/dynamic.c **** 
 367:..\Common\Minimal/dynamic.c **** 		/* This task should not run again until xLimitedIncrementHandle has
 368:..\Common\Minimal/dynamic.c **** 		suspended itself. */
 369:..\Common\Minimal/dynamic.c **** 		#if( INCLUDE_eTaskGetState == 1 )
ARM GAS  C:\Users\bmt\AppData\Local\Temp\ccAB5zDP.s 			page 14


 370:..\Common\Minimal/dynamic.c **** 		{
 371:..\Common\Minimal/dynamic.c **** 			configASSERT( eTaskGetState( xLimitedIncrementHandle ) == eSuspended );
 372:..\Common\Minimal/dynamic.c **** 		}
 373:..\Common\Minimal/dynamic.c **** 		#endif /* INCLUDE_eTaskGetState */
 374:..\Common\Minimal/dynamic.c **** 
 375:..\Common\Minimal/dynamic.c **** 		/* Does the counter variable have the expected value? */
 376:..\Common\Minimal/dynamic.c **** 		if( ulCounter != priMAX_COUNT )
 362              		.loc 1 376 0
 363 007a 0D4B     		ldr	r3, .L17
 364 007c 1B68     		ldr	r3, [r3]
 365 007e FF2B     		cmp	r3, #255
 366 0080 01D0     		beq	.L14
 377:..\Common\Minimal/dynamic.c **** 		{
 378:..\Common\Minimal/dynamic.c **** 			sError = pdTRUE;
 367              		.loc 1 378 0
 368 0082 0123     		movs	r3, #1
 369 0084 BB81     		strh	r3, [r7, #12]	@ movhi
 370              	.L14:
 379:..\Common\Minimal/dynamic.c **** 		}
 380:..\Common\Minimal/dynamic.c **** 
 381:..\Common\Minimal/dynamic.c **** 		if( sError == pdFALSE )
 371              		.loc 1 381 0
 372 0086 B7F90C30 		ldrsh	r3, [r7, #12]
 373 008a 002B     		cmp	r3, #0
 374 008c 0AD1     		bne	.L15
 382:..\Common\Minimal/dynamic.c **** 		{
 383:..\Common\Minimal/dynamic.c **** 			/* If no errors have occurred then increment the check variable. */
 384:..\Common\Minimal/dynamic.c **** 			portENTER_CRITICAL();
 375              		.loc 1 384 0
 376 008e FFF7FEFF 		bl	vPortEnterCritical
 385:..\Common\Minimal/dynamic.c **** 				usCheckVariable++;
 377              		.loc 1 385 0
 378 0092 0A4B     		ldr	r3, .L17+12
 379 0094 1B88     		ldrh	r3, [r3]	@ movhi
 380 0096 9BB2     		uxth	r3, r3
 381 0098 0133     		adds	r3, r3, #1
 382 009a 9AB2     		uxth	r2, r3
 383 009c 074B     		ldr	r3, .L17+12
 384 009e 1A80     		strh	r2, [r3]	@ movhi
 386:..\Common\Minimal/dynamic.c **** 			portEXIT_CRITICAL();
 385              		.loc 1 386 0
 386 00a0 FFF7FEFF 		bl	vPortExitCritical
 387              	.L15:
 387:..\Common\Minimal/dynamic.c **** 		}
 388:..\Common\Minimal/dynamic.c **** 
 389:..\Common\Minimal/dynamic.c **** 		/* Resume the continuous count task and do it all again. */
 390:..\Common\Minimal/dynamic.c **** 		vTaskResume( xContinuousIncrementHandle );
 388              		.loc 1 390 0
 389 00a4 034B     		ldr	r3, .L17+4
 390 00a6 1B68     		ldr	r3, [r3]
 391 00a8 1846     		mov	r0, r3
 392 00aa FFF7FEFF 		bl	vTaskResume
 391:..\Common\Minimal/dynamic.c **** 
 392:..\Common\Minimal/dynamic.c **** 		#if( configUSE_PREEMPTION == 0 )
 393:..\Common\Minimal/dynamic.c **** 			taskYIELD();
 394:..\Common\Minimal/dynamic.c **** 		#endif
 395:..\Common\Minimal/dynamic.c **** 	}
ARM GAS  C:\Users\bmt\AppData\Local\Temp\ccAB5zDP.s 			page 15


 393              		.loc 1 395 0
 394 00ae ADE7     		b	.L16
 395              	.L18:
 396              		.align	2
 397              	.L17:
 398 00b0 08000000 		.word	ulCounter
 399 00b4 00000000 		.word	xContinuousIncrementHandle
 400 00b8 04000000 		.word	xLimitedIncrementHandle
 401 00bc 0C000000 		.word	usCheckVariable
 402              		.cfi_endproc
 403              	.LFE71:
 404              		.size	vCounterControlTask, .-vCounterControlTask
 405              		.section	.text.vQueueSendWhenSuspendedTask,"ax",%progbits
 406              		.align	2
 407              		.thumb
 408              		.thumb_func
 409              		.type	vQueueSendWhenSuspendedTask, %function
 410              	vQueueSendWhenSuspendedTask:
 411              	.LFB72:
 396:..\Common\Minimal/dynamic.c **** }
 397:..\Common\Minimal/dynamic.c **** /*-----------------------------------------------------------*/
 398:..\Common\Minimal/dynamic.c **** 
 399:..\Common\Minimal/dynamic.c **** static portTASK_FUNCTION( vQueueSendWhenSuspendedTask, pvParameters )
 400:..\Common\Minimal/dynamic.c **** {
 412              		.loc 1 400 0
 413              		.cfi_startproc
 414              		@ args = 0, pretend = 0, frame = 8
 415              		@ frame_needed = 1, uses_anonymous_args = 0
 416 0000 80B5     		push	{r7, lr}
 417              		.cfi_def_cfa_offset 8
 418              		.cfi_offset 7, -8
 419              		.cfi_offset 14, -4
 420 0002 82B0     		sub	sp, sp, #8
 421              		.cfi_def_cfa_offset 16
 422 0004 00AF     		add	r7, sp, #0
 423              		.cfi_def_cfa_register 7
 424 0006 7860     		str	r0, [r7, #4]
 425              	.L21:
 401:..\Common\Minimal/dynamic.c **** static uint32_t ulValueToSend = ( uint32_t ) 0;
 402:..\Common\Minimal/dynamic.c **** 
 403:..\Common\Minimal/dynamic.c **** 	/* Just to stop warning messages. */
 404:..\Common\Minimal/dynamic.c **** 	( void ) pvParameters;
 405:..\Common\Minimal/dynamic.c **** 
 406:..\Common\Minimal/dynamic.c **** 	for( ;; )
 407:..\Common\Minimal/dynamic.c **** 	{
 408:..\Common\Minimal/dynamic.c **** 		vTaskSuspendAll();
 426              		.loc 1 408 0
 427 0008 FFF7FEFF 		bl	vTaskSuspendAll
 409:..\Common\Minimal/dynamic.c **** 		{
 410:..\Common\Minimal/dynamic.c **** 			/* We must not block while the scheduler is suspended! */
 411:..\Common\Minimal/dynamic.c **** 			if( xQueueSend( xSuspendedTestQueue, ( void * ) &ulValueToSend, priNO_BLOCK ) != pdTRUE )
 428              		.loc 1 411 0
 429 000c 0C4B     		ldr	r3, .L22
 430 000e 1B68     		ldr	r3, [r3]
 431 0010 1846     		mov	r0, r3
 432 0012 0C49     		ldr	r1, .L22+4
 433 0014 0022     		movs	r2, #0
ARM GAS  C:\Users\bmt\AppData\Local\Temp\ccAB5zDP.s 			page 16


 434 0016 0023     		movs	r3, #0
 435 0018 FFF7FEFF 		bl	xQueueGenericSend
 436 001c 0346     		mov	r3, r0
 437 001e 012B     		cmp	r3, #1
 438 0020 02D0     		beq	.L20
 412:..\Common\Minimal/dynamic.c **** 			{
 413:..\Common\Minimal/dynamic.c **** 				xSuspendedQueueSendError = pdTRUE;
 439              		.loc 1 413 0
 440 0022 094B     		ldr	r3, .L22+8
 441 0024 0122     		movs	r2, #1
 442 0026 1A60     		str	r2, [r3]
 443              	.L20:
 414:..\Common\Minimal/dynamic.c **** 			}
 415:..\Common\Minimal/dynamic.c **** 		}
 416:..\Common\Minimal/dynamic.c **** 		xTaskResumeAll();
 444              		.loc 1 416 0
 445 0028 FFF7FEFF 		bl	xTaskResumeAll
 417:..\Common\Minimal/dynamic.c **** 
 418:..\Common\Minimal/dynamic.c **** 		vTaskDelay( priSLEEP_TIME );
 446              		.loc 1 418 0
 447 002c 8020     		movs	r0, #128
 448 002e FFF7FEFF 		bl	vTaskDelay
 419:..\Common\Minimal/dynamic.c **** 
 420:..\Common\Minimal/dynamic.c **** 		++ulValueToSend;
 449              		.loc 1 420 0
 450 0032 044B     		ldr	r3, .L22+4
 451 0034 1B68     		ldr	r3, [r3]
 452 0036 0133     		adds	r3, r3, #1
 453 0038 024A     		ldr	r2, .L22+4
 454 003a 1360     		str	r3, [r2]
 421:..\Common\Minimal/dynamic.c **** 	}
 455              		.loc 1 421 0
 456 003c E4E7     		b	.L21
 457              	.L23:
 458 003e 00BF     		.align	2
 459              	.L22:
 460 0040 00000000 		.word	xSuspendedTestQueue
 461 0044 1C000000 		.word	ulValueToSend.7098
 462 0048 10000000 		.word	xSuspendedQueueSendError
 463              		.cfi_endproc
 464              	.LFE72:
 465              		.size	vQueueSendWhenSuspendedTask, .-vQueueSendWhenSuspendedTask
 466              		.section	.text.vQueueReceiveWhenSuspendedTask,"ax",%progbits
 467              		.align	2
 468              		.thumb
 469              		.thumb_func
 470              		.type	vQueueReceiveWhenSuspendedTask, %function
 471              	vQueueReceiveWhenSuspendedTask:
 472              	.LFB73:
 422:..\Common\Minimal/dynamic.c **** }
 423:..\Common\Minimal/dynamic.c **** /*-----------------------------------------------------------*/
 424:..\Common\Minimal/dynamic.c **** 
 425:..\Common\Minimal/dynamic.c **** static portTASK_FUNCTION( vQueueReceiveWhenSuspendedTask, pvParameters )
 426:..\Common\Minimal/dynamic.c **** {
 473              		.loc 1 426 0
 474              		.cfi_startproc
 475              		@ args = 0, pretend = 0, frame = 16
ARM GAS  C:\Users\bmt\AppData\Local\Temp\ccAB5zDP.s 			page 17


 476              		@ frame_needed = 1, uses_anonymous_args = 0
 477 0000 80B5     		push	{r7, lr}
 478              		.cfi_def_cfa_offset 8
 479              		.cfi_offset 7, -8
 480              		.cfi_offset 14, -4
 481 0002 84B0     		sub	sp, sp, #16
 482              		.cfi_def_cfa_offset 24
 483 0004 00AF     		add	r7, sp, #0
 484              		.cfi_def_cfa_register 7
 485 0006 7860     		str	r0, [r7, #4]
 486              	.L26:
 427:..\Common\Minimal/dynamic.c **** uint32_t ulReceivedValue;
 428:..\Common\Minimal/dynamic.c **** BaseType_t xGotValue;
 429:..\Common\Minimal/dynamic.c **** 
 430:..\Common\Minimal/dynamic.c **** 	/* Just to stop warning messages. */
 431:..\Common\Minimal/dynamic.c **** 	( void ) pvParameters;
 432:..\Common\Minimal/dynamic.c **** 
 433:..\Common\Minimal/dynamic.c **** 	for( ;; )
 434:..\Common\Minimal/dynamic.c **** 	{
 435:..\Common\Minimal/dynamic.c **** 		do
 436:..\Common\Minimal/dynamic.c **** 		{
 437:..\Common\Minimal/dynamic.c **** 			/* Suspending the scheduler here is fairly pointless and
 438:..\Common\Minimal/dynamic.c **** 			undesirable for a normal application.  It is done here purely
 439:..\Common\Minimal/dynamic.c **** 			to test the scheduler.  The inner xTaskResumeAll() should
 440:..\Common\Minimal/dynamic.c **** 			never return pdTRUE as the scheduler is still locked by the
 441:..\Common\Minimal/dynamic.c **** 			outer call. */
 442:..\Common\Minimal/dynamic.c **** 			vTaskSuspendAll();
 487              		.loc 1 442 0
 488 0008 FFF7FEFF 		bl	vTaskSuspendAll
 443:..\Common\Minimal/dynamic.c **** 			{
 444:..\Common\Minimal/dynamic.c **** 				vTaskSuspendAll();
 489              		.loc 1 444 0
 490 000c FFF7FEFF 		bl	vTaskSuspendAll
 445:..\Common\Minimal/dynamic.c **** 				{
 446:..\Common\Minimal/dynamic.c **** 					xGotValue = xQueueReceive( xSuspendedTestQueue, ( void * ) &ulReceivedValue, priNO_BLOCK );
 491              		.loc 1 446 0
 492 0010 144B     		ldr	r3, .L29
 493 0012 1A68     		ldr	r2, [r3]
 494 0014 07F10803 		add	r3, r7, #8
 495 0018 1046     		mov	r0, r2
 496 001a 1946     		mov	r1, r3
 497 001c 0022     		movs	r2, #0
 498 001e 0023     		movs	r3, #0
 499 0020 FFF7FEFF 		bl	xQueueGenericReceive
 500 0024 F860     		str	r0, [r7, #12]
 447:..\Common\Minimal/dynamic.c **** 				}
 448:..\Common\Minimal/dynamic.c **** 				if( xTaskResumeAll() != pdFALSE )
 501              		.loc 1 448 0
 502 0026 FFF7FEFF 		bl	xTaskResumeAll
 503 002a 0346     		mov	r3, r0
 504 002c 002B     		cmp	r3, #0
 505 002e 02D0     		beq	.L25
 449:..\Common\Minimal/dynamic.c **** 				{
 450:..\Common\Minimal/dynamic.c **** 					xSuspendedQueueReceiveError = pdTRUE;
 506              		.loc 1 450 0
 507 0030 0D4B     		ldr	r3, .L29+4
 508 0032 0122     		movs	r2, #1
ARM GAS  C:\Users\bmt\AppData\Local\Temp\ccAB5zDP.s 			page 18


 509 0034 1A60     		str	r2, [r3]
 510              	.L25:
 451:..\Common\Minimal/dynamic.c **** 				}
 452:..\Common\Minimal/dynamic.c **** 			}
 453:..\Common\Minimal/dynamic.c **** 			xTaskResumeAll();
 511              		.loc 1 453 0
 512 0036 FFF7FEFF 		bl	xTaskResumeAll
 454:..\Common\Minimal/dynamic.c **** 
 455:..\Common\Minimal/dynamic.c **** 			#if configUSE_PREEMPTION == 0
 456:..\Common\Minimal/dynamic.c **** 			{
 457:..\Common\Minimal/dynamic.c **** 				taskYIELD();
 458:..\Common\Minimal/dynamic.c **** 			}
 459:..\Common\Minimal/dynamic.c **** 			#endif
 460:..\Common\Minimal/dynamic.c **** 
 461:..\Common\Minimal/dynamic.c **** 		} while( xGotValue == pdFALSE );
 513              		.loc 1 461 0
 514 003a FB68     		ldr	r3, [r7, #12]
 515 003c 002B     		cmp	r3, #0
 516 003e E3D0     		beq	.L26
 462:..\Common\Minimal/dynamic.c **** 
 463:..\Common\Minimal/dynamic.c **** 		if( ulReceivedValue != ulExpectedValue )
 517              		.loc 1 463 0
 518 0040 BA68     		ldr	r2, [r7, #8]
 519 0042 0A4B     		ldr	r3, .L29+8
 520 0044 1B68     		ldr	r3, [r3]
 521 0046 9A42     		cmp	r2, r3
 522 0048 02D0     		beq	.L27
 464:..\Common\Minimal/dynamic.c **** 		{
 465:..\Common\Minimal/dynamic.c **** 			xSuspendedQueueReceiveError = pdTRUE;
 523              		.loc 1 465 0
 524 004a 074B     		ldr	r3, .L29+4
 525 004c 0122     		movs	r2, #1
 526 004e 1A60     		str	r2, [r3]
 527              	.L27:
 466:..\Common\Minimal/dynamic.c **** 		}
 467:..\Common\Minimal/dynamic.c **** 
 468:..\Common\Minimal/dynamic.c **** 		if( xSuspendedQueueReceiveError != pdTRUE )
 528              		.loc 1 468 0
 529 0050 054B     		ldr	r3, .L29+4
 530 0052 1B68     		ldr	r3, [r3]
 531 0054 012B     		cmp	r3, #1
 532 0056 04D0     		beq	.L28
 469:..\Common\Minimal/dynamic.c **** 		{
 470:..\Common\Minimal/dynamic.c **** 			/* Only increment the variable if an error has not occurred.  This
 471:..\Common\Minimal/dynamic.c **** 			allows xAreDynamicPriorityTasksStillRunning() to check for stalled
 472:..\Common\Minimal/dynamic.c **** 			tasks as well as explicit errors. */
 473:..\Common\Minimal/dynamic.c **** 			++ulExpectedValue;
 533              		.loc 1 473 0
 534 0058 044B     		ldr	r3, .L29+8
 535 005a 1B68     		ldr	r3, [r3]
 536 005c 0133     		adds	r3, r3, #1
 537 005e 034A     		ldr	r2, .L29+8
 538 0060 1360     		str	r3, [r2]
 539              	.L28:
 474:..\Common\Minimal/dynamic.c **** 		}
 475:..\Common\Minimal/dynamic.c **** 	}
 540              		.loc 1 475 0
ARM GAS  C:\Users\bmt\AppData\Local\Temp\ccAB5zDP.s 			page 19


 541 0062 D1E7     		b	.L26
 542              	.L30:
 543              		.align	2
 544              	.L29:
 545 0064 00000000 		.word	xSuspendedTestQueue
 546 0068 14000000 		.word	xSuspendedQueueReceiveError
 547 006c 18000000 		.word	ulExpectedValue
 548              		.cfi_endproc
 549              	.LFE73:
 550              		.size	vQueueReceiveWhenSuspendedTask, .-vQueueReceiveWhenSuspendedTask
 551              		.section	.text.xAreDynamicPriorityTasksStillRunning,"ax",%progbits
 552              		.align	2
 553              		.global	xAreDynamicPriorityTasksStillRunning
 554              		.thumb
 555              		.thumb_func
 556              		.type	xAreDynamicPriorityTasksStillRunning, %function
 557              	xAreDynamicPriorityTasksStillRunning:
 558              	.LFB74:
 476:..\Common\Minimal/dynamic.c **** }
 477:..\Common\Minimal/dynamic.c **** /*-----------------------------------------------------------*/
 478:..\Common\Minimal/dynamic.c **** 
 479:..\Common\Minimal/dynamic.c **** /* Called to check that all the created tasks are still running without error. */
 480:..\Common\Minimal/dynamic.c **** BaseType_t xAreDynamicPriorityTasksStillRunning( void )
 481:..\Common\Minimal/dynamic.c **** {
 559              		.loc 1 481 0
 560              		.cfi_startproc
 561              		@ args = 0, pretend = 0, frame = 8
 562              		@ frame_needed = 1, uses_anonymous_args = 0
 563              		@ link register save eliminated.
 564 0000 80B4     		push	{r7}
 565              		.cfi_def_cfa_offset 4
 566              		.cfi_offset 7, -4
 567 0002 83B0     		sub	sp, sp, #12
 568              		.cfi_def_cfa_offset 16
 569 0004 00AF     		add	r7, sp, #0
 570              		.cfi_def_cfa_register 7
 482:..\Common\Minimal/dynamic.c **** /* Keep a history of the check variables so we know if it has been incremented
 483:..\Common\Minimal/dynamic.c **** since the last call. */
 484:..\Common\Minimal/dynamic.c **** static uint16_t usLastTaskCheck = ( uint16_t ) 0;
 485:..\Common\Minimal/dynamic.c **** static uint32_t ulLastExpectedValue = ( uint32_t ) 0U;
 486:..\Common\Minimal/dynamic.c **** BaseType_t xReturn = pdTRUE;
 571              		.loc 1 486 0
 572 0006 0123     		movs	r3, #1
 573 0008 7B60     		str	r3, [r7, #4]
 487:..\Common\Minimal/dynamic.c **** 
 488:..\Common\Minimal/dynamic.c **** 	/* Check the tasks are still running by ensuring the check variable
 489:..\Common\Minimal/dynamic.c **** 	is still incrementing. */
 490:..\Common\Minimal/dynamic.c **** 
 491:..\Common\Minimal/dynamic.c **** 	if( usCheckVariable == usLastTaskCheck )
 574              		.loc 1 491 0
 575 000a 164B     		ldr	r3, .L37
 576 000c 1B88     		ldrh	r3, [r3]	@ movhi
 577 000e 9AB2     		uxth	r2, r3
 578 0010 154B     		ldr	r3, .L37+4
 579 0012 1B88     		ldrh	r3, [r3]
 580 0014 9A42     		cmp	r2, r3
 581 0016 01D1     		bne	.L32
ARM GAS  C:\Users\bmt\AppData\Local\Temp\ccAB5zDP.s 			page 20


 492:..\Common\Minimal/dynamic.c **** 	{
 493:..\Common\Minimal/dynamic.c **** 		/* The check has not incremented so an error exists. */
 494:..\Common\Minimal/dynamic.c **** 		xReturn = pdFALSE;
 582              		.loc 1 494 0
 583 0018 0023     		movs	r3, #0
 584 001a 7B60     		str	r3, [r7, #4]
 585              	.L32:
 495:..\Common\Minimal/dynamic.c **** 	}
 496:..\Common\Minimal/dynamic.c **** 
 497:..\Common\Minimal/dynamic.c **** 	if( ulExpectedValue == ulLastExpectedValue )
 586              		.loc 1 497 0
 587 001c 134B     		ldr	r3, .L37+8
 588 001e 1A68     		ldr	r2, [r3]
 589 0020 134B     		ldr	r3, .L37+12
 590 0022 1B68     		ldr	r3, [r3]
 591 0024 9A42     		cmp	r2, r3
 592 0026 01D1     		bne	.L33
 498:..\Common\Minimal/dynamic.c **** 	{
 499:..\Common\Minimal/dynamic.c **** 		/* The value being received by the queue receive task has not
 500:..\Common\Minimal/dynamic.c **** 		incremented so an error exists. */
 501:..\Common\Minimal/dynamic.c **** 		xReturn = pdFALSE;
 593              		.loc 1 501 0
 594 0028 0023     		movs	r3, #0
 595 002a 7B60     		str	r3, [r7, #4]
 596              	.L33:
 502:..\Common\Minimal/dynamic.c **** 	}
 503:..\Common\Minimal/dynamic.c **** 
 504:..\Common\Minimal/dynamic.c **** 	if( xSuspendedQueueSendError == pdTRUE )
 597              		.loc 1 504 0
 598 002c 114B     		ldr	r3, .L37+16
 599 002e 1B68     		ldr	r3, [r3]
 600 0030 012B     		cmp	r3, #1
 601 0032 01D1     		bne	.L34
 505:..\Common\Minimal/dynamic.c **** 	{
 506:..\Common\Minimal/dynamic.c **** 		xReturn = pdFALSE;
 602              		.loc 1 506 0
 603 0034 0023     		movs	r3, #0
 604 0036 7B60     		str	r3, [r7, #4]
 605              	.L34:
 507:..\Common\Minimal/dynamic.c **** 	}
 508:..\Common\Minimal/dynamic.c **** 
 509:..\Common\Minimal/dynamic.c **** 	if( xSuspendedQueueReceiveError == pdTRUE )
 606              		.loc 1 509 0
 607 0038 0F4B     		ldr	r3, .L37+20
 608 003a 1B68     		ldr	r3, [r3]
 609 003c 012B     		cmp	r3, #1
 610 003e 01D1     		bne	.L35
 510:..\Common\Minimal/dynamic.c **** 	{
 511:..\Common\Minimal/dynamic.c **** 		xReturn = pdFALSE;
 611              		.loc 1 511 0
 612 0040 0023     		movs	r3, #0
 613 0042 7B60     		str	r3, [r7, #4]
 614              	.L35:
 512:..\Common\Minimal/dynamic.c **** 	}
 513:..\Common\Minimal/dynamic.c **** 
 514:..\Common\Minimal/dynamic.c **** 	usLastTaskCheck = usCheckVariable;
 615              		.loc 1 514 0
ARM GAS  C:\Users\bmt\AppData\Local\Temp\ccAB5zDP.s 			page 21


 616 0044 074B     		ldr	r3, .L37
 617 0046 1B88     		ldrh	r3, [r3]	@ movhi
 618 0048 9AB2     		uxth	r2, r3
 619 004a 074B     		ldr	r3, .L37+4
 620 004c 1A80     		strh	r2, [r3]	@ movhi
 515:..\Common\Minimal/dynamic.c **** 	ulLastExpectedValue = ulExpectedValue;
 621              		.loc 1 515 0
 622 004e 074B     		ldr	r3, .L37+8
 623 0050 1B68     		ldr	r3, [r3]
 624 0052 074A     		ldr	r2, .L37+12
 625 0054 1360     		str	r3, [r2]
 516:..\Common\Minimal/dynamic.c **** 
 517:..\Common\Minimal/dynamic.c **** 	return xReturn;
 626              		.loc 1 517 0
 627 0056 7B68     		ldr	r3, [r7, #4]
 518:..\Common\Minimal/dynamic.c **** }
 628              		.loc 1 518 0
 629 0058 1846     		mov	r0, r3
 630 005a 0C37     		adds	r7, r7, #12
 631              		.cfi_def_cfa_offset 4
 632 005c BD46     		mov	sp, r7
 633              		.cfi_def_cfa_register 13
 634              		@ sp needed
 635 005e 5DF8047B 		ldr	r7, [sp], #4
 636              		.cfi_restore 7
 637              		.cfi_def_cfa_offset 0
 638 0062 7047     		bx	lr
 639              	.L38:
 640              		.align	2
 641              	.L37:
 642 0064 0C000000 		.word	usCheckVariable
 643 0068 20000000 		.word	usLastTaskCheck.7111
 644 006c 18000000 		.word	ulExpectedValue
 645 0070 24000000 		.word	ulLastExpectedValue.7112
 646 0074 10000000 		.word	xSuspendedQueueSendError
 647 0078 14000000 		.word	xSuspendedQueueReceiveError
 648              		.cfi_endproc
 649              	.LFE74:
 650              		.size	xAreDynamicPriorityTasksStillRunning, .-xAreDynamicPriorityTasksStillRunning
 651              		.bss
 652              		.align	2
 653              	ulValueToSend.7098:
 654 001c 00000000 		.space	4
 655              		.align	1
 656              	usLastTaskCheck.7111:
 657 0020 0000     		.space	2
 658 0022 0000     		.align	2
 659              	ulLastExpectedValue.7112:
 660 0024 00000000 		.space	4
 661              		.text
 662              	.Letext0:
 663              		.file 2 "c:\\program files (x86)\\cypress\\psoc creator\\4.0\\psoc creator\\import\\gnu\\arm\\4.9.
 664              		.file 3 "c:\\program files (x86)\\cypress\\psoc creator\\4.0\\psoc creator\\import\\gnu\\arm\\4.9.
 665              		.file 4 "..\\Source\\portable\\GCC\\ARM_CM3/portmacro.h"
 666              		.file 5 "..\\Source\\include/task.h"
 667              		.file 6 "..\\Source\\include/queue.h"
 668              		.file 7 "Generated_Source\\PSoC5/core_cm3.h"
ARM GAS  C:\Users\bmt\AppData\Local\Temp\ccAB5zDP.s 			page 22

