ARM GAS  C:\Users\bmt\AppData\Local\Temp\ccsmUBIq.s 			page 1


   1              		.syntax unified
   2              		.cpu cortex-m3
   3              		.fpu softvfp
   4              		.eabi_attribute 20, 1
   5              		.eabi_attribute 21, 1
   6              		.eabi_attribute 23, 3
   7              		.eabi_attribute 24, 1
   8              		.eabi_attribute 25, 1
   9              		.eabi_attribute 26, 1
  10              		.eabi_attribute 30, 6
  11              		.eabi_attribute 34, 1
  12              		.eabi_attribute 18, 4
  13              		.thumb
  14              		.file	"heap_2.c"
  15              		.text
  16              	.Ltext0:
  17              		.cfi_sections	.debug_frame
  18              		.bss
  19              		.align	2
  20              	ucHeap:
  21 0000 00000000 		.space	32768
  21      00000000 
  21      00000000 
  21      00000000 
  21      00000000 
  22              		.section	.rodata
  23              		.align	1
  24              		.type	heapSTRUCT_SIZE, %object
  25              		.size	heapSTRUCT_SIZE, 2
  26              	heapSTRUCT_SIZE:
  27 0000 0800     		.short	8
  28              		.bss
  29              		.align	2
  30              	xStart:
  31 8000 00000000 		.space	8
  31      00000000 
  32              		.align	2
  33              	xEnd:
  34 8008 00000000 		.space	8
  34      00000000 
  35              		.data
  36              		.align	2
  37              		.type	xFreeBytesRemaining, %object
  38              		.size	xFreeBytesRemaining, 4
  39              	xFreeBytesRemaining:
  40 0000 F87F0000 		.word	32760
  41              		.section	.text.pvPortMalloc,"ax",%progbits
  42              		.align	2
  43              		.global	pvPortMalloc
  44              		.thumb
  45              		.thumb_func
  46              		.type	pvPortMalloc, %function
  47              	pvPortMalloc:
  48              	.LFB68:
  49              		.file 1 "..\\Source\\portable\\MemMang\\heap_2.c"
   1:..\Source\portable\MemMang/heap_2.c **** /*
   2:..\Source\portable\MemMang/heap_2.c ****     FreeRTOS V9.0.0 - Copyright (C) 2016 Real Time Engineers Ltd.
ARM GAS  C:\Users\bmt\AppData\Local\Temp\ccsmUBIq.s 			page 2


   3:..\Source\portable\MemMang/heap_2.c ****     All rights reserved
   4:..\Source\portable\MemMang/heap_2.c **** 
   5:..\Source\portable\MemMang/heap_2.c ****     VISIT http://www.FreeRTOS.org TO ENSURE YOU ARE USING THE LATEST VERSION.
   6:..\Source\portable\MemMang/heap_2.c **** 
   7:..\Source\portable\MemMang/heap_2.c ****     This file is part of the FreeRTOS distribution.
   8:..\Source\portable\MemMang/heap_2.c **** 
   9:..\Source\portable\MemMang/heap_2.c ****     FreeRTOS is free software; you can redistribute it and/or modify it under
  10:..\Source\portable\MemMang/heap_2.c ****     the terms of the GNU General Public License (version 2) as published by the
  11:..\Source\portable\MemMang/heap_2.c ****     Free Software Foundation >>>> AND MODIFIED BY <<<< the FreeRTOS exception.
  12:..\Source\portable\MemMang/heap_2.c **** 
  13:..\Source\portable\MemMang/heap_2.c ****     ***************************************************************************
  14:..\Source\portable\MemMang/heap_2.c ****     >>!   NOTE: The modification to the GPL is included to allow you to     !<<
  15:..\Source\portable\MemMang/heap_2.c ****     >>!   distribute a combined work that includes FreeRTOS without being   !<<
  16:..\Source\portable\MemMang/heap_2.c ****     >>!   obliged to provide the source code for proprietary components     !<<
  17:..\Source\portable\MemMang/heap_2.c ****     >>!   outside of the FreeRTOS kernel.                                   !<<
  18:..\Source\portable\MemMang/heap_2.c ****     ***************************************************************************
  19:..\Source\portable\MemMang/heap_2.c **** 
  20:..\Source\portable\MemMang/heap_2.c ****     FreeRTOS is distributed in the hope that it will be useful, but WITHOUT ANY
  21:..\Source\portable\MemMang/heap_2.c ****     WARRANTY; without even the implied warranty of MERCHANTABILITY or FITNESS
  22:..\Source\portable\MemMang/heap_2.c ****     FOR A PARTICULAR PURPOSE.  Full license text is available on the following
  23:..\Source\portable\MemMang/heap_2.c ****     link: http://www.freertos.org/a00114.html
  24:..\Source\portable\MemMang/heap_2.c **** 
  25:..\Source\portable\MemMang/heap_2.c ****     ***************************************************************************
  26:..\Source\portable\MemMang/heap_2.c ****      *                                                                       *
  27:..\Source\portable\MemMang/heap_2.c ****      *    FreeRTOS provides completely free yet professionally developed,    *
  28:..\Source\portable\MemMang/heap_2.c ****      *    robust, strictly quality controlled, supported, and cross          *
  29:..\Source\portable\MemMang/heap_2.c ****      *    platform software that is more than just the market leader, it     *
  30:..\Source\portable\MemMang/heap_2.c ****      *    is the industry's de facto standard.                               *
  31:..\Source\portable\MemMang/heap_2.c ****      *                                                                       *
  32:..\Source\portable\MemMang/heap_2.c ****      *    Help yourself get started quickly while simultaneously helping     *
  33:..\Source\portable\MemMang/heap_2.c ****      *    to support the FreeRTOS project by purchasing a FreeRTOS           *
  34:..\Source\portable\MemMang/heap_2.c ****      *    tutorial book, reference manual, or both:                          *
  35:..\Source\portable\MemMang/heap_2.c ****      *    http://www.FreeRTOS.org/Documentation                              *
  36:..\Source\portable\MemMang/heap_2.c ****      *                                                                       *
  37:..\Source\portable\MemMang/heap_2.c ****     ***************************************************************************
  38:..\Source\portable\MemMang/heap_2.c **** 
  39:..\Source\portable\MemMang/heap_2.c ****     http://www.FreeRTOS.org/FAQHelp.html - Having a problem?  Start by reading
  40:..\Source\portable\MemMang/heap_2.c ****     the FAQ page "My application does not run, what could be wrong?".  Have you
  41:..\Source\portable\MemMang/heap_2.c ****     defined configASSERT()?
  42:..\Source\portable\MemMang/heap_2.c **** 
  43:..\Source\portable\MemMang/heap_2.c ****     http://www.FreeRTOS.org/support - In return for receiving this top quality
  44:..\Source\portable\MemMang/heap_2.c ****     embedded software for free we request you assist our global community by
  45:..\Source\portable\MemMang/heap_2.c ****     participating in the support forum.
  46:..\Source\portable\MemMang/heap_2.c **** 
  47:..\Source\portable\MemMang/heap_2.c ****     http://www.FreeRTOS.org/training - Investing in training allows your team to
  48:..\Source\portable\MemMang/heap_2.c ****     be as productive as possible as early as possible.  Now you can receive
  49:..\Source\portable\MemMang/heap_2.c ****     FreeRTOS training directly from Richard Barry, CEO of Real Time Engineers
  50:..\Source\portable\MemMang/heap_2.c ****     Ltd, and the world's leading authority on the world's leading RTOS.
  51:..\Source\portable\MemMang/heap_2.c **** 
  52:..\Source\portable\MemMang/heap_2.c ****     http://www.FreeRTOS.org/plus - A selection of FreeRTOS ecosystem products,
  53:..\Source\portable\MemMang/heap_2.c ****     including FreeRTOS+Trace - an indispensable productivity tool, a DOS
  54:..\Source\portable\MemMang/heap_2.c ****     compatible FAT file system, and our tiny thread aware UDP/IP stack.
  55:..\Source\portable\MemMang/heap_2.c **** 
  56:..\Source\portable\MemMang/heap_2.c ****     http://www.FreeRTOS.org/labs - Where new FreeRTOS products go to incubate.
  57:..\Source\portable\MemMang/heap_2.c ****     Come and try FreeRTOS+TCP, our new open source TCP/IP stack for FreeRTOS.
  58:..\Source\portable\MemMang/heap_2.c **** 
  59:..\Source\portable\MemMang/heap_2.c ****     http://www.OpenRTOS.com - Real Time Engineers ltd. license FreeRTOS to High
ARM GAS  C:\Users\bmt\AppData\Local\Temp\ccsmUBIq.s 			page 3


  60:..\Source\portable\MemMang/heap_2.c ****     Integrity Systems ltd. to sell under the OpenRTOS brand.  Low cost OpenRTOS
  61:..\Source\portable\MemMang/heap_2.c ****     licenses offer ticketed support, indemnification and commercial middleware.
  62:..\Source\portable\MemMang/heap_2.c **** 
  63:..\Source\portable\MemMang/heap_2.c ****     http://www.SafeRTOS.com - High Integrity Systems also provide a safety
  64:..\Source\portable\MemMang/heap_2.c ****     engineered and independently SIL3 certified version for use in safety and
  65:..\Source\portable\MemMang/heap_2.c ****     mission critical applications that require provable dependability.
  66:..\Source\portable\MemMang/heap_2.c **** 
  67:..\Source\portable\MemMang/heap_2.c ****     1 tab == 4 spaces!
  68:..\Source\portable\MemMang/heap_2.c **** */
  69:..\Source\portable\MemMang/heap_2.c **** 
  70:..\Source\portable\MemMang/heap_2.c **** /*
  71:..\Source\portable\MemMang/heap_2.c ****  * A sample implementation of pvPortMalloc() and vPortFree() that permits
  72:..\Source\portable\MemMang/heap_2.c ****  * allocated blocks to be freed, but does not combine adjacent free blocks
  73:..\Source\portable\MemMang/heap_2.c ****  * into a single larger block (and so will fragment memory).  See heap_4.c for
  74:..\Source\portable\MemMang/heap_2.c ****  * an equivalent that does combine adjacent blocks into single larger blocks.
  75:..\Source\portable\MemMang/heap_2.c ****  *
  76:..\Source\portable\MemMang/heap_2.c ****  * See heap_1.c, heap_3.c and heap_4.c for alternative implementations, and the
  77:..\Source\portable\MemMang/heap_2.c ****  * memory management pages of http://www.FreeRTOS.org for more information.
  78:..\Source\portable\MemMang/heap_2.c ****  */
  79:..\Source\portable\MemMang/heap_2.c **** #include <stdlib.h>
  80:..\Source\portable\MemMang/heap_2.c **** 
  81:..\Source\portable\MemMang/heap_2.c **** /* Defining MPU_WRAPPERS_INCLUDED_FROM_API_FILE prevents task.h from redefining
  82:..\Source\portable\MemMang/heap_2.c **** all the API functions to use the MPU wrappers.  That should only be done when
  83:..\Source\portable\MemMang/heap_2.c **** task.h is included from an application file. */
  84:..\Source\portable\MemMang/heap_2.c **** #define MPU_WRAPPERS_INCLUDED_FROM_API_FILE
  85:..\Source\portable\MemMang/heap_2.c **** 
  86:..\Source\portable\MemMang/heap_2.c **** #include "FreeRTOS.h"
  87:..\Source\portable\MemMang/heap_2.c **** #include "task.h"
  88:..\Source\portable\MemMang/heap_2.c **** 
  89:..\Source\portable\MemMang/heap_2.c **** #undef MPU_WRAPPERS_INCLUDED_FROM_API_FILE
  90:..\Source\portable\MemMang/heap_2.c **** 
  91:..\Source\portable\MemMang/heap_2.c **** #if( configSUPPORT_DYNAMIC_ALLOCATION == 0 )
  92:..\Source\portable\MemMang/heap_2.c **** 	#error This file must not be used if configSUPPORT_DYNAMIC_ALLOCATION is 0
  93:..\Source\portable\MemMang/heap_2.c **** #endif
  94:..\Source\portable\MemMang/heap_2.c **** 
  95:..\Source\portable\MemMang/heap_2.c **** /* A few bytes might be lost to byte aligning the heap start address. */
  96:..\Source\portable\MemMang/heap_2.c **** #define configADJUSTED_HEAP_SIZE	( configTOTAL_HEAP_SIZE - portBYTE_ALIGNMENT )
  97:..\Source\portable\MemMang/heap_2.c **** 
  98:..\Source\portable\MemMang/heap_2.c **** /*
  99:..\Source\portable\MemMang/heap_2.c ****  * Initialises the heap structures before their first use.
 100:..\Source\portable\MemMang/heap_2.c ****  */
 101:..\Source\portable\MemMang/heap_2.c **** static void prvHeapInit( void );
 102:..\Source\portable\MemMang/heap_2.c **** 
 103:..\Source\portable\MemMang/heap_2.c **** /* Allocate the memory for the heap. */
 104:..\Source\portable\MemMang/heap_2.c **** #if( configAPPLICATION_ALLOCATED_HEAP == 1 )
 105:..\Source\portable\MemMang/heap_2.c **** 	/* The application writer has already defined the array used for the RTOS
 106:..\Source\portable\MemMang/heap_2.c **** 	heap - probably so it can be placed in a special segment or address. */
 107:..\Source\portable\MemMang/heap_2.c **** 	extern uint8_t ucHeap[ configTOTAL_HEAP_SIZE ];
 108:..\Source\portable\MemMang/heap_2.c **** #else
 109:..\Source\portable\MemMang/heap_2.c **** 	static uint8_t ucHeap[ configTOTAL_HEAP_SIZE ];
 110:..\Source\portable\MemMang/heap_2.c **** #endif /* configAPPLICATION_ALLOCATED_HEAP */
 111:..\Source\portable\MemMang/heap_2.c **** 
 112:..\Source\portable\MemMang/heap_2.c **** 
 113:..\Source\portable\MemMang/heap_2.c **** /* Define the linked list structure.  This is used to link free blocks in order
 114:..\Source\portable\MemMang/heap_2.c **** of their size. */
 115:..\Source\portable\MemMang/heap_2.c **** typedef struct A_BLOCK_LINK
 116:..\Source\portable\MemMang/heap_2.c **** {
ARM GAS  C:\Users\bmt\AppData\Local\Temp\ccsmUBIq.s 			page 4


 117:..\Source\portable\MemMang/heap_2.c **** 	struct A_BLOCK_LINK *pxNextFreeBlock;	/*<< The next free block in the list. */
 118:..\Source\portable\MemMang/heap_2.c **** 	size_t xBlockSize;						/*<< The size of the free block. */
 119:..\Source\portable\MemMang/heap_2.c **** } BlockLink_t;
 120:..\Source\portable\MemMang/heap_2.c **** 
 121:..\Source\portable\MemMang/heap_2.c **** 
 122:..\Source\portable\MemMang/heap_2.c **** static const uint16_t heapSTRUCT_SIZE	= ( ( sizeof ( BlockLink_t ) + ( portBYTE_ALIGNMENT - 1 ) ) &
 123:..\Source\portable\MemMang/heap_2.c **** #define heapMINIMUM_BLOCK_SIZE	( ( size_t ) ( heapSTRUCT_SIZE * 2 ) )
 124:..\Source\portable\MemMang/heap_2.c **** 
 125:..\Source\portable\MemMang/heap_2.c **** /* Create a couple of list links to mark the start and end of the list. */
 126:..\Source\portable\MemMang/heap_2.c **** static BlockLink_t xStart, xEnd;
 127:..\Source\portable\MemMang/heap_2.c **** 
 128:..\Source\portable\MemMang/heap_2.c **** /* Keeps track of the number of free bytes remaining, but says nothing about
 129:..\Source\portable\MemMang/heap_2.c **** fragmentation. */
 130:..\Source\portable\MemMang/heap_2.c **** static size_t xFreeBytesRemaining = configADJUSTED_HEAP_SIZE;
 131:..\Source\portable\MemMang/heap_2.c **** 
 132:..\Source\portable\MemMang/heap_2.c **** /* STATIC FUNCTIONS ARE DEFINED AS MACROS TO MINIMIZE THE FUNCTION CALL DEPTH. */
 133:..\Source\portable\MemMang/heap_2.c **** 
 134:..\Source\portable\MemMang/heap_2.c **** /*
 135:..\Source\portable\MemMang/heap_2.c ****  * Insert a block into the list of free blocks - which is ordered by size of
 136:..\Source\portable\MemMang/heap_2.c ****  * the block.  Small blocks at the start of the list and large blocks at the end
 137:..\Source\portable\MemMang/heap_2.c ****  * of the list.
 138:..\Source\portable\MemMang/heap_2.c ****  */
 139:..\Source\portable\MemMang/heap_2.c **** #define prvInsertBlockIntoFreeList( pxBlockToInsert )								\
 140:..\Source\portable\MemMang/heap_2.c **** {																					\
 141:..\Source\portable\MemMang/heap_2.c **** BlockLink_t *pxIterator;															\
 142:..\Source\portable\MemMang/heap_2.c **** size_t xBlockSize;																	\
 143:..\Source\portable\MemMang/heap_2.c **** 																					\
 144:..\Source\portable\MemMang/heap_2.c **** 	xBlockSize = pxBlockToInsert->xBlockSize;										\
 145:..\Source\portable\MemMang/heap_2.c **** 																					\
 146:..\Source\portable\MemMang/heap_2.c **** 	/* Iterate through the list until a block is found that has a larger size */	\
 147:..\Source\portable\MemMang/heap_2.c **** 	/* than the block we are inserting. */											\
 148:..\Source\portable\MemMang/heap_2.c **** 	for( pxIterator = &xStart; pxIterator->pxNextFreeBlock->xBlockSize < xBlockSize; pxIterator = pxIt
 149:..\Source\portable\MemMang/heap_2.c **** 	{																				\
 150:..\Source\portable\MemMang/heap_2.c **** 		/* There is nothing to do here - just iterate to the correct position. */	\
 151:..\Source\portable\MemMang/heap_2.c **** 	}																				\
 152:..\Source\portable\MemMang/heap_2.c **** 																					\
 153:..\Source\portable\MemMang/heap_2.c **** 	/* Update the list to include the block being inserted in the correct */		\
 154:..\Source\portable\MemMang/heap_2.c **** 	/* position. */																	\
 155:..\Source\portable\MemMang/heap_2.c **** 	pxBlockToInsert->pxNextFreeBlock = pxIterator->pxNextFreeBlock;					\
 156:..\Source\portable\MemMang/heap_2.c **** 	pxIterator->pxNextFreeBlock = pxBlockToInsert;									\
 157:..\Source\portable\MemMang/heap_2.c **** }
 158:..\Source\portable\MemMang/heap_2.c **** /*-----------------------------------------------------------*/
 159:..\Source\portable\MemMang/heap_2.c **** 
 160:..\Source\portable\MemMang/heap_2.c **** void *pvPortMalloc( size_t xWantedSize )
 161:..\Source\portable\MemMang/heap_2.c **** {
  50              		.loc 1 161 0
  51              		.cfi_startproc
  52              		@ args = 0, pretend = 0, frame = 32
  53              		@ frame_needed = 1, uses_anonymous_args = 0
  54 0000 80B5     		push	{r7, lr}
  55              		.cfi_def_cfa_offset 8
  56              		.cfi_offset 7, -8
  57              		.cfi_offset 14, -4
  58 0002 88B0     		sub	sp, sp, #32
  59              		.cfi_def_cfa_offset 40
  60 0004 00AF     		add	r7, sp, #0
  61              		.cfi_def_cfa_register 7
ARM GAS  C:\Users\bmt\AppData\Local\Temp\ccsmUBIq.s 			page 5


  62 0006 7860     		str	r0, [r7, #4]
 162:..\Source\portable\MemMang/heap_2.c **** BlockLink_t *pxBlock, *pxPreviousBlock, *pxNewBlockLink;
 163:..\Source\portable\MemMang/heap_2.c **** static BaseType_t xHeapHasBeenInitialised = pdFALSE;
 164:..\Source\portable\MemMang/heap_2.c **** void *pvReturn = NULL;
  63              		.loc 1 164 0
  64 0008 0023     		movs	r3, #0
  65 000a 7B61     		str	r3, [r7, #20]
 165:..\Source\portable\MemMang/heap_2.c **** 
 166:..\Source\portable\MemMang/heap_2.c **** 	vTaskSuspendAll();
  66              		.loc 1 166 0
  67 000c FFF7FEFF 		bl	vTaskSuspendAll
 167:..\Source\portable\MemMang/heap_2.c **** 	{
 168:..\Source\portable\MemMang/heap_2.c **** 		/* If this is the first call to malloc then the heap will require
 169:..\Source\portable\MemMang/heap_2.c **** 		initialisation to setup the list of free blocks. */
 170:..\Source\portable\MemMang/heap_2.c **** 		if( xHeapHasBeenInitialised == pdFALSE )
  68              		.loc 1 170 0
  69 0010 404B     		ldr	r3, .L13
  70 0012 1B68     		ldr	r3, [r3]
  71 0014 002B     		cmp	r3, #0
  72 0016 04D1     		bne	.L2
 171:..\Source\portable\MemMang/heap_2.c **** 		{
 172:..\Source\portable\MemMang/heap_2.c **** 			prvHeapInit();
  73              		.loc 1 172 0
  74 0018 FFF7FEFF 		bl	prvHeapInit
 173:..\Source\portable\MemMang/heap_2.c **** 			xHeapHasBeenInitialised = pdTRUE;
  75              		.loc 1 173 0
  76 001c 3D4B     		ldr	r3, .L13
  77 001e 0122     		movs	r2, #1
  78 0020 1A60     		str	r2, [r3]
  79              	.L2:
 174:..\Source\portable\MemMang/heap_2.c **** 		}
 175:..\Source\portable\MemMang/heap_2.c **** 
 176:..\Source\portable\MemMang/heap_2.c **** 		/* The wanted size is increased so it can contain a BlockLink_t
 177:..\Source\portable\MemMang/heap_2.c **** 		structure in addition to the requested amount of bytes. */
 178:..\Source\portable\MemMang/heap_2.c **** 		if( xWantedSize > 0 )
  80              		.loc 1 178 0
  81 0022 7B68     		ldr	r3, [r7, #4]
  82 0024 002B     		cmp	r3, #0
  83 0026 0ED0     		beq	.L3
 179:..\Source\portable\MemMang/heap_2.c **** 		{
 180:..\Source\portable\MemMang/heap_2.c **** 			xWantedSize += heapSTRUCT_SIZE;
  84              		.loc 1 180 0
  85 0028 0823     		movs	r3, #8
  86 002a 1A46     		mov	r2, r3
  87 002c 7B68     		ldr	r3, [r7, #4]
  88 002e 1344     		add	r3, r3, r2
  89 0030 7B60     		str	r3, [r7, #4]
 181:..\Source\portable\MemMang/heap_2.c **** 
 182:..\Source\portable\MemMang/heap_2.c **** 			/* Ensure that blocks are always aligned to the required number of bytes. */
 183:..\Source\portable\MemMang/heap_2.c **** 			if( ( xWantedSize & portBYTE_ALIGNMENT_MASK ) != 0 )
  90              		.loc 1 183 0
  91 0032 7B68     		ldr	r3, [r7, #4]
  92 0034 03F00703 		and	r3, r3, #7
  93 0038 002B     		cmp	r3, #0
  94 003a 04D0     		beq	.L3
 184:..\Source\portable\MemMang/heap_2.c **** 			{
 185:..\Source\portable\MemMang/heap_2.c **** 				/* Byte alignment required. */
ARM GAS  C:\Users\bmt\AppData\Local\Temp\ccsmUBIq.s 			page 6


 186:..\Source\portable\MemMang/heap_2.c **** 				xWantedSize += ( portBYTE_ALIGNMENT - ( xWantedSize & portBYTE_ALIGNMENT_MASK ) );
  95              		.loc 1 186 0
  96 003c 7B68     		ldr	r3, [r7, #4]
  97 003e 23F00703 		bic	r3, r3, #7
  98 0042 0833     		adds	r3, r3, #8
  99 0044 7B60     		str	r3, [r7, #4]
 100              	.L3:
 187:..\Source\portable\MemMang/heap_2.c **** 			}
 188:..\Source\portable\MemMang/heap_2.c **** 		}
 189:..\Source\portable\MemMang/heap_2.c **** 
 190:..\Source\portable\MemMang/heap_2.c **** 		if( ( xWantedSize > 0 ) && ( xWantedSize < configADJUSTED_HEAP_SIZE ) )
 101              		.loc 1 190 0
 102 0046 7B68     		ldr	r3, [r7, #4]
 103 0048 002B     		cmp	r3, #0
 104 004a 57D0     		beq	.L4
 105              		.loc 1 190 0 is_stmt 0 discriminator 1
 106 004c 7B68     		ldr	r3, [r7, #4]
 107 004e 47F6F772 		movw	r2, #32759
 108 0052 9342     		cmp	r3, r2
 109 0054 52D8     		bhi	.L4
 191:..\Source\portable\MemMang/heap_2.c **** 		{
 192:..\Source\portable\MemMang/heap_2.c **** 			/* Blocks are stored in byte order - traverse the list from the start
 193:..\Source\portable\MemMang/heap_2.c **** 			(smallest) block until one of adequate size is found. */
 194:..\Source\portable\MemMang/heap_2.c **** 			pxPreviousBlock = &xStart;
 110              		.loc 1 194 0 is_stmt 1
 111 0056 304B     		ldr	r3, .L13+4
 112 0058 BB61     		str	r3, [r7, #24]
 195:..\Source\portable\MemMang/heap_2.c **** 			pxBlock = xStart.pxNextFreeBlock;
 113              		.loc 1 195 0
 114 005a 2F4B     		ldr	r3, .L13+4
 115 005c 1B68     		ldr	r3, [r3]
 116 005e FB61     		str	r3, [r7, #28]
 196:..\Source\portable\MemMang/heap_2.c **** 			while( ( pxBlock->xBlockSize < xWantedSize ) && ( pxBlock->pxNextFreeBlock != NULL ) )
 117              		.loc 1 196 0
 118 0060 04E0     		b	.L5
 119              	.L7:
 197:..\Source\portable\MemMang/heap_2.c **** 			{
 198:..\Source\portable\MemMang/heap_2.c **** 				pxPreviousBlock = pxBlock;
 120              		.loc 1 198 0
 121 0062 FB69     		ldr	r3, [r7, #28]
 122 0064 BB61     		str	r3, [r7, #24]
 199:..\Source\portable\MemMang/heap_2.c **** 				pxBlock = pxBlock->pxNextFreeBlock;
 123              		.loc 1 199 0
 124 0066 FB69     		ldr	r3, [r7, #28]
 125 0068 1B68     		ldr	r3, [r3]
 126 006a FB61     		str	r3, [r7, #28]
 127              	.L5:
 196:..\Source\portable\MemMang/heap_2.c **** 			while( ( pxBlock->xBlockSize < xWantedSize ) && ( pxBlock->pxNextFreeBlock != NULL ) )
 128              		.loc 1 196 0
 129 006c FB69     		ldr	r3, [r7, #28]
 130 006e 5A68     		ldr	r2, [r3, #4]
 131 0070 7B68     		ldr	r3, [r7, #4]
 132 0072 9A42     		cmp	r2, r3
 133 0074 03D2     		bcs	.L6
 196:..\Source\portable\MemMang/heap_2.c **** 			while( ( pxBlock->xBlockSize < xWantedSize ) && ( pxBlock->pxNextFreeBlock != NULL ) )
 134              		.loc 1 196 0 is_stmt 0 discriminator 1
 135 0076 FB69     		ldr	r3, [r7, #28]
ARM GAS  C:\Users\bmt\AppData\Local\Temp\ccsmUBIq.s 			page 7


 136 0078 1B68     		ldr	r3, [r3]
 137 007a 002B     		cmp	r3, #0
 138 007c F1D1     		bne	.L7
 139              	.L6:
 200:..\Source\portable\MemMang/heap_2.c **** 			}
 201:..\Source\portable\MemMang/heap_2.c **** 
 202:..\Source\portable\MemMang/heap_2.c **** 			/* If we found the end marker then a block of adequate size was not found. */
 203:..\Source\portable\MemMang/heap_2.c **** 			if( pxBlock != &xEnd )
 140              		.loc 1 203 0 is_stmt 1
 141 007e FB69     		ldr	r3, [r7, #28]
 142 0080 264A     		ldr	r2, .L13+8
 143 0082 9342     		cmp	r3, r2
 144 0084 3AD0     		beq	.L4
 204:..\Source\portable\MemMang/heap_2.c **** 			{
 205:..\Source\portable\MemMang/heap_2.c **** 				/* Return the memory space - jumping over the BlockLink_t structure
 206:..\Source\portable\MemMang/heap_2.c **** 				at its start. */
 207:..\Source\portable\MemMang/heap_2.c **** 				pvReturn = ( void * ) ( ( ( uint8_t * ) pxPreviousBlock->pxNextFreeBlock ) + heapSTRUCT_SIZE );
 145              		.loc 1 207 0
 146 0086 BB69     		ldr	r3, [r7, #24]
 147 0088 1B68     		ldr	r3, [r3]
 148 008a 0822     		movs	r2, #8
 149 008c 1344     		add	r3, r3, r2
 150 008e 7B61     		str	r3, [r7, #20]
 208:..\Source\portable\MemMang/heap_2.c **** 
 209:..\Source\portable\MemMang/heap_2.c **** 				/* This block is being returned for use so must be taken out of the
 210:..\Source\portable\MemMang/heap_2.c **** 				list of free blocks. */
 211:..\Source\portable\MemMang/heap_2.c **** 				pxPreviousBlock->pxNextFreeBlock = pxBlock->pxNextFreeBlock;
 151              		.loc 1 211 0
 152 0090 FB69     		ldr	r3, [r7, #28]
 153 0092 1A68     		ldr	r2, [r3]
 154 0094 BB69     		ldr	r3, [r7, #24]
 155 0096 1A60     		str	r2, [r3]
 212:..\Source\portable\MemMang/heap_2.c **** 
 213:..\Source\portable\MemMang/heap_2.c **** 				/* If the block is larger than required it can be split into two. */
 214:..\Source\portable\MemMang/heap_2.c **** 				if( ( pxBlock->xBlockSize - xWantedSize ) > heapMINIMUM_BLOCK_SIZE )
 156              		.loc 1 214 0
 157 0098 FB69     		ldr	r3, [r7, #28]
 158 009a 5A68     		ldr	r2, [r3, #4]
 159 009c 7B68     		ldr	r3, [r7, #4]
 160 009e D31A     		subs	r3, r2, r3
 161 00a0 0822     		movs	r2, #8
 162 00a2 5200     		lsls	r2, r2, #1
 163 00a4 9342     		cmp	r3, r2
 164 00a6 22D9     		bls	.L8
 215:..\Source\portable\MemMang/heap_2.c **** 				{
 216:..\Source\portable\MemMang/heap_2.c **** 					/* This block is to be split into two.  Create a new block
 217:..\Source\portable\MemMang/heap_2.c **** 					following the number of bytes requested. The void cast is
 218:..\Source\portable\MemMang/heap_2.c **** 					used to prevent byte alignment warnings from the compiler. */
 219:..\Source\portable\MemMang/heap_2.c **** 					pxNewBlockLink = ( void * ) ( ( ( uint8_t * ) pxBlock ) + xWantedSize );
 165              		.loc 1 219 0
 166 00a8 FA69     		ldr	r2, [r7, #28]
 167 00aa 7B68     		ldr	r3, [r7, #4]
 168 00ac 1344     		add	r3, r3, r2
 169 00ae FB60     		str	r3, [r7, #12]
 220:..\Source\portable\MemMang/heap_2.c **** 
 221:..\Source\portable\MemMang/heap_2.c **** 					/* Calculate the sizes of two blocks split from the single
 222:..\Source\portable\MemMang/heap_2.c **** 					block. */
ARM GAS  C:\Users\bmt\AppData\Local\Temp\ccsmUBIq.s 			page 8


 223:..\Source\portable\MemMang/heap_2.c **** 					pxNewBlockLink->xBlockSize = pxBlock->xBlockSize - xWantedSize;
 170              		.loc 1 223 0
 171 00b0 FB69     		ldr	r3, [r7, #28]
 172 00b2 5A68     		ldr	r2, [r3, #4]
 173 00b4 7B68     		ldr	r3, [r7, #4]
 174 00b6 D21A     		subs	r2, r2, r3
 175 00b8 FB68     		ldr	r3, [r7, #12]
 176 00ba 5A60     		str	r2, [r3, #4]
 224:..\Source\portable\MemMang/heap_2.c **** 					pxBlock->xBlockSize = xWantedSize;
 177              		.loc 1 224 0
 178 00bc FB69     		ldr	r3, [r7, #28]
 179 00be 7A68     		ldr	r2, [r7, #4]
 180 00c0 5A60     		str	r2, [r3, #4]
 181              	.LBB2:
 225:..\Source\portable\MemMang/heap_2.c **** 
 226:..\Source\portable\MemMang/heap_2.c **** 					/* Insert the new block into the list of free blocks. */
 227:..\Source\portable\MemMang/heap_2.c **** 					prvInsertBlockIntoFreeList( ( pxNewBlockLink ) );
 182              		.loc 1 227 0
 183 00c2 FB68     		ldr	r3, [r7, #12]
 184 00c4 5B68     		ldr	r3, [r3, #4]
 185 00c6 BB60     		str	r3, [r7, #8]
 186 00c8 134B     		ldr	r3, .L13+4
 187 00ca 3B61     		str	r3, [r7, #16]
 188 00cc 02E0     		b	.L9
 189              	.L10:
 190              		.loc 1 227 0 is_stmt 0 discriminator 3
 191 00ce 3B69     		ldr	r3, [r7, #16]
 192 00d0 1B68     		ldr	r3, [r3]
 193 00d2 3B61     		str	r3, [r7, #16]
 194              	.L9:
 195              		.loc 1 227 0 discriminator 1
 196 00d4 3B69     		ldr	r3, [r7, #16]
 197 00d6 1B68     		ldr	r3, [r3]
 198 00d8 5A68     		ldr	r2, [r3, #4]
 199 00da BB68     		ldr	r3, [r7, #8]
 200 00dc 9A42     		cmp	r2, r3
 201 00de F6D3     		bcc	.L10
 202              		.loc 1 227 0 discriminator 4
 203 00e0 3B69     		ldr	r3, [r7, #16]
 204 00e2 1A68     		ldr	r2, [r3]
 205 00e4 FB68     		ldr	r3, [r7, #12]
 206 00e6 1A60     		str	r2, [r3]
 207 00e8 3B69     		ldr	r3, [r7, #16]
 208 00ea FA68     		ldr	r2, [r7, #12]
 209 00ec 1A60     		str	r2, [r3]
 210              	.L8:
 211              	.LBE2:
 228:..\Source\portable\MemMang/heap_2.c **** 				}
 229:..\Source\portable\MemMang/heap_2.c **** 
 230:..\Source\portable\MemMang/heap_2.c **** 				xFreeBytesRemaining -= pxBlock->xBlockSize;
 212              		.loc 1 230 0 is_stmt 1
 213 00ee 0C4B     		ldr	r3, .L13+12
 214 00f0 1A68     		ldr	r2, [r3]
 215 00f2 FB69     		ldr	r3, [r7, #28]
 216 00f4 5B68     		ldr	r3, [r3, #4]
 217 00f6 D31A     		subs	r3, r2, r3
 218 00f8 094A     		ldr	r2, .L13+12
ARM GAS  C:\Users\bmt\AppData\Local\Temp\ccsmUBIq.s 			page 9


 219 00fa 1360     		str	r3, [r2]
 220              	.L4:
 231:..\Source\portable\MemMang/heap_2.c **** 			}
 232:..\Source\portable\MemMang/heap_2.c **** 		}
 233:..\Source\portable\MemMang/heap_2.c **** 
 234:..\Source\portable\MemMang/heap_2.c **** 		traceMALLOC( pvReturn, xWantedSize );
 235:..\Source\portable\MemMang/heap_2.c **** 	}
 236:..\Source\portable\MemMang/heap_2.c **** 	( void ) xTaskResumeAll();
 221              		.loc 1 236 0
 222 00fc FFF7FEFF 		bl	xTaskResumeAll
 237:..\Source\portable\MemMang/heap_2.c **** 
 238:..\Source\portable\MemMang/heap_2.c **** 	#if( configUSE_MALLOC_FAILED_HOOK == 1 )
 239:..\Source\portable\MemMang/heap_2.c **** 	{
 240:..\Source\portable\MemMang/heap_2.c **** 		if( pvReturn == NULL )
 223              		.loc 1 240 0
 224 0100 7B69     		ldr	r3, [r7, #20]
 225 0102 002B     		cmp	r3, #0
 226 0104 01D1     		bne	.L11
 227              	.LBB3:
 241:..\Source\portable\MemMang/heap_2.c **** 		{
 242:..\Source\portable\MemMang/heap_2.c **** 			extern void vApplicationMallocFailedHook( void );
 243:..\Source\portable\MemMang/heap_2.c **** 			vApplicationMallocFailedHook();
 228              		.loc 1 243 0
 229 0106 FFF7FEFF 		bl	vApplicationMallocFailedHook
 230              	.L11:
 231              	.LBE3:
 244:..\Source\portable\MemMang/heap_2.c **** 		}
 245:..\Source\portable\MemMang/heap_2.c **** 	}
 246:..\Source\portable\MemMang/heap_2.c **** 	#endif
 247:..\Source\portable\MemMang/heap_2.c **** 
 248:..\Source\portable\MemMang/heap_2.c **** 	return pvReturn;
 232              		.loc 1 248 0
 233 010a 7B69     		ldr	r3, [r7, #20]
 249:..\Source\portable\MemMang/heap_2.c **** }
 234              		.loc 1 249 0
 235 010c 1846     		mov	r0, r3
 236 010e 2037     		adds	r7, r7, #32
 237              		.cfi_def_cfa_offset 8
 238 0110 BD46     		mov	sp, r7
 239              		.cfi_def_cfa_register 13
 240              		@ sp needed
 241 0112 80BD     		pop	{r7, pc}
 242              	.L14:
 243              		.align	2
 244              	.L13:
 245 0114 10800000 		.word	xHeapHasBeenInitialised.6952
 246 0118 00800000 		.word	xStart
 247 011c 08800000 		.word	xEnd
 248 0120 00000000 		.word	xFreeBytesRemaining
 249              		.cfi_endproc
 250              	.LFE68:
 251              		.size	pvPortMalloc, .-pvPortMalloc
 252              		.section	.text.vPortFree,"ax",%progbits
 253              		.align	2
 254              		.global	vPortFree
 255              		.thumb
 256              		.thumb_func
ARM GAS  C:\Users\bmt\AppData\Local\Temp\ccsmUBIq.s 			page 10


 257              		.type	vPortFree, %function
 258              	vPortFree:
 259              	.LFB69:
 250:..\Source\portable\MemMang/heap_2.c **** /*-----------------------------------------------------------*/
 251:..\Source\portable\MemMang/heap_2.c **** 
 252:..\Source\portable\MemMang/heap_2.c **** void vPortFree( void *pv )
 253:..\Source\portable\MemMang/heap_2.c **** {
 260              		.loc 1 253 0
 261              		.cfi_startproc
 262              		@ args = 0, pretend = 0, frame = 24
 263              		@ frame_needed = 1, uses_anonymous_args = 0
 264 0000 80B5     		push	{r7, lr}
 265              		.cfi_def_cfa_offset 8
 266              		.cfi_offset 7, -8
 267              		.cfi_offset 14, -4
 268 0002 86B0     		sub	sp, sp, #24
 269              		.cfi_def_cfa_offset 32
 270 0004 00AF     		add	r7, sp, #0
 271              		.cfi_def_cfa_register 7
 272 0006 7860     		str	r0, [r7, #4]
 254:..\Source\portable\MemMang/heap_2.c **** uint8_t *puc = ( uint8_t * ) pv;
 273              		.loc 1 254 0
 274 0008 7B68     		ldr	r3, [r7, #4]
 275 000a 3B61     		str	r3, [r7, #16]
 255:..\Source\portable\MemMang/heap_2.c **** BlockLink_t *pxLink;
 256:..\Source\portable\MemMang/heap_2.c **** 
 257:..\Source\portable\MemMang/heap_2.c **** 	if( pv != NULL )
 276              		.loc 1 257 0
 277 000c 7B68     		ldr	r3, [r7, #4]
 278 000e 002B     		cmp	r3, #0
 279 0010 27D0     		beq	.L15
 258:..\Source\portable\MemMang/heap_2.c **** 	{
 259:..\Source\portable\MemMang/heap_2.c **** 		/* The memory being freed will have an BlockLink_t structure immediately
 260:..\Source\portable\MemMang/heap_2.c **** 		before it. */
 261:..\Source\portable\MemMang/heap_2.c **** 		puc -= heapSTRUCT_SIZE;
 280              		.loc 1 261 0
 281 0012 0823     		movs	r3, #8
 282 0014 5B42     		negs	r3, r3
 283 0016 3A69     		ldr	r2, [r7, #16]
 284 0018 1344     		add	r3, r3, r2
 285 001a 3B61     		str	r3, [r7, #16]
 262:..\Source\portable\MemMang/heap_2.c **** 
 263:..\Source\portable\MemMang/heap_2.c **** 		/* This unexpected casting is to keep some compilers from issuing
 264:..\Source\portable\MemMang/heap_2.c **** 		byte alignment warnings. */
 265:..\Source\portable\MemMang/heap_2.c **** 		pxLink = ( void * ) puc;
 286              		.loc 1 265 0
 287 001c 3B69     		ldr	r3, [r7, #16]
 288 001e FB60     		str	r3, [r7, #12]
 266:..\Source\portable\MemMang/heap_2.c **** 
 267:..\Source\portable\MemMang/heap_2.c **** 		vTaskSuspendAll();
 289              		.loc 1 267 0
 290 0020 FFF7FEFF 		bl	vTaskSuspendAll
 291              	.LBB4:
 268:..\Source\portable\MemMang/heap_2.c **** 		{
 269:..\Source\portable\MemMang/heap_2.c **** 			/* Add this block to the list of free blocks. */
 270:..\Source\portable\MemMang/heap_2.c **** 			prvInsertBlockIntoFreeList( ( ( BlockLink_t * ) pxLink ) );
 292              		.loc 1 270 0
ARM GAS  C:\Users\bmt\AppData\Local\Temp\ccsmUBIq.s 			page 11


 293 0024 FB68     		ldr	r3, [r7, #12]
 294 0026 5B68     		ldr	r3, [r3, #4]
 295 0028 BB60     		str	r3, [r7, #8]
 296 002a 0F4B     		ldr	r3, .L19
 297 002c 7B61     		str	r3, [r7, #20]
 298 002e 02E0     		b	.L17
 299              	.L18:
 300              		.loc 1 270 0 is_stmt 0 discriminator 3
 301 0030 7B69     		ldr	r3, [r7, #20]
 302 0032 1B68     		ldr	r3, [r3]
 303 0034 7B61     		str	r3, [r7, #20]
 304              	.L17:
 305              		.loc 1 270 0 discriminator 1
 306 0036 7B69     		ldr	r3, [r7, #20]
 307 0038 1B68     		ldr	r3, [r3]
 308 003a 5A68     		ldr	r2, [r3, #4]
 309 003c BB68     		ldr	r3, [r7, #8]
 310 003e 9A42     		cmp	r2, r3
 311 0040 F6D3     		bcc	.L18
 312              		.loc 1 270 0 discriminator 4
 313 0042 7B69     		ldr	r3, [r7, #20]
 314 0044 1A68     		ldr	r2, [r3]
 315 0046 FB68     		ldr	r3, [r7, #12]
 316 0048 1A60     		str	r2, [r3]
 317 004a 7B69     		ldr	r3, [r7, #20]
 318 004c FA68     		ldr	r2, [r7, #12]
 319 004e 1A60     		str	r2, [r3]
 320              	.LBE4:
 271:..\Source\portable\MemMang/heap_2.c **** 			xFreeBytesRemaining += pxLink->xBlockSize;
 321              		.loc 1 271 0 is_stmt 1 discriminator 4
 322 0050 FB68     		ldr	r3, [r7, #12]
 323 0052 5A68     		ldr	r2, [r3, #4]
 324 0054 054B     		ldr	r3, .L19+4
 325 0056 1B68     		ldr	r3, [r3]
 326 0058 1344     		add	r3, r3, r2
 327 005a 044A     		ldr	r2, .L19+4
 328 005c 1360     		str	r3, [r2]
 272:..\Source\portable\MemMang/heap_2.c **** 			traceFREE( pv, pxLink->xBlockSize );
 273:..\Source\portable\MemMang/heap_2.c **** 		}
 274:..\Source\portable\MemMang/heap_2.c **** 		( void ) xTaskResumeAll();
 329              		.loc 1 274 0 discriminator 4
 330 005e FFF7FEFF 		bl	xTaskResumeAll
 331              	.L15:
 275:..\Source\portable\MemMang/heap_2.c **** 	}
 276:..\Source\portable\MemMang/heap_2.c **** }
 332              		.loc 1 276 0
 333 0062 1837     		adds	r7, r7, #24
 334              		.cfi_def_cfa_offset 8
 335 0064 BD46     		mov	sp, r7
 336              		.cfi_def_cfa_register 13
 337              		@ sp needed
 338 0066 80BD     		pop	{r7, pc}
 339              	.L20:
 340              		.align	2
 341              	.L19:
 342 0068 00800000 		.word	xStart
 343 006c 00000000 		.word	xFreeBytesRemaining
ARM GAS  C:\Users\bmt\AppData\Local\Temp\ccsmUBIq.s 			page 12


 344              		.cfi_endproc
 345              	.LFE69:
 346              		.size	vPortFree, .-vPortFree
 347              		.section	.text.xPortGetFreeHeapSize,"ax",%progbits
 348              		.align	2
 349              		.global	xPortGetFreeHeapSize
 350              		.thumb
 351              		.thumb_func
 352              		.type	xPortGetFreeHeapSize, %function
 353              	xPortGetFreeHeapSize:
 354              	.LFB70:
 277:..\Source\portable\MemMang/heap_2.c **** /*-----------------------------------------------------------*/
 278:..\Source\portable\MemMang/heap_2.c **** 
 279:..\Source\portable\MemMang/heap_2.c **** size_t xPortGetFreeHeapSize( void )
 280:..\Source\portable\MemMang/heap_2.c **** {
 355              		.loc 1 280 0
 356              		.cfi_startproc
 357              		@ args = 0, pretend = 0, frame = 0
 358              		@ frame_needed = 1, uses_anonymous_args = 0
 359              		@ link register save eliminated.
 360 0000 80B4     		push	{r7}
 361              		.cfi_def_cfa_offset 4
 362              		.cfi_offset 7, -4
 363 0002 00AF     		add	r7, sp, #0
 364              		.cfi_def_cfa_register 7
 281:..\Source\portable\MemMang/heap_2.c **** 	return xFreeBytesRemaining;
 365              		.loc 1 281 0
 366 0004 034B     		ldr	r3, .L23
 367 0006 1B68     		ldr	r3, [r3]
 282:..\Source\portable\MemMang/heap_2.c **** }
 368              		.loc 1 282 0
 369 0008 1846     		mov	r0, r3
 370 000a BD46     		mov	sp, r7
 371              		.cfi_def_cfa_register 13
 372              		@ sp needed
 373 000c 5DF8047B 		ldr	r7, [sp], #4
 374              		.cfi_restore 7
 375              		.cfi_def_cfa_offset 0
 376 0010 7047     		bx	lr
 377              	.L24:
 378 0012 00BF     		.align	2
 379              	.L23:
 380 0014 00000000 		.word	xFreeBytesRemaining
 381              		.cfi_endproc
 382              	.LFE70:
 383              		.size	xPortGetFreeHeapSize, .-xPortGetFreeHeapSize
 384              		.section	.text.vPortInitialiseBlocks,"ax",%progbits
 385              		.align	2
 386              		.global	vPortInitialiseBlocks
 387              		.thumb
 388              		.thumb_func
 389              		.type	vPortInitialiseBlocks, %function
 390              	vPortInitialiseBlocks:
 391              	.LFB71:
 283:..\Source\portable\MemMang/heap_2.c **** /*-----------------------------------------------------------*/
 284:..\Source\portable\MemMang/heap_2.c **** 
 285:..\Source\portable\MemMang/heap_2.c **** void vPortInitialiseBlocks( void )
ARM GAS  C:\Users\bmt\AppData\Local\Temp\ccsmUBIq.s 			page 13


 286:..\Source\portable\MemMang/heap_2.c **** {
 392              		.loc 1 286 0
 393              		.cfi_startproc
 394              		@ args = 0, pretend = 0, frame = 0
 395              		@ frame_needed = 1, uses_anonymous_args = 0
 396              		@ link register save eliminated.
 397 0000 80B4     		push	{r7}
 398              		.cfi_def_cfa_offset 4
 399              		.cfi_offset 7, -4
 400 0002 00AF     		add	r7, sp, #0
 401              		.cfi_def_cfa_register 7
 287:..\Source\portable\MemMang/heap_2.c **** 	/* This just exists to keep the linker quiet. */
 288:..\Source\portable\MemMang/heap_2.c **** }
 402              		.loc 1 288 0
 403 0004 BD46     		mov	sp, r7
 404              		.cfi_def_cfa_register 13
 405              		@ sp needed
 406 0006 5DF8047B 		ldr	r7, [sp], #4
 407              		.cfi_restore 7
 408              		.cfi_def_cfa_offset 0
 409 000a 7047     		bx	lr
 410              		.cfi_endproc
 411              	.LFE71:
 412              		.size	vPortInitialiseBlocks, .-vPortInitialiseBlocks
 413              		.section	.text.prvHeapInit,"ax",%progbits
 414              		.align	2
 415              		.thumb
 416              		.thumb_func
 417              		.type	prvHeapInit, %function
 418              	prvHeapInit:
 419              	.LFB72:
 289:..\Source\portable\MemMang/heap_2.c **** /*-----------------------------------------------------------*/
 290:..\Source\portable\MemMang/heap_2.c **** 
 291:..\Source\portable\MemMang/heap_2.c **** static void prvHeapInit( void )
 292:..\Source\portable\MemMang/heap_2.c **** {
 420              		.loc 1 292 0
 421              		.cfi_startproc
 422              		@ args = 0, pretend = 0, frame = 8
 423              		@ frame_needed = 1, uses_anonymous_args = 0
 424              		@ link register save eliminated.
 425 0000 80B4     		push	{r7}
 426              		.cfi_def_cfa_offset 4
 427              		.cfi_offset 7, -4
 428 0002 83B0     		sub	sp, sp, #12
 429              		.cfi_def_cfa_offset 16
 430 0004 00AF     		add	r7, sp, #0
 431              		.cfi_def_cfa_register 7
 293:..\Source\portable\MemMang/heap_2.c **** BlockLink_t *pxFirstFreeBlock;
 294:..\Source\portable\MemMang/heap_2.c **** uint8_t *pucAlignedHeap;
 295:..\Source\portable\MemMang/heap_2.c **** 
 296:..\Source\portable\MemMang/heap_2.c **** 	/* Ensure the heap starts on a correctly aligned boundary. */
 297:..\Source\portable\MemMang/heap_2.c **** 	pucAlignedHeap = ( uint8_t * ) ( ( ( portPOINTER_SIZE_TYPE ) &ucHeap[ portBYTE_ALIGNMENT ] ) & ( ~
 432              		.loc 1 297 0
 433 0006 0F4B     		ldr	r3, .L27
 434 0008 23F00703 		bic	r3, r3, #7
 435 000c 7B60     		str	r3, [r7, #4]
 298:..\Source\portable\MemMang/heap_2.c **** 
ARM GAS  C:\Users\bmt\AppData\Local\Temp\ccsmUBIq.s 			page 14


 299:..\Source\portable\MemMang/heap_2.c **** 	/* xStart is used to hold a pointer to the first item in the list of free
 300:..\Source\portable\MemMang/heap_2.c **** 	blocks.  The void cast is used to prevent compiler warnings. */
 301:..\Source\portable\MemMang/heap_2.c **** 	xStart.pxNextFreeBlock = ( void * ) pucAlignedHeap;
 436              		.loc 1 301 0
 437 000e 0E4A     		ldr	r2, .L27+4
 438 0010 7B68     		ldr	r3, [r7, #4]
 439 0012 1360     		str	r3, [r2]
 302:..\Source\portable\MemMang/heap_2.c **** 	xStart.xBlockSize = ( size_t ) 0;
 440              		.loc 1 302 0
 441 0014 0C4B     		ldr	r3, .L27+4
 442 0016 0022     		movs	r2, #0
 443 0018 5A60     		str	r2, [r3, #4]
 303:..\Source\portable\MemMang/heap_2.c **** 
 304:..\Source\portable\MemMang/heap_2.c **** 	/* xEnd is used to mark the end of the list of free blocks. */
 305:..\Source\portable\MemMang/heap_2.c **** 	xEnd.xBlockSize = configADJUSTED_HEAP_SIZE;
 444              		.loc 1 305 0
 445 001a 0C4B     		ldr	r3, .L27+8
 446 001c 47F6F872 		movw	r2, #32760
 447 0020 5A60     		str	r2, [r3, #4]
 306:..\Source\portable\MemMang/heap_2.c **** 	xEnd.pxNextFreeBlock = NULL;
 448              		.loc 1 306 0
 449 0022 0A4B     		ldr	r3, .L27+8
 450 0024 0022     		movs	r2, #0
 451 0026 1A60     		str	r2, [r3]
 307:..\Source\portable\MemMang/heap_2.c **** 
 308:..\Source\portable\MemMang/heap_2.c **** 	/* To start with there is a single free block that is sized to take up the
 309:..\Source\portable\MemMang/heap_2.c **** 	entire heap space. */
 310:..\Source\portable\MemMang/heap_2.c **** 	pxFirstFreeBlock = ( void * ) pucAlignedHeap;
 452              		.loc 1 310 0
 453 0028 7B68     		ldr	r3, [r7, #4]
 454 002a 3B60     		str	r3, [r7]
 311:..\Source\portable\MemMang/heap_2.c **** 	pxFirstFreeBlock->xBlockSize = configADJUSTED_HEAP_SIZE;
 455              		.loc 1 311 0
 456 002c 3B68     		ldr	r3, [r7]
 457 002e 47F6F872 		movw	r2, #32760
 458 0032 5A60     		str	r2, [r3, #4]
 312:..\Source\portable\MemMang/heap_2.c **** 	pxFirstFreeBlock->pxNextFreeBlock = &xEnd;
 459              		.loc 1 312 0
 460 0034 3B68     		ldr	r3, [r7]
 461 0036 054A     		ldr	r2, .L27+8
 462 0038 1A60     		str	r2, [r3]
 313:..\Source\portable\MemMang/heap_2.c **** }
 463              		.loc 1 313 0
 464 003a 0C37     		adds	r7, r7, #12
 465              		.cfi_def_cfa_offset 4
 466 003c BD46     		mov	sp, r7
 467              		.cfi_def_cfa_register 13
 468              		@ sp needed
 469 003e 5DF8047B 		ldr	r7, [sp], #4
 470              		.cfi_restore 7
 471              		.cfi_def_cfa_offset 0
 472 0042 7047     		bx	lr
 473              	.L28:
 474              		.align	2
 475              	.L27:
 476 0044 08000000 		.word	ucHeap+8
 477 0048 00800000 		.word	xStart
ARM GAS  C:\Users\bmt\AppData\Local\Temp\ccsmUBIq.s 			page 15


 478 004c 08800000 		.word	xEnd
 479              		.cfi_endproc
 480              	.LFE72:
 481              		.size	prvHeapInit, .-prvHeapInit
 482              		.bss
 483              		.align	2
 484              	xHeapHasBeenInitialised.6952:
 485 8010 00000000 		.space	4
 486              		.text
 487              	.Letext0:
 488              		.file 2 "c:\\program files (x86)\\cypress\\psoc creator\\4.0\\psoc creator\\import\\gnu\\arm\\4.9.
 489              		.file 3 "c:\\program files (x86)\\cypress\\psoc creator\\4.0\\psoc creator\\import\\gnu\\arm\\4.9.
 490              		.file 4 "c:\\program files (x86)\\cypress\\psoc creator\\4.0\\psoc creator\\import\\gnu\\arm\\4.9.
 491              		.file 5 "..\\Source\\portable\\GCC\\ARM_CM3/portmacro.h"
 492              		.file 6 "Generated_Source\\PSoC5/core_cm3.h"