ARM GAS  C:\Users\bmt\AppData\Local\Temp\ccf4nOK0.s 			page 1


   1              		.syntax unified
   2              		.cpu cortex-m3
   3              		.fpu softvfp
   4              		.eabi_attribute 20, 1
   5              		.eabi_attribute 21, 1
   6              		.eabi_attribute 23, 3
   7              		.eabi_attribute 24, 1
   8              		.eabi_attribute 25, 1
   9              		.eabi_attribute 26, 1
  10              		.eabi_attribute 30, 6
  11              		.eabi_attribute 34, 1
  12              		.eabi_attribute 18, 4
  13              		.thumb
  14              		.file	"IntQueueTimer.c"
  15              		.text
  16              	.Ltext0:
  17              		.cfi_sections	.debug_frame
  18              		.section	.text.vInitialiseTimerForIntQueueTest,"ax",%progbits
  19              		.align	2
  20              		.global	vInitialiseTimerForIntQueueTest
  21              		.thumb
  22              		.thumb_func
  23              		.type	vInitialiseTimerForIntQueueTest, %function
  24              	vInitialiseTimerForIntQueueTest:
  25              	.LFB68:
  26              		.file 1 "IntQueueTimer.c"
   1:IntQueueTimer.c **** /*
   2:IntQueueTimer.c ****     FreeRTOS V9.0.0 - Copyright (C) 2016 Real Time Engineers Ltd.
   3:IntQueueTimer.c ****     All rights reserved
   4:IntQueueTimer.c **** 
   5:IntQueueTimer.c ****     VISIT http://www.FreeRTOS.org TO ENSURE YOU ARE USING THE LATEST VERSION.
   6:IntQueueTimer.c **** 
   7:IntQueueTimer.c ****     This file is part of the FreeRTOS distribution.
   8:IntQueueTimer.c **** 
   9:IntQueueTimer.c ****     FreeRTOS is free software; you can redistribute it and/or modify it under
  10:IntQueueTimer.c ****     the terms of the GNU General Public License (version 2) as published by the
  11:IntQueueTimer.c ****     Free Software Foundation >>>> AND MODIFIED BY <<<< the FreeRTOS exception.
  12:IntQueueTimer.c **** 
  13:IntQueueTimer.c ****     ***************************************************************************
  14:IntQueueTimer.c ****     >>!   NOTE: The modification to the GPL is included to allow you to     !<<
  15:IntQueueTimer.c ****     >>!   distribute a combined work that includes FreeRTOS without being   !<<
  16:IntQueueTimer.c ****     >>!   obliged to provide the source code for proprietary components     !<<
  17:IntQueueTimer.c ****     >>!   outside of the FreeRTOS kernel.                                   !<<
  18:IntQueueTimer.c ****     ***************************************************************************
  19:IntQueueTimer.c **** 
  20:IntQueueTimer.c ****     FreeRTOS is distributed in the hope that it will be useful, but WITHOUT ANY
  21:IntQueueTimer.c ****     WARRANTY; without even the implied warranty of MERCHANTABILITY or FITNESS
  22:IntQueueTimer.c ****     FOR A PARTICULAR PURPOSE.  Full license text is available on the following
  23:IntQueueTimer.c ****     link: http://www.freertos.org/a00114.html
  24:IntQueueTimer.c **** 
  25:IntQueueTimer.c ****     ***************************************************************************
  26:IntQueueTimer.c ****      *                                                                       *
  27:IntQueueTimer.c ****      *    FreeRTOS provides completely free yet professionally developed,    *
  28:IntQueueTimer.c ****      *    robust, strictly quality controlled, supported, and cross          *
  29:IntQueueTimer.c ****      *    platform software that is more than just the market leader, it     *
  30:IntQueueTimer.c ****      *    is the industry's de facto standard.                               *
  31:IntQueueTimer.c ****      *                                                                       *
ARM GAS  C:\Users\bmt\AppData\Local\Temp\ccf4nOK0.s 			page 2


  32:IntQueueTimer.c ****      *    Help yourself get started quickly while simultaneously helping     *
  33:IntQueueTimer.c ****      *    to support the FreeRTOS project by purchasing a FreeRTOS           *
  34:IntQueueTimer.c ****      *    tutorial book, reference manual, or both:                          *
  35:IntQueueTimer.c ****      *    http://www.FreeRTOS.org/Documentation                              *
  36:IntQueueTimer.c ****      *                                                                       *
  37:IntQueueTimer.c ****     ***************************************************************************
  38:IntQueueTimer.c **** 
  39:IntQueueTimer.c ****     http://www.FreeRTOS.org/FAQHelp.html - Having a problem?  Start by reading
  40:IntQueueTimer.c ****     the FAQ page "My application does not run, what could be wrong?".  Have you
  41:IntQueueTimer.c ****     defined configASSERT()?
  42:IntQueueTimer.c **** 
  43:IntQueueTimer.c ****     http://www.FreeRTOS.org/support - In return for receiving this top quality
  44:IntQueueTimer.c ****     embedded software for free we request you assist our global community by
  45:IntQueueTimer.c ****     participating in the support forum.
  46:IntQueueTimer.c **** 
  47:IntQueueTimer.c ****     http://www.FreeRTOS.org/training - Investing in training allows your team to
  48:IntQueueTimer.c ****     be as productive as possible as early as possible.  Now you can receive
  49:IntQueueTimer.c ****     FreeRTOS training directly from Richard Barry, CEO of Real Time Engineers
  50:IntQueueTimer.c ****     Ltd, and the world's leading authority on the world's leading RTOS.
  51:IntQueueTimer.c **** 
  52:IntQueueTimer.c ****     http://www.FreeRTOS.org/plus - A selection of FreeRTOS ecosystem products,
  53:IntQueueTimer.c ****     including FreeRTOS+Trace - an indispensable productivity tool, a DOS
  54:IntQueueTimer.c ****     compatible FAT file system, and our tiny thread aware UDP/IP stack.
  55:IntQueueTimer.c **** 
  56:IntQueueTimer.c ****     http://www.FreeRTOS.org/labs - Where new FreeRTOS products go to incubate.
  57:IntQueueTimer.c ****     Come and try FreeRTOS+TCP, our new open source TCP/IP stack for FreeRTOS.
  58:IntQueueTimer.c **** 
  59:IntQueueTimer.c ****     http://www.OpenRTOS.com - Real Time Engineers ltd. license FreeRTOS to High
  60:IntQueueTimer.c ****     Integrity Systems ltd. to sell under the OpenRTOS brand.  Low cost OpenRTOS
  61:IntQueueTimer.c ****     licenses offer ticketed support, indemnification and commercial middleware.
  62:IntQueueTimer.c **** 
  63:IntQueueTimer.c ****     http://www.SafeRTOS.com - High Integrity Systems also provide a safety
  64:IntQueueTimer.c ****     engineered and independently SIL3 certified version for use in safety and
  65:IntQueueTimer.c ****     mission critical applications that require provable dependability.
  66:IntQueueTimer.c **** 
  67:IntQueueTimer.c ****     1 tab == 4 spaces!
  68:IntQueueTimer.c **** */
  69:IntQueueTimer.c **** 
  70:IntQueueTimer.c **** #include <device.h>
  71:IntQueueTimer.c **** #include "FreeRTOS.h"
  72:IntQueueTimer.c **** #include "task.h"
  73:IntQueueTimer.c **** /*---------------------------------------------------------------------------*/
  74:IntQueueTimer.c **** 
  75:IntQueueTimer.c **** extern portBASE_TYPE xFirstTimerHandler( void );
  76:IntQueueTimer.c **** extern portBASE_TYPE xSecondTimerHandler( void );
  77:IntQueueTimer.c **** /*---------------------------------------------------------------------------*/
  78:IntQueueTimer.c **** 
  79:IntQueueTimer.c **** CY_ISR_PROTO( vHighFrequencyFirstISR );
  80:IntQueueTimer.c **** CY_ISR_PROTO( vHighFrequencySecondISR );
  81:IntQueueTimer.c **** /*---------------------------------------------------------------------------*/
  82:IntQueueTimer.c **** 
  83:IntQueueTimer.c **** /**
  84:IntQueueTimer.c ****  * Installs and starts the ISRs that drive the Interupt Queue Tests.
  85:IntQueueTimer.c ****  */
  86:IntQueueTimer.c **** void vInitialiseTimerForIntQueueTest( void )
  87:IntQueueTimer.c **** {
  27              		.loc 1 87 0
ARM GAS  C:\Users\bmt\AppData\Local\Temp\ccf4nOK0.s 			page 3


  28              		.cfi_startproc
  29              		@ args = 0, pretend = 0, frame = 0
  30              		@ frame_needed = 1, uses_anonymous_args = 0
  31 0000 80B5     		push	{r7, lr}
  32              		.cfi_def_cfa_offset 8
  33              		.cfi_offset 7, -8
  34              		.cfi_offset 14, -4
  35 0002 00AF     		add	r7, sp, #0
  36              		.cfi_def_cfa_register 7
  88:IntQueueTimer.c **** 	taskENTER_CRITICAL();
  37              		.loc 1 88 0
  38 0004 FFF7FEFF 		bl	vPortEnterCritical
  89:IntQueueTimer.c **** 	{
  90:IntQueueTimer.c **** 		/* Initialise and start the First Timer ISR. */
  91:IntQueueTimer.c **** 		isr_High_Frequency_2000Hz_ClearPending();
  39              		.loc 1 91 0
  40 0008 FFF7FEFF 		bl	isr_High_Frequency_2000Hz_ClearPending
  92:IntQueueTimer.c **** 		isr_High_Frequency_2000Hz_StartEx( ( cyisraddress ) vHighFrequencyFirstISR );
  41              		.loc 1 92 0
  42 000c 0548     		ldr	r0, .L2
  43 000e FFF7FEFF 		bl	isr_High_Frequency_2000Hz_StartEx
  93:IntQueueTimer.c **** 
  94:IntQueueTimer.c **** 		/* Initialise and start the Second Timer ISR. */
  95:IntQueueTimer.c **** 		isr_High_Frequency_2001Hz_ClearPending();
  44              		.loc 1 95 0
  45 0012 FFF7FEFF 		bl	isr_High_Frequency_2001Hz_ClearPending
  96:IntQueueTimer.c **** 		isr_High_Frequency_2001Hz_StartEx( ( cyisraddress ) vHighFrequencySecondISR );
  46              		.loc 1 96 0
  47 0016 0448     		ldr	r0, .L2+4
  48 0018 FFF7FEFF 		bl	isr_High_Frequency_2001Hz_StartEx
  97:IntQueueTimer.c **** 	}
  98:IntQueueTimer.c **** 	taskEXIT_CRITICAL();
  49              		.loc 1 98 0
  50 001c FFF7FEFF 		bl	vPortExitCritical
  99:IntQueueTimer.c **** }
  51              		.loc 1 99 0
  52 0020 80BD     		pop	{r7, pc}
  53              	.L3:
  54 0022 00BF     		.align	2
  55              	.L2:
  56 0024 00000000 		.word	vHighFrequencyFirstISR
  57 0028 00000000 		.word	vHighFrequencySecondISR
  58              		.cfi_endproc
  59              	.LFE68:
  60              		.size	vInitialiseTimerForIntQueueTest, .-vInitialiseTimerForIntQueueTest
  61              		.section	.text.vHighFrequencyFirstISR,"ax",%progbits
  62              		.align	2
  63              		.global	vHighFrequencyFirstISR
  64              		.thumb
  65              		.thumb_func
  66              		.type	vHighFrequencyFirstISR, %function
  67              	vHighFrequencyFirstISR:
  68              	.LFB69:
 100:IntQueueTimer.c **** /*---------------------------------------------------------------------------*/
 101:IntQueueTimer.c **** 
 102:IntQueueTimer.c **** CY_ISR(vHighFrequencyFirstISR)
 103:IntQueueTimer.c **** {
ARM GAS  C:\Users\bmt\AppData\Local\Temp\ccf4nOK0.s 			page 4


  69              		.loc 1 103 0
  70              		.cfi_startproc
  71              		@ args = 0, pretend = 0, frame = 0
  72              		@ frame_needed = 1, uses_anonymous_args = 0
  73 0000 80B5     		push	{r7, lr}
  74              		.cfi_def_cfa_offset 8
  75              		.cfi_offset 7, -8
  76              		.cfi_offset 14, -4
  77 0002 00AF     		add	r7, sp, #0
  78              		.cfi_def_cfa_register 7
 104:IntQueueTimer.c **** 	/* Call back into the test code and context switch if necessary. */
 105:IntQueueTimer.c **** 	portEND_SWITCHING_ISR( xFirstTimerHandler() );
  79              		.loc 1 105 0
  80 0004 FFF7FEFF 		bl	xFirstTimerHandler
  81 0008 0346     		mov	r3, r0
  82 000a 002B     		cmp	r3, #0
  83 000c 07D0     		beq	.L4
  84              		.loc 1 105 0 is_stmt 0 discriminator 1
  85 000e 044B     		ldr	r3, .L6
  86 0010 4FF08052 		mov	r2, #268435456
  87 0014 1A60     		str	r2, [r3]
  88              	@ 105 "IntQueueTimer.c" 1
  89 0016 BFF34F8F 		dsb
  90              	@ 0 "" 2
  91              	@ 105 "IntQueueTimer.c" 1
  92 001a BFF36F8F 		isb
  93              	@ 0 "" 2
  94              		.thumb
  95              	.L4:
 106:IntQueueTimer.c **** }
  96              		.loc 1 106 0 is_stmt 1
  97 001e 80BD     		pop	{r7, pc}
  98              	.L7:
  99              		.align	2
 100              	.L6:
 101 0020 04ED00E0 		.word	-536810236
 102              		.cfi_endproc
 103              	.LFE69:
 104              		.size	vHighFrequencyFirstISR, .-vHighFrequencyFirstISR
 105              		.section	.text.vHighFrequencySecondISR,"ax",%progbits
 106              		.align	2
 107              		.global	vHighFrequencySecondISR
 108              		.thumb
 109              		.thumb_func
 110              		.type	vHighFrequencySecondISR, %function
 111              	vHighFrequencySecondISR:
 112              	.LFB70:
 107:IntQueueTimer.c **** /*---------------------------------------------------------------------------*/
 108:IntQueueTimer.c **** 
 109:IntQueueTimer.c **** CY_ISR(vHighFrequencySecondISR)
 110:IntQueueTimer.c **** {
 113              		.loc 1 110 0
 114              		.cfi_startproc
 115              		@ args = 0, pretend = 0, frame = 0
 116              		@ frame_needed = 1, uses_anonymous_args = 0
 117 0000 80B5     		push	{r7, lr}
 118              		.cfi_def_cfa_offset 8
ARM GAS  C:\Users\bmt\AppData\Local\Temp\ccf4nOK0.s 			page 5


 119              		.cfi_offset 7, -8
 120              		.cfi_offset 14, -4
 121 0002 00AF     		add	r7, sp, #0
 122              		.cfi_def_cfa_register 7
 111:IntQueueTimer.c **** 	/* Call back into the test code and context switch if necessary. */
 112:IntQueueTimer.c **** 	portEND_SWITCHING_ISR( xSecondTimerHandler() );
 123              		.loc 1 112 0
 124 0004 FFF7FEFF 		bl	xSecondTimerHandler
 125 0008 0346     		mov	r3, r0
 126 000a 002B     		cmp	r3, #0
 127 000c 07D0     		beq	.L8
 128              		.loc 1 112 0 is_stmt 0 discriminator 1
 129 000e 044B     		ldr	r3, .L10
 130 0010 4FF08052 		mov	r2, #268435456
 131 0014 1A60     		str	r2, [r3]
 132              	@ 112 "IntQueueTimer.c" 1
 133 0016 BFF34F8F 		dsb
 134              	@ 0 "" 2
 135              	@ 112 "IntQueueTimer.c" 1
 136 001a BFF36F8F 		isb
 137              	@ 0 "" 2
 138              		.thumb
 139              	.L8:
 113:IntQueueTimer.c **** }
 140              		.loc 1 113 0 is_stmt 1
 141 001e 80BD     		pop	{r7, pc}
 142              	.L11:
 143              		.align	2
 144              	.L10:
 145 0020 04ED00E0 		.word	-536810236
 146              		.cfi_endproc
 147              	.LFE70:
 148              		.size	vHighFrequencySecondISR, .-vHighFrequencySecondISR
 149              		.text
 150              	.Letext0:
 151              		.file 2 "c:\\program files (x86)\\cypress\\psoc creator\\4.0\\psoc creator\\import\\gnu\\arm\\4.9.
 152              		.file 3 "c:\\program files (x86)\\cypress\\psoc creator\\4.0\\psoc creator\\import\\gnu\\arm\\4.9.
 153              		.file 4 "Generated_Source\\PSoC5/cytypes.h"
 154              		.file 5 "..\\Source\\portable\\GCC\\ARM_CM3/portmacro.h"
 155              		.file 6 "Generated_Source\\PSoC5/core_cm3.h"