ARM GAS  C:\Users\bmt\AppData\Local\Temp\ccPPvAfH.s 			page 1


   1              		.syntax unified
   2              		.cpu cortex-m3
   3              		.fpu softvfp
   4              		.eabi_attribute 20, 1
   5              		.eabi_attribute 21, 1
   6              		.eabi_attribute 23, 3
   7              		.eabi_attribute 24, 1
   8              		.eabi_attribute 25, 1
   9              		.eabi_attribute 26, 1
  10              		.eabi_attribute 30, 6
  11              		.eabi_attribute 34, 1
  12              		.eabi_attribute 18, 4
  13              		.thumb
  14              		.file	"LCD_Character_Display.c"
  15              		.text
  16              	.Ltext0:
  17              		.cfi_sections	.debug_frame
  18              		.global	LCD_Character_Display_enableState
  19              		.bss
  20              		.type	LCD_Character_Display_enableState, %object
  21              		.size	LCD_Character_Display_enableState, 1
  22              	LCD_Character_Display_enableState:
  23 0000 00       		.space	1
  24              		.global	LCD_Character_Display_initVar
  25              		.type	LCD_Character_Display_initVar, %object
  26              		.size	LCD_Character_Display_initVar, 1
  27              	LCD_Character_Display_initVar:
  28 0001 00       		.space	1
  29              		.section	.text.LCD_Character_Display_Init,"ax",%progbits
  30              		.align	2
  31              		.global	LCD_Character_Display_Init
  32              		.thumb
  33              		.thumb_func
  34              		.type	LCD_Character_Display_Init, %function
  35              	LCD_Character_Display_Init:
  36              	.LFB0:
  37              		.file 1 "Generated_Source\\PSoC5\\LCD_Character_Display.c"
   1:Generated_Source\PSoC5/LCD_Character_Display.c **** /*******************************************************************************
   2:Generated_Source\PSoC5/LCD_Character_Display.c **** * File Name: LCD_Character_Display.c
   3:Generated_Source\PSoC5/LCD_Character_Display.c **** * Version 2.20
   4:Generated_Source\PSoC5/LCD_Character_Display.c **** *
   5:Generated_Source\PSoC5/LCD_Character_Display.c **** * Description:
   6:Generated_Source\PSoC5/LCD_Character_Display.c **** *  This file provides source code for the Character LCD component's API.
   7:Generated_Source\PSoC5/LCD_Character_Display.c **** *
   8:Generated_Source\PSoC5/LCD_Character_Display.c **** * Note:
   9:Generated_Source\PSoC5/LCD_Character_Display.c **** *
  10:Generated_Source\PSoC5/LCD_Character_Display.c **** ********************************************************************************
  11:Generated_Source\PSoC5/LCD_Character_Display.c **** * Copyright 2008-2014, Cypress Semiconductor Corporation.  All rights reserved.
  12:Generated_Source\PSoC5/LCD_Character_Display.c **** * You may use this file only in accordance with the license, terms, conditions,
  13:Generated_Source\PSoC5/LCD_Character_Display.c **** * disclaimers, and limitations in the end user license agreement accompanying
  14:Generated_Source\PSoC5/LCD_Character_Display.c **** * the software package with which this file was provided.
  15:Generated_Source\PSoC5/LCD_Character_Display.c **** *******************************************************************************/
  16:Generated_Source\PSoC5/LCD_Character_Display.c **** 
  17:Generated_Source\PSoC5/LCD_Character_Display.c **** #include "CyLib.h"
  18:Generated_Source\PSoC5/LCD_Character_Display.c **** #include "LCD_Character_Display.h"
  19:Generated_Source\PSoC5/LCD_Character_Display.c **** 
  20:Generated_Source\PSoC5/LCD_Character_Display.c **** 
ARM GAS  C:\Users\bmt\AppData\Local\Temp\ccPPvAfH.s 			page 2


  21:Generated_Source\PSoC5/LCD_Character_Display.c **** static void LCD_Character_Display_WrDatNib(uint8 nibble) ;
  22:Generated_Source\PSoC5/LCD_Character_Display.c **** static void LCD_Character_Display_WrCntrlNib(uint8 nibble) ;
  23:Generated_Source\PSoC5/LCD_Character_Display.c **** 
  24:Generated_Source\PSoC5/LCD_Character_Display.c **** /* Stores state of component. Indicates whether component is or not
  25:Generated_Source\PSoC5/LCD_Character_Display.c **** * in enable state.
  26:Generated_Source\PSoC5/LCD_Character_Display.c **** */
  27:Generated_Source\PSoC5/LCD_Character_Display.c **** uint8 LCD_Character_Display_enableState = 0u;
  28:Generated_Source\PSoC5/LCD_Character_Display.c **** 
  29:Generated_Source\PSoC5/LCD_Character_Display.c **** uint8 LCD_Character_Display_initVar = 0u;
  30:Generated_Source\PSoC5/LCD_Character_Display.c **** 
  31:Generated_Source\PSoC5/LCD_Character_Display.c **** 
  32:Generated_Source\PSoC5/LCD_Character_Display.c **** /*******************************************************************************
  33:Generated_Source\PSoC5/LCD_Character_Display.c **** * Function Name: LCD_Character_Display_Init
  34:Generated_Source\PSoC5/LCD_Character_Display.c **** ********************************************************************************
  35:Generated_Source\PSoC5/LCD_Character_Display.c **** *
  36:Generated_Source\PSoC5/LCD_Character_Display.c **** * Summary:
  37:Generated_Source\PSoC5/LCD_Character_Display.c **** *  Performs initialization required for the components normal work.
  38:Generated_Source\PSoC5/LCD_Character_Display.c **** *  This function initializes the LCD hardware module as follows:
  39:Generated_Source\PSoC5/LCD_Character_Display.c **** *        Enables a 4-bit interface
  40:Generated_Source\PSoC5/LCD_Character_Display.c **** *        Clears the display
  41:Generated_Source\PSoC5/LCD_Character_Display.c **** *        Enables the auto cursor increment
  42:Generated_Source\PSoC5/LCD_Character_Display.c **** *        Resets the cursor to start position
  43:Generated_Source\PSoC5/LCD_Character_Display.c **** *  Also, it loads a custom character set to the LCD if it was defined in the customizer.
  44:Generated_Source\PSoC5/LCD_Character_Display.c **** *
  45:Generated_Source\PSoC5/LCD_Character_Display.c **** * Parameters:
  46:Generated_Source\PSoC5/LCD_Character_Display.c **** *  None.
  47:Generated_Source\PSoC5/LCD_Character_Display.c **** *
  48:Generated_Source\PSoC5/LCD_Character_Display.c **** * Return:
  49:Generated_Source\PSoC5/LCD_Character_Display.c **** *  None.
  50:Generated_Source\PSoC5/LCD_Character_Display.c **** *
  51:Generated_Source\PSoC5/LCD_Character_Display.c **** * Reentrant:
  52:Generated_Source\PSoC5/LCD_Character_Display.c **** *  No.
  53:Generated_Source\PSoC5/LCD_Character_Display.c **** *
  54:Generated_Source\PSoC5/LCD_Character_Display.c **** *******************************************************************************/
  55:Generated_Source\PSoC5/LCD_Character_Display.c **** void LCD_Character_Display_Init(void) 
  56:Generated_Source\PSoC5/LCD_Character_Display.c **** {
  38              		.loc 1 56 0
  39              		.cfi_startproc
  40              		@ args = 0, pretend = 0, frame = 0
  41              		@ frame_needed = 1, uses_anonymous_args = 0
  42 0000 80B5     		push	{r7, lr}
  43              		.cfi_def_cfa_offset 8
  44              		.cfi_offset 7, -8
  45              		.cfi_offset 14, -4
  46 0002 00AF     		add	r7, sp, #0
  47              		.cfi_def_cfa_register 7
  57:Generated_Source\PSoC5/LCD_Character_Display.c ****     /* INIT CODE */
  58:Generated_Source\PSoC5/LCD_Character_Display.c ****     CyDelay(40u);                                                        /* Delay 40 ms */
  48              		.loc 1 58 0
  49 0004 2820     		movs	r0, #40
  50 0006 FFF7FEFF 		bl	CyDelay
  59:Generated_Source\PSoC5/LCD_Character_Display.c ****     LCD_Character_Display_WrCntrlNib(LCD_Character_Display_DISPLAY_8_BIT_INIT);    /* Selects 8-bit
  51              		.loc 1 59 0
  52 000a 0320     		movs	r0, #3
  53 000c FFF7FEFF 		bl	LCD_Character_Display_WrCntrlNib
  60:Generated_Source\PSoC5/LCD_Character_Display.c ****     CyDelay(5u);                                                         /* Delay 5 ms */
  54              		.loc 1 60 0
ARM GAS  C:\Users\bmt\AppData\Local\Temp\ccPPvAfH.s 			page 3


  55 0010 0520     		movs	r0, #5
  56 0012 FFF7FEFF 		bl	CyDelay
  61:Generated_Source\PSoC5/LCD_Character_Display.c ****     LCD_Character_Display_WrCntrlNib(LCD_Character_Display_DISPLAY_8_BIT_INIT);    /* Selects 8-bit
  57              		.loc 1 61 0
  58 0016 0320     		movs	r0, #3
  59 0018 FFF7FEFF 		bl	LCD_Character_Display_WrCntrlNib
  62:Generated_Source\PSoC5/LCD_Character_Display.c ****     CyDelay(15u);                                                        /* Delay 15 ms */
  60              		.loc 1 62 0
  61 001c 0F20     		movs	r0, #15
  62 001e FFF7FEFF 		bl	CyDelay
  63:Generated_Source\PSoC5/LCD_Character_Display.c ****     LCD_Character_Display_WrCntrlNib(LCD_Character_Display_DISPLAY_8_BIT_INIT);    /* Selects 8-bit
  63              		.loc 1 63 0
  64 0022 0320     		movs	r0, #3
  65 0024 FFF7FEFF 		bl	LCD_Character_Display_WrCntrlNib
  64:Generated_Source\PSoC5/LCD_Character_Display.c ****     CyDelay(1u);                                                         /* Delay 1 ms */
  66              		.loc 1 64 0
  67 0028 0120     		movs	r0, #1
  68 002a FFF7FEFF 		bl	CyDelay
  65:Generated_Source\PSoC5/LCD_Character_Display.c ****     LCD_Character_Display_WrCntrlNib(LCD_Character_Display_DISPLAY_4_BIT_INIT);    /* Selects 4-bit
  69              		.loc 1 65 0
  70 002e 0220     		movs	r0, #2
  71 0030 FFF7FEFF 		bl	LCD_Character_Display_WrCntrlNib
  66:Generated_Source\PSoC5/LCD_Character_Display.c ****     CyDelay(5u);                                                         /* Delay 5 ms */
  72              		.loc 1 66 0
  73 0034 0520     		movs	r0, #5
  74 0036 FFF7FEFF 		bl	CyDelay
  67:Generated_Source\PSoC5/LCD_Character_Display.c **** 
  68:Generated_Source\PSoC5/LCD_Character_Display.c ****     LCD_Character_Display_WriteControl(LCD_Character_Display_CURSOR_AUTO_INCR_ON);    /* Incr Curso
  75              		.loc 1 68 0
  76 003a 0620     		movs	r0, #6
  77 003c FFF7FEFF 		bl	LCD_Character_Display_WriteControl
  69:Generated_Source\PSoC5/LCD_Character_Display.c ****     LCD_Character_Display_WriteControl(LCD_Character_Display_DISPLAY_CURSOR_ON);      /* Turn Displ
  78              		.loc 1 69 0
  79 0040 0E20     		movs	r0, #14
  80 0042 FFF7FEFF 		bl	LCD_Character_Display_WriteControl
  70:Generated_Source\PSoC5/LCD_Character_Display.c ****     LCD_Character_Display_WriteControl(LCD_Character_Display_DISPLAY_2_LINES_5x10);   /* 2 Lines by
  81              		.loc 1 70 0
  82 0046 2C20     		movs	r0, #44
  83 0048 FFF7FEFF 		bl	LCD_Character_Display_WriteControl
  71:Generated_Source\PSoC5/LCD_Character_Display.c ****     LCD_Character_Display_WriteControl(LCD_Character_Display_DISPLAY_CURSOR_OFF);     /* Turn Displ
  84              		.loc 1 71 0
  85 004c 0820     		movs	r0, #8
  86 004e FFF7FEFF 		bl	LCD_Character_Display_WriteControl
  72:Generated_Source\PSoC5/LCD_Character_Display.c ****     LCD_Character_Display_WriteControl(LCD_Character_Display_CLEAR_DISPLAY);          /* Clear LCD 
  87              		.loc 1 72 0
  88 0052 0120     		movs	r0, #1
  89 0054 FFF7FEFF 		bl	LCD_Character_Display_WriteControl
  73:Generated_Source\PSoC5/LCD_Character_Display.c ****     LCD_Character_Display_WriteControl(LCD_Character_Display_DISPLAY_ON_CURSOR_OFF);  /* Turn Displ
  90              		.loc 1 73 0
  91 0058 0C20     		movs	r0, #12
  92 005a FFF7FEFF 		bl	LCD_Character_Display_WriteControl
  74:Generated_Source\PSoC5/LCD_Character_Display.c ****     LCD_Character_Display_WriteControl(LCD_Character_Display_RESET_CURSOR_POSITION);  /* Set Cursor
  93              		.loc 1 74 0
  94 005e 0320     		movs	r0, #3
  95 0060 FFF7FEFF 		bl	LCD_Character_Display_WriteControl
  75:Generated_Source\PSoC5/LCD_Character_Display.c ****     CyDelay(5u);
  96              		.loc 1 75 0
ARM GAS  C:\Users\bmt\AppData\Local\Temp\ccPPvAfH.s 			page 4


  97 0064 0520     		movs	r0, #5
  98 0066 FFF7FEFF 		bl	CyDelay
  76:Generated_Source\PSoC5/LCD_Character_Display.c **** 
  77:Generated_Source\PSoC5/LCD_Character_Display.c ****     #if(LCD_Character_Display_CUSTOM_CHAR_SET != LCD_Character_Display_NONE)
  78:Generated_Source\PSoC5/LCD_Character_Display.c ****         LCD_Character_Display_LoadCustomFonts(LCD_Character_Display_customFonts);
  79:Generated_Source\PSoC5/LCD_Character_Display.c ****     #endif /* LCD_Character_Display_CUSTOM_CHAR_SET != LCD_Character_Display_NONE */
  80:Generated_Source\PSoC5/LCD_Character_Display.c **** }
  99              		.loc 1 80 0
 100 006a 80BD     		pop	{r7, pc}
 101              		.cfi_endproc
 102              	.LFE0:
 103              		.size	LCD_Character_Display_Init, .-LCD_Character_Display_Init
 104              		.section	.text.LCD_Character_Display_Enable,"ax",%progbits
 105              		.align	2
 106              		.global	LCD_Character_Display_Enable
 107              		.thumb
 108              		.thumb_func
 109              		.type	LCD_Character_Display_Enable, %function
 110              	LCD_Character_Display_Enable:
 111              	.LFB1:
  81:Generated_Source\PSoC5/LCD_Character_Display.c **** 
  82:Generated_Source\PSoC5/LCD_Character_Display.c **** 
  83:Generated_Source\PSoC5/LCD_Character_Display.c **** /*******************************************************************************
  84:Generated_Source\PSoC5/LCD_Character_Display.c **** * Function Name: LCD_Character_Display_Enable
  85:Generated_Source\PSoC5/LCD_Character_Display.c **** ********************************************************************************
  86:Generated_Source\PSoC5/LCD_Character_Display.c **** *
  87:Generated_Source\PSoC5/LCD_Character_Display.c **** * Summary:
  88:Generated_Source\PSoC5/LCD_Character_Display.c **** *  Turns on the display.
  89:Generated_Source\PSoC5/LCD_Character_Display.c **** *
  90:Generated_Source\PSoC5/LCD_Character_Display.c **** * Parameters:
  91:Generated_Source\PSoC5/LCD_Character_Display.c **** *  None.
  92:Generated_Source\PSoC5/LCD_Character_Display.c **** *
  93:Generated_Source\PSoC5/LCD_Character_Display.c **** * Return:
  94:Generated_Source\PSoC5/LCD_Character_Display.c **** *  None.
  95:Generated_Source\PSoC5/LCD_Character_Display.c **** *
  96:Generated_Source\PSoC5/LCD_Character_Display.c **** * Reentrant:
  97:Generated_Source\PSoC5/LCD_Character_Display.c **** *  No.
  98:Generated_Source\PSoC5/LCD_Character_Display.c **** *
  99:Generated_Source\PSoC5/LCD_Character_Display.c **** * Theory:
 100:Generated_Source\PSoC5/LCD_Character_Display.c **** *  This function has no effect when it is called the first time as
 101:Generated_Source\PSoC5/LCD_Character_Display.c **** *  LCD_Character_Display_Init() turns on the LCD.
 102:Generated_Source\PSoC5/LCD_Character_Display.c **** *
 103:Generated_Source\PSoC5/LCD_Character_Display.c **** *******************************************************************************/
 104:Generated_Source\PSoC5/LCD_Character_Display.c **** void LCD_Character_Display_Enable(void) 
 105:Generated_Source\PSoC5/LCD_Character_Display.c **** {
 112              		.loc 1 105 0
 113              		.cfi_startproc
 114              		@ args = 0, pretend = 0, frame = 0
 115              		@ frame_needed = 1, uses_anonymous_args = 0
 116 0000 80B5     		push	{r7, lr}
 117              		.cfi_def_cfa_offset 8
 118              		.cfi_offset 7, -8
 119              		.cfi_offset 14, -4
 120 0002 00AF     		add	r7, sp, #0
 121              		.cfi_def_cfa_register 7
 106:Generated_Source\PSoC5/LCD_Character_Display.c ****     LCD_Character_Display_DisplayOn();
 122              		.loc 1 106 0
ARM GAS  C:\Users\bmt\AppData\Local\Temp\ccPPvAfH.s 			page 5


 123 0004 0C20     		movs	r0, #12
 124 0006 FFF7FEFF 		bl	LCD_Character_Display_WriteControl
 107:Generated_Source\PSoC5/LCD_Character_Display.c ****     LCD_Character_Display_enableState = 1u;
 125              		.loc 1 107 0
 126 000a 024B     		ldr	r3, .L3
 127 000c 0122     		movs	r2, #1
 128 000e 1A70     		strb	r2, [r3]
 108:Generated_Source\PSoC5/LCD_Character_Display.c **** }
 129              		.loc 1 108 0
 130 0010 80BD     		pop	{r7, pc}
 131              	.L4:
 132 0012 00BF     		.align	2
 133              	.L3:
 134 0014 00000000 		.word	LCD_Character_Display_enableState
 135              		.cfi_endproc
 136              	.LFE1:
 137              		.size	LCD_Character_Display_Enable, .-LCD_Character_Display_Enable
 138              		.section	.text.LCD_Character_Display_Start,"ax",%progbits
 139              		.align	2
 140              		.global	LCD_Character_Display_Start
 141              		.thumb
 142              		.thumb_func
 143              		.type	LCD_Character_Display_Start, %function
 144              	LCD_Character_Display_Start:
 145              	.LFB2:
 109:Generated_Source\PSoC5/LCD_Character_Display.c **** 
 110:Generated_Source\PSoC5/LCD_Character_Display.c **** 
 111:Generated_Source\PSoC5/LCD_Character_Display.c **** /*******************************************************************************
 112:Generated_Source\PSoC5/LCD_Character_Display.c **** * Function Name: LCD_Character_Display_Start
 113:Generated_Source\PSoC5/LCD_Character_Display.c **** ********************************************************************************
 114:Generated_Source\PSoC5/LCD_Character_Display.c **** *
 115:Generated_Source\PSoC5/LCD_Character_Display.c **** * Summary:
 116:Generated_Source\PSoC5/LCD_Character_Display.c **** *  Performs initialization required for the components normal work.
 117:Generated_Source\PSoC5/LCD_Character_Display.c **** *  This function initializes the LCD hardware module as follows:
 118:Generated_Source\PSoC5/LCD_Character_Display.c **** *        Enables 4-bit interface
 119:Generated_Source\PSoC5/LCD_Character_Display.c **** *        Clears the display
 120:Generated_Source\PSoC5/LCD_Character_Display.c **** *        Enables auto cursor increment
 121:Generated_Source\PSoC5/LCD_Character_Display.c **** *        Resets the cursor to start position
 122:Generated_Source\PSoC5/LCD_Character_Display.c **** *  Also, it loads a custom character set to the LCD if it was defined in the customizer.
 123:Generated_Source\PSoC5/LCD_Character_Display.c **** *  If it was not the first call in this project, then it just turns on the
 124:Generated_Source\PSoC5/LCD_Character_Display.c **** *  display
 125:Generated_Source\PSoC5/LCD_Character_Display.c **** *
 126:Generated_Source\PSoC5/LCD_Character_Display.c **** *
 127:Generated_Source\PSoC5/LCD_Character_Display.c **** * Parameters:
 128:Generated_Source\PSoC5/LCD_Character_Display.c **** *  LCD_Character_Display_initVar - global variable.
 129:Generated_Source\PSoC5/LCD_Character_Display.c **** *
 130:Generated_Source\PSoC5/LCD_Character_Display.c **** * Return:
 131:Generated_Source\PSoC5/LCD_Character_Display.c **** *  LCD_Character_Display_initVar - global variable.
 132:Generated_Source\PSoC5/LCD_Character_Display.c **** *
 133:Generated_Source\PSoC5/LCD_Character_Display.c **** * Reentrant:
 134:Generated_Source\PSoC5/LCD_Character_Display.c **** *  No.
 135:Generated_Source\PSoC5/LCD_Character_Display.c **** *
 136:Generated_Source\PSoC5/LCD_Character_Display.c **** *******************************************************************************/
 137:Generated_Source\PSoC5/LCD_Character_Display.c **** void LCD_Character_Display_Start(void) 
 138:Generated_Source\PSoC5/LCD_Character_Display.c **** {
 146              		.loc 1 138 0
 147              		.cfi_startproc
ARM GAS  C:\Users\bmt\AppData\Local\Temp\ccPPvAfH.s 			page 6


 148              		@ args = 0, pretend = 0, frame = 0
 149              		@ frame_needed = 1, uses_anonymous_args = 0
 150 0000 80B5     		push	{r7, lr}
 151              		.cfi_def_cfa_offset 8
 152              		.cfi_offset 7, -8
 153              		.cfi_offset 14, -4
 154 0002 00AF     		add	r7, sp, #0
 155              		.cfi_def_cfa_register 7
 139:Generated_Source\PSoC5/LCD_Character_Display.c ****     /* If not initialized, perform initialization */
 140:Generated_Source\PSoC5/LCD_Character_Display.c ****     if(LCD_Character_Display_initVar == 0u)
 156              		.loc 1 140 0
 157 0004 054B     		ldr	r3, .L7
 158 0006 1B78     		ldrb	r3, [r3]	@ zero_extendqisi2
 159 0008 002B     		cmp	r3, #0
 160 000a 04D1     		bne	.L6
 141:Generated_Source\PSoC5/LCD_Character_Display.c ****     {
 142:Generated_Source\PSoC5/LCD_Character_Display.c ****         LCD_Character_Display_Init();
 161              		.loc 1 142 0
 162 000c FFF7FEFF 		bl	LCD_Character_Display_Init
 143:Generated_Source\PSoC5/LCD_Character_Display.c ****         LCD_Character_Display_initVar = 1u;
 163              		.loc 1 143 0
 164 0010 024B     		ldr	r3, .L7
 165 0012 0122     		movs	r2, #1
 166 0014 1A70     		strb	r2, [r3]
 167              	.L6:
 144:Generated_Source\PSoC5/LCD_Character_Display.c ****     }
 145:Generated_Source\PSoC5/LCD_Character_Display.c **** 
 146:Generated_Source\PSoC5/LCD_Character_Display.c ****     /* Turn on the LCD */
 147:Generated_Source\PSoC5/LCD_Character_Display.c ****     LCD_Character_Display_Enable();
 168              		.loc 1 147 0
 169 0016 FFF7FEFF 		bl	LCD_Character_Display_Enable
 148:Generated_Source\PSoC5/LCD_Character_Display.c **** }
 170              		.loc 1 148 0
 171 001a 80BD     		pop	{r7, pc}
 172              	.L8:
 173              		.align	2
 174              	.L7:
 175 001c 00000000 		.word	LCD_Character_Display_initVar
 176              		.cfi_endproc
 177              	.LFE2:
 178              		.size	LCD_Character_Display_Start, .-LCD_Character_Display_Start
 179              		.section	.text.LCD_Character_Display_Stop,"ax",%progbits
 180              		.align	2
 181              		.global	LCD_Character_Display_Stop
 182              		.thumb
 183              		.thumb_func
 184              		.type	LCD_Character_Display_Stop, %function
 185              	LCD_Character_Display_Stop:
 186              	.LFB3:
 149:Generated_Source\PSoC5/LCD_Character_Display.c **** 
 150:Generated_Source\PSoC5/LCD_Character_Display.c **** 
 151:Generated_Source\PSoC5/LCD_Character_Display.c **** /*******************************************************************************
 152:Generated_Source\PSoC5/LCD_Character_Display.c **** * Function Name: LCD_Character_Display_Stop
 153:Generated_Source\PSoC5/LCD_Character_Display.c **** ********************************************************************************
 154:Generated_Source\PSoC5/LCD_Character_Display.c **** *
 155:Generated_Source\PSoC5/LCD_Character_Display.c **** * Summary:
 156:Generated_Source\PSoC5/LCD_Character_Display.c **** *  Turns off the display of the LCD screen.
ARM GAS  C:\Users\bmt\AppData\Local\Temp\ccPPvAfH.s 			page 7


 157:Generated_Source\PSoC5/LCD_Character_Display.c **** *
 158:Generated_Source\PSoC5/LCD_Character_Display.c **** * Parameters:
 159:Generated_Source\PSoC5/LCD_Character_Display.c **** *  None.
 160:Generated_Source\PSoC5/LCD_Character_Display.c **** *
 161:Generated_Source\PSoC5/LCD_Character_Display.c **** * Return:
 162:Generated_Source\PSoC5/LCD_Character_Display.c **** *  None.
 163:Generated_Source\PSoC5/LCD_Character_Display.c **** *
 164:Generated_Source\PSoC5/LCD_Character_Display.c **** * Reentrant:
 165:Generated_Source\PSoC5/LCD_Character_Display.c **** *  No.
 166:Generated_Source\PSoC5/LCD_Character_Display.c **** *
 167:Generated_Source\PSoC5/LCD_Character_Display.c **** *******************************************************************************/
 168:Generated_Source\PSoC5/LCD_Character_Display.c **** void LCD_Character_Display_Stop(void) 
 169:Generated_Source\PSoC5/LCD_Character_Display.c **** {
 187              		.loc 1 169 0
 188              		.cfi_startproc
 189              		@ args = 0, pretend = 0, frame = 0
 190              		@ frame_needed = 1, uses_anonymous_args = 0
 191 0000 80B5     		push	{r7, lr}
 192              		.cfi_def_cfa_offset 8
 193              		.cfi_offset 7, -8
 194              		.cfi_offset 14, -4
 195 0002 00AF     		add	r7, sp, #0
 196              		.cfi_def_cfa_register 7
 170:Generated_Source\PSoC5/LCD_Character_Display.c ****     /* Calls LCD Off Macro */
 171:Generated_Source\PSoC5/LCD_Character_Display.c ****     LCD_Character_Display_DisplayOff();
 197              		.loc 1 171 0
 198 0004 0820     		movs	r0, #8
 199 0006 FFF7FEFF 		bl	LCD_Character_Display_WriteControl
 172:Generated_Source\PSoC5/LCD_Character_Display.c ****     LCD_Character_Display_enableState = 0u;
 200              		.loc 1 172 0
 201 000a 024B     		ldr	r3, .L10
 202 000c 0022     		movs	r2, #0
 203 000e 1A70     		strb	r2, [r3]
 173:Generated_Source\PSoC5/LCD_Character_Display.c **** }
 204              		.loc 1 173 0
 205 0010 80BD     		pop	{r7, pc}
 206              	.L11:
 207 0012 00BF     		.align	2
 208              	.L10:
 209 0014 00000000 		.word	LCD_Character_Display_enableState
 210              		.cfi_endproc
 211              	.LFE3:
 212              		.size	LCD_Character_Display_Stop, .-LCD_Character_Display_Stop
 213              		.section	.text.LCD_Character_Display_Position,"ax",%progbits
 214              		.align	2
 215              		.global	LCD_Character_Display_Position
 216              		.thumb
 217              		.thumb_func
 218              		.type	LCD_Character_Display_Position, %function
 219              	LCD_Character_Display_Position:
 220              	.LFB4:
 174:Generated_Source\PSoC5/LCD_Character_Display.c **** 
 175:Generated_Source\PSoC5/LCD_Character_Display.c **** 
 176:Generated_Source\PSoC5/LCD_Character_Display.c **** /*******************************************************************************
 177:Generated_Source\PSoC5/LCD_Character_Display.c **** *  Function Name: LCD_Character_Display_Position
 178:Generated_Source\PSoC5/LCD_Character_Display.c **** ********************************************************************************
 179:Generated_Source\PSoC5/LCD_Character_Display.c **** *
ARM GAS  C:\Users\bmt\AppData\Local\Temp\ccPPvAfH.s 			page 8


 180:Generated_Source\PSoC5/LCD_Character_Display.c **** * Summary:
 181:Generated_Source\PSoC5/LCD_Character_Display.c **** *  Moves the active cursor location to a point specified by the input arguments
 182:Generated_Source\PSoC5/LCD_Character_Display.c **** *
 183:Generated_Source\PSoC5/LCD_Character_Display.c **** * Parameters:
 184:Generated_Source\PSoC5/LCD_Character_Display.c **** *  row:    Specific row of LCD module to be written
 185:Generated_Source\PSoC5/LCD_Character_Display.c **** *  column: Column of LCD module to be written
 186:Generated_Source\PSoC5/LCD_Character_Display.c **** *
 187:Generated_Source\PSoC5/LCD_Character_Display.c **** * Return:
 188:Generated_Source\PSoC5/LCD_Character_Display.c **** *  None.
 189:Generated_Source\PSoC5/LCD_Character_Display.c **** *
 190:Generated_Source\PSoC5/LCD_Character_Display.c **** * Note:
 191:Generated_Source\PSoC5/LCD_Character_Display.c **** *  This only applies for LCD displays that use the 2X40 address mode.
 192:Generated_Source\PSoC5/LCD_Character_Display.c **** *  In this case Row 2 starts with a 0x28 offset from Row 1.
 193:Generated_Source\PSoC5/LCD_Character_Display.c **** *  When there are more than 2 rows, each row must be fewer than 20 characters.
 194:Generated_Source\PSoC5/LCD_Character_Display.c **** *
 195:Generated_Source\PSoC5/LCD_Character_Display.c **** *******************************************************************************/
 196:Generated_Source\PSoC5/LCD_Character_Display.c **** void LCD_Character_Display_Position(uint8 row, uint8 column) 
 197:Generated_Source\PSoC5/LCD_Character_Display.c **** {
 221              		.loc 1 197 0
 222              		.cfi_startproc
 223              		@ args = 0, pretend = 0, frame = 8
 224              		@ frame_needed = 1, uses_anonymous_args = 0
 225 0000 80B5     		push	{r7, lr}
 226              		.cfi_def_cfa_offset 8
 227              		.cfi_offset 7, -8
 228              		.cfi_offset 14, -4
 229 0002 82B0     		sub	sp, sp, #8
 230              		.cfi_def_cfa_offset 16
 231 0004 00AF     		add	r7, sp, #0
 232              		.cfi_def_cfa_register 7
 233 0006 0346     		mov	r3, r0
 234 0008 0A46     		mov	r2, r1
 235 000a FB71     		strb	r3, [r7, #7]
 236 000c 1346     		mov	r3, r2
 237 000e BB71     		strb	r3, [r7, #6]
 198:Generated_Source\PSoC5/LCD_Character_Display.c ****     switch (row)
 238              		.loc 1 198 0
 239 0010 FB79     		ldrb	r3, [r7, #7]	@ zero_extendqisi2
 240 0012 032B     		cmp	r3, #3
 241 0014 26D8     		bhi	.L20
 242 0016 01A2     		adr	r2, .L15
 243 0018 52F823F0 		ldr	pc, [r2, r3, lsl #2]
 244              		.p2align 2
 245              	.L15:
 246 001c 2D000000 		.word	.L14+1
 247 0020 3B000000 		.word	.L16+1
 248 0024 49000000 		.word	.L17+1
 249 0028 57000000 		.word	.L18+1
 250              		.p2align 1
 251              	.L14:
 199:Generated_Source\PSoC5/LCD_Character_Display.c ****     {
 200:Generated_Source\PSoC5/LCD_Character_Display.c ****         case (uint8)0:
 201:Generated_Source\PSoC5/LCD_Character_Display.c ****             LCD_Character_Display_WriteControl(LCD_Character_Display_ROW_0_START + column);
 252              		.loc 1 201 0
 253 002c BB79     		ldrb	r3, [r7, #6]
 254 002e 803B     		subs	r3, r3, #128
 255 0030 DBB2     		uxtb	r3, r3
ARM GAS  C:\Users\bmt\AppData\Local\Temp\ccPPvAfH.s 			page 9


 256 0032 1846     		mov	r0, r3
 257 0034 FFF7FEFF 		bl	LCD_Character_Display_WriteControl
 202:Generated_Source\PSoC5/LCD_Character_Display.c ****             break;
 258              		.loc 1 202 0
 259 0038 15E0     		b	.L12
 260              	.L16:
 203:Generated_Source\PSoC5/LCD_Character_Display.c ****         case (uint8) 1:
 204:Generated_Source\PSoC5/LCD_Character_Display.c ****             LCD_Character_Display_WriteControl(LCD_Character_Display_ROW_1_START + column);
 261              		.loc 1 204 0
 262 003a BB79     		ldrb	r3, [r7, #6]
 263 003c 403B     		subs	r3, r3, #64
 264 003e DBB2     		uxtb	r3, r3
 265 0040 1846     		mov	r0, r3
 266 0042 FFF7FEFF 		bl	LCD_Character_Display_WriteControl
 205:Generated_Source\PSoC5/LCD_Character_Display.c ****             break;
 267              		.loc 1 205 0
 268 0046 0EE0     		b	.L12
 269              	.L17:
 206:Generated_Source\PSoC5/LCD_Character_Display.c ****         case (uint8) 2:
 207:Generated_Source\PSoC5/LCD_Character_Display.c ****             LCD_Character_Display_WriteControl(LCD_Character_Display_ROW_2_START + column);
 270              		.loc 1 207 0
 271 0048 BB79     		ldrb	r3, [r7, #6]
 272 004a 6C3B     		subs	r3, r3, #108
 273 004c DBB2     		uxtb	r3, r3
 274 004e 1846     		mov	r0, r3
 275 0050 FFF7FEFF 		bl	LCD_Character_Display_WriteControl
 208:Generated_Source\PSoC5/LCD_Character_Display.c ****             break;
 276              		.loc 1 208 0
 277 0054 07E0     		b	.L12
 278              	.L18:
 209:Generated_Source\PSoC5/LCD_Character_Display.c ****         case (uint8) 3:
 210:Generated_Source\PSoC5/LCD_Character_Display.c ****             LCD_Character_Display_WriteControl(LCD_Character_Display_ROW_3_START + column);
 279              		.loc 1 210 0
 280 0056 BB79     		ldrb	r3, [r7, #6]
 281 0058 2C3B     		subs	r3, r3, #44
 282 005a DBB2     		uxtb	r3, r3
 283 005c 1846     		mov	r0, r3
 284 005e FFF7FEFF 		bl	LCD_Character_Display_WriteControl
 211:Generated_Source\PSoC5/LCD_Character_Display.c ****             break;
 285              		.loc 1 211 0
 286 0062 00E0     		b	.L12
 287              	.L20:
 212:Generated_Source\PSoC5/LCD_Character_Display.c ****         default:
 213:Generated_Source\PSoC5/LCD_Character_Display.c ****             /* if default case is hit, invalid row argument was passed.*/
 214:Generated_Source\PSoC5/LCD_Character_Display.c ****             break;
 288              		.loc 1 214 0
 289 0064 00BF     		nop
 290              	.L12:
 215:Generated_Source\PSoC5/LCD_Character_Display.c ****     }
 216:Generated_Source\PSoC5/LCD_Character_Display.c **** }
 291              		.loc 1 216 0
 292 0066 0837     		adds	r7, r7, #8
 293              		.cfi_def_cfa_offset 8
 294 0068 BD46     		mov	sp, r7
 295              		.cfi_def_cfa_register 13
 296              		@ sp needed
 297 006a 80BD     		pop	{r7, pc}
ARM GAS  C:\Users\bmt\AppData\Local\Temp\ccPPvAfH.s 			page 10


 298              		.cfi_endproc
 299              	.LFE4:
 300              		.size	LCD_Character_Display_Position, .-LCD_Character_Display_Position
 301              		.section	.text.LCD_Character_Display_PrintString,"ax",%progbits
 302              		.align	2
 303              		.global	LCD_Character_Display_PrintString
 304              		.thumb
 305              		.thumb_func
 306              		.type	LCD_Character_Display_PrintString, %function
 307              	LCD_Character_Display_PrintString:
 308              	.LFB5:
 217:Generated_Source\PSoC5/LCD_Character_Display.c **** 
 218:Generated_Source\PSoC5/LCD_Character_Display.c **** 
 219:Generated_Source\PSoC5/LCD_Character_Display.c **** /*******************************************************************************
 220:Generated_Source\PSoC5/LCD_Character_Display.c **** * Function Name: LCD_Character_Display_PrintString
 221:Generated_Source\PSoC5/LCD_Character_Display.c **** ********************************************************************************
 222:Generated_Source\PSoC5/LCD_Character_Display.c **** *
 223:Generated_Source\PSoC5/LCD_Character_Display.c **** * Summary:
 224:Generated_Source\PSoC5/LCD_Character_Display.c **** *  Writes a zero terminated string to the LCD.
 225:Generated_Source\PSoC5/LCD_Character_Display.c **** *
 226:Generated_Source\PSoC5/LCD_Character_Display.c **** * Parameters:
 227:Generated_Source\PSoC5/LCD_Character_Display.c **** *  string: Pointer to head of char8 array to be written to the LCD module
 228:Generated_Source\PSoC5/LCD_Character_Display.c **** *
 229:Generated_Source\PSoC5/LCD_Character_Display.c **** * Return:
 230:Generated_Source\PSoC5/LCD_Character_Display.c **** *  None.
 231:Generated_Source\PSoC5/LCD_Character_Display.c **** *
 232:Generated_Source\PSoC5/LCD_Character_Display.c **** *******************************************************************************/
 233:Generated_Source\PSoC5/LCD_Character_Display.c **** void LCD_Character_Display_PrintString(char8 const string[]) 
 234:Generated_Source\PSoC5/LCD_Character_Display.c **** {
 309              		.loc 1 234 0
 310              		.cfi_startproc
 311              		@ args = 0, pretend = 0, frame = 16
 312              		@ frame_needed = 1, uses_anonymous_args = 0
 313 0000 80B5     		push	{r7, lr}
 314              		.cfi_def_cfa_offset 8
 315              		.cfi_offset 7, -8
 316              		.cfi_offset 14, -4
 317 0002 84B0     		sub	sp, sp, #16
 318              		.cfi_def_cfa_offset 24
 319 0004 00AF     		add	r7, sp, #0
 320              		.cfi_def_cfa_register 7
 321 0006 7860     		str	r0, [r7, #4]
 235:Generated_Source\PSoC5/LCD_Character_Display.c ****     uint8 indexU8 = 1u;
 322              		.loc 1 235 0
 323 0008 0123     		movs	r3, #1
 324 000a FB73     		strb	r3, [r7, #15]
 236:Generated_Source\PSoC5/LCD_Character_Display.c ****     char8 current = *string;
 325              		.loc 1 236 0
 326 000c 7B68     		ldr	r3, [r7, #4]
 327 000e 1B78     		ldrb	r3, [r3]
 328 0010 BB73     		strb	r3, [r7, #14]
 237:Generated_Source\PSoC5/LCD_Character_Display.c **** 
 238:Generated_Source\PSoC5/LCD_Character_Display.c ****     /* Until null is reached, print next character */
 239:Generated_Source\PSoC5/LCD_Character_Display.c ****     while((char8) '\0' != current)
 329              		.loc 1 239 0
 330 0012 0BE0     		b	.L22
 331              	.L23:
ARM GAS  C:\Users\bmt\AppData\Local\Temp\ccPPvAfH.s 			page 11


 240:Generated_Source\PSoC5/LCD_Character_Display.c ****     {
 241:Generated_Source\PSoC5/LCD_Character_Display.c ****         LCD_Character_Display_WriteData((uint8)current);
 332              		.loc 1 241 0
 333 0014 BB7B     		ldrb	r3, [r7, #14]	@ zero_extendqisi2
 334 0016 1846     		mov	r0, r3
 335 0018 FFF7FEFF 		bl	LCD_Character_Display_WriteData
 242:Generated_Source\PSoC5/LCD_Character_Display.c ****         current = string[indexU8];
 336              		.loc 1 242 0
 337 001c FB7B     		ldrb	r3, [r7, #15]	@ zero_extendqisi2
 338 001e 7A68     		ldr	r2, [r7, #4]
 339 0020 1344     		add	r3, r3, r2
 340 0022 1B78     		ldrb	r3, [r3]
 341 0024 BB73     		strb	r3, [r7, #14]
 243:Generated_Source\PSoC5/LCD_Character_Display.c ****         indexU8++;
 342              		.loc 1 243 0
 343 0026 FB7B     		ldrb	r3, [r7, #15]	@ zero_extendqisi2
 344 0028 0133     		adds	r3, r3, #1
 345 002a FB73     		strb	r3, [r7, #15]
 346              	.L22:
 239:Generated_Source\PSoC5/LCD_Character_Display.c ****     {
 347              		.loc 1 239 0
 348 002c BB7B     		ldrb	r3, [r7, #14]	@ zero_extendqisi2
 349 002e 002B     		cmp	r3, #0
 350 0030 F0D1     		bne	.L23
 244:Generated_Source\PSoC5/LCD_Character_Display.c ****     }
 245:Generated_Source\PSoC5/LCD_Character_Display.c **** }
 351              		.loc 1 245 0
 352 0032 1037     		adds	r7, r7, #16
 353              		.cfi_def_cfa_offset 8
 354 0034 BD46     		mov	sp, r7
 355              		.cfi_def_cfa_register 13
 356              		@ sp needed
 357 0036 80BD     		pop	{r7, pc}
 358              		.cfi_endproc
 359              	.LFE5:
 360              		.size	LCD_Character_Display_PrintString, .-LCD_Character_Display_PrintString
 361              		.section	.text.LCD_Character_Display_PutChar,"ax",%progbits
 362              		.align	2
 363              		.global	LCD_Character_Display_PutChar
 364              		.thumb
 365              		.thumb_func
 366              		.type	LCD_Character_Display_PutChar, %function
 367              	LCD_Character_Display_PutChar:
 368              	.LFB6:
 246:Generated_Source\PSoC5/LCD_Character_Display.c **** 
 247:Generated_Source\PSoC5/LCD_Character_Display.c **** 
 248:Generated_Source\PSoC5/LCD_Character_Display.c **** /*******************************************************************************
 249:Generated_Source\PSoC5/LCD_Character_Display.c **** *  Function Name: LCD_Character_Display_PutChar
 250:Generated_Source\PSoC5/LCD_Character_Display.c **** ********************************************************************************
 251:Generated_Source\PSoC5/LCD_Character_Display.c **** *
 252:Generated_Source\PSoC5/LCD_Character_Display.c **** * Summary:
 253:Generated_Source\PSoC5/LCD_Character_Display.c **** *  Writes a single character to the current cursor position of the LCD module.
 254:Generated_Source\PSoC5/LCD_Character_Display.c **** *  Custom character names (_CUSTOM_0 through
 255:Generated_Source\PSoC5/LCD_Character_Display.c **** *  _CUSTOM_7) are acceptable as inputs.
 256:Generated_Source\PSoC5/LCD_Character_Display.c **** *
 257:Generated_Source\PSoC5/LCD_Character_Display.c **** * Parameters:
 258:Generated_Source\PSoC5/LCD_Character_Display.c **** *  character: Character to be written to LCD
ARM GAS  C:\Users\bmt\AppData\Local\Temp\ccPPvAfH.s 			page 12


 259:Generated_Source\PSoC5/LCD_Character_Display.c **** *
 260:Generated_Source\PSoC5/LCD_Character_Display.c **** * Return:
 261:Generated_Source\PSoC5/LCD_Character_Display.c **** *  None.
 262:Generated_Source\PSoC5/LCD_Character_Display.c **** *
 263:Generated_Source\PSoC5/LCD_Character_Display.c **** *******************************************************************************/
 264:Generated_Source\PSoC5/LCD_Character_Display.c **** void LCD_Character_Display_PutChar(char8 character) 
 265:Generated_Source\PSoC5/LCD_Character_Display.c **** {
 369              		.loc 1 265 0
 370              		.cfi_startproc
 371              		@ args = 0, pretend = 0, frame = 8
 372              		@ frame_needed = 1, uses_anonymous_args = 0
 373 0000 80B5     		push	{r7, lr}
 374              		.cfi_def_cfa_offset 8
 375              		.cfi_offset 7, -8
 376              		.cfi_offset 14, -4
 377 0002 82B0     		sub	sp, sp, #8
 378              		.cfi_def_cfa_offset 16
 379 0004 00AF     		add	r7, sp, #0
 380              		.cfi_def_cfa_register 7
 381 0006 0346     		mov	r3, r0
 382 0008 FB71     		strb	r3, [r7, #7]
 266:Generated_Source\PSoC5/LCD_Character_Display.c ****     LCD_Character_Display_WriteData((uint8)character);
 383              		.loc 1 266 0
 384 000a FB79     		ldrb	r3, [r7, #7]	@ zero_extendqisi2
 385 000c 1846     		mov	r0, r3
 386 000e FFF7FEFF 		bl	LCD_Character_Display_WriteData
 267:Generated_Source\PSoC5/LCD_Character_Display.c **** }
 387              		.loc 1 267 0
 388 0012 0837     		adds	r7, r7, #8
 389              		.cfi_def_cfa_offset 8
 390 0014 BD46     		mov	sp, r7
 391              		.cfi_def_cfa_register 13
 392              		@ sp needed
 393 0016 80BD     		pop	{r7, pc}
 394              		.cfi_endproc
 395              	.LFE6:
 396              		.size	LCD_Character_Display_PutChar, .-LCD_Character_Display_PutChar
 397              		.section	.text.LCD_Character_Display_WriteData,"ax",%progbits
 398              		.align	2
 399              		.global	LCD_Character_Display_WriteData
 400              		.thumb
 401              		.thumb_func
 402              		.type	LCD_Character_Display_WriteData, %function
 403              	LCD_Character_Display_WriteData:
 404              	.LFB7:
 268:Generated_Source\PSoC5/LCD_Character_Display.c **** 
 269:Generated_Source\PSoC5/LCD_Character_Display.c **** 
 270:Generated_Source\PSoC5/LCD_Character_Display.c **** /*******************************************************************************
 271:Generated_Source\PSoC5/LCD_Character_Display.c **** *  Function Name: LCD_Character_Display_WriteData
 272:Generated_Source\PSoC5/LCD_Character_Display.c **** ********************************************************************************
 273:Generated_Source\PSoC5/LCD_Character_Display.c **** *
 274:Generated_Source\PSoC5/LCD_Character_Display.c **** * Summary:
 275:Generated_Source\PSoC5/LCD_Character_Display.c **** *  Writes a data byte to the LCD module's Data Display RAM.
 276:Generated_Source\PSoC5/LCD_Character_Display.c **** *
 277:Generated_Source\PSoC5/LCD_Character_Display.c **** * Parameters:
 278:Generated_Source\PSoC5/LCD_Character_Display.c **** *  dByte: Byte to be written to the LCD module
 279:Generated_Source\PSoC5/LCD_Character_Display.c **** *
ARM GAS  C:\Users\bmt\AppData\Local\Temp\ccPPvAfH.s 			page 13


 280:Generated_Source\PSoC5/LCD_Character_Display.c **** * Return:
 281:Generated_Source\PSoC5/LCD_Character_Display.c **** *  None.
 282:Generated_Source\PSoC5/LCD_Character_Display.c **** *
 283:Generated_Source\PSoC5/LCD_Character_Display.c **** *******************************************************************************/
 284:Generated_Source\PSoC5/LCD_Character_Display.c **** void LCD_Character_Display_WriteData(uint8 dByte) 
 285:Generated_Source\PSoC5/LCD_Character_Display.c **** {
 405              		.loc 1 285 0
 406              		.cfi_startproc
 407              		@ args = 0, pretend = 0, frame = 16
 408              		@ frame_needed = 1, uses_anonymous_args = 0
 409 0000 80B5     		push	{r7, lr}
 410              		.cfi_def_cfa_offset 8
 411              		.cfi_offset 7, -8
 412              		.cfi_offset 14, -4
 413 0002 84B0     		sub	sp, sp, #16
 414              		.cfi_def_cfa_offset 24
 415 0004 00AF     		add	r7, sp, #0
 416              		.cfi_def_cfa_register 7
 417 0006 0346     		mov	r3, r0
 418 0008 FB71     		strb	r3, [r7, #7]
 286:Generated_Source\PSoC5/LCD_Character_Display.c ****     uint8 nibble;
 287:Generated_Source\PSoC5/LCD_Character_Display.c **** 
 288:Generated_Source\PSoC5/LCD_Character_Display.c ****     LCD_Character_Display_IsReady();
 419              		.loc 1 288 0
 420 000a FFF7FEFF 		bl	LCD_Character_Display_IsReady
 289:Generated_Source\PSoC5/LCD_Character_Display.c ****     nibble = dByte >> LCD_Character_Display_NIBBLE_SHIFT;
 421              		.loc 1 289 0
 422 000e FB79     		ldrb	r3, [r7, #7]	@ zero_extendqisi2
 423 0010 1B09     		lsrs	r3, r3, #4
 424 0012 FB73     		strb	r3, [r7, #15]
 290:Generated_Source\PSoC5/LCD_Character_Display.c **** 
 291:Generated_Source\PSoC5/LCD_Character_Display.c ****     /* Write high nibble */
 292:Generated_Source\PSoC5/LCD_Character_Display.c ****     LCD_Character_Display_WrDatNib(nibble);
 425              		.loc 1 292 0
 426 0014 FB7B     		ldrb	r3, [r7, #15]	@ zero_extendqisi2
 427 0016 1846     		mov	r0, r3
 428 0018 FFF7FEFF 		bl	LCD_Character_Display_WrDatNib
 293:Generated_Source\PSoC5/LCD_Character_Display.c **** 
 294:Generated_Source\PSoC5/LCD_Character_Display.c ****     nibble = dByte & LCD_Character_Display_NIBBLE_MASK;
 429              		.loc 1 294 0
 430 001c FB79     		ldrb	r3, [r7, #7]
 431 001e 03F00F03 		and	r3, r3, #15
 432 0022 FB73     		strb	r3, [r7, #15]
 295:Generated_Source\PSoC5/LCD_Character_Display.c ****     /* Write low nibble */
 296:Generated_Source\PSoC5/LCD_Character_Display.c ****     LCD_Character_Display_WrDatNib(nibble);
 433              		.loc 1 296 0
 434 0024 FB7B     		ldrb	r3, [r7, #15]	@ zero_extendqisi2
 435 0026 1846     		mov	r0, r3
 436 0028 FFF7FEFF 		bl	LCD_Character_Display_WrDatNib
 297:Generated_Source\PSoC5/LCD_Character_Display.c **** }
 437              		.loc 1 297 0
 438 002c 1037     		adds	r7, r7, #16
 439              		.cfi_def_cfa_offset 8
 440 002e BD46     		mov	sp, r7
 441              		.cfi_def_cfa_register 13
 442              		@ sp needed
 443 0030 80BD     		pop	{r7, pc}
ARM GAS  C:\Users\bmt\AppData\Local\Temp\ccPPvAfH.s 			page 14


 444              		.cfi_endproc
 445              	.LFE7:
 446              		.size	LCD_Character_Display_WriteData, .-LCD_Character_Display_WriteData
 447 0032 00BF     		.section	.text.LCD_Character_Display_WriteControl,"ax",%progbits
 448              		.align	2
 449              		.global	LCD_Character_Display_WriteControl
 450              		.thumb
 451              		.thumb_func
 452              		.type	LCD_Character_Display_WriteControl, %function
 453              	LCD_Character_Display_WriteControl:
 454              	.LFB8:
 298:Generated_Source\PSoC5/LCD_Character_Display.c **** 
 299:Generated_Source\PSoC5/LCD_Character_Display.c **** 
 300:Generated_Source\PSoC5/LCD_Character_Display.c **** /*******************************************************************************
 301:Generated_Source\PSoC5/LCD_Character_Display.c **** *  Function Name: LCD_Character_Display_WriteControl
 302:Generated_Source\PSoC5/LCD_Character_Display.c **** ********************************************************************************
 303:Generated_Source\PSoC5/LCD_Character_Display.c **** *
 304:Generated_Source\PSoC5/LCD_Character_Display.c **** * Summary:
 305:Generated_Source\PSoC5/LCD_Character_Display.c **** *  Writes a command byte to the LCD module.
 306:Generated_Source\PSoC5/LCD_Character_Display.c **** *
 307:Generated_Source\PSoC5/LCD_Character_Display.c **** * Parameters:
 308:Generated_Source\PSoC5/LCD_Character_Display.c **** *  cByte:  The byte to be written to theLCD module
 309:Generated_Source\PSoC5/LCD_Character_Display.c **** * 
 310:Generated_Source\PSoC5/LCD_Character_Display.c **** * Return:
 311:Generated_Source\PSoC5/LCD_Character_Display.c **** *  None.
 312:Generated_Source\PSoC5/LCD_Character_Display.c **** *
 313:Generated_Source\PSoC5/LCD_Character_Display.c **** *******************************************************************************/
 314:Generated_Source\PSoC5/LCD_Character_Display.c **** void LCD_Character_Display_WriteControl(uint8 cByte) 
 315:Generated_Source\PSoC5/LCD_Character_Display.c **** {
 455              		.loc 1 315 0
 456              		.cfi_startproc
 457              		@ args = 0, pretend = 0, frame = 16
 458              		@ frame_needed = 1, uses_anonymous_args = 0
 459 0000 80B5     		push	{r7, lr}
 460              		.cfi_def_cfa_offset 8
 461              		.cfi_offset 7, -8
 462              		.cfi_offset 14, -4
 463 0002 84B0     		sub	sp, sp, #16
 464              		.cfi_def_cfa_offset 24
 465 0004 00AF     		add	r7, sp, #0
 466              		.cfi_def_cfa_register 7
 467 0006 0346     		mov	r3, r0
 468 0008 FB71     		strb	r3, [r7, #7]
 316:Generated_Source\PSoC5/LCD_Character_Display.c ****     uint8 nibble;
 317:Generated_Source\PSoC5/LCD_Character_Display.c **** 
 318:Generated_Source\PSoC5/LCD_Character_Display.c ****     LCD_Character_Display_IsReady();
 469              		.loc 1 318 0
 470 000a FFF7FEFF 		bl	LCD_Character_Display_IsReady
 319:Generated_Source\PSoC5/LCD_Character_Display.c **** 
 320:Generated_Source\PSoC5/LCD_Character_Display.c ****     nibble = cByte >> LCD_Character_Display_NIBBLE_SHIFT;
 471              		.loc 1 320 0
 472 000e FB79     		ldrb	r3, [r7, #7]	@ zero_extendqisi2
 473 0010 1B09     		lsrs	r3, r3, #4
 474 0012 FB73     		strb	r3, [r7, #15]
 321:Generated_Source\PSoC5/LCD_Character_Display.c ****     
 322:Generated_Source\PSoC5/LCD_Character_Display.c ****     /* WrCntrlNib(High Nibble) */
 323:Generated_Source\PSoC5/LCD_Character_Display.c ****     LCD_Character_Display_WrCntrlNib(nibble);
ARM GAS  C:\Users\bmt\AppData\Local\Temp\ccPPvAfH.s 			page 15


 475              		.loc 1 323 0
 476 0014 FB7B     		ldrb	r3, [r7, #15]	@ zero_extendqisi2
 477 0016 1846     		mov	r0, r3
 478 0018 FFF7FEFF 		bl	LCD_Character_Display_WrCntrlNib
 324:Generated_Source\PSoC5/LCD_Character_Display.c ****     nibble = cByte & LCD_Character_Display_NIBBLE_MASK;
 479              		.loc 1 324 0
 480 001c FB79     		ldrb	r3, [r7, #7]
 481 001e 03F00F03 		and	r3, r3, #15
 482 0022 FB73     		strb	r3, [r7, #15]
 325:Generated_Source\PSoC5/LCD_Character_Display.c **** 
 326:Generated_Source\PSoC5/LCD_Character_Display.c ****     /* WrCntrlNib(Low Nibble) */
 327:Generated_Source\PSoC5/LCD_Character_Display.c ****     LCD_Character_Display_WrCntrlNib(nibble);
 483              		.loc 1 327 0
 484 0024 FB7B     		ldrb	r3, [r7, #15]	@ zero_extendqisi2
 485 0026 1846     		mov	r0, r3
 486 0028 FFF7FEFF 		bl	LCD_Character_Display_WrCntrlNib
 328:Generated_Source\PSoC5/LCD_Character_Display.c **** }
 487              		.loc 1 328 0
 488 002c 1037     		adds	r7, r7, #16
 489              		.cfi_def_cfa_offset 8
 490 002e BD46     		mov	sp, r7
 491              		.cfi_def_cfa_register 13
 492              		@ sp needed
 493 0030 80BD     		pop	{r7, pc}
 494              		.cfi_endproc
 495              	.LFE8:
 496              		.size	LCD_Character_Display_WriteControl, .-LCD_Character_Display_WriteControl
 497 0032 00BF     		.section	.text.LCD_Character_Display_IsReady,"ax",%progbits
 498              		.align	2
 499              		.global	LCD_Character_Display_IsReady
 500              		.thumb
 501              		.thumb_func
 502              		.type	LCD_Character_Display_IsReady, %function
 503              	LCD_Character_Display_IsReady:
 504              	.LFB9:
 329:Generated_Source\PSoC5/LCD_Character_Display.c **** 
 330:Generated_Source\PSoC5/LCD_Character_Display.c **** 
 331:Generated_Source\PSoC5/LCD_Character_Display.c **** /*******************************************************************************
 332:Generated_Source\PSoC5/LCD_Character_Display.c **** * Function Name: LCD_Character_Display_IsReady
 333:Generated_Source\PSoC5/LCD_Character_Display.c **** ********************************************************************************
 334:Generated_Source\PSoC5/LCD_Character_Display.c **** *
 335:Generated_Source\PSoC5/LCD_Character_Display.c **** * Summary:
 336:Generated_Source\PSoC5/LCD_Character_Display.c **** *  Polls the LCD until the ready bit is set or a timeout occurs.
 337:Generated_Source\PSoC5/LCD_Character_Display.c **** *
 338:Generated_Source\PSoC5/LCD_Character_Display.c **** * Parameters:
 339:Generated_Source\PSoC5/LCD_Character_Display.c **** *  None.
 340:Generated_Source\PSoC5/LCD_Character_Display.c **** *
 341:Generated_Source\PSoC5/LCD_Character_Display.c **** * Return:
 342:Generated_Source\PSoC5/LCD_Character_Display.c **** *  None.
 343:Generated_Source\PSoC5/LCD_Character_Display.c **** *
 344:Generated_Source\PSoC5/LCD_Character_Display.c **** * Note:
 345:Generated_Source\PSoC5/LCD_Character_Display.c **** *  Changes the pins to High-Z.
 346:Generated_Source\PSoC5/LCD_Character_Display.c **** *
 347:Generated_Source\PSoC5/LCD_Character_Display.c **** *******************************************************************************/
 348:Generated_Source\PSoC5/LCD_Character_Display.c **** void LCD_Character_Display_IsReady(void) 
 349:Generated_Source\PSoC5/LCD_Character_Display.c **** {
 505              		.loc 1 349 0
ARM GAS  C:\Users\bmt\AppData\Local\Temp\ccPPvAfH.s 			page 16


 506              		.cfi_startproc
 507              		@ args = 0, pretend = 0, frame = 8
 508              		@ frame_needed = 1, uses_anonymous_args = 0
 509 0000 80B5     		push	{r7, lr}
 510              		.cfi_def_cfa_offset 8
 511              		.cfi_offset 7, -8
 512              		.cfi_offset 14, -4
 513 0002 82B0     		sub	sp, sp, #8
 514              		.cfi_def_cfa_offset 16
 515 0004 00AF     		add	r7, sp, #0
 516              		.cfi_def_cfa_register 7
 350:Generated_Source\PSoC5/LCD_Character_Display.c ****     uint8 value;
 351:Generated_Source\PSoC5/LCD_Character_Display.c ****     uint32 timeout;
 352:Generated_Source\PSoC5/LCD_Character_Display.c ****     timeout = LCD_Character_Display_READY_DELAY;
 517              		.loc 1 352 0
 518 0006 4FF4CA73 		mov	r3, #404
 519 000a 7B60     		str	r3, [r7, #4]
 353:Generated_Source\PSoC5/LCD_Character_Display.c **** 
 354:Generated_Source\PSoC5/LCD_Character_Display.c ****     /* Clear LCD port*/
 355:Generated_Source\PSoC5/LCD_Character_Display.c ****     LCD_Character_Display_PORT_DR_REG &= ((uint8)(~LCD_Character_Display_PORT_MASK));
 520              		.loc 1 355 0
 521 000c 554A     		ldr	r2, .L31
 522 000e 554B     		ldr	r3, .L31
 523 0010 1B78     		ldrb	r3, [r3]
 524 0012 DBB2     		uxtb	r3, r3
 525 0014 23F07F03 		bic	r3, r3, #127
 526 0018 DBB2     		uxtb	r3, r3
 527 001a 1370     		strb	r3, [r2]
 356:Generated_Source\PSoC5/LCD_Character_Display.c **** 
 357:Generated_Source\PSoC5/LCD_Character_Display.c ****     /* PSoC4 has a little different from PSoC3/5 port/pin organization for setting Drive Modes.
 358:Generated_Source\PSoC5/LCD_Character_Display.c ****   
 359:Generated_Source\PSoC5/LCD_Character_Display.c ****     */
 360:Generated_Source\PSoC5/LCD_Character_Display.c ****     #if (CY_PSOC4)
 361:Generated_Source\PSoC5/LCD_Character_Display.c ****         
 362:Generated_Source\PSoC5/LCD_Character_Display.c ****         /* Mask off data pins to clear old values out */
 363:Generated_Source\PSoC5/LCD_Character_Display.c ****         value = LCD_Character_Display_PORT_PC_REG & ((uint32) (~ LCD_Character_Display_DM_DATA_MASK
 364:Generated_Source\PSoC5/LCD_Character_Display.c ****         /* Load in high Z values for data pins, others unchanged */
 365:Generated_Source\PSoC5/LCD_Character_Display.c ****         LCD_Character_Display_PORT_PC_REG = value | LCD_Character_Display_HIGH_Z_DATA_DM;
 366:Generated_Source\PSoC5/LCD_Character_Display.c **** 
 367:Generated_Source\PSoC5/LCD_Character_Display.c ****     #else
 368:Generated_Source\PSoC5/LCD_Character_Display.c ****     
 369:Generated_Source\PSoC5/LCD_Character_Display.c ****         /* Change Port to High-Z Status on data pins */
 370:Generated_Source\PSoC5/LCD_Character_Display.c **** 
 371:Generated_Source\PSoC5/LCD_Character_Display.c ****         /* Mask off data pins to clear old values out */
 372:Generated_Source\PSoC5/LCD_Character_Display.c ****         value = LCD_Character_Display_PORT_DM0_REG & ((uint8)(~LCD_Character_Display_DATA_MASK));
 528              		.loc 1 372 0
 529 001c 524B     		ldr	r3, .L31+4
 530 001e 1B78     		ldrb	r3, [r3]
 531 0020 DBB2     		uxtb	r3, r3
 532 0022 23F00F03 		bic	r3, r3, #15
 533 0026 FB70     		strb	r3, [r7, #3]
 373:Generated_Source\PSoC5/LCD_Character_Display.c ****         /* Load in high Z values for data pins, others unchanged */
 374:Generated_Source\PSoC5/LCD_Character_Display.c ****         LCD_Character_Display_PORT_DM0_REG = value | (LCD_Character_Display_HIGH_Z_DM0 & LCD_Charac
 534              		.loc 1 374 0
 535 0028 4F4A     		ldr	r2, .L31+4
 536 002a FB78     		ldrb	r3, [r7, #3]
 537 002c 43F00F03 		orr	r3, r3, #15
ARM GAS  C:\Users\bmt\AppData\Local\Temp\ccPPvAfH.s 			page 17


 538 0030 DBB2     		uxtb	r3, r3
 539 0032 1370     		strb	r3, [r2]
 375:Generated_Source\PSoC5/LCD_Character_Display.c **** 
 376:Generated_Source\PSoC5/LCD_Character_Display.c ****         /* Mask off data pins to clear old values out */
 377:Generated_Source\PSoC5/LCD_Character_Display.c ****         value = LCD_Character_Display_PORT_DM1_REG & ((uint8)(~LCD_Character_Display_DATA_MASK));
 540              		.loc 1 377 0
 541 0034 4D4B     		ldr	r3, .L31+8
 542 0036 1B78     		ldrb	r3, [r3]
 543 0038 DBB2     		uxtb	r3, r3
 544 003a 23F00F03 		bic	r3, r3, #15
 545 003e FB70     		strb	r3, [r7, #3]
 378:Generated_Source\PSoC5/LCD_Character_Display.c ****         /* Load in high Z values for data pins, others unchanged */
 379:Generated_Source\PSoC5/LCD_Character_Display.c ****         LCD_Character_Display_PORT_DM1_REG = value;
 546              		.loc 1 379 0
 547 0040 4A4A     		ldr	r2, .L31+8
 548 0042 FB78     		ldrb	r3, [r7, #3]
 549 0044 1370     		strb	r3, [r2]
 380:Generated_Source\PSoC5/LCD_Character_Display.c **** 
 381:Generated_Source\PSoC5/LCD_Character_Display.c ****         /* Mask off data pins to clear old values out */
 382:Generated_Source\PSoC5/LCD_Character_Display.c ****         value = LCD_Character_Display_PORT_DM2_REG & ((uint8)(~LCD_Character_Display_DATA_MASK));
 550              		.loc 1 382 0
 551 0046 4A4B     		ldr	r3, .L31+12
 552 0048 1B78     		ldrb	r3, [r3]
 553 004a DBB2     		uxtb	r3, r3
 554 004c 23F00F03 		bic	r3, r3, #15
 555 0050 FB70     		strb	r3, [r7, #3]
 383:Generated_Source\PSoC5/LCD_Character_Display.c ****         /* Load in high Z values for data pins, others unchanged */
 384:Generated_Source\PSoC5/LCD_Character_Display.c ****         LCD_Character_Display_PORT_DM2_REG = value;
 556              		.loc 1 384 0
 557 0052 474A     		ldr	r2, .L31+12
 558 0054 FB78     		ldrb	r3, [r7, #3]
 559 0056 1370     		strb	r3, [r2]
 385:Generated_Source\PSoC5/LCD_Character_Display.c ****     
 386:Generated_Source\PSoC5/LCD_Character_Display.c ****     #endif /* CY_PSOC4 */
 387:Generated_Source\PSoC5/LCD_Character_Display.c ****     
 388:Generated_Source\PSoC5/LCD_Character_Display.c ****     /* Make sure RS is low */
 389:Generated_Source\PSoC5/LCD_Character_Display.c ****     LCD_Character_Display_PORT_DR_REG &= ((uint8)(~LCD_Character_Display_RS));
 560              		.loc 1 389 0
 561 0058 424A     		ldr	r2, .L31
 562 005a 424B     		ldr	r3, .L31
 563 005c 1B78     		ldrb	r3, [r3]
 564 005e DBB2     		uxtb	r3, r3
 565 0060 23F02003 		bic	r3, r3, #32
 566 0064 DBB2     		uxtb	r3, r3
 567 0066 1370     		strb	r3, [r2]
 390:Generated_Source\PSoC5/LCD_Character_Display.c **** 
 391:Generated_Source\PSoC5/LCD_Character_Display.c ****     /* Set R/W high to read */
 392:Generated_Source\PSoC5/LCD_Character_Display.c ****     LCD_Character_Display_PORT_DR_REG |= LCD_Character_Display_RW;
 568              		.loc 1 392 0
 569 0068 3E4A     		ldr	r2, .L31
 570 006a 3E4B     		ldr	r3, .L31
 571 006c 1B78     		ldrb	r3, [r3]
 572 006e DBB2     		uxtb	r3, r3
 573 0070 43F04003 		orr	r3, r3, #64
 574 0074 DBB2     		uxtb	r3, r3
 575 0076 1370     		strb	r3, [r2]
 576              	.L30:
ARM GAS  C:\Users\bmt\AppData\Local\Temp\ccPPvAfH.s 			page 18


 393:Generated_Source\PSoC5/LCD_Character_Display.c **** 
 394:Generated_Source\PSoC5/LCD_Character_Display.c ****     do
 395:Generated_Source\PSoC5/LCD_Character_Display.c ****     {
 396:Generated_Source\PSoC5/LCD_Character_Display.c ****         /* 40 ns delay required before rising Enable and 500ns between neighbour Enables */
 397:Generated_Source\PSoC5/LCD_Character_Display.c ****         CyDelayUs(0u);
 577              		.loc 1 397 0
 578 0078 0020     		movs	r0, #0
 579 007a FFF7FEFF 		bl	CyDelayUs
 398:Generated_Source\PSoC5/LCD_Character_Display.c **** 
 399:Generated_Source\PSoC5/LCD_Character_Display.c ****         /* Set E high */
 400:Generated_Source\PSoC5/LCD_Character_Display.c ****         LCD_Character_Display_PORT_DR_REG |= LCD_Character_Display_E;
 580              		.loc 1 400 0
 581 007e 394A     		ldr	r2, .L31
 582 0080 384B     		ldr	r3, .L31
 583 0082 1B78     		ldrb	r3, [r3]
 584 0084 DBB2     		uxtb	r3, r3
 585 0086 43F01003 		orr	r3, r3, #16
 586 008a DBB2     		uxtb	r3, r3
 587 008c 1370     		strb	r3, [r2]
 401:Generated_Source\PSoC5/LCD_Character_Display.c **** 
 402:Generated_Source\PSoC5/LCD_Character_Display.c ****         /* 360 ns delay setup time for data pins */
 403:Generated_Source\PSoC5/LCD_Character_Display.c ****         CyDelayUs(1u);
 588              		.loc 1 403 0
 589 008e 0120     		movs	r0, #1
 590 0090 FFF7FEFF 		bl	CyDelayUs
 404:Generated_Source\PSoC5/LCD_Character_Display.c **** 
 405:Generated_Source\PSoC5/LCD_Character_Display.c ****         /* Get port state */
 406:Generated_Source\PSoC5/LCD_Character_Display.c ****         value = LCD_Character_Display_PORT_PS_REG;
 591              		.loc 1 406 0
 592 0094 374B     		ldr	r3, .L31+16
 593 0096 1B78     		ldrb	r3, [r3]
 594 0098 FB70     		strb	r3, [r7, #3]
 407:Generated_Source\PSoC5/LCD_Character_Display.c **** 
 408:Generated_Source\PSoC5/LCD_Character_Display.c ****         /* Set enable low */
 409:Generated_Source\PSoC5/LCD_Character_Display.c ****         LCD_Character_Display_PORT_DR_REG &= ((uint8)(~LCD_Character_Display_E));
 595              		.loc 1 409 0
 596 009a 324A     		ldr	r2, .L31
 597 009c 314B     		ldr	r3, .L31
 598 009e 1B78     		ldrb	r3, [r3]
 599 00a0 DBB2     		uxtb	r3, r3
 600 00a2 23F01003 		bic	r3, r3, #16
 601 00a6 DBB2     		uxtb	r3, r3
 602 00a8 1370     		strb	r3, [r2]
 410:Generated_Source\PSoC5/LCD_Character_Display.c **** 
 411:Generated_Source\PSoC5/LCD_Character_Display.c ****         /* This gives true delay between disabling Enable bit and polling Ready bit */
 412:Generated_Source\PSoC5/LCD_Character_Display.c ****         CyDelayUs(0u);
 603              		.loc 1 412 0
 604 00aa 0020     		movs	r0, #0
 605 00ac FFF7FEFF 		bl	CyDelayUs
 413:Generated_Source\PSoC5/LCD_Character_Display.c **** 
 414:Generated_Source\PSoC5/LCD_Character_Display.c ****         /* Extract ready bit */
 415:Generated_Source\PSoC5/LCD_Character_Display.c ****         value &= LCD_Character_Display_READY_BIT;
 606              		.loc 1 415 0
 607 00b0 FB78     		ldrb	r3, [r7, #3]
 608 00b2 03F00803 		and	r3, r3, #8
 609 00b6 FB70     		strb	r3, [r7, #3]
 416:Generated_Source\PSoC5/LCD_Character_Display.c **** 
ARM GAS  C:\Users\bmt\AppData\Local\Temp\ccPPvAfH.s 			page 19


 417:Generated_Source\PSoC5/LCD_Character_Display.c ****         /* Set E high as we in 4-bit interface we need extra operation */
 418:Generated_Source\PSoC5/LCD_Character_Display.c ****         LCD_Character_Display_PORT_DR_REG |= LCD_Character_Display_E;
 610              		.loc 1 418 0
 611 00b8 2A4A     		ldr	r2, .L31
 612 00ba 2A4B     		ldr	r3, .L31
 613 00bc 1B78     		ldrb	r3, [r3]
 614 00be DBB2     		uxtb	r3, r3
 615 00c0 43F01003 		orr	r3, r3, #16
 616 00c4 DBB2     		uxtb	r3, r3
 617 00c6 1370     		strb	r3, [r2]
 419:Generated_Source\PSoC5/LCD_Character_Display.c **** 
 420:Generated_Source\PSoC5/LCD_Character_Display.c ****         /* 360 ns delay setup time for data pins */
 421:Generated_Source\PSoC5/LCD_Character_Display.c ****         CyDelayUs(1u);
 618              		.loc 1 421 0
 619 00c8 0120     		movs	r0, #1
 620 00ca FFF7FEFF 		bl	CyDelayUs
 422:Generated_Source\PSoC5/LCD_Character_Display.c **** 
 423:Generated_Source\PSoC5/LCD_Character_Display.c ****         /* Set enable low */
 424:Generated_Source\PSoC5/LCD_Character_Display.c ****         LCD_Character_Display_PORT_DR_REG &= ((uint8)(~LCD_Character_Display_E));
 621              		.loc 1 424 0
 622 00ce 254A     		ldr	r2, .L31
 623 00d0 244B     		ldr	r3, .L31
 624 00d2 1B78     		ldrb	r3, [r3]
 625 00d4 DBB2     		uxtb	r3, r3
 626 00d6 23F01003 		bic	r3, r3, #16
 627 00da DBB2     		uxtb	r3, r3
 628 00dc 1370     		strb	r3, [r2]
 425:Generated_Source\PSoC5/LCD_Character_Display.c **** 
 426:Generated_Source\PSoC5/LCD_Character_Display.c ****         /* If LCD is not ready make a delay */
 427:Generated_Source\PSoC5/LCD_Character_Display.c ****         if (value == 0u)
 629              		.loc 1 427 0
 630 00de FB78     		ldrb	r3, [r7, #3]	@ zero_extendqisi2
 631 00e0 002B     		cmp	r3, #0
 632 00e2 02D1     		bne	.L28
 428:Generated_Source\PSoC5/LCD_Character_Display.c ****         {
 429:Generated_Source\PSoC5/LCD_Character_Display.c ****             CyDelayUs(10u);
 633              		.loc 1 429 0
 634 00e4 0A20     		movs	r0, #10
 635 00e6 FFF7FEFF 		bl	CyDelayUs
 636              	.L28:
 430:Generated_Source\PSoC5/LCD_Character_Display.c ****         }
 431:Generated_Source\PSoC5/LCD_Character_Display.c **** 
 432:Generated_Source\PSoC5/LCD_Character_Display.c ****         /* Repeat until bit 4 is not zero or until timeout. */
 433:Generated_Source\PSoC5/LCD_Character_Display.c ****         timeout--;
 637              		.loc 1 433 0
 638 00ea 7B68     		ldr	r3, [r7, #4]
 639 00ec 013B     		subs	r3, r3, #1
 640 00ee 7B60     		str	r3, [r7, #4]
 434:Generated_Source\PSoC5/LCD_Character_Display.c **** 
 435:Generated_Source\PSoC5/LCD_Character_Display.c ****     } while ((value != 0u) && (timeout > 0u));
 641              		.loc 1 435 0
 642 00f0 FB78     		ldrb	r3, [r7, #3]	@ zero_extendqisi2
 643 00f2 002B     		cmp	r3, #0
 644 00f4 02D0     		beq	.L29
 645              		.loc 1 435 0 is_stmt 0 discriminator 1
 646 00f6 7B68     		ldr	r3, [r7, #4]
 647 00f8 002B     		cmp	r3, #0
ARM GAS  C:\Users\bmt\AppData\Local\Temp\ccPPvAfH.s 			page 20


 648 00fa BDD1     		bne	.L30
 649              	.L29:
 436:Generated_Source\PSoC5/LCD_Character_Display.c **** 
 437:Generated_Source\PSoC5/LCD_Character_Display.c ****     /* Set R/W low to write */
 438:Generated_Source\PSoC5/LCD_Character_Display.c ****     LCD_Character_Display_PORT_DR_REG &= ((uint8)(~LCD_Character_Display_RW));
 650              		.loc 1 438 0 is_stmt 1
 651 00fc 194A     		ldr	r2, .L31
 652 00fe 194B     		ldr	r3, .L31
 653 0100 1B78     		ldrb	r3, [r3]
 654 0102 DBB2     		uxtb	r3, r3
 655 0104 23F04003 		bic	r3, r3, #64
 656 0108 DBB2     		uxtb	r3, r3
 657 010a 1370     		strb	r3, [r2]
 439:Generated_Source\PSoC5/LCD_Character_Display.c **** 
 440:Generated_Source\PSoC5/LCD_Character_Display.c ****     /* Clear LCD port*/
 441:Generated_Source\PSoC5/LCD_Character_Display.c ****     LCD_Character_Display_PORT_DR_REG &= ((uint8)(~LCD_Character_Display_PORT_MASK));
 658              		.loc 1 441 0
 659 010c 154A     		ldr	r2, .L31
 660 010e 154B     		ldr	r3, .L31
 661 0110 1B78     		ldrb	r3, [r3]
 662 0112 DBB2     		uxtb	r3, r3
 663 0114 23F07F03 		bic	r3, r3, #127
 664 0118 DBB2     		uxtb	r3, r3
 665 011a 1370     		strb	r3, [r2]
 442:Generated_Source\PSoC5/LCD_Character_Display.c **** 
 443:Generated_Source\PSoC5/LCD_Character_Display.c ****     #if (CY_PSOC4)
 444:Generated_Source\PSoC5/LCD_Character_Display.c ****         
 445:Generated_Source\PSoC5/LCD_Character_Display.c ****         /* Mask off data pins to clear old values out */
 446:Generated_Source\PSoC5/LCD_Character_Display.c ****         value = LCD_Character_Display_PORT_PC_REG & ((uint32)(~ LCD_Character_Display_DM_DATA_MASK)
 447:Generated_Source\PSoC5/LCD_Character_Display.c ****         /* Load in high Z values for data pins, others unchanged */
 448:Generated_Source\PSoC5/LCD_Character_Display.c ****         LCD_Character_Display_PORT_PC_REG = value | LCD_Character_Display_STRONG_DATA_DM;
 449:Generated_Source\PSoC5/LCD_Character_Display.c **** 
 450:Generated_Source\PSoC5/LCD_Character_Display.c ****     #else
 451:Generated_Source\PSoC5/LCD_Character_Display.c **** 
 452:Generated_Source\PSoC5/LCD_Character_Display.c ****         /* Change Port to Output (Strong) on data pins */
 453:Generated_Source\PSoC5/LCD_Character_Display.c ****         /* Mask off data pins to clear high z values out. Configure data pins 
 454:Generated_Source\PSoC5/LCD_Character_Display.c ****         * to Strong Drive, others unchanged.
 455:Generated_Source\PSoC5/LCD_Character_Display.c ****         */
 456:Generated_Source\PSoC5/LCD_Character_Display.c ****         LCD_Character_Display_PORT_DM0_REG &= ((uint8)(~LCD_Character_Display_DATA_MASK));
 666              		.loc 1 456 0
 667 011c 124A     		ldr	r2, .L31+4
 668 011e 124B     		ldr	r3, .L31+4
 669 0120 1B78     		ldrb	r3, [r3]
 670 0122 DBB2     		uxtb	r3, r3
 671 0124 23F00F03 		bic	r3, r3, #15
 672 0128 DBB2     		uxtb	r3, r3
 673 012a 1370     		strb	r3, [r2]
 457:Generated_Source\PSoC5/LCD_Character_Display.c ****         /* Mask off data pins to clear high z values out */
 458:Generated_Source\PSoC5/LCD_Character_Display.c ****         value = LCD_Character_Display_PORT_DM1_REG & ((uint8)(~LCD_Character_Display_DATA_MASK));
 674              		.loc 1 458 0
 675 012c 0F4B     		ldr	r3, .L31+8
 676 012e 1B78     		ldrb	r3, [r3]
 677 0130 DBB2     		uxtb	r3, r3
 678 0132 23F00F03 		bic	r3, r3, #15
 679 0136 FB70     		strb	r3, [r7, #3]
 459:Generated_Source\PSoC5/LCD_Character_Display.c ****         /* Configure data pins to Strong Drive, others unchanged */
 460:Generated_Source\PSoC5/LCD_Character_Display.c ****         LCD_Character_Display_PORT_DM1_REG = value | (LCD_Character_Display_STRONG_DM1 & LCD_Charac
ARM GAS  C:\Users\bmt\AppData\Local\Temp\ccPPvAfH.s 			page 21


 680              		.loc 1 460 0
 681 0138 0C4A     		ldr	r2, .L31+8
 682 013a FB78     		ldrb	r3, [r7, #3]
 683 013c 43F00F03 		orr	r3, r3, #15
 684 0140 DBB2     		uxtb	r3, r3
 685 0142 1370     		strb	r3, [r2]
 461:Generated_Source\PSoC5/LCD_Character_Display.c **** 
 462:Generated_Source\PSoC5/LCD_Character_Display.c ****         /* Mask off data pins to clear high z values out */
 463:Generated_Source\PSoC5/LCD_Character_Display.c ****         value = LCD_Character_Display_PORT_DM2_REG & ((uint8)(~LCD_Character_Display_DATA_MASK));
 686              		.loc 1 463 0
 687 0144 0A4B     		ldr	r3, .L31+12
 688 0146 1B78     		ldrb	r3, [r3]
 689 0148 DBB2     		uxtb	r3, r3
 690 014a 23F00F03 		bic	r3, r3, #15
 691 014e FB70     		strb	r3, [r7, #3]
 464:Generated_Source\PSoC5/LCD_Character_Display.c ****         /* Configure data pins to Strong Drive, others unchanged */
 465:Generated_Source\PSoC5/LCD_Character_Display.c ****         LCD_Character_Display_PORT_DM2_REG = value | (LCD_Character_Display_STRONG_DM2 & LCD_Charac
 692              		.loc 1 465 0
 693 0150 074A     		ldr	r2, .L31+12
 694 0152 FB78     		ldrb	r3, [r7, #3]
 695 0154 43F00F03 		orr	r3, r3, #15
 696 0158 DBB2     		uxtb	r3, r3
 697 015a 1370     		strb	r3, [r2]
 466:Generated_Source\PSoC5/LCD_Character_Display.c ****     
 467:Generated_Source\PSoC5/LCD_Character_Display.c ****     #endif /* CY_PSOC4 */
 468:Generated_Source\PSoC5/LCD_Character_Display.c **** }
 698              		.loc 1 468 0
 699 015c 0837     		adds	r7, r7, #8
 700              		.cfi_def_cfa_offset 8
 701 015e BD46     		mov	sp, r7
 702              		.cfi_def_cfa_register 13
 703              		@ sp needed
 704 0160 80BD     		pop	{r7, pc}
 705              	.L32:
 706 0162 00BF     		.align	2
 707              	.L31:
 708 0164 20510040 		.word	1073762592
 709 0168 22510040 		.word	1073762594
 710 016c 23510040 		.word	1073762595
 711 0170 24510040 		.word	1073762596
 712 0174 21510040 		.word	1073762593
 713              		.cfi_endproc
 714              	.LFE9:
 715              		.size	LCD_Character_Display_IsReady, .-LCD_Character_Display_IsReady
 716              		.section	.text.LCD_Character_Display_WrDatNib,"ax",%progbits
 717              		.align	2
 718              		.thumb
 719              		.thumb_func
 720              		.type	LCD_Character_Display_WrDatNib, %function
 721              	LCD_Character_Display_WrDatNib:
 722              	.LFB10:
 469:Generated_Source\PSoC5/LCD_Character_Display.c **** 
 470:Generated_Source\PSoC5/LCD_Character_Display.c **** 
 471:Generated_Source\PSoC5/LCD_Character_Display.c **** /*******************************************************************************
 472:Generated_Source\PSoC5/LCD_Character_Display.c **** *  Function Name: LCD_Character_Display_WrDatNib
 473:Generated_Source\PSoC5/LCD_Character_Display.c **** ********************************************************************************
 474:Generated_Source\PSoC5/LCD_Character_Display.c **** *
ARM GAS  C:\Users\bmt\AppData\Local\Temp\ccPPvAfH.s 			page 22


 475:Generated_Source\PSoC5/LCD_Character_Display.c **** * Summary:
 476:Generated_Source\PSoC5/LCD_Character_Display.c **** *  Writes a data nibble to the LCD module.
 477:Generated_Source\PSoC5/LCD_Character_Display.c **** *
 478:Generated_Source\PSoC5/LCD_Character_Display.c **** * Parameters:
 479:Generated_Source\PSoC5/LCD_Character_Display.c **** *  nibble:  Byte containing nibble in the least significant nibble to be
 480:Generated_Source\PSoC5/LCD_Character_Display.c **** *           written to the LCD module.
 481:Generated_Source\PSoC5/LCD_Character_Display.c **** *
 482:Generated_Source\PSoC5/LCD_Character_Display.c **** * Return:
 483:Generated_Source\PSoC5/LCD_Character_Display.c **** *  None.
 484:Generated_Source\PSoC5/LCD_Character_Display.c **** *
 485:Generated_Source\PSoC5/LCD_Character_Display.c **** *******************************************************************************/
 486:Generated_Source\PSoC5/LCD_Character_Display.c **** static void LCD_Character_Display_WrDatNib(uint8 nibble) 
 487:Generated_Source\PSoC5/LCD_Character_Display.c **** {
 723              		.loc 1 487 0
 724              		.cfi_startproc
 725              		@ args = 0, pretend = 0, frame = 8
 726              		@ frame_needed = 1, uses_anonymous_args = 0
 727 0000 80B5     		push	{r7, lr}
 728              		.cfi_def_cfa_offset 8
 729              		.cfi_offset 7, -8
 730              		.cfi_offset 14, -4
 731 0002 82B0     		sub	sp, sp, #8
 732              		.cfi_def_cfa_offset 16
 733 0004 00AF     		add	r7, sp, #0
 734              		.cfi_def_cfa_register 7
 735 0006 0346     		mov	r3, r0
 736 0008 FB71     		strb	r3, [r7, #7]
 488:Generated_Source\PSoC5/LCD_Character_Display.c ****     /* RS should be low to select data register */
 489:Generated_Source\PSoC5/LCD_Character_Display.c ****     LCD_Character_Display_PORT_DR_REG |= LCD_Character_Display_RS;
 737              		.loc 1 489 0
 738 000a 1A4A     		ldr	r2, .L34
 739 000c 194B     		ldr	r3, .L34
 740 000e 1B78     		ldrb	r3, [r3]
 741 0010 DBB2     		uxtb	r3, r3
 742 0012 43F02003 		orr	r3, r3, #32
 743 0016 DBB2     		uxtb	r3, r3
 744 0018 1370     		strb	r3, [r2]
 490:Generated_Source\PSoC5/LCD_Character_Display.c ****     /* Reset RW for write operation */
 491:Generated_Source\PSoC5/LCD_Character_Display.c ****     LCD_Character_Display_PORT_DR_REG &= ((uint8)(~LCD_Character_Display_RW));
 745              		.loc 1 491 0
 746 001a 164A     		ldr	r2, .L34
 747 001c 154B     		ldr	r3, .L34
 748 001e 1B78     		ldrb	r3, [r3]
 749 0020 DBB2     		uxtb	r3, r3
 750 0022 23F04003 		bic	r3, r3, #64
 751 0026 DBB2     		uxtb	r3, r3
 752 0028 1370     		strb	r3, [r2]
 492:Generated_Source\PSoC5/LCD_Character_Display.c **** 
 493:Generated_Source\PSoC5/LCD_Character_Display.c ****     /* Guaranteed delay between Setting RS and RW and setting E bits */
 494:Generated_Source\PSoC5/LCD_Character_Display.c ****     CyDelayUs(0u);
 753              		.loc 1 494 0
 754 002a 0020     		movs	r0, #0
 755 002c FFF7FEFF 		bl	CyDelayUs
 495:Generated_Source\PSoC5/LCD_Character_Display.c ****     
 496:Generated_Source\PSoC5/LCD_Character_Display.c ****     /* Clear data pins */
 497:Generated_Source\PSoC5/LCD_Character_Display.c ****     LCD_Character_Display_PORT_DR_REG &= ((uint8)(~LCD_Character_Display_DATA_MASK));
 756              		.loc 1 497 0
ARM GAS  C:\Users\bmt\AppData\Local\Temp\ccPPvAfH.s 			page 23


 757 0030 104A     		ldr	r2, .L34
 758 0032 104B     		ldr	r3, .L34
 759 0034 1B78     		ldrb	r3, [r3]
 760 0036 DBB2     		uxtb	r3, r3
 761 0038 23F00F03 		bic	r3, r3, #15
 762 003c DBB2     		uxtb	r3, r3
 763 003e 1370     		strb	r3, [r2]
 498:Generated_Source\PSoC5/LCD_Character_Display.c **** 
 499:Generated_Source\PSoC5/LCD_Character_Display.c ****     /* Write data, bring E high */
 500:Generated_Source\PSoC5/LCD_Character_Display.c ****     #if(0u != LCD_Character_Display_PORT_SHIFT) /* MISRA forbids shift by 0 so need to handle that 
 501:Generated_Source\PSoC5/LCD_Character_Display.c ****         LCD_Character_Display_PORT_DR_REG |= 
 502:Generated_Source\PSoC5/LCD_Character_Display.c ****             (LCD_Character_Display_E | ((uint8)(((uint8) nibble) << LCD_Character_Display_PORT_SHIF
 503:Generated_Source\PSoC5/LCD_Character_Display.c ****     #else
 504:Generated_Source\PSoC5/LCD_Character_Display.c ****         LCD_Character_Display_PORT_DR_REG |= (LCD_Character_Display_E | nibble);
 764              		.loc 1 504 0
 765 0040 0C49     		ldr	r1, .L34
 766 0042 0C4B     		ldr	r3, .L34
 767 0044 1B78     		ldrb	r3, [r3]
 768 0046 DAB2     		uxtb	r2, r3
 769 0048 FB79     		ldrb	r3, [r7, #7]
 770 004a 1343     		orrs	r3, r3, r2
 771 004c DBB2     		uxtb	r3, r3
 772 004e 43F01003 		orr	r3, r3, #16
 773 0052 DBB2     		uxtb	r3, r3
 774 0054 0B70     		strb	r3, [r1]
 505:Generated_Source\PSoC5/LCD_Character_Display.c ****     #endif /* (0u != LCD_Character_Display_PORT_SHIFT) */
 506:Generated_Source\PSoC5/LCD_Character_Display.c **** 
 507:Generated_Source\PSoC5/LCD_Character_Display.c ****     /* Minimum of 230 ns delay */
 508:Generated_Source\PSoC5/LCD_Character_Display.c ****     CyDelayUs(1u);
 775              		.loc 1 508 0
 776 0056 0120     		movs	r0, #1
 777 0058 FFF7FEFF 		bl	CyDelayUs
 509:Generated_Source\PSoC5/LCD_Character_Display.c **** 
 510:Generated_Source\PSoC5/LCD_Character_Display.c ****     LCD_Character_Display_PORT_DR_REG &= ((uint8)(~LCD_Character_Display_E));
 778              		.loc 1 510 0
 779 005c 054A     		ldr	r2, .L34
 780 005e 054B     		ldr	r3, .L34
 781 0060 1B78     		ldrb	r3, [r3]
 782 0062 DBB2     		uxtb	r3, r3
 783 0064 23F01003 		bic	r3, r3, #16
 784 0068 DBB2     		uxtb	r3, r3
 785 006a 1370     		strb	r3, [r2]
 511:Generated_Source\PSoC5/LCD_Character_Display.c **** }
 786              		.loc 1 511 0
 787 006c 0837     		adds	r7, r7, #8
 788              		.cfi_def_cfa_offset 8
 789 006e BD46     		mov	sp, r7
 790              		.cfi_def_cfa_register 13
 791              		@ sp needed
 792 0070 80BD     		pop	{r7, pc}
 793              	.L35:
 794 0072 00BF     		.align	2
 795              	.L34:
 796 0074 20510040 		.word	1073762592
 797              		.cfi_endproc
 798              	.LFE10:
 799              		.size	LCD_Character_Display_WrDatNib, .-LCD_Character_Display_WrDatNib
ARM GAS  C:\Users\bmt\AppData\Local\Temp\ccPPvAfH.s 			page 24


 800              		.section	.text.LCD_Character_Display_WrCntrlNib,"ax",%progbits
 801              		.align	2
 802              		.thumb
 803              		.thumb_func
 804              		.type	LCD_Character_Display_WrCntrlNib, %function
 805              	LCD_Character_Display_WrCntrlNib:
 806              	.LFB11:
 512:Generated_Source\PSoC5/LCD_Character_Display.c **** 
 513:Generated_Source\PSoC5/LCD_Character_Display.c **** 
 514:Generated_Source\PSoC5/LCD_Character_Display.c **** /*******************************************************************************
 515:Generated_Source\PSoC5/LCD_Character_Display.c **** *  Function Name: LCD_Character_Display_WrCntrlNib
 516:Generated_Source\PSoC5/LCD_Character_Display.c **** ********************************************************************************
 517:Generated_Source\PSoC5/LCD_Character_Display.c **** *
 518:Generated_Source\PSoC5/LCD_Character_Display.c **** * Summary:
 519:Generated_Source\PSoC5/LCD_Character_Display.c **** *  Writes a control nibble to the LCD module.
 520:Generated_Source\PSoC5/LCD_Character_Display.c **** *
 521:Generated_Source\PSoC5/LCD_Character_Display.c **** * Parameters:
 522:Generated_Source\PSoC5/LCD_Character_Display.c **** *  nibble: The byte containing a nibble in the four least significant bits.????
 523:Generated_Source\PSoC5/LCD_Character_Display.c **** *
 524:Generated_Source\PSoC5/LCD_Character_Display.c **** * Return:
 525:Generated_Source\PSoC5/LCD_Character_Display.c **** *  None.
 526:Generated_Source\PSoC5/LCD_Character_Display.c **** *
 527:Generated_Source\PSoC5/LCD_Character_Display.c **** *******************************************************************************/
 528:Generated_Source\PSoC5/LCD_Character_Display.c **** static void LCD_Character_Display_WrCntrlNib(uint8 nibble) 
 529:Generated_Source\PSoC5/LCD_Character_Display.c **** {
 807              		.loc 1 529 0
 808              		.cfi_startproc
 809              		@ args = 0, pretend = 0, frame = 8
 810              		@ frame_needed = 1, uses_anonymous_args = 0
 811 0000 80B5     		push	{r7, lr}
 812              		.cfi_def_cfa_offset 8
 813              		.cfi_offset 7, -8
 814              		.cfi_offset 14, -4
 815 0002 82B0     		sub	sp, sp, #8
 816              		.cfi_def_cfa_offset 16
 817 0004 00AF     		add	r7, sp, #0
 818              		.cfi_def_cfa_register 7
 819 0006 0346     		mov	r3, r0
 820 0008 FB71     		strb	r3, [r7, #7]
 530:Generated_Source\PSoC5/LCD_Character_Display.c ****     /* RS and RW should be low to select instruction register and  write operation respectively */
 531:Generated_Source\PSoC5/LCD_Character_Display.c ****     LCD_Character_Display_PORT_DR_REG &= ((uint8)(~(LCD_Character_Display_RS | LCD_Character_Displa
 821              		.loc 1 531 0
 822 000a 144A     		ldr	r2, .L37
 823 000c 134B     		ldr	r3, .L37
 824 000e 1B78     		ldrb	r3, [r3]
 825 0010 DBB2     		uxtb	r3, r3
 826 0012 23F06003 		bic	r3, r3, #96
 827 0016 DBB2     		uxtb	r3, r3
 828 0018 1370     		strb	r3, [r2]
 532:Generated_Source\PSoC5/LCD_Character_Display.c **** 
 533:Generated_Source\PSoC5/LCD_Character_Display.c ****     /* Two following lines of code will give 40ns delay */
 534:Generated_Source\PSoC5/LCD_Character_Display.c ****     /* Clear data pins */
 535:Generated_Source\PSoC5/LCD_Character_Display.c ****     LCD_Character_Display_PORT_DR_REG &= ((uint8)(~LCD_Character_Display_DATA_MASK));
 829              		.loc 1 535 0
 830 001a 104A     		ldr	r2, .L37
 831 001c 0F4B     		ldr	r3, .L37
 832 001e 1B78     		ldrb	r3, [r3]
ARM GAS  C:\Users\bmt\AppData\Local\Temp\ccPPvAfH.s 			page 25


 833 0020 DBB2     		uxtb	r3, r3
 834 0022 23F00F03 		bic	r3, r3, #15
 835 0026 DBB2     		uxtb	r3, r3
 836 0028 1370     		strb	r3, [r2]
 536:Generated_Source\PSoC5/LCD_Character_Display.c **** 
 537:Generated_Source\PSoC5/LCD_Character_Display.c ****     /* Write control data and set enable signal */
 538:Generated_Source\PSoC5/LCD_Character_Display.c ****     #if(0u != LCD_Character_Display_PORT_SHIFT) /* MISRA forbids shift by 0 so need to handle that 
 539:Generated_Source\PSoC5/LCD_Character_Display.c ****         LCD_Character_Display_PORT_DR_REG |= 
 540:Generated_Source\PSoC5/LCD_Character_Display.c ****             (LCD_Character_Display_E | ((uint8)(((uint8) nibble) << LCD_Character_Display_PORT_SHIF
 541:Generated_Source\PSoC5/LCD_Character_Display.c ****     #else
 542:Generated_Source\PSoC5/LCD_Character_Display.c ****         LCD_Character_Display_PORT_DR_REG |= (LCD_Character_Display_E | nibble);
 837              		.loc 1 542 0
 838 002a 0C49     		ldr	r1, .L37
 839 002c 0B4B     		ldr	r3, .L37
 840 002e 1B78     		ldrb	r3, [r3]
 841 0030 DAB2     		uxtb	r2, r3
 842 0032 FB79     		ldrb	r3, [r7, #7]
 843 0034 1343     		orrs	r3, r3, r2
 844 0036 DBB2     		uxtb	r3, r3
 845 0038 43F01003 		orr	r3, r3, #16
 846 003c DBB2     		uxtb	r3, r3
 847 003e 0B70     		strb	r3, [r1]
 543:Generated_Source\PSoC5/LCD_Character_Display.c ****     #endif /* (0u != LCD_Character_Display_PORT_SHIFT) */
 544:Generated_Source\PSoC5/LCD_Character_Display.c **** 
 545:Generated_Source\PSoC5/LCD_Character_Display.c ****     /* Minimum of 230 ns delay */
 546:Generated_Source\PSoC5/LCD_Character_Display.c ****     CyDelayUs(1u);
 848              		.loc 1 546 0
 849 0040 0120     		movs	r0, #1
 850 0042 FFF7FEFF 		bl	CyDelayUs
 547:Generated_Source\PSoC5/LCD_Character_Display.c **** 
 548:Generated_Source\PSoC5/LCD_Character_Display.c ****     LCD_Character_Display_PORT_DR_REG &= ((uint8)(~LCD_Character_Display_E));
 851              		.loc 1 548 0
 852 0046 054A     		ldr	r2, .L37
 853 0048 044B     		ldr	r3, .L37
 854 004a 1B78     		ldrb	r3, [r3]
 855 004c DBB2     		uxtb	r3, r3
 856 004e 23F01003 		bic	r3, r3, #16
 857 0052 DBB2     		uxtb	r3, r3
 858 0054 1370     		strb	r3, [r2]
 549:Generated_Source\PSoC5/LCD_Character_Display.c **** }
 859              		.loc 1 549 0
 860 0056 0837     		adds	r7, r7, #8
 861              		.cfi_def_cfa_offset 8
 862 0058 BD46     		mov	sp, r7
 863              		.cfi_def_cfa_register 13
 864              		@ sp needed
 865 005a 80BD     		pop	{r7, pc}
 866              	.L38:
 867              		.align	2
 868              	.L37:
 869 005c 20510040 		.word	1073762592
 870              		.cfi_endproc
 871              	.LFE11:
 872              		.size	LCD_Character_Display_WrCntrlNib, .-LCD_Character_Display_WrCntrlNib
 873              		.section	.text.LCD_Character_Display_PrintInt8,"ax",%progbits
 874              		.align	2
 875              		.global	LCD_Character_Display_PrintInt8
ARM GAS  C:\Users\bmt\AppData\Local\Temp\ccPPvAfH.s 			page 26


 876              		.thumb
 877              		.thumb_func
 878              		.type	LCD_Character_Display_PrintInt8, %function
 879              	LCD_Character_Display_PrintInt8:
 880              	.LFB12:
 550:Generated_Source\PSoC5/LCD_Character_Display.c **** 
 551:Generated_Source\PSoC5/LCD_Character_Display.c **** 
 552:Generated_Source\PSoC5/LCD_Character_Display.c **** #if(LCD_Character_Display_CONVERSION_ROUTINES == 1u)
 553:Generated_Source\PSoC5/LCD_Character_Display.c **** 
 554:Generated_Source\PSoC5/LCD_Character_Display.c ****     /*******************************************************************************
 555:Generated_Source\PSoC5/LCD_Character_Display.c ****     *  Function Name: LCD_Character_Display_PrintInt8
 556:Generated_Source\PSoC5/LCD_Character_Display.c ****     ********************************************************************************
 557:Generated_Source\PSoC5/LCD_Character_Display.c ****     *
 558:Generated_Source\PSoC5/LCD_Character_Display.c ****     * Summary:
 559:Generated_Source\PSoC5/LCD_Character_Display.c ****     *  Print a byte as two ASCII characters.
 560:Generated_Source\PSoC5/LCD_Character_Display.c ****     *
 561:Generated_Source\PSoC5/LCD_Character_Display.c ****     * Parameters:
 562:Generated_Source\PSoC5/LCD_Character_Display.c ****     *  value: The byte to be printed out as ASCII characters.
 563:Generated_Source\PSoC5/LCD_Character_Display.c ****     *
 564:Generated_Source\PSoC5/LCD_Character_Display.c ****     * Return:
 565:Generated_Source\PSoC5/LCD_Character_Display.c ****     *  None.
 566:Generated_Source\PSoC5/LCD_Character_Display.c ****     *
 567:Generated_Source\PSoC5/LCD_Character_Display.c ****     *******************************************************************************/
 568:Generated_Source\PSoC5/LCD_Character_Display.c ****     void LCD_Character_Display_PrintInt8(uint8 value) 
 569:Generated_Source\PSoC5/LCD_Character_Display.c ****     {
 881              		.loc 1 569 0
 882              		.cfi_startproc
 883              		@ args = 0, pretend = 0, frame = 8
 884              		@ frame_needed = 1, uses_anonymous_args = 0
 885 0000 80B5     		push	{r7, lr}
 886              		.cfi_def_cfa_offset 8
 887              		.cfi_offset 7, -8
 888              		.cfi_offset 14, -4
 889 0002 82B0     		sub	sp, sp, #8
 890              		.cfi_def_cfa_offset 16
 891 0004 00AF     		add	r7, sp, #0
 892              		.cfi_def_cfa_register 7
 893 0006 0346     		mov	r3, r0
 894 0008 FB71     		strb	r3, [r7, #7]
 570:Generated_Source\PSoC5/LCD_Character_Display.c ****         static char8 const CYCODE LCD_Character_Display_hex[16u] = "0123456789ABCDEF";
 571:Generated_Source\PSoC5/LCD_Character_Display.c ****         
 572:Generated_Source\PSoC5/LCD_Character_Display.c ****         LCD_Character_Display_PutChar((char8) LCD_Character_Display_hex[value >> LCD_Character_Disp
 895              		.loc 1 572 0
 896 000a FB79     		ldrb	r3, [r7, #7]	@ zero_extendqisi2
 897 000c 1B09     		lsrs	r3, r3, #4
 898 000e DBB2     		uxtb	r3, r3
 899 0010 1A46     		mov	r2, r3
 900 0012 084B     		ldr	r3, .L40
 901 0014 9B5C     		ldrb	r3, [r3, r2]	@ zero_extendqisi2
 902 0016 1846     		mov	r0, r3
 903 0018 FFF7FEFF 		bl	LCD_Character_Display_PutChar
 573:Generated_Source\PSoC5/LCD_Character_Display.c ****         LCD_Character_Display_PutChar((char8) LCD_Character_Display_hex[value & LCD_Character_Displ
 904              		.loc 1 573 0
 905 001c FB79     		ldrb	r3, [r7, #7]	@ zero_extendqisi2
 906 001e 03F00F03 		and	r3, r3, #15
 907 0022 044A     		ldr	r2, .L40
 908 0024 D35C     		ldrb	r3, [r2, r3]	@ zero_extendqisi2
ARM GAS  C:\Users\bmt\AppData\Local\Temp\ccPPvAfH.s 			page 27


 909 0026 1846     		mov	r0, r3
 910 0028 FFF7FEFF 		bl	LCD_Character_Display_PutChar
 574:Generated_Source\PSoC5/LCD_Character_Display.c ****     }
 911              		.loc 1 574 0
 912 002c 0837     		adds	r7, r7, #8
 913              		.cfi_def_cfa_offset 8
 914 002e BD46     		mov	sp, r7
 915              		.cfi_def_cfa_register 13
 916              		@ sp needed
 917 0030 80BD     		pop	{r7, pc}
 918              	.L41:
 919 0032 00BF     		.align	2
 920              	.L40:
 921 0034 00000000 		.word	LCD_Character_Display_hex.4905
 922              		.cfi_endproc
 923              	.LFE12:
 924              		.size	LCD_Character_Display_PrintInt8, .-LCD_Character_Display_PrintInt8
 925              		.section	.text.LCD_Character_Display_PrintInt16,"ax",%progbits
 926              		.align	2
 927              		.global	LCD_Character_Display_PrintInt16
 928              		.thumb
 929              		.thumb_func
 930              		.type	LCD_Character_Display_PrintInt16, %function
 931              	LCD_Character_Display_PrintInt16:
 932              	.LFB13:
 575:Generated_Source\PSoC5/LCD_Character_Display.c **** 
 576:Generated_Source\PSoC5/LCD_Character_Display.c **** 
 577:Generated_Source\PSoC5/LCD_Character_Display.c ****     /*******************************************************************************
 578:Generated_Source\PSoC5/LCD_Character_Display.c ****     *  Function Name: LCD_Character_Display_PrintInt16
 579:Generated_Source\PSoC5/LCD_Character_Display.c ****     ********************************************************************************
 580:Generated_Source\PSoC5/LCD_Character_Display.c ****     *
 581:Generated_Source\PSoC5/LCD_Character_Display.c ****     * Summary:
 582:Generated_Source\PSoC5/LCD_Character_Display.c ****     *  Print a uint16 as four ASCII characters.
 583:Generated_Source\PSoC5/LCD_Character_Display.c ****     *
 584:Generated_Source\PSoC5/LCD_Character_Display.c ****     * Parameters:
 585:Generated_Source\PSoC5/LCD_Character_Display.c ****     *  value: The uint16 to be printed out as ASCII characters.
 586:Generated_Source\PSoC5/LCD_Character_Display.c ****     *
 587:Generated_Source\PSoC5/LCD_Character_Display.c ****     * Return:
 588:Generated_Source\PSoC5/LCD_Character_Display.c ****     *  None.
 589:Generated_Source\PSoC5/LCD_Character_Display.c ****     *
 590:Generated_Source\PSoC5/LCD_Character_Display.c ****     *******************************************************************************/
 591:Generated_Source\PSoC5/LCD_Character_Display.c ****     void LCD_Character_Display_PrintInt16(uint16 value) 
 592:Generated_Source\PSoC5/LCD_Character_Display.c ****     {
 933              		.loc 1 592 0
 934              		.cfi_startproc
 935              		@ args = 0, pretend = 0, frame = 8
 936              		@ frame_needed = 1, uses_anonymous_args = 0
 937 0000 80B5     		push	{r7, lr}
 938              		.cfi_def_cfa_offset 8
 939              		.cfi_offset 7, -8
 940              		.cfi_offset 14, -4
 941 0002 82B0     		sub	sp, sp, #8
 942              		.cfi_def_cfa_offset 16
 943 0004 00AF     		add	r7, sp, #0
 944              		.cfi_def_cfa_register 7
 945 0006 0346     		mov	r3, r0
 946 0008 FB80     		strh	r3, [r7, #6]	@ movhi
ARM GAS  C:\Users\bmt\AppData\Local\Temp\ccPPvAfH.s 			page 28


 593:Generated_Source\PSoC5/LCD_Character_Display.c ****         LCD_Character_Display_PrintInt8((uint8)(value >> LCD_Character_Display_U16_UPPER_BYTE_SHIFT
 947              		.loc 1 593 0
 948 000a FB88     		ldrh	r3, [r7, #6]
 949 000c 1B0A     		lsrs	r3, r3, #8
 950 000e 9BB2     		uxth	r3, r3
 951 0010 DBB2     		uxtb	r3, r3
 952 0012 1846     		mov	r0, r3
 953 0014 FFF7FEFF 		bl	LCD_Character_Display_PrintInt8
 594:Generated_Source\PSoC5/LCD_Character_Display.c ****         LCD_Character_Display_PrintInt8((uint8)(value & LCD_Character_Display_U16_LOWER_BYTE_MASK))
 954              		.loc 1 594 0
 955 0018 FB88     		ldrh	r3, [r7, #6]	@ movhi
 956 001a DBB2     		uxtb	r3, r3
 957 001c 1846     		mov	r0, r3
 958 001e FFF7FEFF 		bl	LCD_Character_Display_PrintInt8
 595:Generated_Source\PSoC5/LCD_Character_Display.c ****     }
 959              		.loc 1 595 0
 960 0022 0837     		adds	r7, r7, #8
 961              		.cfi_def_cfa_offset 8
 962 0024 BD46     		mov	sp, r7
 963              		.cfi_def_cfa_register 13
 964              		@ sp needed
 965 0026 80BD     		pop	{r7, pc}
 966              		.cfi_endproc
 967              	.LFE13:
 968              		.size	LCD_Character_Display_PrintInt16, .-LCD_Character_Display_PrintInt16
 969              		.section	.text.LCD_Character_Display_PrintInt32,"ax",%progbits
 970              		.align	2
 971              		.global	LCD_Character_Display_PrintInt32
 972              		.thumb
 973              		.thumb_func
 974              		.type	LCD_Character_Display_PrintInt32, %function
 975              	LCD_Character_Display_PrintInt32:
 976              	.LFB14:
 596:Generated_Source\PSoC5/LCD_Character_Display.c **** 
 597:Generated_Source\PSoC5/LCD_Character_Display.c ****     
 598:Generated_Source\PSoC5/LCD_Character_Display.c ****     /*******************************************************************************
 599:Generated_Source\PSoC5/LCD_Character_Display.c ****     *  Function Name: LCD_Character_Display_PrintInt32
 600:Generated_Source\PSoC5/LCD_Character_Display.c ****     ********************************************************************************
 601:Generated_Source\PSoC5/LCD_Character_Display.c ****     *
 602:Generated_Source\PSoC5/LCD_Character_Display.c ****     * Summary:
 603:Generated_Source\PSoC5/LCD_Character_Display.c ****     *  Print a uint32 hexadecimal number as eight ASCII characters.
 604:Generated_Source\PSoC5/LCD_Character_Display.c ****     *
 605:Generated_Source\PSoC5/LCD_Character_Display.c ****     * Parameters:
 606:Generated_Source\PSoC5/LCD_Character_Display.c ****     *  value: The uint32 to be printed out as ASCII characters.
 607:Generated_Source\PSoC5/LCD_Character_Display.c ****     *
 608:Generated_Source\PSoC5/LCD_Character_Display.c ****     * Return:
 609:Generated_Source\PSoC5/LCD_Character_Display.c ****     *  None.
 610:Generated_Source\PSoC5/LCD_Character_Display.c ****     *
 611:Generated_Source\PSoC5/LCD_Character_Display.c ****     *******************************************************************************/
 612:Generated_Source\PSoC5/LCD_Character_Display.c ****     void LCD_Character_Display_PrintInt32(uint32 value) 
 613:Generated_Source\PSoC5/LCD_Character_Display.c ****     {
 977              		.loc 1 613 0
 978              		.cfi_startproc
 979              		@ args = 0, pretend = 0, frame = 16
 980              		@ frame_needed = 1, uses_anonymous_args = 0
 981 0000 80B5     		push	{r7, lr}
 982              		.cfi_def_cfa_offset 8
ARM GAS  C:\Users\bmt\AppData\Local\Temp\ccPPvAfH.s 			page 29


 983              		.cfi_offset 7, -8
 984              		.cfi_offset 14, -4
 985 0002 84B0     		sub	sp, sp, #16
 986              		.cfi_def_cfa_offset 24
 987 0004 00AF     		add	r7, sp, #0
 988              		.cfi_def_cfa_register 7
 989 0006 7860     		str	r0, [r7, #4]
 614:Generated_Source\PSoC5/LCD_Character_Display.c ****         uint8 shift = LCD_Character_Display_32_BIT_SHIFT;
 990              		.loc 1 614 0
 991 0008 2023     		movs	r3, #32
 992 000a FB73     		strb	r3, [r7, #15]
 615:Generated_Source\PSoC5/LCD_Character_Display.c ****         
 616:Generated_Source\PSoC5/LCD_Character_Display.c ****         while (shift != 0u)
 993              		.loc 1 616 0
 994 000c 0AE0     		b	.L44
 995              	.L45:
 617:Generated_Source\PSoC5/LCD_Character_Display.c ****         {
 618:Generated_Source\PSoC5/LCD_Character_Display.c ****             /* "shift" var is to be subtracted by 8 prior shifting. This implements 
 619:Generated_Source\PSoC5/LCD_Character_Display.c ****             * shifting by 24, 16, 8 and 0u. 
 620:Generated_Source\PSoC5/LCD_Character_Display.c ****             */
 621:Generated_Source\PSoC5/LCD_Character_Display.c ****             shift -= LCD_Character_Display_8_BIT_SHIFT;
 996              		.loc 1 621 0
 997 000e FB7B     		ldrb	r3, [r7, #15]
 998 0010 083B     		subs	r3, r3, #8
 999 0012 FB73     		strb	r3, [r7, #15]
 622:Generated_Source\PSoC5/LCD_Character_Display.c ****             
 623:Generated_Source\PSoC5/LCD_Character_Display.c ****             /* Print 8 bits of uint32 hex number */
 624:Generated_Source\PSoC5/LCD_Character_Display.c ****             LCD_Character_Display_PrintInt8((uint8) ((uint32) (value >> shift)));
 1000              		.loc 1 624 0
 1001 0014 FB7B     		ldrb	r3, [r7, #15]	@ zero_extendqisi2
 1002 0016 7A68     		ldr	r2, [r7, #4]
 1003 0018 22FA03F3 		lsr	r3, r2, r3
 1004 001c DBB2     		uxtb	r3, r3
 1005 001e 1846     		mov	r0, r3
 1006 0020 FFF7FEFF 		bl	LCD_Character_Display_PrintInt8
 1007              	.L44:
 616:Generated_Source\PSoC5/LCD_Character_Display.c ****         {
 1008              		.loc 1 616 0
 1009 0024 FB7B     		ldrb	r3, [r7, #15]	@ zero_extendqisi2
 1010 0026 002B     		cmp	r3, #0
 1011 0028 F1D1     		bne	.L45
 625:Generated_Source\PSoC5/LCD_Character_Display.c ****         }
 626:Generated_Source\PSoC5/LCD_Character_Display.c ****     }
 1012              		.loc 1 626 0
 1013 002a 1037     		adds	r7, r7, #16
 1014              		.cfi_def_cfa_offset 8
 1015 002c BD46     		mov	sp, r7
 1016              		.cfi_def_cfa_register 13
 1017              		@ sp needed
 1018 002e 80BD     		pop	{r7, pc}
 1019              		.cfi_endproc
 1020              	.LFE14:
 1021              		.size	LCD_Character_Display_PrintInt32, .-LCD_Character_Display_PrintInt32
 1022              		.section	.text.LCD_Character_Display_PrintU32Number,"ax",%progbits
 1023              		.align	2
 1024              		.global	LCD_Character_Display_PrintU32Number
 1025              		.thumb
ARM GAS  C:\Users\bmt\AppData\Local\Temp\ccPPvAfH.s 			page 30


 1026              		.thumb_func
 1027              		.type	LCD_Character_Display_PrintU32Number, %function
 1028              	LCD_Character_Display_PrintU32Number:
 1029              	.LFB15:
 627:Generated_Source\PSoC5/LCD_Character_Display.c ****     
 628:Generated_Source\PSoC5/LCD_Character_Display.c ****     
 629:Generated_Source\PSoC5/LCD_Character_Display.c ****     /*******************************************************************************
 630:Generated_Source\PSoC5/LCD_Character_Display.c ****     *  Function Name: LCD_Character_Display_PrintNumber
 631:Generated_Source\PSoC5/LCD_Character_Display.c ****     ********************************************************************************
 632:Generated_Source\PSoC5/LCD_Character_Display.c ****     *
 633:Generated_Source\PSoC5/LCD_Character_Display.c ****     * Summary:
 634:Generated_Source\PSoC5/LCD_Character_Display.c ****     *  Print an uint16 value as a left-justified decimal value.
 635:Generated_Source\PSoC5/LCD_Character_Display.c ****     *
 636:Generated_Source\PSoC5/LCD_Character_Display.c ****     * Parameters:
 637:Generated_Source\PSoC5/LCD_Character_Display.c ****     *  value: A 16-bit value to be printed in ASCII characters as a decimal number
 638:Generated_Source\PSoC5/LCD_Character_Display.c ****     *
 639:Generated_Source\PSoC5/LCD_Character_Display.c ****     * Return:
 640:Generated_Source\PSoC5/LCD_Character_Display.c ****     *  None.
 641:Generated_Source\PSoC5/LCD_Character_Display.c ****     *
 642:Generated_Source\PSoC5/LCD_Character_Display.c ****     * Note:
 643:Generated_Source\PSoC5/LCD_Character_Display.c ****     *  This function is implemented as a macro.
 644:Generated_Source\PSoC5/LCD_Character_Display.c ****     *
 645:Generated_Source\PSoC5/LCD_Character_Display.c ****     *******************************************************************************/
 646:Generated_Source\PSoC5/LCD_Character_Display.c **** 
 647:Generated_Source\PSoC5/LCD_Character_Display.c ****     
 648:Generated_Source\PSoC5/LCD_Character_Display.c ****     /*******************************************************************************
 649:Generated_Source\PSoC5/LCD_Character_Display.c ****     *  Function Name: LCD_Character_Display_PrintU32Number
 650:Generated_Source\PSoC5/LCD_Character_Display.c ****     ********************************************************************************
 651:Generated_Source\PSoC5/LCD_Character_Display.c ****     *
 652:Generated_Source\PSoC5/LCD_Character_Display.c ****     * Summary:
 653:Generated_Source\PSoC5/LCD_Character_Display.c ****     *  Print an uint32 value as a left-justified decimal value.
 654:Generated_Source\PSoC5/LCD_Character_Display.c ****     *
 655:Generated_Source\PSoC5/LCD_Character_Display.c ****     * Parameters:
 656:Generated_Source\PSoC5/LCD_Character_Display.c ****     *  value: A 32-bit value to be printed in ASCII characters as a decimal number
 657:Generated_Source\PSoC5/LCD_Character_Display.c ****     *
 658:Generated_Source\PSoC5/LCD_Character_Display.c ****     * Return:
 659:Generated_Source\PSoC5/LCD_Character_Display.c ****     *  None.
 660:Generated_Source\PSoC5/LCD_Character_Display.c ****     *
 661:Generated_Source\PSoC5/LCD_Character_Display.c ****     *******************************************************************************/
 662:Generated_Source\PSoC5/LCD_Character_Display.c ****     void LCD_Character_Display_PrintU32Number(uint32 value) 
 663:Generated_Source\PSoC5/LCD_Character_Display.c ****     {
 1030              		.loc 1 663 0
 1031              		.cfi_startproc
 1032              		@ args = 0, pretend = 0, frame = 24
 1033              		@ frame_needed = 1, uses_anonymous_args = 0
 1034 0000 80B5     		push	{r7, lr}
 1035              		.cfi_def_cfa_offset 8
 1036              		.cfi_offset 7, -8
 1037              		.cfi_offset 14, -4
 1038 0002 86B0     		sub	sp, sp, #24
 1039              		.cfi_def_cfa_offset 32
 1040 0004 00AF     		add	r7, sp, #0
 1041              		.cfi_def_cfa_register 7
 1042 0006 7860     		str	r0, [r7, #4]
 664:Generated_Source\PSoC5/LCD_Character_Display.c ****         uint8 tmpDigit;
 665:Generated_Source\PSoC5/LCD_Character_Display.c ****         char8 number[LCD_Character_Display_NUMBER_OF_REMAINDERS_U32 + 1u];
 666:Generated_Source\PSoC5/LCD_Character_Display.c ****         uint8 digIndex = LCD_Character_Display_NUMBER_OF_REMAINDERS_U32;
ARM GAS  C:\Users\bmt\AppData\Local\Temp\ccPPvAfH.s 			page 31


 1043              		.loc 1 666 0
 1044 0008 0A23     		movs	r3, #10
 1045 000a FB75     		strb	r3, [r7, #23]
 667:Generated_Source\PSoC5/LCD_Character_Display.c ****         
 668:Generated_Source\PSoC5/LCD_Character_Display.c ****         /* This API will output a decimal number as a string and that string will be 
 669:Generated_Source\PSoC5/LCD_Character_Display.c ****         * filled from end to start. Set Null termination character first.
 670:Generated_Source\PSoC5/LCD_Character_Display.c ****         */
 671:Generated_Source\PSoC5/LCD_Character_Display.c ****         number[digIndex] = (char8) '\0';
 1046              		.loc 1 671 0
 1047 000c FB7D     		ldrb	r3, [r7, #23]	@ zero_extendqisi2
 1048 000e 07F11802 		add	r2, r7, #24
 1049 0012 1344     		add	r3, r3, r2
 1050 0014 0022     		movs	r2, #0
 1051 0016 03F8102C 		strb	r2, [r3, #-16]
 672:Generated_Source\PSoC5/LCD_Character_Display.c ****         digIndex--;
 1052              		.loc 1 672 0
 1053 001a FB7D     		ldrb	r3, [r7, #23]	@ zero_extendqisi2
 1054 001c 013B     		subs	r3, r3, #1
 1055 001e FB75     		strb	r3, [r7, #23]
 673:Generated_Source\PSoC5/LCD_Character_Display.c ****         
 674:Generated_Source\PSoC5/LCD_Character_Display.c ****         /* Load these in reverse order */
 675:Generated_Source\PSoC5/LCD_Character_Display.c ****         while(value >= LCD_Character_Display_TEN)
 1056              		.loc 1 675 0
 1057 0020 1CE0     		b	.L47
 1058              	.L48:
 676:Generated_Source\PSoC5/LCD_Character_Display.c ****         {
 677:Generated_Source\PSoC5/LCD_Character_Display.c ****             /* Extract decimal digit, indexed by 'digIndex', from 'value' and
 678:Generated_Source\PSoC5/LCD_Character_Display.c ****             * convert it to ASCII character.
 679:Generated_Source\PSoC5/LCD_Character_Display.c ****             */
 680:Generated_Source\PSoC5/LCD_Character_Display.c ****             tmpDigit = (uint8) (((uint8) (value % LCD_Character_Display_TEN)) + (uint8) LCD_Charact
 1059              		.loc 1 680 0
 1060 0022 7968     		ldr	r1, [r7, #4]
 1061 0024 1E4B     		ldr	r3, .L49
 1062 0026 A3FB0123 		umull	r2, r3, r3, r1
 1063 002a DA08     		lsrs	r2, r3, #3
 1064 002c 1346     		mov	r3, r2
 1065 002e 9B00     		lsls	r3, r3, #2
 1066 0030 1344     		add	r3, r3, r2
 1067 0032 5B00     		lsls	r3, r3, #1
 1068 0034 CA1A     		subs	r2, r1, r3
 1069 0036 D3B2     		uxtb	r3, r2
 1070 0038 3033     		adds	r3, r3, #48
 1071 003a BB75     		strb	r3, [r7, #22]
 681:Generated_Source\PSoC5/LCD_Character_Display.c ****             
 682:Generated_Source\PSoC5/LCD_Character_Display.c ****             /* Temporary variable 'tmpDigit' is used to avoid Violation of MISRA rule 
 683:Generated_Source\PSoC5/LCD_Character_Display.c ****             * #10.3.
 684:Generated_Source\PSoC5/LCD_Character_Display.c ****             */
 685:Generated_Source\PSoC5/LCD_Character_Display.c ****             number[digIndex] = (char8) tmpDigit;
 1072              		.loc 1 685 0
 1073 003c FB7D     		ldrb	r3, [r7, #23]	@ zero_extendqisi2
 1074 003e 07F11802 		add	r2, r7, #24
 1075 0042 1344     		add	r3, r3, r2
 1076 0044 BA7D     		ldrb	r2, [r7, #22]
 1077 0046 03F8102C 		strb	r2, [r3, #-16]
 686:Generated_Source\PSoC5/LCD_Character_Display.c ****             value /= LCD_Character_Display_TEN;
 1078              		.loc 1 686 0
 1079 004a 7B68     		ldr	r3, [r7, #4]
ARM GAS  C:\Users\bmt\AppData\Local\Temp\ccPPvAfH.s 			page 32


 1080 004c 144A     		ldr	r2, .L49
 1081 004e A2FB0323 		umull	r2, r3, r2, r3
 1082 0052 DB08     		lsrs	r3, r3, #3
 1083 0054 7B60     		str	r3, [r7, #4]
 687:Generated_Source\PSoC5/LCD_Character_Display.c ****             digIndex--;
 1084              		.loc 1 687 0
 1085 0056 FB7D     		ldrb	r3, [r7, #23]	@ zero_extendqisi2
 1086 0058 013B     		subs	r3, r3, #1
 1087 005a FB75     		strb	r3, [r7, #23]
 1088              	.L47:
 675:Generated_Source\PSoC5/LCD_Character_Display.c ****         {
 1089              		.loc 1 675 0
 1090 005c 7B68     		ldr	r3, [r7, #4]
 1091 005e 092B     		cmp	r3, #9
 1092 0060 DFD8     		bhi	.L48
 688:Generated_Source\PSoC5/LCD_Character_Display.c ****         }
 689:Generated_Source\PSoC5/LCD_Character_Display.c ****         
 690:Generated_Source\PSoC5/LCD_Character_Display.c ****         /* Extract last decimal digit 'digIndex', from the 'value' and convert it
 691:Generated_Source\PSoC5/LCD_Character_Display.c ****         * to ASCII character.
 692:Generated_Source\PSoC5/LCD_Character_Display.c ****         */
 693:Generated_Source\PSoC5/LCD_Character_Display.c ****         tmpDigit = (uint8) (((uint8)(value % LCD_Character_Display_TEN)) + (uint8) LCD_Character_Di
 1093              		.loc 1 693 0
 1094 0062 7968     		ldr	r1, [r7, #4]
 1095 0064 0E4B     		ldr	r3, .L49
 1096 0066 A3FB0123 		umull	r2, r3, r3, r1
 1097 006a DA08     		lsrs	r2, r3, #3
 1098 006c 1346     		mov	r3, r2
 1099 006e 9B00     		lsls	r3, r3, #2
 1100 0070 1344     		add	r3, r3, r2
 1101 0072 5B00     		lsls	r3, r3, #1
 1102 0074 CA1A     		subs	r2, r1, r3
 1103 0076 D3B2     		uxtb	r3, r2
 1104 0078 3033     		adds	r3, r3, #48
 1105 007a BB75     		strb	r3, [r7, #22]
 694:Generated_Source\PSoC5/LCD_Character_Display.c ****         number[digIndex] = (char8) tmpDigit;
 1106              		.loc 1 694 0
 1107 007c FB7D     		ldrb	r3, [r7, #23]	@ zero_extendqisi2
 1108 007e 07F11802 		add	r2, r7, #24
 1109 0082 1344     		add	r3, r3, r2
 1110 0084 BA7D     		ldrb	r2, [r7, #22]
 1111 0086 03F8102C 		strb	r2, [r3, #-16]
 695:Generated_Source\PSoC5/LCD_Character_Display.c **** 
 696:Generated_Source\PSoC5/LCD_Character_Display.c ****         /* Print out number */
 697:Generated_Source\PSoC5/LCD_Character_Display.c ****         LCD_Character_Display_PrintString(&number[digIndex]);
 1112              		.loc 1 697 0
 1113 008a FB7D     		ldrb	r3, [r7, #23]	@ zero_extendqisi2
 1114 008c 07F10802 		add	r2, r7, #8
 1115 0090 1344     		add	r3, r3, r2
 1116 0092 1846     		mov	r0, r3
 1117 0094 FFF7FEFF 		bl	LCD_Character_Display_PrintString
 698:Generated_Source\PSoC5/LCD_Character_Display.c ****     }
 1118              		.loc 1 698 0
 1119 0098 1837     		adds	r7, r7, #24
 1120              		.cfi_def_cfa_offset 8
 1121 009a BD46     		mov	sp, r7
 1122              		.cfi_def_cfa_register 13
 1123              		@ sp needed
ARM GAS  C:\Users\bmt\AppData\Local\Temp\ccPPvAfH.s 			page 33


 1124 009c 80BD     		pop	{r7, pc}
 1125              	.L50:
 1126 009e 00BF     		.align	2
 1127              	.L49:
 1128 00a0 CDCCCCCC 		.word	-858993459
 1129              		.cfi_endproc
 1130              	.LFE15:
 1131              		.size	LCD_Character_Display_PrintU32Number, .-LCD_Character_Display_PrintU32Number
 1132              		.section	.rodata
 1133              		.align	2
 1134              		.type	LCD_Character_Display_hex.4905, %object
 1135              		.size	LCD_Character_Display_hex.4905, 16
 1136              	LCD_Character_Display_hex.4905:
 1137 0000 30313233 		.ascii	"0123456789ABCDEF"
 1137      34353637 
 1137      38394142 
 1137      43444546 
 1138              		.text
 1139              	.Letext0:
 1140              		.file 2 "Generated_Source\\PSoC5\\cytypes.h"