ARM GAS  C:\Users\bmt\AppData\Local\Temp\ccBAADyQ.s 			page 1


   1              		.syntax unified
   2              		.cpu cortex-m3
   3              		.fpu softvfp
   4              		.eabi_attribute 20, 1
   5              		.eabi_attribute 21, 1
   6              		.eabi_attribute 23, 3
   7              		.eabi_attribute 24, 1
   8              		.eabi_attribute 25, 1
   9              		.eabi_attribute 26, 1
  10              		.eabi_attribute 30, 6
  11              		.eabi_attribute 34, 1
  12              		.eabi_attribute 18, 4
  13              		.thumb
  14              		.file	"LCD_Character_Display_PM.c"
  15              		.text
  16              	.Ltext0:
  17              		.cfi_sections	.debug_frame
  18              		.bss
  19              		.align	2
  20              	LCD_Character_Display_backup:
  21 0000 00       		.space	1
  22 0001 000000   		.section	.text.LCD_Character_Display_SaveConfig,"ax",%progbits
  23              		.align	2
  24              		.global	LCD_Character_Display_SaveConfig
  25              		.thumb
  26              		.thumb_func
  27              		.type	LCD_Character_Display_SaveConfig, %function
  28              	LCD_Character_Display_SaveConfig:
  29              	.LFB0:
  30              		.file 1 "Generated_Source\\PSoC5\\LCD_Character_Display_PM.c"
   1:Generated_Source\PSoC5/LCD_Character_Display_PM.c **** /*******************************************************************************
   2:Generated_Source\PSoC5/LCD_Character_Display_PM.c **** * File Name: LCD_Character_Display_PM.c
   3:Generated_Source\PSoC5/LCD_Character_Display_PM.c **** * Version 2.20
   4:Generated_Source\PSoC5/LCD_Character_Display_PM.c **** *
   5:Generated_Source\PSoC5/LCD_Character_Display_PM.c **** * Description:
   6:Generated_Source\PSoC5/LCD_Character_Display_PM.c **** *  This file provides the API source code for the Static Segment LCD component.
   7:Generated_Source\PSoC5/LCD_Character_Display_PM.c **** *
   8:Generated_Source\PSoC5/LCD_Character_Display_PM.c **** * Note:
   9:Generated_Source\PSoC5/LCD_Character_Display_PM.c **** *
  10:Generated_Source\PSoC5/LCD_Character_Display_PM.c **** ********************************************************************************
  11:Generated_Source\PSoC5/LCD_Character_Display_PM.c **** * Copyright 2008-2014, Cypress Semiconductor Corporation.  All rights reserved.
  12:Generated_Source\PSoC5/LCD_Character_Display_PM.c **** * You may use this file only in accordance with the license, terms, conditions,
  13:Generated_Source\PSoC5/LCD_Character_Display_PM.c **** * disclaimers, and limitations in the end user license agreement accompanying
  14:Generated_Source\PSoC5/LCD_Character_Display_PM.c **** * the software package with which this file was provided.
  15:Generated_Source\PSoC5/LCD_Character_Display_PM.c **** *******************************************************************************/
  16:Generated_Source\PSoC5/LCD_Character_Display_PM.c **** 
  17:Generated_Source\PSoC5/LCD_Character_Display_PM.c **** #include "LCD_Character_Display.h"
  18:Generated_Source\PSoC5/LCD_Character_Display_PM.c **** 
  19:Generated_Source\PSoC5/LCD_Character_Display_PM.c **** 
  20:Generated_Source\PSoC5/LCD_Character_Display_PM.c **** static LCD_Character_Display_BACKUP_STRUCT LCD_Character_Display_backup;
  21:Generated_Source\PSoC5/LCD_Character_Display_PM.c **** 
  22:Generated_Source\PSoC5/LCD_Character_Display_PM.c **** 
  23:Generated_Source\PSoC5/LCD_Character_Display_PM.c **** /*******************************************************************************
  24:Generated_Source\PSoC5/LCD_Character_Display_PM.c **** * Function Name: LCD_Character_Display_SaveConfig
  25:Generated_Source\PSoC5/LCD_Character_Display_PM.c **** ********************************************************************************
  26:Generated_Source\PSoC5/LCD_Character_Display_PM.c **** *
  27:Generated_Source\PSoC5/LCD_Character_Display_PM.c **** * Summary:
ARM GAS  C:\Users\bmt\AppData\Local\Temp\ccBAADyQ.s 			page 2


  28:Generated_Source\PSoC5/LCD_Character_Display_PM.c **** *  Does nothing, provided for consistency.
  29:Generated_Source\PSoC5/LCD_Character_Display_PM.c **** *
  30:Generated_Source\PSoC5/LCD_Character_Display_PM.c **** * Parameters:
  31:Generated_Source\PSoC5/LCD_Character_Display_PM.c **** *  None.
  32:Generated_Source\PSoC5/LCD_Character_Display_PM.c **** *
  33:Generated_Source\PSoC5/LCD_Character_Display_PM.c **** * Return:
  34:Generated_Source\PSoC5/LCD_Character_Display_PM.c **** *  None.
  35:Generated_Source\PSoC5/LCD_Character_Display_PM.c **** *
  36:Generated_Source\PSoC5/LCD_Character_Display_PM.c **** *******************************************************************************/
  37:Generated_Source\PSoC5/LCD_Character_Display_PM.c **** void LCD_Character_Display_SaveConfig(void) 
  38:Generated_Source\PSoC5/LCD_Character_Display_PM.c **** {
  31              		.loc 1 38 0
  32              		.cfi_startproc
  33              		@ args = 0, pretend = 0, frame = 0
  34              		@ frame_needed = 1, uses_anonymous_args = 0
  35              		@ link register save eliminated.
  36 0000 80B4     		push	{r7}
  37              		.cfi_def_cfa_offset 4
  38              		.cfi_offset 7, -4
  39 0002 00AF     		add	r7, sp, #0
  40              		.cfi_def_cfa_register 7
  39:Generated_Source\PSoC5/LCD_Character_Display_PM.c **** }
  41              		.loc 1 39 0
  42 0004 BD46     		mov	sp, r7
  43              		.cfi_def_cfa_register 13
  44              		@ sp needed
  45 0006 5DF8047B 		ldr	r7, [sp], #4
  46              		.cfi_restore 7
  47              		.cfi_def_cfa_offset 0
  48 000a 7047     		bx	lr
  49              		.cfi_endproc
  50              	.LFE0:
  51              		.size	LCD_Character_Display_SaveConfig, .-LCD_Character_Display_SaveConfig
  52              		.section	.text.LCD_Character_Display_RestoreConfig,"ax",%progbits
  53              		.align	2
  54              		.global	LCD_Character_Display_RestoreConfig
  55              		.thumb
  56              		.thumb_func
  57              		.type	LCD_Character_Display_RestoreConfig, %function
  58              	LCD_Character_Display_RestoreConfig:
  59              	.LFB1:
  40:Generated_Source\PSoC5/LCD_Character_Display_PM.c **** 
  41:Generated_Source\PSoC5/LCD_Character_Display_PM.c **** 
  42:Generated_Source\PSoC5/LCD_Character_Display_PM.c **** /*******************************************************************************
  43:Generated_Source\PSoC5/LCD_Character_Display_PM.c **** * Function Name: LCD_Character_Display_RestoreConfig
  44:Generated_Source\PSoC5/LCD_Character_Display_PM.c **** ********************************************************************************
  45:Generated_Source\PSoC5/LCD_Character_Display_PM.c **** *
  46:Generated_Source\PSoC5/LCD_Character_Display_PM.c **** * Summary:
  47:Generated_Source\PSoC5/LCD_Character_Display_PM.c **** *  Does nothing, provided for consistency.
  48:Generated_Source\PSoC5/LCD_Character_Display_PM.c **** *
  49:Generated_Source\PSoC5/LCD_Character_Display_PM.c **** * Parameters:
  50:Generated_Source\PSoC5/LCD_Character_Display_PM.c **** *  None.
  51:Generated_Source\PSoC5/LCD_Character_Display_PM.c **** *
  52:Generated_Source\PSoC5/LCD_Character_Display_PM.c **** * Return:
  53:Generated_Source\PSoC5/LCD_Character_Display_PM.c **** *  None.
  54:Generated_Source\PSoC5/LCD_Character_Display_PM.c **** *
  55:Generated_Source\PSoC5/LCD_Character_Display_PM.c **** *******************************************************************************/
ARM GAS  C:\Users\bmt\AppData\Local\Temp\ccBAADyQ.s 			page 3


  56:Generated_Source\PSoC5/LCD_Character_Display_PM.c **** void LCD_Character_Display_RestoreConfig(void) 
  57:Generated_Source\PSoC5/LCD_Character_Display_PM.c **** {
  60              		.loc 1 57 0
  61              		.cfi_startproc
  62              		@ args = 0, pretend = 0, frame = 0
  63              		@ frame_needed = 1, uses_anonymous_args = 0
  64              		@ link register save eliminated.
  65 0000 80B4     		push	{r7}
  66              		.cfi_def_cfa_offset 4
  67              		.cfi_offset 7, -4
  68 0002 00AF     		add	r7, sp, #0
  69              		.cfi_def_cfa_register 7
  58:Generated_Source\PSoC5/LCD_Character_Display_PM.c **** }
  70              		.loc 1 58 0
  71 0004 BD46     		mov	sp, r7
  72              		.cfi_def_cfa_register 13
  73              		@ sp needed
  74 0006 5DF8047B 		ldr	r7, [sp], #4
  75              		.cfi_restore 7
  76              		.cfi_def_cfa_offset 0
  77 000a 7047     		bx	lr
  78              		.cfi_endproc
  79              	.LFE1:
  80              		.size	LCD_Character_Display_RestoreConfig, .-LCD_Character_Display_RestoreConfig
  81              		.section	.text.LCD_Character_Display_Sleep,"ax",%progbits
  82              		.align	2
  83              		.global	LCD_Character_Display_Sleep
  84              		.thumb
  85              		.thumb_func
  86              		.type	LCD_Character_Display_Sleep, %function
  87              	LCD_Character_Display_Sleep:
  88              	.LFB2:
  59:Generated_Source\PSoC5/LCD_Character_Display_PM.c **** 
  60:Generated_Source\PSoC5/LCD_Character_Display_PM.c **** 
  61:Generated_Source\PSoC5/LCD_Character_Display_PM.c **** /*******************************************************************************
  62:Generated_Source\PSoC5/LCD_Character_Display_PM.c **** * Function Name: LCD_Character_Display_Sleep
  63:Generated_Source\PSoC5/LCD_Character_Display_PM.c **** ********************************************************************************
  64:Generated_Source\PSoC5/LCD_Character_Display_PM.c **** *
  65:Generated_Source\PSoC5/LCD_Character_Display_PM.c **** * Summary:
  66:Generated_Source\PSoC5/LCD_Character_Display_PM.c **** *  Prepares the component for entering the sleep mode.
  67:Generated_Source\PSoC5/LCD_Character_Display_PM.c **** *
  68:Generated_Source\PSoC5/LCD_Character_Display_PM.c **** * Parameters:
  69:Generated_Source\PSoC5/LCD_Character_Display_PM.c **** *  None.
  70:Generated_Source\PSoC5/LCD_Character_Display_PM.c **** *
  71:Generated_Source\PSoC5/LCD_Character_Display_PM.c **** * Return:
  72:Generated_Source\PSoC5/LCD_Character_Display_PM.c **** *  None.
  73:Generated_Source\PSoC5/LCD_Character_Display_PM.c **** *
  74:Generated_Source\PSoC5/LCD_Character_Display_PM.c **** * Reentrant:
  75:Generated_Source\PSoC5/LCD_Character_Display_PM.c **** *  No.
  76:Generated_Source\PSoC5/LCD_Character_Display_PM.c **** *
  77:Generated_Source\PSoC5/LCD_Character_Display_PM.c **** *******************************************************************************/
  78:Generated_Source\PSoC5/LCD_Character_Display_PM.c **** void LCD_Character_Display_Sleep(void) 
  79:Generated_Source\PSoC5/LCD_Character_Display_PM.c **** {
  89              		.loc 1 79 0
  90              		.cfi_startproc
  91              		@ args = 0, pretend = 0, frame = 0
  92              		@ frame_needed = 1, uses_anonymous_args = 0
ARM GAS  C:\Users\bmt\AppData\Local\Temp\ccBAADyQ.s 			page 4


  93 0000 80B5     		push	{r7, lr}
  94              		.cfi_def_cfa_offset 8
  95              		.cfi_offset 7, -8
  96              		.cfi_offset 14, -4
  97 0002 00AF     		add	r7, sp, #0
  98              		.cfi_def_cfa_register 7
  80:Generated_Source\PSoC5/LCD_Character_Display_PM.c ****     LCD_Character_Display_backup.enableState = LCD_Character_Display_enableState;
  99              		.loc 1 80 0
 100 0004 044B     		ldr	r3, .L4
 101 0006 1A78     		ldrb	r2, [r3]	@ zero_extendqisi2
 102 0008 044B     		ldr	r3, .L4+4
 103 000a 1A70     		strb	r2, [r3]
  81:Generated_Source\PSoC5/LCD_Character_Display_PM.c ****     LCD_Character_Display_SaveConfig();
 104              		.loc 1 81 0
 105 000c FFF7FEFF 		bl	LCD_Character_Display_SaveConfig
  82:Generated_Source\PSoC5/LCD_Character_Display_PM.c ****     LCD_Character_Display_Stop();
 106              		.loc 1 82 0
 107 0010 FFF7FEFF 		bl	LCD_Character_Display_Stop
  83:Generated_Source\PSoC5/LCD_Character_Display_PM.c **** }
 108              		.loc 1 83 0
 109 0014 80BD     		pop	{r7, pc}
 110              	.L5:
 111 0016 00BF     		.align	2
 112              	.L4:
 113 0018 00000000 		.word	LCD_Character_Display_enableState
 114 001c 00000000 		.word	LCD_Character_Display_backup
 115              		.cfi_endproc
 116              	.LFE2:
 117              		.size	LCD_Character_Display_Sleep, .-LCD_Character_Display_Sleep
 118              		.section	.text.LCD_Character_Display_Wakeup,"ax",%progbits
 119              		.align	2
 120              		.global	LCD_Character_Display_Wakeup
 121              		.thumb
 122              		.thumb_func
 123              		.type	LCD_Character_Display_Wakeup, %function
 124              	LCD_Character_Display_Wakeup:
 125              	.LFB3:
  84:Generated_Source\PSoC5/LCD_Character_Display_PM.c **** 
  85:Generated_Source\PSoC5/LCD_Character_Display_PM.c **** 
  86:Generated_Source\PSoC5/LCD_Character_Display_PM.c **** /*******************************************************************************
  87:Generated_Source\PSoC5/LCD_Character_Display_PM.c **** * Function Name: LCD_Character_Display_Wakeup
  88:Generated_Source\PSoC5/LCD_Character_Display_PM.c **** ********************************************************************************
  89:Generated_Source\PSoC5/LCD_Character_Display_PM.c **** *
  90:Generated_Source\PSoC5/LCD_Character_Display_PM.c **** * Summary:
  91:Generated_Source\PSoC5/LCD_Character_Display_PM.c **** *  Wakes the component from sleep mode. Configures DMA and enables the component
  92:Generated_Source\PSoC5/LCD_Character_Display_PM.c **** *  for normal operation.
  93:Generated_Source\PSoC5/LCD_Character_Display_PM.c **** *
  94:Generated_Source\PSoC5/LCD_Character_Display_PM.c **** * Parameters:
  95:Generated_Source\PSoC5/LCD_Character_Display_PM.c **** *  LCD_Character_Display_enableState - Global variable.
  96:Generated_Source\PSoC5/LCD_Character_Display_PM.c **** *
  97:Generated_Source\PSoC5/LCD_Character_Display_PM.c **** * Return:
  98:Generated_Source\PSoC5/LCD_Character_Display_PM.c **** *  Status one of standard status for PSoC3 Component
  99:Generated_Source\PSoC5/LCD_Character_Display_PM.c **** *       CYRET_SUCCESS - Function completed successfully.
 100:Generated_Source\PSoC5/LCD_Character_Display_PM.c **** *       CYRET_LOCKED - The object was locked, already in use. Some of TDs or
 101:Generated_Source\PSoC5/LCD_Character_Display_PM.c **** *                      a channel already in use.
 102:Generated_Source\PSoC5/LCD_Character_Display_PM.c **** *
 103:Generated_Source\PSoC5/LCD_Character_Display_PM.c **** * Reentrant:
ARM GAS  C:\Users\bmt\AppData\Local\Temp\ccBAADyQ.s 			page 5


 104:Generated_Source\PSoC5/LCD_Character_Display_PM.c **** *  No.
 105:Generated_Source\PSoC5/LCD_Character_Display_PM.c **** *
 106:Generated_Source\PSoC5/LCD_Character_Display_PM.c **** *******************************************************************************/
 107:Generated_Source\PSoC5/LCD_Character_Display_PM.c **** void LCD_Character_Display_Wakeup(void) 
 108:Generated_Source\PSoC5/LCD_Character_Display_PM.c **** {
 126              		.loc 1 108 0
 127              		.cfi_startproc
 128              		@ args = 0, pretend = 0, frame = 0
 129              		@ frame_needed = 1, uses_anonymous_args = 0
 130 0000 80B5     		push	{r7, lr}
 131              		.cfi_def_cfa_offset 8
 132              		.cfi_offset 7, -8
 133              		.cfi_offset 14, -4
 134 0002 00AF     		add	r7, sp, #0
 135              		.cfi_def_cfa_register 7
 109:Generated_Source\PSoC5/LCD_Character_Display_PM.c ****     LCD_Character_Display_RestoreConfig();
 136              		.loc 1 109 0
 137 0004 FFF7FEFF 		bl	LCD_Character_Display_RestoreConfig
 110:Generated_Source\PSoC5/LCD_Character_Display_PM.c **** 
 111:Generated_Source\PSoC5/LCD_Character_Display_PM.c ****     if(LCD_Character_Display_backup.enableState == 1u)
 138              		.loc 1 111 0
 139 0008 034B     		ldr	r3, .L8
 140 000a 1B78     		ldrb	r3, [r3]	@ zero_extendqisi2
 141 000c 012B     		cmp	r3, #1
 142 000e 01D1     		bne	.L6
 112:Generated_Source\PSoC5/LCD_Character_Display_PM.c ****     {
 113:Generated_Source\PSoC5/LCD_Character_Display_PM.c ****         LCD_Character_Display_Enable();
 143              		.loc 1 113 0
 144 0010 FFF7FEFF 		bl	LCD_Character_Display_Enable
 145              	.L6:
 114:Generated_Source\PSoC5/LCD_Character_Display_PM.c ****     }
 115:Generated_Source\PSoC5/LCD_Character_Display_PM.c **** }
 146              		.loc 1 115 0
 147 0014 80BD     		pop	{r7, pc}
 148              	.L9:
 149 0016 00BF     		.align	2
 150              	.L8:
 151 0018 00000000 		.word	LCD_Character_Display_backup
 152              		.cfi_endproc
 153              	.LFE3:
 154              		.size	LCD_Character_Display_Wakeup, .-LCD_Character_Display_Wakeup
 155              		.text
 156              	.Letext0:
 157              		.file 2 "Generated_Source\\PSoC5\\cytypes.h"
 158              		.file 3 "Generated_Source\\PSoC5\\LCD_Character_Display.h"