ARM GAS  C:\Users\bmt\AppData\Local\Temp\ccPPvAfH.s 			page 1


   1              		.syntax unified
   2              		.cpu cortex-m3
   3              		.fpu softvfp
   4              		.eabi_attribute 20, 1
   5              		.eabi_attribute 21, 1
   6              		.eabi_attribute 23, 3
   7              		.eabi_attribute 24, 1
   8              		.eabi_attribute 25, 1
   9              		.eabi_attribute 26, 1
  10              		.eabi_attribute 30, 6
  11              		.eabi_attribute 34, 1
  12              		.eabi_attribute 18, 4
  13              		.thumb
  14              		.file	"LCD_Character_Display.c"
  15              		.text
  16              	.Ltext0:
  17              		.cfi_sections	.debug_frame
  18              		.global	LCD_Character_Display_enableState
  19              		.bss
  20              		.type	LCD_Character_Display_enableState, %object
  21              		.size	LCD_Character_Display_enableState, 1
  22              	LCD_Character_Display_enableState:
  23 0000 00       		.space	1
  24              		.global	LCD_Character_Display_initVar
  25              		.type	LCD_Character_Display_initVar, %object
  26              		.size	LCD_Character_Display_initVar, 1
  27              	LCD_Character_Display_initVar:
  28 0001 00       		.space	1
  29              		.section	.text.LCD_Character_Display_Init,"ax",%progbits
  30              		.align	2
  31              		.global	LCD_Character_Display_Init
  32              		.thumb
  33              		.thumb_func
  34              		.type	LCD_Character_Display_Init, %function
  35              	LCD_Character_Display_Init:
  36              	.LFB0:
  37              		.file 1 "Generated_Source\\PSoC5\\LCD_Character_Display.c"
   1:Generated_Source\PSoC5/LCD_Character_Display.c **** /*******************************************************************************
   2:Generated_Source\PSoC5/LCD_Character_Display.c **** * File Name: LCD_Character_Display.c
   3:Generated_Source\PSoC5/LCD_Character_Display.c **** * Version 2.20
   4:Generated_Source\PSoC5/LCD_Character_Display.c **** *
   5:Generated_Source\PSoC5/LCD_Character_Display.c **** * Description:
   6:Generated_Source\PSoC5/LCD_Character_Display.c **** *  This file provides source code for the Character LCD component's API.
   7:Generated_Source\PSoC5/LCD_Character_Display.c **** *
   8:Generated_Source\PSoC5/LCD_Character_Display.c **** * Note:
   9:Generated_Source\PSoC5/LCD_Character_Display.c **** *
  10:Generated_Source\PSoC5/LCD_Character_Display.c **** ********************************************************************************
  11:Generated_Source\PSoC5/LCD_Character_Display.c **** * Copyright 2008-2014, Cypress Semiconductor Corporation.  All rights reserved.
  12:Generated_Source\PSoC5/LCD_Character_Display.c **** * You may use this file only in accordance with the license, terms, conditions,
  13:Generated_Source\PSoC5/LCD_Character_Display.c **** * disclaimers, and limitations in the end user license agreement accompanying
  14:Generated_Source\PSoC5/LCD_Character_Display.c **** * the software package with which this file was provided.
  15:Generated_Source\PSoC5/LCD_Character_Display.c **** *******************************************************************************/
  16:Generated_Source\PSoC5/LCD_Character_Display.c **** 
  17:Generated_Source\PSoC5/LCD_Character_Display.c **** #include "CyLib.h"
  18:Generated_Source\PSoC5/LCD_Character_Display.c **** #include "LCD_Character_Display.h"
  19:Generated_Source\PSoC5/LCD_Character_Display.c **** 
  20:Generated_Source\PSoC5/LCD_Character_Display.c **** 
ARM GAS  C:\Users\bmt\AppData\Local\Temp\ccPPvAfH.s 			page 2


  21:Generated_Source\PSoC5/LCD_Character_Display.c **** static void LCD_Character_Display_WrDatNib(uint8 nibble) ;
  22:Generated_Source\PSoC5/LCD_Character_Display.c **** static void LCD_Character_Display_WrCntrlNib(uint8 nibble) ;
  23:Generated_Source\PSoC5/LCD_Character_Display.c **** 
  24:Generated_Source\PSoC5/LCD_Character_Display.c **** /* Stores state of component. Indicates whether component is or not
  25:Generated_Source\PSoC5/LCD_Character_Display.c **** * in enable state.
  26:Generated_Source\PSoC5/LCD_Character_Display.c **** */
  27:Generated_Source\PSoC5/LCD_Character_Display.c **** uint8 LCD_Character_Display_enableState = 0u;
  28:Generated_Source\PSoC5/LCD_Character_Display.c **** 
  29:Generated_Source\PSoC5/LCD_Character_Display.c **** uint8 LCD_Character_Display_initVar = 0u;
  30:Generated_Source\PSoC5/LCD_Character_Display.c **** 
  31:Generated_Source\PSoC5/LCD_Character_Display.c **** 
  32:Generated_Source\PSoC5/LCD_Character_Display.c **** /*******************************************************************************
  33:Generated_Source\PSoC5/LCD_Character_Display.c **** * Function Name: LCD_Character_Display_Init
  34:Generated_Source\PSoC5/LCD_Character_Display.c **** ********************************************************************************
  35:Generated_Source\PSoC5/LCD_Character_Display.c **** *
  36:Generated_Source\PSoC5/LCD_Character_Display.c **** * Summary:
  37:Generated_Source\PSoC5/LCD_Character_Display.c **** *  Performs initialization required for the components normal work.
  38:Generated_Source\PSoC5/LCD_Character_Display.c **** *  This function initializes the LCD hardware module as follows:
  39:Generated_Source\PSoC5/LCD_Character_Display.c **** *        Enables a 4-bit interface
  40:Generated_Source\PSoC5/LCD_Character_Display.c **** *        Clears the display
  41:Generated_Source\PSoC5/LCD_Character_Display.c **** *        Enables the auto cursor increment
  42:Generated_Source\PSoC5/LCD_Character_Display.c **** *        Resets the cursor to start position
  43:Generated_Source\PSoC5/LCD_Character_Display.c **** *  Also, it loads a custom character set to the LCD if it was defined in the customizer.
  44:Generated_Source\PSoC5/LCD_Character_Display.c **** *
  45:Generated_Source\PSoC5/LCD_Character_Display.c **** * Parameters:
  46:Generated_Source\PSoC5/LCD_Character_Display.c **** *  None.
  47:Generated_Source\PSoC5/LCD_Character_Display.c **** *
  48:Generated_Source\PSoC5/LCD_Character_Display.c **** * Return:
  49:Generated_Source\PSoC5/LCD_Character_Display.c **** *  None.
  50:Generated_Source\PSoC5/LCD_Character_Display.c **** *
  51:Generated_Source\PSoC5/LCD_Character_Display.c **** * Reentrant:
  52:Generated_Source\PSoC5/LCD_Character_Display.c **** *  No.
  53:Generated_Source\PSoC5/LCD_Character_Display.c **** *
  54:Generated_Source\PSoC5/LCD_Character_Display.c **** *******************************************************************************/
  55:Generated_Source\PSoC5/LCD_Character_Display.c **** void LCD_Character_Display_Init(void) 
  56:Generated_Source\PSoC5/LCD_Character_Display.c **** {
  38              		.loc 1 56 0
  39              		.cfi_startproc
  40              		@ args = 0, pretend = 0, frame = 0
  41              		@ frame_needed = 1, uses_anonymous_args = 0
  42 0000 80B5     		push	{r7, lr}
  43              		.cfi_def_cfa_offset 8
  44              		.cfi_offset 7, -8
  45              		.cfi_offset 14, -4
  46 0002 00AF     		add	r7, sp, #0
  47              		.cfi_def_cfa_register 7
  57:Generated_Source\PSoC5/LCD_Character_Display.c ****     /* INIT CODE */
  58:Generated_Source\PSoC5/LCD_Character_Display.c ****     CyDelay(40u);                                                        /* Delay 40 ms */
  48              		.loc 1 58 0
  49 0004 2820     		movs	r0, #40
  50 0006 FFF7FEFF 		bl	CyDelay
  59:Generated_Source\PSoC5/LCD_Character_Display.c ****     LCD_Character_Display_WrCntrlNib(LCD_Character_Display_DISPLAY_8_BIT_INIT);    /* Selects 8-bit
  51              		.loc 1 59 0
  52 000a 0320     		movs	r0, #3
  53 000c FFF7FEFF 		bl	LCD_Character_Display_WrCntrlNib
  60:Generated_Source\PSoC5/LCD_Character_Display.c ****     CyDelay(5u);                                                         /* Delay 5 ms */
  54              		.loc 1 60 0
ARM GAS  C:\Users\bmt\AppData\Local\Temp\ccPPvAfH.s 			page 3


  55 0010 0520     		movs	r0, #5
  56 0012 FFF7FEFF 		bl	CyDelay
  61:Generated_Source\PSoC5/LCD_Character_Display.c ****     LCD_Character_Display_WrCntrlNib(LCD_Character_Display_DISPLAY_8_BIT_INIT);    /* Selects 8-bit
  57              		.loc 1 61 0
  58 0016 0320     		movs	r0, #3
  59 0018 FFF7FEFF 		bl	LCD_Character_Display_WrCntrlNib
  62:Generated_Source\PSoC5/LCD_Character_Display.c ****     CyDelay(15u);                                                        /* Delay 15 ms */
  60              		.loc 1 62 0
  61 001c 0F20     		movs	r0, #15
  62 001e FFF7FEFF 		bl	CyDelay
  63:Generated_Source\PSoC5/LCD_Character_Display.c ****     LCD_Character_Display_WrCntrlNib(LCD_Character_Display_DISPLAY_8_BIT_INIT);    /* Selects 8-bit
  63              		.loc 1 63 0
  64 0022 0320     		movs	r0, #3
  65 0024 FFF7FEFF 		bl	LCD_Character_Display_WrCntrlNib
  64:Generated_Source\PSoC5/LCD_Character_Display.c ****     CyDelay(1u);                                                         /* Delay 1 ms */
  66              		.loc 1 64 0
  67 0028 0120     		movs	r0, #1
  68 002a FFF7FEFF 		bl	CyDelay
  65:Generated_Source\PSoC5/LCD_Character_Display.c ****     LCD_Character_Display_WrCntrlNib(LCD_Character_Display_DISPLAY_4_BIT_INIT);    /* Selects 4-bit
  69              		.loc 1 65 0
  70 002e 0220     		movs	r0, #2
  71 0030 FFF7FEFF 		bl	LCD_Character_Display_WrCntrlNib
  66:Generated_Source\PSoC5/LCD_Character_Display.c ****     CyDelay(5u);                                                         /* Delay 5 ms */
  72              		.loc 1 66 0
  73 0034 0520     		movs	r0, #5
  74 0036 FFF7FEFF 		bl	CyDelay
  67:Generated_Source\PSoC5/LCD_Character_Display.c **** 
  68:Generated_Source\PSoC5/LCD_Character_Display.c ****     LCD_Character_Display_WriteControl(LCD_Character_Display_CURSOR_AUTO_INCR_ON);    /* Incr Curso
  75              		.loc 1 68 0
  76 003a 0620     		movs	r0, #6
  77 003c FFF7FEFF 		bl	LCD_Character_Display_WriteControl
  69:Generated_Source\PSoC5/LCD_Character_Display.c ****     LCD_Character_Display_WriteControl(LCD_Character_Display_DISPLAY_CURSOR_ON);      /* Turn Displ
  78              		.loc 1 69 0
  79 0040 0E20     		movs	r0, #14
  80 0042 FFF7FEFF 		bl	LCD_Character_Display_WriteControl
  70:Generated_Source\PSoC5/LCD_Character_Display.c ****     LCD_Character_Display_WriteControl(LCD_Character_Display_DISPLAY_2_LINES_5x10);   /* 2 Lines by
  81              		.loc 1 70 0
  82 0046 2C20     		movs	r0, #44
  83 0048 FFF7FEFF 		bl	LCD_Character_Display_WriteControl
  71:Generated_Source\PSoC5/LCD_Character_Display.c ****     LCD_Character_Display_WriteControl(LCD_Character_Display_DISPLAY_CURSOR_OFF);     /* Turn Displ
  84              		.loc 1 71 0
  85 004c 0820     		movs	r0, #8
  86 004e FFF7FEFF 		bl	LCD_Character_Display_WriteControl
  72:Generated_Source\PSoC5/LCD_Character_Display.c ****     LCD_Character_Display_WriteControl(LCD_Character_Display_CLEAR_DISPLAY);          /* Clear LCD 
  87              		.loc 1 72 0
  88 0052 0120     		movs	r0, #1
  89 0054 FFF7FEFF 		bl	LCD_Character_Display_WriteControl
  73:Generated_Source\PSoC5/LCD_Character_Display.c ****     LCD_Character_Display_WriteControl(LCD_Character_Display_DISPLAY_ON_CURSOR_OFF);  /* Turn Displ
  90              		.loc 1 73 0
  91 0058 0C20     		movs	r0, #12
  92 005a FFF7FEFF 		bl	LCD_Character_Display_WriteControl
  74:Generated_Source\PSoC5/LCD_Character_Display.c ****     LCD_Character_Display_WriteControl(LCD_Character_Display_RESET_CURSOR_POSITION);  /* Set Cursor
  93              		.loc 1 74 0
  94 005e 0320     		movs	r0, #3
  95 0060 FFF7FEFF 		bl	LCD_Character_Display_WriteControl
  75:Generated_Source\PSoC5/LCD_Character_Display.c ****     CyDelay(5u);
  96              		.loc 1 75 0
ARM GAS  C:\Users\bmt\AppData\Local\Temp\ccPPvAfH.s 			page 4


  97 0064 0520     		movs	r0, #5
  98 0066 FFF7FEFF 		bl	CyDelay
  76:Generated_Source\PSoC5/LCD_Character_Display.c **** 
  77:Generated_Source\PSoC5/LCD_Character_Display.c ****     #if(LCD_Character_Display_CUSTOM_CHAR_SET != LCD_Character_Display_NONE)
  78:Generated_Source\PSoC5/LCD_Character_Display.c ****         LCD_Character_Display_LoadCustomFonts(LCD_Character_Display_customFonts);
  79:Generated_Source\PSoC5/LCD_Character_Display.c ****     #endif /* LCD_Character_Display_CUSTOM_CHAR_SET != LCD_Character_Display_NONE */
  80:Generated_Source\PSoC5/LCD_Character_Display.c **** }
  99              		.loc 1 80 0
 100 006a 80BD     		pop	{r7, pc}
 101              		.cfi_endproc
 102              	.LFE0:
 103              		.size	LCD_Character_Display_Init, .-LCD_Character_Display_Init
 104              		.section	.text.LCD_Character_Display_Enable,"ax",%progbits
 105              		.align	2
 106              		.global	LCD_Character_Display_Enable
 107              		.thumb
 108              		.thumb_func
 109              		.type	LCD_Character_Display_Enable, %function
 110              	LCD_Character_Display_Enable:
 111              	.LFB1:
  81:Generated_Source\PSoC5/LCD_Character_Display.c **** 
  82:Generated_Source\PSoC5/LCD_Character_Display.c **** 
  83:Generated_Source\PSoC5/LCD_Character_Display.c **** /*******************************************************************************
  84:Generated_Source\PSoC5/LCD_Character_Display.c **** * Function Name: LCD_Character_Display_Enable
  85:Generated_Source\PSoC5/LCD_Character_Display.c **** ********************************************************************************
  86:Generated_Source\PSoC5/LCD_Character_Display.c **** *
  87:Generated_Source\PSoC5/LCD_Character_Display.c **** * Summary:
  88:Generated_Source\PSoC5/LCD_Character_Display.c **** *  Turns on the display.
  89:Generated_Source\PSoC5/LCD_Character_Display.c **** *
  90:Generated_Source\PSoC5/LCD_Character_Display.c **** * Parameters:
  91:Generated_Source\PSoC5/LCD_Character_Display.c **** *  None.
  92:Generated_Source\PSoC5/LCD_Character_Display.c **** *
  93:Generated_Source\PSoC5/LCD_Character_Display.c **** * Return:
  94:Generated_Source\PSoC5/LCD_Character_Display.c **** *  None.
  95:Generated_Source\PSoC5/LCD_Character_Display.c **** *
  96:Generated_Source\PSoC5/LCD_Character_Display.c **** * Reentrant:
  97:Generated_Source\PSoC5/LCD_Character_Display.c **** *  No.
  98:Generated_Source\PSoC5/LCD_Character_Display.c **** *
  99:Generated_Source\PSoC5/LCD_Character_Display.c **** * Theory:
 100:Generated_Source\PSoC5/LCD_Character_Display.c **** *  This function has no effect when it is called the first time as
 101:Generated_Source\PSoC5/LCD_Character_Display.c **** *  LCD_Character_Display_Init() turns on the LCD.
 102:Generated_Source\PSoC5/LCD_Character_Display.c **** *
 103:Generated_Source\PSoC5/LCD_Character_Display.c **** *******************************************************************************/
 104:Generated_Source\PSoC5/LCD_Character_Display.c **** void LCD_Character_Display_Enable(void) 
 105:Generated_Source\PSoC5/LCD_Character_Display.c **** {
 112              		.loc 1 105 0
 113              		.cfi_startproc
 114              		@ args = 0, pretend = 0, frame = 0
 115              		@ frame_needed = 1, uses_anonymous_args = 0
 116 0000 80B5     		push	{r7, lr}
 117              		.cfi_def_cfa_offset 8
 118              		.cfi_offset 7, -8
 119              		.cfi_offset 14, -4
 120 0002 00AF     		add	r7, sp, #0
 121              		.cfi_def_cfa_register 7
 106:Generated_Source\PSoC5/LCD_Character_Display.c ****     LCD_Character_Display_DisplayOn();
 122              		.loc 1 106 0
ARM GAS  C:\Users\bmt\AppData\Local\Temp\ccPPvAfH.s 			page 5


 123 0004 0C20     		movs	r0, #12
 124 0006 FFF7FEFF 		bl	LCD_Character_Display_WriteControl
 107:Generated_Source\PSoC5/LCD_Character_Display.c ****     LCD_Character_Display_enableState = 1u;
 125              		.loc 1 107 0
 126 000a 024B     		ldr	r3, .L3
 127 000c 0122     		movs	r2, #1
 128 000e 1A70     		strb	r2, [r3]
 108:Generated_Source\PSoC5/LCD_Character_Display.c **** }
 129              		.loc 1 108 0
 130 0010 80BD     		pop	{r7, pc}
 131              	.L4:
 132 0012 00BF     		.align	2
 133              	.L3:
 134 0014 00000000 		.word	LCD_Character_Display_enableState
 135              		.cfi_endproc
 136              	.LFE1:
 137              		.size	LCD_Character_Display_Enable, .-LCD_Character_Display_Enable
 138              		.section	.text.LCD_Character_Display_Start,"ax",%progbits
 139              		.align	2
 140              		.global	LCD_Character_Display_Start
 141              		.thumb
 142              		.thumb_func
 143              		.type	LCD_Character_Display_Start, %function
 144              	LCD_Character_Display_Start:
 145              	.LFB2:
 109:Generated_Source\PSoC5/LCD_Character_Display.c **** 
 110:Generated_Source\PSoC5/LCD_Character_Display.c **** 
 111:Generated_Source\PSoC5/LCD_Character_Display.c **** /*******************************************************************************
 112:Generated_Source\PSoC5/LCD_Character_Display.c **** * Function Name: LCD_Character_Display_Start
 113:Generated_Source\PSoC5/LCD_Character_Display.c **** ********************************************************************************
 114:Generated_Source\PSoC5/LCD_Character_Display.c **** *
 115:Generated_Source\PSoC5/LCD_Character_Display.c **** * Summary:
 116:Generated_Source\PSoC5/LCD_Character_Display.c **** *  Performs initialization required for the components normal work.
 117:Generated_Source\PSoC5/LCD_Character_Display.c **** *  This function initializes the LCD hardware module as follows:
 118:Generated_Source\PSoC5/LCD_Character_Display.c **** *        Enables 4-bit interface
 119:Generated_Source\PSoC5/LCD_Character_Display.c **** *        Clears the display
 120:Generated_Source\PSoC5/LCD_Character_Display.c **** *        Enables auto cursor increment
 121:Generated_Source\PSoC5/LCD_Character_Display.c **** *        Resets the cursor to start position
 122:Generated_Source\PSoC5/LCD_Character_Display.c **** *  Also, it loads a custom character set to the LCD if it was defined in the customizer.
 123:Generated_Source\PSoC5/LCD_Character_Display.c **** *  If it was not the first call in this project, then it just turns on the
 124:Generated_Source\PSoC5/LCD_Character_Display.c **** *  display
 125:Generated_Source\PSoC5/LCD_Character_Display.c **** *
 126:Generated_Source\PSoC5/LCD_Character_Display.c **** *
 127:Generated_Source\PSoC5/LCD_Character_Display.c **** * Parameters:
 128:Generated_Source\PSoC5/LCD_Character_Display.c **** *  LCD_Character_Display_initVar - global variable.
 129:Generated_Source\PSoC5/LCD_Character_Display.c **** *
 130:Generated_Source\PSoC5/LCD_Character_Display.c **** * Return:
 131:Generated_Source\PSoC5/LCD_Character_Display.c **** *  LCD_Character_Display_initVar - global variable.
 132:Generated_Source\PSoC5/LCD_Character_Display.c **** *
 133:Generated_Source\PSoC5/LCD_Character_Display.c **** * Reentrant:
 134:Generated_Source\PSoC5/LCD_Character_Display.c **** *  No.
 135:Generated_Source\PSoC5/LCD_Character_Display.c **** *
 136:Generated_Source\PSoC5/LCD_Character_Display.c **** *******************************************************************************/
 137:Generated_Source\PSoC5/LCD_Character_Display.c **** void LCD_Character_Display_Start(void) 
 138:Generated_Source\PSoC5/LCD_Character_Display.c **** {
 146              		.loc 1 138 0
 147              		.cfi_startproc
ARM GAS  C:\Users\bmt\AppData\Local\Temp\ccPPvAfH.s 			page 6


 148              		@ args = 0, pretend = 0, frame = 0
 149              		@ frame_needed = 1, uses_anonymous_args = 0
 150 0000 80B5     		push	{r7, lr}
 151              		.cfi_def_cfa_offset 8
 152              		.cfi_offset 7, -8
 153              		.cfi_offset 14, -4
 154 0002 00AF     		add	r7, sp, #0
 155              		.cfi_def_cfa_register 7
 139:Generated_Source\PSoC5/LCD_Character_Display.c ****     /* If not initialized, perform initialization */
 140:Generated_Source\PSoC5/LCD_Character_Display.c ****     if(LCD_Character_Display_initVar == 0u)
 156              		.loc 1 140 0
 157 0004 054B     		ldr	r3, .L7
 158 0006 1B78     		ldrb	r3, [r3]	@ zero_extendqisi2
 159 0008 002B     		cmp	r3, #0
 160 000a 04D1     		bne	.L6
 141:Generated_Source\PSoC5/LCD_Character_Display.c ****     {
 142:Generated_Source\PSoC5/LCD_Character_Display.c ****         LCD_Character_Display_Init();
 161              		.loc 1 142 0
 162 000c FFF7FEFF 		bl	LCD_Character_Display_Init
 143:Generated_Source\PSoC5/LCD_Character_Display.c ****         LCD_Character_Display_initVar = 1u;
 163              		.loc 1 143 0
 164 0010 024B     		ldr	r3, .L7
 165 0012 0122     		movs	r2, #1
 166 0014 1A70     		strb	r2, [r3]
 167              	.L6:
 144:Generated_Source\PSoC5/LCD_Character_Display.c ****     }
 145:Generated_Source\PSoC5/LCD_Character_Display.c **** 
 146:Generated_Source\PSoC5/LCD_Character_Display.c ****     /* Turn on the LCD */
 147:Generated_Source\PSoC5/LCD_Character_Display.c ****     LCD_Character_Display_Enable();
 168              		.loc 1 147 0
 169 0016 FFF7FEFF 		bl	LCD_Character_Display_Enable
 148:Generated_Source\PSoC5/LCD_Character_Display.c **** }
 170              		.loc 1 148 0
 171 001a 80BD     		pop	{r7, pc}
 172              	.L8:
 173              		.align	2
 174              	.L7:
 175 001c 00000000 		.word	LCD_Character_Display_initVar
 176              		.cfi_endproc
 177              	.LFE2:
 178              		.size	LCD_Character_Display_Start, .-LCD_Character_Display_Start
 179              		.section	.text.LCD_Character_Display_Stop,"ax",%progbits
 180              		.align	2
 181              		.global	LCD_Character_Display_Stop
 182              		.thumb
 183              		.thumb_func
 184              		.type	LCD_Character_Display_Stop, %function
 185              	LCD_Character_Display_Stop:
 186              	.LFB3:
 149:Generated_Source\PSoC5/LCD_Character_Display.c **** 
 150:Generated_Source\PSoC5/LCD_Character_Display.c **** 
 151:Generated_Source\PSoC5/LCD_Character_Display.c **** /*******************************************************************************
 152:Generated_Source\PSoC5/LCD_Character_Display.c **** * Function Name: LCD_Character_Display_Stop
 153:Generated_Source\PSoC5/LCD_Character_Display.c **** ********************************************************************************
 154:Generated_Source\PSoC5/LCD_Character_Display.c **** *
 155:Generated_Source\PSoC5/LCD_Character_Display.c **** * Summary:
 156:Generated_Source\PSoC5/LCD_Character_Display.c **** *  Turns off the display of the LCD screen.
ARM GAS  C:\Users\bmt\AppData\Local\Temp\ccPPvAfH.s 			page 7


 157:Generated_Source\PSoC5/LCD_Character_Display.c **** *
 158:Generated_Source\PSoC5/LCD_Character_Display.c **** * Parameters:
 159:Generated_Source\PSoC5/LCD_Character_Display.c **** *  None.
 160:Generated_Source\PSoC5/LCD_Character_Display.c **** *
 161:Generated_Source\PSoC5/LCD_Character_Display.c **** * Return:
 162:Generated_Source\PSoC5/LCD_Character_Display.c **** *  None.
 163:Generated_Source\PSoC5/LCD_Character_Display.c **** *
 164:Generated_Source\PSoC5/LCD_Character_Display.c **** * Reentrant:
 165:Generated_Source\PSoC5/LCD_Character_Display.c **** *  No.
 166:Generated_Source\PSoC5/LCD_Character_Display.c **** *
 167:Generated_Source\PSoC5/LCD_Character_Display.c **** *******************************************************************************/
 168:Generated_Source\PSoC5/LCD_Character_Display.c **** void LCD_Character_Display_Stop(void) 
 169:Generated_Source\PSoC5/LCD_Character_Display.c **** {
 187              		.loc 1 169 0
 188              		.cfi_startproc
 189              		@ args = 0, pretend = 0, frame = 0
 190              		@ frame_needed = 1, uses_anonymous_args = 0
 191 0000 80B5     		push	{r7, lr}
 192              		.cfi_def_cfa_offset 8
 193              		.cfi_offset 7, -8
 194              		.cfi_offset 14, -4
 195 0002 00AF     		add	r7, sp, #0
 196              		.cfi_def_cfa_register 7
 170:Generated_Source\PSoC5/LCD_Character_Display.c ****     /* Calls LCD Off Macro */
 171:Generated_Source\PSoC5/LCD_Character_Display.c ****     LCD_Character_Display_DisplayOff();
 197              		.loc 1 171 0
 198 0004 0820     		movs	r0, #8
 199 0006 FFF7FEFF 		bl	LCD_Character_Display_WriteControl
 172:Generated_Source\PSoC5/LCD_Character_Display.c ****     LCD_Character_Display_enableState = 0u;
 200              		.loc 1 172 0
 201 000a 024B     		ldr	r3, .L10
 202 000c 0022     		movs	r2, #0
 203 000e 1A70     		strb	r2, [r3]
 173:Generated_Source\PSoC5/LCD_Character_Display.c **** }
 204              		.loc 1 173 0
 205 0010 80BD     		pop	{r7, pc}
 206              	.L11:
 207 0012 00BF     		.align	2
 208              	.L10:
 209 0014 00000000 		.word	LCD_Character_Display_enableState
 210              		.cfi_endproc
 211              	.LFE3:
 212              		.size	LCD_Character_Display_Stop, .-LCD_Character_Display_Stop
 213              		.section	.text.LCD_Character_Display_Position,"ax",%progbits
 214              		.align	2
 215              		.global	LCD_Character_Display_Position
 216              		.thumb
 217              		.thumb_func
 218              		.type	LCD_Character_Display_Position, %function
 219              	LCD_Character_Display_Position:
 220              	.LFB4:
 174:Generated_Source\PSoC5/LCD_Character_Display.c **** 
 175:Generated_Source\PSoC5/LCD_Character_Display.c **** 
 176:Generated_Source\PSoC5/LCD_Character_Display.c **** /*******************************************************************************
 177:Generated_Source\PSoC5/LCD_Character_Display.c **** *  Function Name: LCD_Character_Display_Position
 178:Generated_Source\PSoC5/LCD_Character_Display.c **** ********************************************************************************
 179:Generated_Source\PSoC5/LCD_Character_Display.c **** *
ARM GAS  C:\Users\bmt\AppData\Local\Temp\ccPPvAfH.s 			page 8


 180:Generated_Source\PSoC5/LCD_Character_Display.c **** * Summary:
 181:Generated_Source\PSoC5/LCD_Character_Display.c **** *  Moves the active cursor location to a point specified by the input arguments
 182:Generated_Source\PSoC5/LCD_Character_Display.c **** *
 183:Generated_Source\PSoC5/LCD_Character_Display.c **** * Parameters:
 184:Generated_Source\PSoC5/LCD_Character_Display.c **** *  row:    Specific row of LCD module to be written
 185:Generated_Source\PSoC5/LCD_Character_Display.c **** *  column: Column of LCD module to be written
 186:Generated_Source\PSoC5/LCD_Character_Display.c **** *
 187:Generated_Source\PSoC5/LCD_Character_Display.c **** * Return:
 188:Generated_Source\PSoC5/LCD_Character_Display.c **** *  None.
 189:Generated_Source\PSoC5/LCD_Character_Display.c **** *
 190:Generated_Source\PSoC5/LCD_Character_Display.c **** * Note:
 191:Generated_Source\PSoC5/LCD_Character_Display.c **** *  This only applies for LCD displays that use the 2X40 address mode.
 192:Generated_Source\PSoC5/LCD_Character_Display.c **** *  In this case Row 2 starts with a 0x28 offset from Row 1.
 193:Generated_Source\PSoC5/LCD_Character_Display.c **** *  When there are more than 2 rows, each row must be fewer than 20 characters.
 194:Generated_Source\PSoC5/LCD_Character_Display.c **** *
 195:Generated_Source\PSoC5/LCD_Character_Display.c **** *******************************************************************************/
 196:Generated_Source\PSoC5/LCD_Character_Display.c **** void LCD_Character_Display_Position(uint8 row, uint8 column) 
 197:Generated_Source\PSoC5/LCD_Character_Display.c **** {
 221              		.loc 1 197 0
 222              		.cfi_startproc
 223              		@ args = 0, pretend = 0, frame = 8
 224              		@ frame_needed = 1, uses_anonymous_args = 0
 225 0000 80B5     		push	{r7, lr}
 226              		.cfi_def_cfa_offset 8
 227              		.cfi_offset 7, -8
 228              		.cfi_offset 14, -4
 229 0002 82B0     		sub	sp, sp, #8
 230              		.cfi_def_cfa_offset 16
 231 0004 00AF     		add	r7, sp, #0
 232              		.cfi_def_cfa_register 7
 233 0006 0346     		mov	r3, r0
 234 0008 0A46     		mov	r2, r1
 235 000a FB71     		strb	r3, [r7, #7]
 236 000c 1346     		mov	r3, r2
 237 000e BB71     		strb	r3, [r7, #6]
 198:Generated_Source\PSoC5/LCD_Character_Display.c ****     switch (row)
 238              		.loc 1 198 0
 239 0010 FB79     		ldrb	r3, [r7, #7]	@ zero_extendqisi2
 240 0012 032B     		cmp	r3, #3
 241 0014 26D8     		bhi	.L20
 242 0016 01A2     		adr	r2, .L15
 243 0018 52F823F0 		ldr	pc, [r2, r3, lsl #2]
 244              		.p2align 2
 245              	.L15:
 246 001c 2D000000 		.word	.L14+1
 247 0020 3B000000 		.word	.L16+1
 248 0024 49000000 		.word	.L17+1
 249 0028 57000000 		.word	.L18+1
 250              		.p2align 1
 251              	.L14:
 199:Generated_Source\PSoC5/LCD_Character_Display.c ****     {
 200:Generated_Source\PSoC5/LCD_Character_Display.c ****         case (uint8)0:
 201:Generated_Source\PSoC5/LCD_Character_Display.c ****             LCD_Character_Display_WriteControl(LCD_Character_Display_ROW_0_START + column);
 252              		.loc 1 201 0
 253 002c BB79     		ldrb	r3, [r7, #6]
 254 002e 803B     		subs	r3, r3, #128
 255 0030 DBB2     		uxtb	r3, r3
ARM GAS  C:\Users\bmt\AppData\Local\Temp\ccPPvAfH.s 			page 9


 256 0032 1846     		mov	r0, r3
 257 0034 FFF7FEFF 		bl	LCD_Character_Display_WriteControl
 202:Generated_Source\PSoC5/LCD_Character_Display.c ****             break;
 258              		.loc 1 202 0
 259 0038 15E0     		b	.L12
 260              	.L16:
 203:Generated_Source\PSoC5/LCD_Character_Display.c ****         case (uint8) 1:
 204:Generated_Source\PSoC5/LCD_Character_Display.c ****             LCD_Character_Display_WriteControl(LCD_Character_Display_ROW_1_START + column);
 261              		.loc 1 204 0
 262 003a BB79     		ldrb	r3, [r7, #6]
 263 003c 403B     		subs	r3, r3, #64
 264 003e DBB2     		uxtb	r3, r3
 265 0040 1846     		mov	r0, r3
 266 0042 FFF7FEFF 		bl	LCD_Character_Display_WriteControl
 205:Generated_Source\PSoC5/LCD_Character_Display.c ****             break;
 267              		.loc 1 205 0
 268 0046 0EE0     		b	.L12
 269              	.L17:
 206:Generated_Source\PSoC5/LCD_Character_Display.c ****         case (uint8) 2:
 207:Generated_Source\PSoC5/LCD_Character_Display.c ****             LCD_Character_Display_WriteControl(LCD_Character_Display_ROW_2_START + column);
 270              		.loc 1 207 0
 271 0048 BB79     		ldrb	r3, [r7, #6]
 272 004a 6C3B     		subs	r3, r3, #108
 273 004c DBB2     		uxtb	r3, r3
 274 004e 1846     		mov	r0, r3
 275 0050 FFF7FEFF 		bl	LCD_Character_Display_WriteControl
 208:Generated_Source\PSoC5/LCD_Character_Display.c ****             break;
 276              		.loc 1 208 0
 277 0054 07E0     		b	.L12
 278              	.L18:
 209:Generated_Source\PSoC5/LCD_Character_Display.c ****         case (uint8) 3:
 210:Generated_Source\PSoC5/LCD_Character_Display.c ****             LCD_Character_Display_WriteControl(LCD_Character_Display_ROW_3_START + column);
 279              		.loc 1 210 0
 280 0056 BB79     		ldrb	r3, [r7, #6]
 281 0058 2C3B     		subs	r3, r3, #44
 282 005a DBB2     		uxtb	r3, r3
 283 005c 1846     		mov	r0, r3
 284 005e FFF7FEFF 		bl	LCD_Character_Display_WriteControl
 211:Generated_Source\PSoC5/LCD_Character_Display.c ****             break;
 285              		.loc 1 211 0
 286 0062 00E0     		b	.L12
 287              	.L20:
 212:Generated_Source\PSoC5/LCD_Character_Display.c ****         default:
 213:Generated_Source\PSoC5/LCD_Character_Display.c ****             /* if default case is hit, invalid row argument was passed.*/
 214:Generated_Source\PSoC5/LCD_Character_Display.c ****             break;
 288              		.loc 1 214 0
 289 0064 00BF     		nop
 290              	.L12:
 215:Generated_Source\PSoC5/LCD_Character_Display.c ****     }
 216:Generated_Source\PSoC5/LCD_Character_Display.c **** }
 291              		.loc 1 216 0
 292 0066 0837     		adds	r7, r7, #8
 293              		.cfi_def_cfa_offset 8
 294 0068 BD46     		mov	sp, r7
 295              		.cfi_def_cfa_register 13
 296              		@ sp needed
 297 006a 80BD     		pop	{r7, pc}
ARM GAS  C:\Users\bmt\AppData\Local\Temp\ccPPvAfH.s 			page 10


 298              		.cfi_endproc
 299              	.LFE4:
 300              		.size	LCD_Character_Display_Position, .-LCD_Character_Display_Position
 301              		.section	.text.LCD_Character_Display_PrintString,"ax",%progbits
 302              		.align	2
 303              		.global	LCD_Character_Display_PrintString
 304              		.thumb
 305              		.thumb_func
 306              		.type	LCD_Character_Display_PrintString, %function
 307              	LCD_Character_Display_PrintString:
 308              	.LFB5:
 217:Generated_Source\PSoC5/LCD_Character_Display.c **** 
 218:Generated_Source\PSoC5/LCD_Character_Display.c **** 
 219:Generated_Source\PSoC5/LCD_Character_Display.c **** /*******************************************************************************
 220:Generated_Source\PSoC5/LCD_Character_Display.c **** * Function Name: LCD_Character_Display_PrintString
 221:Generated_Source\PSoC5/LCD_Character_Display.c **** ********************************************************************************
 222:Generated_Source\PSoC5/LCD_Character_Display.c **** *
 223:Generated_Source\PSoC5/LCD_Character_Display.c **** * Summary:
 224:Generated_Source\PSoC5/LCD_Character_Display.c **** *  Writes a zero terminated string to the LCD.
 225:Generated_Source\PSoC5/LCD_Character_Display.c **** *
 226:Generated_Source\PSoC5/LCD_Character_Display.c **** * Parameters:
 227:Generated_Source\PSoC5/LCD_Character_Display.c **** *  string: Pointer to head of char8 array to be written to the LCD module
 228:Generated_Source\PSoC5/LCD_Character_Display.c **** *
 229:Generated_Source\PSoC5/LCD_Character_Display.c **** * Return:
 230:Generated_Source\PSoC5/LCD_Character_Display.c **** *  None.
 231:Generated_Source\PSoC5/LCD_Character_Display.c **** *
 232:Generated_Source\PSoC5/LCD_Character_Display.c **** *******************************************************************************/
 233:Generated_Source\PSoC5/LCD_Character_Display.c **** void LCD_Character_Display_PrintString(char8 const string[]) 
 234:Generated_Source\PSoC5/LCD_Character_Display.c **** {
 309              		.loc 1 234 0
 310              		.cfi_startproc
 311              		@ args = 0, pretend = 0, frame = 16
 312              		@ frame_needed = 1, uses_anonymous_args = 0
 313 0000 80B5     		push	{r7, lr}
 314              		.cfi_def_cfa_offset 8
 315              		.cfi_offset 7, -8
 316              		.cfi_offset 14, -4
 317 0002 84B0     		sub	sp, sp, #16
 318              		.cfi_def_cfa_offset 24
 319 0004 00AF     		add	r7, sp, #0
 320              		.cfi_def_cfa_register 7
 321 0006 7860     		str	r0, [r7, #4]
 235:Generated_Source\PSoC5/LCD_Character_Display.c ****     uint8 indexU8 = 1u;
 322              		.loc 1 235 0
 323 0008 0123     		movs	r3, #1
 324 000a FB73     		strb	r3, [r7, #15]
 236:Generated_Source\PSoC5/LCD_Character_Display.c ****     char8 current = *string;
 325              		.loc 1 236 0
 326 000c 7B68     		ldr	r3, [r7, #4]
 327 000e 1B78     		ldrb	r3, [r3]
 328 0010 BB73     		strb	r3, [r7, #14]
 237:Generated_Source\PSoC5/LCD_Character_Display.c **** 
 238:Generated_Source\PSoC5/LCD_Character_Display.c ****     /* Until null is reached, print next character */
 239:Generated_Source\PSoC5/LCD_Character_Display.c ****     while((char8) '\0' != current)
 329              		.loc 1 239 0
 330 0012 0BE0     		b	.L22
 331              	.L23:
ARM GAS  C:\Users\bmt\AppData\Local\Temp\ccPPvAfH.s 			page 11


 240:Generated_Source\PSoC5/LCD_Character_Display.c ****     {
 241:Generated_Source\PSoC5/LCD_Character_Display.c ****         LCD_Character_Display_WriteData((uint8)current);
 332              		.loc 1 241 0
 333 0014 BB7B     		ldrb	r3, [r7, #14]	@ zero_extendqisi2
 334 0016 1846     		mov	r0, r3
 335 0018 FFF7FEFF 		bl	LCD_Character_Display_WriteData
 242:Generated_Source\PSoC5/LCD_Character_Display.c ****         current = string[indexU8];
 336              		.loc 1 242 0
 337 001c FB7B     		ldrb	r3, [r7, #15]	@ zero_extendqisi2
 338 001e 7A68     		ldr	r2, [r7, #4]
 339 0020 1344     		add	r3, r3, r2
 340 0022 1B78     		ldrb	r3, [r3]
 341 0024 BB73     		strb	r3, [r7, #14]
 243:Generated_Source\PSoC5/LCD_Character_Display.c ****         indexU8++;
 342              		.loc 1 243 0
 343 0026 FB7B     		ldrb	r3, [r7, #15]	@ zero_extendqisi2
 344 0028 0133     		adds	r3, r3, #1
 345 002a FB73     		strb	r3, [r7, #15]
 346              	.L22:
 239:Generated_Source\PSoC5/LCD_Character_Display.c ****     {
 347              		.loc 1 239 0
 348 002c BB7B     		ldrb	r3, [r7, #14]	@ zero_extendqisi2
 349 002e 002B     		cmp	r3, #0
 350 0030 F0D1     		bne	.L23
 244:Generated_Source\PSoC5/LCD_Character_Display.c ****     }
 245:Generated_Source\PSoC5/LCD_Character_Display.c **** }
 351              		.loc 1 245 0
 352 0032 1037     		adds	r7, r7, #16
 353              		.cfi_def_cfa_offset 8
 354 0034 BD46     		mov	sp, r7
 355              		.cfi_def_cfa_register 13
 356              		@ sp needed
 357 0036 80BD     		pop	{r7, pc}
 358              		.cfi_endproc
 359              	.LFE5:
 360              		.size	LCD_Character_Display_PrintString, .-LCD_Character_Display_PrintString
 361              		.section	.text.LCD_Character_Display_PutChar,"ax",%progbits
 362              		.align	2
 363              		.global	LCD_Character_Display_PutChar
 364              		.thumb
 365              		.thumb_func
 366              		.type	LCD_Character_Display_PutChar, %function
 367              	LCD_Character_Display_PutChar:
 368              	.LFB6:
 246:Generated_Source\PSoC5/LCD_Character_Display.c **** 
 247:Generated_Source\PSoC5/LCD_Character_Display.c **** 
 248:Generated_Source\PSoC5/LCD_Character_Display.c **** /*******************************************************************************
 249:Generated_Source\PSoC5/LCD_Character_Display.c **** *  Function Name: LCD_Character_Display_PutChar
 250:Generated_Source\PSoC5/LCD_Character_Display.c **** ********************************************************************************
 251:Generated_Source\PSoC5/LCD_Character_Display.c **** *
 252:Generated_Source\PSoC5/LCD_Character_Display.c **** * Summary:
 253:Generated_Source\PSoC5/LCD_Character_Display.c **** *  Writes a single character to the current cursor position of the LCD module.
 254:Generated_Source\PSoC5/LCD_Character_Display.c **** *  Custom character names (_CUSTOM_0 through
 255:Generated_Source\PSoC5/LCD_Character_Display.c **** *  _CUSTOM_7) are acceptable as inputs.
 256:Generated_Source\PSoC5/LCD_Character_Display.c **** *
 257:Generated_Source\PSoC5/LCD_Character_Display.c **** * Parameters:
 258:Generated_Source\PSoC5/LCD_Character_Display.c **** *  character: Character to be written to LCD
ARM GAS  C:\Users\bmt\AppData\Local\Temp\ccPPvAfH.s 			page 12


 259:Generated_Source\PSoC5/LCD_Character_Display.c **** *
 260:Generated_Source\PSoC5/LCD_Character_Display.c **** * Return:
 261:Generated_Source\PSoC5/LCD_Character_Display.c **** *  None.
 262:Generated_Source\PSoC5/LCD_Character_Display.c **** *
 263:Generated_Source\PSoC5/LCD_Character_Display.c **** *******************************************************************************/
 264:Generated_Source\PSoC5/LCD_Character_Display.c **** void LCD_Character_Display_PutChar(char8 character) 
 265:Generated_Source\PSoC5/LCD_Character_Display.c **** {
 369              		.loc 1 265 0
 370              		.cfi_startproc
 371              		@ args = 0, pretend = 0, frame = 8
 372              		@ frame_needed = 1, uses_anonymous_args = 0
 373 0000 80B5     		push	{r7, lr}
 374              		.cfi_def_cfa_offset 8
 375              		.cfi_offset 7, -8
 376              		.cfi_offset 14, -4
 377 0002 82B0     		sub	sp, sp, #8
 378              		.cfi_def_cfa_offset 16
 379 0004 00AF     		add	r7, sp, #0
 380              		.cfi_def_cfa_register 7
 381 0006 0346     		mov	r3, r0
 382 0008 FB71     		strb	r3, [r7, #7]
 266:Generated_Source\PSoC5/LCD_Character_Display.c ****     LCD_Character_Display_WriteData((uint8)character);
 383              		.loc 1 266 0
 384 000a FB79     		ldrb	r3, [r7, #7]	@ zero_extendqisi2
 385 000c 1846     		mov	r0, r3
 386 000e FFF7FEFF 		bl	LCD_Character_Display_WriteData
 267:Generated_Source\PSoC5/LCD_Character_Display.c **** }
 387              		.loc 1 267 0
 388 0012 0837     		adds	r7, r7, #8
 389              		.cfi_def_cfa_offset 8
 390 0014 BD46     		mov	sp, r7
 391              		.cfi_def_cfa_register 13
 392              		@ sp needed
 393 0016 80BD     		pop	{r7, pc}
 394              		.cfi_endproc
 395              	.LFE6:
 396              		.size	LCD_Character_Display_PutChar, .-LCD_Character_Display_PutChar
 397              		.section	.text.LCD_Character_Display_WriteData,"ax",%progbits
 398              		.align	2
 399              		.global	LCD_Character_Display_WriteData
 400              		.thumb
 401              		.thumb_func
 402              		.type	LCD_Character_Display_WriteData, %function
 403              	LCD_Character_Display_WriteData:
 404              	.LFB7:
 268:Generated_Source\PSoC5/LCD_Character_Display.c **** 
 269:Generated_Source\PSoC5/LCD_Character_Display.c **** 
 270:Generated_Source\PSoC5/LCD_Character_Display.c **** /*******************************************************************************
 271:Generated_Source\PSoC5/LCD_Character_Display.c **** *  Function Name: LCD_Character_Display_WriteData
 272:Generated_Source\PSoC5/LCD_Character_Display.c **** ********************************************************************************
 273:Generated_Source\PSoC5/LCD_Character_Display.c **** *
 274:Generated_Source\PSoC5/LCD_Character_Display.c **** * Summary:
 275:Generated_Source\PSoC5/LCD_Character_Display.c **** *  Writes a data byte to the LCD module's Data Display RAM.
 276:Generated_Source\PSoC5/LCD_Character_Display.c **** *
 277:Generated_Source\PSoC5/LCD_Character_Display.c **** * Parameters:
 278:Generated_Source\PSoC5/LCD_Character_Display.c **** *  dByte: Byte to be written to the LCD module
 279:Generated_Source\PSoC5/LCD_Character_Display.c **** *
ARM GAS  C:\Users\bmt\AppData\Local\Temp\ccPPvAfH.s 			page 13


 280:Generated_Source\PSoC5/LCD_Character_Display.c **** * Return:
 281:Generated_Source\PSoC5/LCD_Character_Display.c **** *  None.
 282:Generated_Source\PSoC5/LCD_Character_Display.c **** *
 283:Generated_Source\PSoC5/LCD_Character_Display.c **** *******************************************************************************/
 284:Generated_Source\PSoC5/LCD_Character_Display.c **** void LCD_Character_Display_WriteData(uint8 dByte) 
 285:Generated_Source\PSoC5/LCD_Character_Display.c **** {
 405              		.loc 1 285 0
 406              		.cfi_startproc
 407              		@ args = 0, pretend = 0, frame = 16
 408              		@ frame_needed = 1, uses_anonymous_args = 0
 409 0000 80B5     		push	{r7, lr}
 410              		.cfi_def_cfa_offset 8
 411              		.cfi_offset 7, -8
 412              		.cfi_offset 14, -4
 413 0002 84B0     		sub	sp, sp, #16
 414              		.cfi_def_cfa_offset 24
 415 0004 00AF     		add	r7, sp, #0
 416              		.cfi_def_cfa_register 7
 417 0006 0346     		mov	r3, r0
 418 0008 FB71     		strb	r3, [r7, #7]
 286:Generated_Source\PSoC5/LCD_Character_Display.c ****     uint8 nibble;
 287:Generated_Source\PSoC5/LCD_Character_Display.c **** 
 288:Generated_Source\PSoC5/LCD_Character_Display.c ****     LCD_Character_Display_IsReady();
 419              		.loc 1 288 0
 420 000a FFF7FEFF 		bl	LCD_Character_Display_IsReady
 289:Generated_Source\PSoC5/LCD_Character_Display.c ****     nibble = dByte >> LCD_Character_Display_NIBBLE_SHIFT;
 421              		.loc 1 289 0
 422 000e FB79     		ldrb	r3, [r7, #7]	@ zero_extendqisi2
 423 0010 1B09     		lsrs	r3, r3, #4
 424 0012 FB73     		strb	r3, [r7, #15]
 290:Generated_Source\PSoC5/LCD_Character_Display.c **** 
 291:Generated_Source\PSoC5/LCD_Character_Display.c ****     /* Write high nibble */
 292:Generated_Source\PSoC5/LCD_Character_Display.c ****     LCD_Character_Display_WrDatNib(nibble);
 425              		.loc 1 292 0
 426 0014 FB7B     		ldrb	r3, [r7, #15]	@ zero_extendqisi2
 427 0016 1846     		mov	r0, r3
 428 0018 FFF7FEFF 		bl	LCD_Character_Display_WrDatNib
 293:Generated_Source\PSoC5/LCD_Character_Display.c **** 
 294:Generated_Source\PSoC5/LCD_Character_Display.c ****     nibble = dByte & LCD_Character_Display_NIBBLE_MASK;
 429              		.loc 1 294 0
 430 001c FB79     		ldrb	r3, [r7, #7]
 431 001e 03F00F03 		and	r3, r3, #15
 432 0022 FB73     		strb	r3, [r7, #15]
 295:Generated_Source\PSoC5/LCD_Character_Display.c ****     /* Write low nibble */
 296:Generated_Source\PSoC5/LCD_Character_Display.c ****     LCD_Character_Display_WrDatNib(nibble);
 433              		.loc 1 296 0
 434 0024 FB7B     		ldrb	r3, [r7, #15]	@ zero_extendqisi2
 435 0026 1846     		mov	r0, r3
 436 0028 FFF7FEFF 		bl	LCD_Character_Display_WrDatNib
 297:Generated_Source\PSoC5/LCD_Character_Display.c **** }
 437              		.loc 1 297 0
 438 002c 1037     		adds	r7, r7, #16
 439              		.cfi_def_cfa_offset 8
 440 002e BD46     		mov	sp, r7
 441              		.cfi_def_cfa_register 13
 442              		@ sp needed
 443 0030 80BD     		pop	{r7, pc}
ARM GAS  C:\Users\bmt\AppData\Local\Temp\ccPPvAfH.s 			page 14


 444              		.cfi_endproc
 445              	.LFE7:
 446              		.size	LCD_Character_Display_WriteData, .-LCD_Character_Display_WriteData
 447 0032 00BF     		.section	.text.LCD_Character_Display_WriteControl,"ax",%progbits
 448              		.align	2
 449              		.global	LCD_Character_Display_WriteControl
 450              		.thumb
 451              		.thumb_func
 452              		.type	LCD_Character_Display_WriteControl, %function
 453              	LCD_Character_Display_WriteControl:
 454              	.LFB8:
 298:Generated_Source\PSoC5/LCD_Character_Display.c **** 
 299:Generated_Source\PSoC5/LCD_Character_Display.c **** 
 300:Generated_Source\PSoC5/LCD_Character_Display.c **** /*******************************************************************************
 301:Generated_Source\PSoC5/LCD_Character_Display.c **** *  Function Name: LCD_Character_Display_WriteControl
 302:Generated_Source\PSoC5/LCD_Character_Display.c **** ********************************************************************************
 303:Generated_Source\PSoC5/LCD_Character_Display.c **** *
 304:Generated_Source\PSoC5/LCD_Character_Display.c **** * Summary:
 305:Generated_Source\PSoC5/LCD_Character_Display.c **** *  Writes a command byte to the LCD module.
 306:Generated_Source\PSoC5/LCD_Character_Display.c **** *
 307:Generated_Source\PSoC5/LCD_Character_Display.c **** * Parameters:
 308:Generated_Source\PSoC5/LCD_Character_Display.c **** *  cByte:  The byte to be written to theLCD module
 309:Generated_Source\PSoC5/LCD_Character_Display.c **** * 
 310:Generated_Source\PSoC5/LCD_Character_Display.c **** * Return:
 311:Generated_Source\PSoC5/LCD_Character_Display.c **** *  None.
 312:Generated_Source\PSoC5/LCD_Character_Display.c **** *
 313:Generated_Source\PSoC5/LCD_Character_Display.c **** *******************************************************************************/
 314:Generated_Source\PSoC5/LCD_Character_Display.c **** void LCD_Character_Display_WriteControl(uint8 cByte) 
 315:Generated_Source\PSoC5/LCD_Character_Display.c **** {
 455              		.loc 1 315 0
 456              		.cfi_startproc
 457              		@ args = 0, pretend = 0, frame = 16
 458              		@ frame_needed = 1, uses_anonymous_args = 0
 459 0000 80B5     		push	{r7, lr}
 460              		.cfi_def_cfa_offset 8
 461              		.cfi_offset 7, -8
 462              		.cfi_offset 14, -4
 463 0002 84B0     		sub	sp, sp, #16
 464              		.cfi_def_cfa_offset 24
 465 0004 00AF     		add	r7, sp, #0
 466              		.cfi_def_cfa_register 7
 467 0006 0346     		mov	r3, r0
 468 0008 FB71     		strb	r3, [r7, #7]
 316:Generated_Source\PSoC5/LCD_Character_Display.c ****     uint8 nibble;
 317:Generated_Source\PSoC5/LCD_Character_Display.c **** 
 318:Generated_Source\PSoC5/LCD_Character_Display.c ****     LCD_Character_Display_IsReady();
 469              		.loc 1 318 0
 470 000a FFF7FEFF 		bl	LCD_Character_Display_IsReady
 319:Generated_Source\PSoC5/LCD_Character_Display.c **** 
 320:Generated_Source\PSoC5/LCD_Character_Display.c ****     nibble = cByte >> LCD_Character_Display_NIBBLE_SHIFT;
 471              		.loc 1 320 0
 472 000e FB79     		ldrb	r3, [r7, #7]	@ zero_extendqisi2
 473 0010 1B09     		lsrs	r3, r3, #4
 474 0012 FB73     		strb	r3, [r7, #15]
 321:Generated_Source\PSoC5/LCD_Character_Display.c ****     
 322:Generated_Source\PSoC5/LCD_Character_Display.c ****     /* WrCntrlNib(High Nibble) */
 323:Generated_Source\PSoC5/LCD_Character_Display.c ****     LCD_Character_Display_WrCntrlNib(nibble);
ARM GAS  C:\Users\bmt\AppData\Local\Temp\ccPPvAfH.s 			page 15


 475              		.loc 1 323 0
 476 0014 FB7B     		ldrb	r3, [r7, #15]	@ zero_extendqisi2
 477 0016 1846     		mov	r0, r3
 478 0018 FFF7FEFF 		bl	LCD_Character_Display_WrCntrlNib
 324:Generated_Source\PSoC5/LCD_Character_Display.c ****     nibble = cByte & LCD_Character_Display_NIBBLE_MASK;
 479              		.loc 1 324 0
 480 001c FB79     		ldrb	r3, [r7, #7]
 481 001e 03F00F03 		and	r3, r3, #15
 482 0022 FB73     		strb	r3, [r7, #15]
 325:Generated_Source\PSoC5/LCD_Character_Display.c **** 
 326:Generated_Source\PSoC5/LCD_Character_Display.c ****     /* WrCntrlNib(Low Nibble) */
 327:Generated_Source\PSoC5/LCD_Character_Display.c ****     LCD_Character_Display_WrCntrlNib(nibble);
 483              		.loc 1 327 0
 484 0024 FB7B     		ldrb	r3, [r7, #15]	@ zero_extendqisi2
 485 0026 1846     		mov	r0, r3
 486 0028 FFF7FEFF 		bl	LCD_Character_Display_WrCntrlNib
 328:Generated_Source\PSoC5/LCD_Character_Display.c **** }
 487              		.loc 1 328 0
 488 002c 1037     		adds	r7, r7, #16
 489              		.cfi_def_cfa_offset 8
 490 002e BD46     		mov	sp, r7
 491              		.cfi_def_cfa_register 13
 492              		@ sp needed
 493 0030 80BD     		pop	{r7, pc}
 494              		.cfi_endproc
 495              	.LFE8:
 496              		.size	LCD_Character_Display_WriteControl, .-LCD_Character_Display_WriteControl
 497 0032 00BF     		.section	.text.LCD_Character_Display_IsReady,"ax",%progbits
 498              		.align	2
 499              		.global	LCD_Character_Display_IsReady
 500              		.thumb
 501              		.thumb_func
 502              		.type	LCD_Character_Display_IsReady, %function
 503              	LCD_Character_Display_IsReady:
 504              	.LFB9:
 329:Generated_Source\PSoC5/LCD_Character_Display.c **** 
 330:Generated_Source\PSoC5/LCD_Character_Display.c **** 
 331:Generated_Source\PSoC5/LCD_Character_Display.c **** /*******************************************************************************
 332:Generated_Source\PSoC5/LCD_Character_Display.c **** * Function Name: LCD_Character_Display_IsReady
 333:Generated_Source\PSoC5/LCD_Character_Display.c **** ********************************************************************************
 334:Generated_Source\PSoC5/LCD_Character_Display.c **** *
 335:Generated_Source\PSoC5/LCD_Character_Display.c **** * Summary:
 336:Generated_Source\PSoC5/LCD_Character_Display.c **** *  Polls the LCD until the ready bit is set or a timeout occurs.
 337:Generated_Source\PSoC5/LCD_Character_Display.c **** *
 338:Generated_Source\PSoC5/LCD_Character_Display.c **** * Parameters:
 339:Generated_Source\PSoC5/LCD_Character_Display.c **** *  None.
 340:Generated_Source\PSoC5/LCD_Character_Display.c **** *
 341:Generated_Source\PSoC5/LCD_Character_Display.c **** * Return:
 342:Generated_Source\PSoC5/LCD_Character_Display.c **** *  None.
 343:Generated_Source\PSoC5/LCD_Character_Display.c **** *
 344:Generated_Source\PSoC5/LCD_Character_Display.c **** * Note:
 345:Generated_Source\PSoC5/LCD_Character_Display.c **** *  Changes the pins to High-Z.
 346:Generated_Source\PSoC5/LCD_Character_Display.c **** *
 347:Generated_Source\PSoC5/LCD_Character_Display.c **** *******************************************************************************/
 348:Generated_Source\PSoC5/LCD_Character_Display.c **** void LCD_Character_Display_IsReady(void) 
 349:Generated_Source\PSoC5/LCD_Character_Display.c **** {
 505              		.loc 1 349 0
ARM GAS  C:\Users\bmt\AppData\Local\Temp\ccPPvAfH.s 			page 16


 506              		.cfi_startproc
 507              		@ args = 0, pretend = 0, frame = 8
 508              		@ frame_needed = 1, uses_anonymous_args = 0
 509 0000 80B5     		push	{r7, lr}
 510              		.cfi_def_cfa_offset 8
 511              		.cfi_offset 7, -8
 512              		.cfi_offset 14, -4
 513 0002 82B0     		sub	sp, sp, #8
 514              		.cfi_def_cfa_offset 16
 515 0004 00AF     		add	r7, sp, #0
 516              		.cfi_def_cfa_register 7
 350:Generated_Source\PSoC5/LCD_Character_Display.c ****     uint8 value;
 351:Generated_Source\PSoC5/LCD_Character_Display.c ****     uint32 timeout;
 352:Generated_Source\PSoC5/LCD_Character_Display.c ****     timeout = LCD_Character_Display_READY_DELAY;
 517              		.loc 1 352 0
 518 0006 4FF4CA73 		mov	r3, #404
 519 000a 7B60     		str	r3, [r7, #4]
 353:Generated_Source\PSoC5/LCD_Character_Display.c **** 
 354:Generated_Source\PSoC5/LCD_Character_Display.c ****     /* Clear LCD port*/
 355:Generated_Source\PSoC5/LCD_Character_Display.c ****     LCD_Character_Display_PORT_DR_REG &= ((uint8)(~LCD_Character_Display_PORT_MASK));
 520              		.loc 1 355 0
 521 000c 554A     		ldr	r2, .L31
 522 000e 554B     		ldr	r3, .L31
 523 0010 1B78     		ldrb	r3, [r3]
 524 0012 DBB2     		uxtb	r3, r3
 525 0014 23F07F03 		bic	r3, r3, #127
 526 0018 DBB2     		uxtb	r3, r3
 527 001a 1370     		strb	r3, [r2]
 356:Generated_Source\PSoC5/LCD_Character_Display.c **** 
 357:Generated_Source\PSoC5/LCD_Character_Display.c ****     /* PSoC4 has a little different from PSoC3/5 port/pin organization for setting Drive Modes.
 358:Generated_Source\PSoC5/LCD_Character_Display.c ****   
 359:Generated_Source\PSoC5/LCD_Character_Display.c ****     */
 360:Generated_Source\PSoC5/LCD_Character_Display.c ****     #if (CY_PSOC4)
 361:Generated_Source\PSoC5/LCD_Character_Display.c ****         
 362:Generated_Source\PSoC5/LCD_Character_Display.c ****         /* Mask off data pins to clear old values out */
 363:Generated_Source\PSoC5/LCD_Character_Display.c ****         value = LCD_Character_Display_PORT_PC_REG & ((uint32) (~ LCD_Character_Display_DM_DATA_MASK
 364:Generated_Source\PSoC5/LCD_Character_Display.c ****         /* Load in high Z values for data pins, others unchanged */
 365:Generated_Source\PSoC5/LCD_Character_Display.c ****         LCD_Character_Display_PORT_PC_REG = value | LCD_Character_Display_HIGH_Z_DATA_DM;
 366:Generated_Source\PSoC5/LCD_Character_Display.c **** 
 367:Generated_Source\PSoC5/LCD_Character_Display.c ****     #else
 368:Generated_Source\PSoC5/LCD_Character_Display.c ****     
 369:Generated_Source\PSoC5/LCD_Character_Display.c ****         /* Change Port to High-Z Status on data pins */
 370:Generated_Source\PSoC5/LCD_Character_Display.c **** 
 371:Generated_Source\PSoC5/LCD_Character_Display.c ****         /* Mask off data pins to clear old values out */
 372:Generated_Source\PSoC5/LCD_Character_Display.c ****         value = LCD_Character_Display_PORT_DM0_REG & ((uint8)(~LCD_Character_Display_DATA_MASK));
 528              		.loc 1 372 0
 529 001c 524B     		ldr	r3, .L31+4
 530 001e 1B78     		ldrb	r3, [r3]
 531 0020 DBB2     		uxtb	r3, r3
 532 0022 23F00F03 		bic	r3, r3, #15
 533 0026 FB70     		strb	r3, [r7, #3]
 373:Generated_Source\PSoC5/LCD_Character_Display.c ****         /* Load in high Z values for data pins, others unchanged */
 374:Generated_Source\PSoC5/LCD_Character_Display.c ****         LCD_Character_Display_PORT_DM0_REG = value | (LCD_Character_Display_HIGH_Z_DM0 & LCD_Charac
 534              		.loc 1 374 0
 535 0028 4F4A     		ldr	r2, .L31+4
 536 002a FB78     		ldrb	r3, [r7, #3]
 537 002c 43F00F03 		orr	r3, r3, #15
ARM GAS  C:\Users\bmt\AppData\Local\Temp\ccPPvAfH.s 			page 17


 538 0030 DBB2     		uxtb	r3, r3
 539 0032 1370     		strb	r3, [r2]
 375:Generated_Source\PSoC5/LCD_Character_Display.c **** 
 376:Generated_Source\PSoC5/LCD_Character_Display.c ****         /* Mask off data pins to clear old values out */
 377:Generated_Source\PSoC5/LCD_Character_Display.c ****         value = LCD_Character_Display_PORT_DM1_REG & ((uint8)(~LCD_Character_Display_DATA_MASK));
 540              		.loc 1 377 0
 541 0034 4D4B     		ldr	r3, .L31+8
 542 0036 1B78     		ldrb	r3, [r3]
 543 0038 DBB2     		uxtb	r3, r3
 544 003a 23F00F03 		bic	r3, r3, #15
 545 003e FB70     		strb	r3, [r7, #3]
 378:Generated_Source\PSoC5/LCD_Character_Display.c ****         /* Load in high Z values for data pins, others unchanged */
 379:Generated_Source\PSoC5/LCD_Character_Display.c ****         LCD_Character_Display_PORT_DM1_REG = value;
 546              		.loc 1 379 0
 547 0040 4A4A     		ldr	r2, .L31+8
 548 0042 FB78     		ldrb	r3, [r7, #3]
 549 0044 1370     		strb	r3, [r2]
 380:Generated_Source\PSoC5/LCD_Character_Display.c **** 
 381:Generated_Source\PSoC5/LCD_Character_Display.c ****         /* Mask off data pins to clear old values out */
 382:Generated_Source\PSoC5/LCD_Character_Display.c ****         value = LCD_Character_Display_PORT_DM2_REG & ((uint8)(~LCD_Character_Display_DATA_MASK));
 550              		.loc 1 382 0
 551 0046 4A4B     		ldr	r3, .L31+12
 552 0048 1B78     		ldrb	r3, [r3]
 553 004a DBB2     		uxtb	r3, r3
 554 004c 23F00F03 		bic	r3, r3, #15
 555 0050 FB70     		strb	r3, [r7, #3]
 383:Generated_Source\PSoC5/LCD_Character_Display.c ****         /* Load in high Z values for data pins, others unchanged */
 384:Generated_Source\PSoC5/LCD_Character_Display.c ****         LCD_Character_Display_PORT_DM2_REG = value;
 556              		.loc 1 384 0
 557 0052 474A     		ldr	r2, .L31+12
 558 0054 FB78     		ldrb	r3, [r7, #3]
 559 0056 1370     		strb	r3, [r2]
 385:Generated_Source\PSoC5/LCD_Character_Display.c ****     
 386:Generated_Source\PSoC5/LCD_Character_Display.c ****     #endif /* CY_PSOC4 */
 387:Generated_Source\PSoC5/LCD_Character_Display.c ****     
 388:Generated_Source\PSoC5/LCD_Character_Display.c ****     /* Make sure RS is low */
 389:Generated_Source\PSoC5/LCD_Character_Display.c ****     LCD_Character_Display_PORT_DR_REG &= ((uint8)(~LCD_Character_Display_RS));
 560              		.loc 1 389 0
 561 0058 424A     		ldr	r2, .L31
 562 005a 424B     		ldr	r3, .L31
 563 005c 1B78     		ldrb	r3, [r3]
 564 005e DBB2     		uxtb	r3, r3
 565 0060 23F02003 		bic	r3, r3, #32
 566 0064 DBB2     		uxtb	r3, r3
 567 0066 1370     		strb	r3, [r2]
 390:Generated_Source\PSoC5/LCD_Character_Display.c **** 
 391:Generated_Source\PSoC5/LCD_Character_Display.c ****     /* Set R/W high to read */
 392:Generated_Source\PSoC5/LCD_Character_Display.c ****     LCD_Character_Display_PORT_DR_REG |= LCD_Character_Display_RW;
 568              		.loc 1 392 0
 569 0068 3E4A     		ldr	r2, .L31
 570 006a 3E4B     		ldr	r3, .L31
 571 006c 1B78     		ldrb	r3, [r3]
 572 006e DBB2     		uxtb	r3, r3
 573 0070 43F04003 		orr	r3, r3, #64
 574 0074 DBB2     		uxtb	r3, r3
 575 0076 1370     		strb	r3, [r2]
 576              	.L30:
ARM GAS  C:\Users\bmt\AppData\Local\Temp\ccPPvAfH.s 			page 18


 393:Generated_Source\PSoC5/LCD_Character_Display.c **** 
 394:Generated_Source\PSoC5/LCD_Character_Display.c ****     do
 395:Generated_Source\PSoC5/LCD_Character_Display.c ****     {
 396:Generated_Source\PSoC5/LCD_Character_Display.c ****         /* 40 ns delay required before rising Enable and 500ns between neighbour Enables */
 397:Generated_Source\PSoC5/LCD_Character_Display.c ****         CyDelayUs(0u);
 577              		.loc 1 397 0
 578 0078 0020     		movs	r0, #0
 579 007a FFF7FEFF 		bl	CyDelayUs
 398:Generated_Source\PSoC5/LCD_Character_Display.c **** 
 399:Generated_Source\PSoC5/LCD_Character_Display.c ****         /* Set E high */
 400:Generated_Source\PSoC5/LCD_Character_Display.c ****         LCD_Character_Display_PORT_DR_REG |= LCD_Character_Display_E;
 580              		.loc 1 400 0
 581 007e 394A     		ldr	r2, .L31
 582 0080 384B     		ldr	r3, .L31
 583 0082 1B78     		ldrb	r3, [r3]
 584 0084 DBB2     		uxtb	r3, r3
 585 0086 43F01003 		orr	r3, r3, #16
 586 008a DBB2     		uxtb	r3, r3
 587 008c 1370     		strb	r3, [r2]
 401:Generated_Source\PSoC5/LCD_Character_Display.c **** 
 402:Generated_Source\PSoC5/LCD_Character_Display.c ****         /* 360 ns delay setup time for data pins */
 403:Generated_Source\PSoC5/LCD_Character_Display.c ****         CyDelayUs(1u);
 588              		.loc 1 403 0
 589 008e 0120     		movs	r0, #1
 590 0090 FFF7FEFF 		bl	CyDelayUs
 404:Generated_Source\PSoC5/LCD_Character_Display.c **** 
 405:Generated_Source\PSoC5/LCD_Character_Display.c ****         /* Get port state */
 406:Generated_Source\PSoC5/LCD_Character_Display.c ****         value = LCD_Character_Display_PORT_PS_REG;
 591              		.loc 1 406 0
 592 0094 374B     		ldr	r3, .L31+16
 593 0096 1B78     		ldrb	r3, [r3]
 594 0098 FB70     		strb	r3, [r7, #3]
 407:Generated_Source\PSoC5/LCD_Character_Display.c **** 
 408:Generated_Source\PSoC5/LCD_Character_Display.c ****         /* Set enable low */
 409:Generated_Source\PSoC5/LCD_Character_Display.c ****         LCD_Character_Display_PORT_DR_REG &= ((uint8)(~LCD_Character_Display_E));
 595              		.loc 1 409 0
 596 009a 324A     		ldr	r2, .L31
 597 009c 314B     		ldr	r3, .L31
 598 009e 1B78     		ldrb	r3, [r3]
 599 00a0 DBB2     		uxtb	r3, r3
 600 00a2 23F01003 		bic	r3, r3, #16
 601 00a6 DBB2     		uxtb	r3, r3
 602 00a8 1370     		strb	r3, [r2]
 410:Generated_Source\PSoC5/LCD_Character_Display.c **** 
 411:Generated_Source\PSoC5/LCD_Character_Display.c ****         /* This gives true delay between disabling Enable bit and polling Ready bit */
 412:Generated_Source\PSoC5/LCD_Character_Display.c ****         CyDelayUs(0u);
 603              		.loc 1 412 0
 604 00aa 0020     		movs	r0, #0
 605 00ac FFF7FEFF 		bl	CyDelayUs
 413:Generated_Source\PSoC5/LCD_Character_Display.c **** 
 414:Generated_Source\PSoC5/LCD_Character_Display.c ****         /* Extract ready bit */
 415:Generated_Source\PSoC5/LCD_Character_Display.c ****         value &= LCD_Character_Display_READY_BIT;
 606              		.loc 1 415 0
 607 00b0 FB78     		ldrb	r3, [r7, #3]
 608 00b2 03F00803 		and	r3, r3, #8
 609 00b6 FB70     		strb	r3, [r7, #3]
 416:Generated_Source\PSoC5/LCD_Character_Display.c **** 
ARM GAS  C:\Users\bmt\AppData\Local\Temp\ccPPvAfH.s 			page 19


 417:Generated_Source\PSoC5/LCD_Character_Display.c ****         /* Set E high as we in 4-bit interface we need extra operation */
 418:Generated_Source\PSoC5/LCD_Character_Display.c ****         LCD_Character_Display_PORT_DR_REG |= LCD_Character_Display_E;
 610              		.loc 1 418 0
 611 00b8 2A4A     		ldr	r2, .L31
 612 00ba 2A4B     		ldr	r3, .L31
 613 00bc 1B78     		ldrb	r3, [r3]
 614 00be DBB2     		uxtb	r3, r3
 615 00c0 43F01003 		orr	r3, r3, #16
 616 00c4 DBB2     		uxtb	r3, r3
 617 00c6 1370     		strb	r3, [r2]
 419:Generated_Source\PSoC5/LCD_Character_Display.c **** 
 420:Generated_Source\PSoC5/LCD_Character_Display.c ****         /* 360 ns delay setup time for data pins */
 421:Generated_Source\PSoC5/LCD_Character_Display.c ****         CyDelayUs(1u);
 618              		.loc 1 421 0
 619 00c8 0120     		movs	r0, #1
 620 00ca FFF7FEFF 		bl	CyDelayUs
 422:Generated_Source\PSoC5/LCD_Character_Display.c **** 
 423:Generated_Source\PSoC5/LCD_Character_Display.c ****         /* Set enable low */
 424:Generated_Source\PSoC5/LCD_Character_Display.c ****         LCD_Character_Display_PORT_DR_REG &= ((uint8)(~LCD_Character_Display_E));
 621              		.loc 1 424 0
 622 00ce 254A     		ldr	r2, .L31
 623 00d0 244B     		ldr	r3, .L31
 624 00d2 1B78     		ldrb	r3, [r3]
 625 00d4 DBB2     		uxtb	r3, r3
 626 00d6 23F01003 		bic	r3, r3, #16
 627 00da DBB2     		uxtb	r3, r3
 628 00dc 1370     		strb	r3, [r2]
 425:Generated_Source\PSoC5/LCD_Character_Display.c **** 
 426:Generated_Source\PSoC5/LCD_Character_Display.c ****         /* If LCD is not ready make a delay */
 427:Generated_Source\PSoC5/LCD_Character_Display.c ****         if (value == 0u)
 629              		.loc 1 427 0
 630 00de FB78     		ldrb	r3, [r7, #3]	@ zero_extendqisi2
 631 00e0 002B     		cmp	r3, #0
 632 00e2 02D1     		bne	.L28
 428:Generated_Source\PSoC5/LCD_Character_Display.c ****         {
 429:Generated_Source\PSoC5/LCD_Character_Display.c ****             CyDelayUs(10u);
 633              		.loc 1 429 0
 634 00e4 0A20     		movs	r0, #10
 635 00e6 FFF7FEFF 		bl	CyDelayUs
 636              	.L28:
 430:Generated_Source\PSoC5/LCD_Character_Display.c ****         }
 431:Generated_Source\PSoC5/LCD_Character_Display.c **** 
 432:Generated_Source\PSoC5/LCD_Character_Display.c ****         /* Repeat until bit 4 is not zero or until timeout. */
 433:Generated_Source\PSoC5/LCD_Character_Display.c ****         timeout--;
 637              		.loc 1 433 0
 638 00ea 7B68     		ldr	r3, [r7, #4]
 639 00ec 013B     		subs	r3, r3, #1
 640 00ee 7B60     		str	r3, [r7, #4]
 434:Generated_Source\PSoC5/LCD_Character_Display.c **** 
 435:Generated_Source\PSoC5/LCD_Character_Display.c ****     } while ((value != 0u) && (timeout > 0u));
 641              		.loc 1 435 0
 642 00f0 FB78     		ldrb	r3, [r7, #3]	@ zero_extendqisi2
 643 00f2 002B     		cmp	r3, #0
 644 00f4 02D0     		beq	.L29
 645              		.loc 1 435 0 is_stmt 0 discriminator 1
 646 00f6 7B68     		ldr	r3, [r7, #4]
 647 00f8 002B     		cmp	r3, #0
ARM GAS  C:\Users\bmt\AppData\Local\Temp\ccPPvAfH.s 			page 20


 648 00fa BDD1     		bne	.L30
 649              	.L29:
 436:Generated_Source\PSoC5/LCD_Character_Display.c **** 
 437:Generated_Source\PSoC5/LCD_Character_Display.c ****     /* Set R/W low to write */
 438:Generated_Source\PSoC5/LCD_Character_Display.c ****     LCD_Character_Display_PORT_DR_REG &= ((uint8)(~LCD_Character_Display_RW));
 650              		.loc 1 438 0 is_stmt 1
 651 00fc 194A     		ldr	r2, .L31
 652 00fe 194B     		ldr	r3, .L31
 653 0100 1B78     		ldrb	r3, [r3]
 654 0102 DBB2     		uxtb	r3, r3
 655 0104 23F04003 		bic	r3, r3, #64
 656 0108 DBB2     		uxtb	r3, r3
 657 010a 1370     		strb	r3, [r2]
 439:Generated_Source\PSoC5/LCD_Character_Display.c **** 
 440:Generated_Source\PSoC5/LCD_Character_Display.c ****     /* Clear LCD port*/
 441:Generated_Source\PSoC5/LCD_Character_Display.c ****     LCD_Character_Display_PORT_DR_REG &= ((uint8)(~LCD_Character_Display_PORT_MASK));
 658              		.loc 1 441 0
 659 010c 154A     		ldr	r2, .L31
 660 010e 154B     		ldr	r3, .L31
 661 0110 1B78     		ldrb	r3, [r3]
 662 0112 DBB2     		uxtb	r3, r3
 663 0114 23F07F03 		bic	r3, r3, #127
 664 0118 DBB2     		uxtb	r3, r3
 665 011a 1370     		strb	r3, [r2]
 442:Generated_Source\PSoC5/LCD_Character_Display.c **** 
 443:Generated_Source\PSoC5/LCD_Character_Display.c ****     #if (CY_PSOC4)
 444:Generated_Source\PSoC5/LCD_Character_Display.c ****         
 445:Generated_Source\PSoC5/LCD_Character_Display.c ****         /* Mask off data pins to clear old values out */
 446:Generated_Source\PSoC5/LCD_Character_Display.c ****         value = LCD_Character_Display_PORT_PC_REG & ((uint32)(~ LCD_Character_Display_DM_DATA_MASK)
 447:Generated_Source\PSoC5/LCD_Character_Display.c ****         /* Load in high Z values for data pins, others unchanged */
 448:Generated_Source\PSoC5/LCD_Character_Display.c ****         LCD_Character_Display_PORT_PC_REG = value | LCD_Character_Display_STRONG_DATA_DM;
 449:Generated_Source\PSoC5/LCD_Character_Display.c **** 
 450:Generated_Source\PSoC5/LCD_Character_Display.c ****     #else
 451:Generated_Source\PSoC5/LCD_Character_Display.c **** 
 452:Generated_Source\PSoC5/LCD_Character_Display.c ****         /* Change Port to Output (Strong) on data pins */
 453:Generated_Source\PSoC5/LCD_Character_Display.c ****         /* Mask off data pins to clear high z values out. Configure data pins 
 454:Generated_Source\PSoC5/LCD_Character_Display.c ****         * to Strong Drive, others unchanged.
 455:Generated_Source\PSoC5/LCD_Character_Display.c ****         */
 456:Generated_Source\PSoC5/LCD_Character_Display.c ****         LCD_Character_Display_PORT_DM0_REG &= ((uint8)(~LCD_Character_Display_DATA_MASK));
 666              		.loc 1 456 0
 667 011c 124A     		ldr	r2, .L31+4
 668 011e 124B     		ldr	r3, .L31+4
 669 0120 1B78     		ldrb	r3, [r3]
 670 0122 DBB2     		uxtb	r3, r3
 671 0124 23F00F03 		bic	r3, r3, #15
 672 0128 DBB2     		uxtb	r3, r3
 673 012a 1370     		strb	r3, [r2]
 457:Generated_Source\PSoC5/LCD_Character_Display.c ****         /* Mask off data pins to clear high z values out */
 458:Generated_Source\PSoC5/LCD_Character_Display.c ****         value = LCD_Character_Display_PORT_DM1_REG & ((uint8)(~LCD_Character_Display_DATA_MASK));
 674              		.loc 1 458 0
 675 012c 0F4B     		ldr	r3, .L31+8
 676 012e 1B78     		ldrb	r3, [r3]
 677 0130 DBB2     		uxtb	r3, r3
 678 0132 23F00F03 		bic	r3, r3, #15
 679 0136 FB70     		strb	r3, [r7, #3]
 459:Generated_Source\PSoC5/LCD_Character_Display.c ****         /* Configure data pins to Strong Drive, others unchanged */
 460:Generated_Source\PSoC5/LCD_Character_Display.c ****         LCD_Character_Display_PORT_DM1_REG = value | (LCD_Character_Display_STRONG_DM1 & LCD_Charac
ARM GAS  C:\Users\bmt\AppData\Local\Temp\ccPPvAfH.s 			page 21


 680              		.loc 1 460 0
 681 0138 0C4A     		ldr	r2, .L31+8
 682 013a FB78     		ldrb	r3, [r7, #3]
 683 013c 43F00F03 		orr	r3, r3, #15
 684 0140 DBB2     		uxtb	r3, r3
 685 0142 1370     		strb	r3, [r2]
 461:Generated_Source\PSoC5/LCD_Character_Display.c **** 
 462:Generated_Source\PSoC5/LCD_Character_Display.c ****         /* Mask off data pins to clear high z values out */
 463:Generated_Source\PSoC5/LCD_Character_Display.c ****         value = LCD_Character_Display_PORT_DM2_REG & ((uint8)(~LCD_Character_Display_DATA_MASK));
 686              		.loc 1 463 0
 687 0144 0A4B     		ldr	r3, .L31+12
 688 0146 1B78     		ldrb	r3, [r3]
 689 0148 DBB2     		uxtb	r3, r3
 690 014a 23F00F03 		bic	r3, r3, #15
 691 014e FB70     		strb	r3, [r7, #3]
 464:Generated_Source\PSoC5/LCD_Character_Display.c ****         /* Configure data pins to Strong Drive, others unchanged */
 465:Generated_Source\PSoC5/LCD_Character_Display.c ****         LCD_Character_Display_PORT_DM2_REG = value | (LCD_Character_Display_STRONG_DM2 & LCD_Charac
 692              		.loc 1 465 0
 693 0150 074A     		ldr	r2, .L31+12
 694 0152 FB78     		ldrb	r3, [r7, #3]
 695 0154 43F00F03 		orr	r3, r3, #15
 696 0158 DBB2     		uxtb	r3, r3
 697 015a 1370     		strb	r3, [r2]
 466:Generated_Source\PSoC5/LCD_Character_Display.c ****     
 467:Generated_Source\PSoC5/LCD_Character_Display.c ****     #endif /* CY_PSOC4 */
 468:Generated_Source\PSoC5/LCD_Character_Display.c **** }
 698              		.loc 1 468 0
 699 015c 0837     		adds	r7, r7, #8
 700              		.cfi_def_cfa_offset 8
 701 015e BD46     		mov	sp, r7
 702              		.cfi_def_cfa_register 13
 703              		@ sp needed
 704 0160 80BD     		pop	{r7, pc}
 705              	.L32:
 706 0162 00BF     		.align	2
 707              	.L31:
 708 0164 20510040 		.word	1073762592
 709 0168 22510040 		.word	1073762594
 710 016c 23510040 		.word	1073762595
 711 0170 24510040 		.word	1073762596
 712 0174 21510040 		.word	1073762593
 713              		.cfi_endproc
 714              	.LFE9:
 715              		.size	LCD_Character_Display_IsReady, .-LCD_Character_Display_IsReady
 716              		.section	.text.LCD_Character_Display_WrDatNib,"ax",%progbits
 717              		.align	2
 718              		.thumb
 719              		.thumb_func
 720              		.type	LCD_Character_Display_WrDatNib, %function
 721              	LCD_Character_Display_WrDatNib:
 722              	.LFB10:
 469:Generated_Source\PSoC5/LCD_Character_Display.c **** 
 470:Generated_Source\PSoC5/LCD_Character_Display.c **** 
 471:Generated_Source\PSoC5/LCD_Character_Display.c **** /*******************************************************************************
 472:Generated_Source\PSoC5/LCD_Character_Display.c **** *  Function Name: LCD_Character_Display_WrDatNib
 473:Generated_Source\PSoC5/LCD_Character_Display.c **** ********************************************************************************
 474:Generated_Source\PSoC5/LCD_Character_Display.c **** *
ARM GAS  C:\Users\bmt\AppData\Local\Temp\ccPPvAfH.s 			page 22


 475:Generated_Source\PSoC5/LCD_Character_Display.c **** * Summary:
 476:Generated_Source\PSoC5/LCD_Character_Display.c **** *  Writes a data nibble to the LCD module.
 477:Generated_Source\PSoC5/LCD_Character_Display.c **** *
 478:Generated_Source\PSoC5/LCD_Character_Display.c **** * Parameters:
 479:Generated_Source\PSoC5/LCD_Character_Display.c **** *  nibble:  Byte containing nibble in the least significant nibble to be
 480:Generated_Source\PSoC5/LCD_Character_Display.c **** *           written to the LCD module.
 481:Generated_Source\PSoC5/LCD_Character_Display.c **** *
 482:Generated_Source\PSoC5/LCD_Character_Display.c **** * Return:
 483:Generated_Source\PSoC5/LCD_Character_Display.c **** *  None.
 484:Generated_Source\PSoC5/LCD_Character_Display.c **** *
 485:Generated_Source\PSoC5/LCD_Character_Display.c **** *******************************************************************************/
 486:Generated_Source\PSoC5/LCD_Character_Display.c **** static void LCD_Character_Display_WrDatNib(uint8 nibble) 
 487:Generated_Source\PSoC5/LCD_Character_Display.c **** {
 723              		.loc 1 487 0
 724              		.cfi_startproc
 725              		@ args = 0, pretend = 0, frame = 8
 726              		@ frame_needed = 1, uses_anonymous_args = 0
 727 0000 80B5     		push	{r7, lr}
 728              		.cfi_def_cfa_offset 8
 729              		.cfi_offset 7, -8
 730              		.cfi_offset 14, -4
 731 0002 82B0     		sub	sp, sp, #8
 732              		.cfi_def_cfa_offset 16
 733 0004 00AF     		add	r7, sp, #0
 734              		.cfi_def_cfa_register 7
 735 0006 0346     		mov	r3, r0
 736 0008 FB71     		strb	r3, [r7, #7]
 488:Generated_Source\PSoC5/LCD_Character_Display.c ****     /* RS should be low to select data register */
 489:Generated_Source\PSoC5/LCD_Character_Display.c ****     LCD_Character_Display_PORT_DR_REG |= LCD_Character_Display_RS;
 737              		.loc 1 489 0
 738 000a 1A4A     		ldr	r2, .L34
 739 000c 194B     		ldr	r3, .L34
 740 000e 1B78     		ldrb	r3, [r3]
 741 0010 DBB2     		uxtb	r3, r3
 742 0012 43F02003 		orr	r3, r3, #32
 743 0016 DBB2     		uxtb	r3, r3
 744 0018 1370     		strb	r3, [r2]
 490:Generated_Source\PSoC5/LCD_Character_Display.c ****     /* Reset RW for write operation */
 491:Generated_Source\PSoC5/LCD_Character_Display.c ****     LCD_Character_Display_PORT_DR_REG &= ((uint8)(~LCD_Character_Display_RW));
 745              		.loc 1 491 0
 746 001a 164A     		ldr	r2, .L34
 747 001c 154B     		ldr	r3, .L34
 748 001e 1B78     		ldrb	r3, [r3]
 749 0020 DBB2     		uxtb	r3, r3
 750 0022 23F04003 		bic	r3, r3, #64
 751 0026 DBB2     		uxtb	r3, r3
 752 0028 1370     		strb	r3, [r2]
 492:Generated_Source\PSoC5/LCD_Character_Display.c **** 
 493:Generated_Source\PSoC5/LCD_Character_Display.c ****     /* Guaranteed delay between Setting RS and RW and setting E bits */
 494:Generated_Source\PSoC5/LCD_Character_Display.c ****     CyDelayUs(0u);
 753              		.loc 1 494 0
 754 002a 0020     		movs	r0, #0
 755 002c FFF7FEFF 		bl	CyDelayUs
 495:Generated_Source\PSoC5/LCD_Character_Display.c ****     
 496:Generated_Source\PSoC5/LCD_Character_Display.c ****     /* Clear data pins */
 497:Generated_Source\PSoC5/LCD_Character_Display.c ****     LCD_Character_Display_PORT_DR_REG &= ((uint8)(~LCD_Character_Display_DATA_MASK));
 756              		.loc 1 497 0
ARM GAS  C:\Users\bmt\AppData\Local\Temp\ccPPvAfH.s 			page 23


 757 0030 104A     		ldr	r2, .L34
 758 0032 104B     		ldr	r3, .L34
 759 0034 1B78     		ldrb	r3, [r3]
 760 0036 DBB2     		uxtb	r3, r3
 761 0038 23F00F03 		bic	r3, r3, #15
 762 003c DBB2     		uxtb	r3, r3
 763 003e 1370     		strb	r3, [r2]
 498:Generated_Source\PSoC5/LCD_Character_Display.c **** 
 499:Generated_Source\PSoC5/LCD_Character_Display.c ****     /* Write data, bring E high */
 500:Generated_Source\PSoC5/LCD_Character_Display.c ****     #if(0u != LCD_Character_Display_PORT_SHIFT) /* MISRA forbids shift by 0 so need to handle that 
 501:Generated_Source\PSoC5/LCD_Character_Display.c ****         LCD_Character_Display_PORT_DR_REG |= 
 502:Generated_Source\PSoC5/LCD_Character_Display.c ****             (LCD_Character_Display_E | ((uint8)(((uint8) nibble) << LCD_Character_Display_PORT_SHIF
 503:Generated_Source\PSoC5/LCD_Character_Display.c ****     #else
 504:Generated_Source\PSoC5/LCD_Character_Display.c ****         LCD_Character_Display_PORT_DR_REG |= (LCD_Character_Display_E | nibble);
 764              		.loc 1 504 0
 765 0040 0C49     		ldr	r1, .L34
 766 0042 0C4B     		ldr	r3, .L34
 767 0044 1B78     		ldrb	r3, [r3]
 768 0046 DAB2     		uxtb	r2, r3
 769 0048 FB79     		ldrb	r3, [r7, #7]
 770 004a 1343     		orrs	r3, r3, r2
 771 004c DBB2     		uxtb	r3, r3
 772 004e 43F01003 		orr	r3, r3, #16
 773 0052 DBB2     		uxtb	r3, r3
 774 0054 0B70     		strb	r3, [r1]
 505:Generated_Source\PSoC5/LCD_Character_Display.c ****     #endif /* (0u != LCD_Character_Display_PORT_SHIFT) */
 506:Generated_Source\PSoC5/LCD_Character_Display.c **** 
 507:Generated_Source\PSoC5/LCD_Character_Display.c ****     /* Minimum of 230 ns delay */
 508:Generated_Source\PSoC5/LCD_Character_Display.c ****     CyDelayUs(1u);
 775              		.loc 1 508 0
 776 0056 0120     		movs	r0, #1
 777 0058 FFF7FEFF 		bl	CyDelayUs
 509:Generated_Source\PSoC5/LCD_Character_Display.c **** 
 510:Generated_Source\PSoC5/LCD_Character_Display.c ****     LCD_Character_Display_PORT_DR_REG &= ((uint8)(~LCD_Character_Display_E));
 778              		.loc 1 510 0
 779 005c 054A     		ldr	r2, .L34
 780 005e 054B     		ldr	r3, .L34
 781 0060 1B78     		ldrb	r3, [r3]
 782 0062 DBB2     		uxtb	r3, r3
 783 0064 23F01003 		bic	r3, r3, #16
 784 0068 DBB2     		uxtb	r3, r3
 785 006a 1370     		strb	r3, [r2]
 511:Generated_Source\PSoC5/LCD_Character_Display.c **** }
 786              		.loc 1 511 0
 787 006c 0837     		adds	r7, r7, #8
 788              		.cfi_def_cfa_offset 8
 789 006e BD46     		mov	sp, r7
 790              		.cfi_def_cfa_register 13
 791              		@ sp needed
 792 0070 80BD     		pop	{r7, pc}
 793              	.L35:
 794 0072 00BF     		.align	2
 795              	.L34:
 796 0074 20510040 		.word	1073762592
 797              		.cfi_endproc
 798              	.LFE10:
 799              		.size	LCD_Character_Display_WrDatNib, .-LCD_Character_Display_WrDatNib
ARM GAS  C:\Users\bmt\AppData\Local\Temp\ccPPvAfH.s 			page 24


 800              		.section	.text.LCD_Character_Display_WrCntrlNib,"ax",%progbits
 801              		.align	2
 802              		.thumb
 803              		.thumb_func
 804              		.type	LCD_Character_Display_WrCntrlNib, %function
 805              	LCD_Character_Display_WrCntrlNib:
 806              	.LFB11:
 512:Generated_Source\PSoC5/LCD_Character_Display.c **** 
 513:Generated_Source\PSoC5/LCD_Character_Display.c **** 
 514:Generated_Source\PSoC5/LCD_Character_Display.c **** /*******************************************************************************
 515:Generated_Source\PSoC5/LCD_Character_Display.c **** *  Function Name: LCD_Character_Display_WrCntrlNib
 516:Generated_Source\PSoC5/LCD_Character_Display.c **** ********************************************************************************
 517:Generated_Source\PSoC5/LCD_Character_Display.c **** *
 518:Generated_Source\PSoC5/LCD_Character_Display.c **** * Summary:
 519:Generated_Source\PSoC5/LCD_Character_Display.c **** *  Writes a control nibble to the LCD module.
 520:Generated_Source\PSoC5/LCD_Character_Display.c **** *
 521:Generated_Source\PSoC5/LCD_Character_Display.c **** * Parameters:
 522:Generated_Source\PSoC5/LCD_Character_Display.c **** *  nibble: The byte containing a nibble in the four least significant bits.????
 523:Generated_Source\PSoC5/LCD_Character_Display.c **** *
 524:Generated_Source\PSoC5/LCD_Character_Display.c **** * Return:
 525:Generated_Source\PSoC5/LCD_Character_Display.c **** *  None.
 526:Generated_Source\PSoC5/LCD_Character_Display.c **** *
 527:Generated_Source\PSoC5/LCD_Character_Display.c **** *******************************************************************************/
 528:Generated_Source\PSoC5/LCD_Character_Display.c **** static void LCD_Character_Display_WrCntrlNib(uint8 nibble) 
 529:Generated_Source\PSoC5/LCD_Character_Display.c **** {
 807              		.loc 1 529 0
 808              		.cfi_startproc
 809              		@ args = 0, pretend = 0, frame = 8
 810              		@ frame_needed = 1, uses_anonymous_args = 0
 811 0000 80B5     		push	{r7, lr}
 812              		.cfi_def_cfa_offset 8
 813              		.cfi_offset 7, -8
 814              		.cfi_offset 14, -4
 815 0002 82B0     		sub	sp, sp, #8
 816              		.cfi_def_cfa_offset 16
 817 0004 00AF     		add	r7, sp, #0
 818              		.cfi_def_cfa_register 7
 819 0006 0346     		mov	r3, r0
 820 0008 FB71     		strb	r3, [r7, #7]
 530:Generated_Source\PSoC5/LCD_Character_Display.c ****     /* RS and RW should be low to select instruction register and  write operation respectively */
 531:Generated_Source\PSoC5/LCD_Character_Display.c ****     LCD_Character_Display_PORT_DR_REG &= ((uint8)(~(LCD_Character_Display_RS | LCD_Character_Displa
 821              		.loc 1 531 0
 822 000a 144A     		ldr	r2, .L37
 823 000c 134B     		ldr	r3, .L37
 824 000e 1B78     		ldrb	r3, [r3]
 825 0010 DBB2     		uxtb	r3, r3
 826 0012 23F06003 		bic	r3, r3, #96
 827 0016 DBB2     		uxtb	r3, r3
 828 0018 1370     		strb	r3, [r2]
 532:Generated_Source\PSoC5/LCD_Character_Display.c **** 
 533:Generated_Source\PSoC5/LCD_Character_Display.c ****     /* Two following lines of code will give 40ns delay */
 534:Generated_Source\PSoC5/LCD_Character_Display.c ****     /* Clear data pins */
 535:Generated_Source\PSoC5/LCD_Character_Display.c ****     LCD_Character_Display_PORT_DR_REG &= ((uint8)(~LCD_Character_Display_DATA_MASK));
 829              		.loc 1 535 0
 830 001a 104A     		ldr	r2, .L37
 831 001c 0F4B     		ldr	r3, .L37
 832 001e 1B78     		ldrb	r3, [r3]
ARM GAS  C:\Users\bmt\AppData\Local\Temp\ccPPvAfH.s 			page 25


 833 0020 DBB2     		uxtb	r3, r3
 834 0022 23F00F03 		bic	r3, r3, #15
 835 0026 DBB2     		uxtb	r3, r3
 836 0028 1370     		strb	r3, [r2]
 536:Generated_Source\PSoC5/LCD_Character_Display.c **** 
 537:Generated_Source\PSoC5/LCD_Character_Display.c ****     /* Write control data and set enable signal */
 538:Generated_Source\PSoC5/LCD_Character_Display.c ****     #if(0u != LCD_Character_Display_PORT_SHIFT) /* MISRA forbids shift by 0 so need to handle that 
 539:Generated_Source\PSoC5/LCD_Character_Display.c ****         LCD_Character_Display_PORT_DR_REG |= 
 540:Generated_Source\PSoC5/LCD_Character_Display.c ****             (LCD_Character_Display_E | ((uint8)(((uint8) nibble) << LCD_Character_Display_PORT_SHIF
 541:Generated_Source\PSoC5/LCD_Character_Display.c ****     #else
 542:Generated_Source\PSoC5/LCD_Character_Display.c ****         LCD_Character_Display_PORT_DR_REG |= (LCD_Character_Display_E | nibble);
 837              		.loc 1 542 0
 838 002a 0C49     		ldr	r1, .L37
 839 002c 0B4B     		ldr	r3, .L37
 840 002e 1B78     		ldrb	r3, [r3]
 841 0030 DAB2     		uxtb	r2, r3
 842 0032 FB79     		ldrb	r3, [r7, #7]
 843 0034 1343     		orrs	r3, r3, r2
 844 0036 DBB2     		uxtb	r3, r3
 845 0038 43F01003 		orr	r3, r3, #16
 846 003c DBB2     		uxtb	r3, r3
 847 003e 0B70     		strb	r3, [r1]
 543:Generated_Source\PSoC5/LCD_Character_Display.c ****     #endif /* (0u != LCD_Character_Display_PORT_SHIFT) */
 544:Generated_Source\PSoC5/LCD_Character_Display.c **** 
 545:Generated_Source\PSoC5/LCD_Character_Display.c ****     /* Minimum of 230 ns delay */
 546:Generated_Source\PSoC5/LCD_Character_Display.c ****     CyDelayUs(1u);
 848              		.loc 1 546 0
 849 0040 0120     		movs	r0, #1
 850 0042 FFF7FEFF 		bl	CyDelayUs
 547:Generated_Source\PSoC5/LCD_Character_Display.c **** 
 548:Generated_Source\PSoC5/LCD_Character_Display.c ****     LCD_Character_Display_PORT_DR_REG &= ((uint8)(~LCD_Character_Display_E));
 851              		.loc 1 548 0
 852 0046 054A     		ldr	r2, .L37
 853 0048 044B     		ldr	r3, .L37
 854 004a 1B78     		ldrb	r3, [r3]
 855 004c DBB2     		uxtb	r3, r3
 856 004e 23F01003 		bic	r3, r3, #16
 857 0052 DBB2     		uxtb	r3, r3
 858 0054 1370     		strb	r3, [r2]
 549:Generated_Source\PSoC5/LCD_Character_Display.c **** }
 859              		.loc 1 549 0
 860 0056 0837     		adds	r7, r7, #8
 861              		.cfi_def_cfa_offset 8
 862 0058 BD46     		mov	sp, r7
 863              		.cfi_def_cfa_register 13
 864              		@ sp needed
 865 005a 80BD     		pop	{r7, pc}
 866              	.L38:
 867              		.align	2
 868              	.L37:
 869 005c 20510040 		.word	1073762592
 870              		.cfi_endproc
 871              	.LFE11:
 872              		.size	LCD_Character_Display_WrCntrlNib, .-LCD_Character_Display_WrCntrlNib
 873              		.section	.text.LCD_Character_Display_PrintInt8,"ax",%progbits
 874              		.align	2
 875              		.global	LCD_Character_Display_PrintInt8
ARM GAS  C:\Users\bmt\AppData\Local\Temp\ccPPvAfH.s 			page 26


 876              		.thumb
 877              		.thumb_func
 878              		.type	LCD_Character_Display_PrintInt8, %function
 879              	LCD_Character_Display_PrintInt8:
 880              	.LFB12:
 550:Generated_Source\PSoC5/LCD_Character_Display.c **** 
 551:Generated_Source\PSoC5/LCD_Character_Display.c **** 
 552:Generated_Source\PSoC5/LCD_Character_Display.c **** #if(LCD_Character_Display_CONVERSION_ROUTINES == 1u)
 553:Generated_Source\PSoC5/LCD_Character_Display.c **** 
 554:Generated_Source\PSoC5/LCD_Character_Display.c ****     /*******************************************************************************
 555:Generated_Source\PSoC5/LCD_Character_Display.c ****     *  Function Name: LCD_Character_Display_PrintInt8
 556:Generated_Source\PSoC5/LCD_Character_Display.c ****     ********************************************************************************
 557:Generated_Source\PSoC5/LCD_Character_Display.c ****     *
 558:Generated_Source\PSoC5/LCD_Character_Display.c ****     * Summary:
 559:Generated_Source\PSoC5/LCD_Character_Display.c ****     *  Print a byte as two ASCII characters.
 560:Generated_Source\PSoC5/LCD_Character_Display.c ****     *
 561:Generated_Source\PSoC5/LCD_Character_Display.c ****     * Parameters:
 562:Generated_Source\PSoC5/LCD_Character_Display.c ****     *  value: The byte to be printed out as ASCII characters.
 563:Generated_Source\PSoC5/LCD_Character_Display.c ****     *
 564:Generated_Source\PSoC5/LCD_Character_Display.c ****     * Return:
 565:Generated_Source\PSoC5/LCD_Character_Display.c ****     *  None.
 566:Generated_Source\PSoC5/LCD_Character_Display.c ****     *
 567:Generated_Source\PSoC5/LCD_Character_Display.c ****     *******************************************************************************/
 568:Generated_Source\PSoC5/LCD_Character_Display.c ****     void LCD_Character_Display_PrintInt8(uint8 value) 
 569:Generated_Source\PSoC5/LCD_Character_Display.c ****     {
 881              		.loc 1 569 0
 882              		.cfi_startproc
 883              		@ args = 0, pretend = 0, frame = 8
 884              		@ frame_needed = 1, uses_anonymous_args = 0
 885 0000 80B5     		push	{r7, lr}
 886              		.cfi_def_cfa_offset 8
 887              		.cfi_offset 7, -8
 888              		.cfi_offset 14, -4
 889 0002 82B0     		sub	sp, sp, #8
 890              		.cfi_def_cfa_offset 16
 891 0004 00AF     		add	r7, sp, #0
 892              		.cfi_def_cfa_register 7
 893 0006 0346     		mov	r3, r0
 894 0008 FB71     		strb	r3, [r7, #7]
 570:Generated_Source\PSoC5/LCD_Character_Display.c ****         static char8 const CYCODE LCD_Character_Display_hex[16u] = "0123456789ABCDEF";
 571:Generated_Source\PSoC5/LCD_Character_Display.c ****         
 572:Generated_Source\PSoC5/LCD_Character_Display.c ****         LCD_Character_Display_PutChar((char8) LCD_Character_Display_hex[value >> LCD_Character_Disp
 895              		.loc 1 572 0
 896 000a FB79     		ldrb	r3, [r7, #7]	@ zero_extendqisi2
 897 000c 1B09     		lsrs	r3, r3, #4
 898 000e DBB2     		uxtb	r3, r3
 899 0010 1A46     		mov	r2, r3
 900 0012 084B     		ldr	r3, .L40
 901 0014 9B5C     		ldrb	r3, [r3, r2]	@ zero_extendqisi2
 902 0016 1846     		mov	r0, r3
 903 0018 FFF7FEFF 		bl	LCD_Character_Display_PutChar
 573:Generated_Source\PSoC5/LCD_Character_Display.c ****         LCD_Character_Display_PutChar((char8) LCD_Character_Display_hex[value & LCD_Character_Displ
 904              		.loc 1 573 0
 905 001c FB79     		ldrb	r3, [r7, #7]	@ zero_extendqisi2
 906 001e 03F00F03 		and	r3, r3, #15
 907 0022 044A     		ldr	r2, .L40
 908 0024 D35C     		ldrb	r3, [r2, r3]	@ zero_extendqisi2
ARM GAS  C:\Users\bmt\AppData\Local\Temp\ccPPvAfH.s 			page 27


 909 0026 1846     		mov	r0, r3
 910 0028 FFF7FEFF 		bl	LCD_Character_Display_PutChar
 574:Generated_Source\PSoC5/LCD_Character_Display.c ****     }
 911              		.loc 1 574 0
 912 002c 0837     		adds	r7, r7, #8
 913              		.cfi_def_cfa_offset 8
 914 002e BD46     		mov	sp, r7
 915              		.cfi_def_cfa_register 13
 916              		@ sp needed
 917 0030 80BD     		pop	{r7, pc}
 918              	.L41:
 919 0032 00BF     		.align	2
 920              	.L40:
 921 0034 00000000 		.word	LCD_Character_Display_hex.4905
 922              		.cfi_endproc
 923              	.LFE12:
 924              		.size	LCD_Character_Display_PrintInt8, .-LCD_Character_Display_PrintInt8
 925              		.section	.text.LCD_Character_Display_PrintInt16,"ax",%progbits
 926              		.align	2
 927              		.global	LCD_Character_Display_PrintInt16
 928              		.thumb
 929              		.thumb_func
 930              		.type	LCD_Character_Display_PrintInt16, %function
 931              	LCD_Character_Display_PrintInt16:
 932              	.LFB13:
 575:Generated_Source\PSoC5/LCD_Character_Display.c **** 
 576:Generated_Source\PSoC5/LCD_Character_Display.c **** 
 577:Generated_Source\PSoC5/LCD_Character_Display.c ****     /*******************************************************************************
 578:Generated_Source\PSoC5/LCD_Character_Display.c ****     *  Function Name: LCD_Character_Display_PrintInt16
 579:Generated_Source\PSoC5/LCD_Character_Display.c ****     ********************************************************************************
 580:Generated_Source\PSoC5/LCD_Character_Display.c ****     *
 581:Generated_Source\PSoC5/LCD_Character_Display.c ****     * Summary:
 582:Generated_Source\PSoC5/LCD_Character_Display.c ****     *  Print a uint16 as four ASCII characters.
 583:Generated_Source\PSoC5/LCD_Character_Display.c ****     *
 584:Generated_Source\PSoC5/LCD_Character_Display.c ****     * Parameters:
 585:Generated_Source\PSoC5/LCD_Character_Display.c ****     *  value: The uint16 to be printed out as ASCII characters.
 586:Generated_Source\PSoC5/LCD_Character_Display.c ****     *
 587:Generated_Source\PSoC5/LCD_Character_Display.c ****     * Return:
 588:Generated_Source\PSoC5/LCD_Character_Display.c ****     *  None.
 589:Generated_Source\PSoC5/LCD_Character_Display.c ****     *
 590:Generated_Source\PSoC5/LCD_Character_Display.c ****     *******************************************************************************/
 591:Generated_Source\PSoC5/LCD_Character_Display.c ****     void LCD_Character_Display_PrintInt16(uint16 value) 
 592:Generated_Source\PSoC5/LCD_Character_Display.c ****     {
 933              		.loc 1 592 0
 934              		.cfi_startproc
 935              		@ args = 0, pretend = 0, frame = 8
 936              		@ frame_needed = 1, uses_anonymous_args = 0
 937 0000 80B5     		push	{r7, lr}
 938              		.cfi_def_cfa_offset 8
 939              		.cfi_offset 7, -8
 940              		.cfi_offset 14, -4
 941 0002 82B0     		sub	sp, sp, #8
 942              		.cfi_def_cfa_offset 16
 943 0004 00AF     		add	r7, sp, #0
 944              		.cfi_def_cfa_register 7
 945 0006 0346     		mov	r3, r0
 946 0008 FB80     		strh	r3, [r7, #6]	@ movhi
ARM GAS  C:\Users\bmt\AppData\Local\Temp\ccPPvAfH.s 			page 28


 593:Generated_Source\PSoC5/LCD_Character_Display.c ****         LCD_Character_Display_PrintInt8((uint8)(value >> LCD_Character_Display_U16_UPPER_BYTE_SHIFT
 947              		.loc 1 593 0
 948 000a FB88     		ldrh	r3, [r7, #6]
 949 000c 1B0A     		lsrs	r3, r3, #8
 950 000e 9BB2     		uxth	r3, r3
 951 0010 DBB2     		uxtb	r3, r3
 952 0012 1846     		mov	r0, r3
 953 0014 FFF7FEFF 		bl	LCD_Character_Display_PrintInt8
 594:Generated_Source\PSoC5/LCD_Character_Display.c ****         LCD_Character_Display_PrintInt8((uint8)(value & LCD_Character_Display_U16_LOWER_BYTE_MASK))
 954              		.loc 1 594 0
 955 0018 FB88     		ldrh	r3, [r7, #6]	@ movhi
 956 001a DBB2     		uxtb	r3, r3
 957 001c 1846     		mov	r0, r3
 958 001e FFF7FEFF 		bl	LCD_Character_Display_PrintInt8
 595:Generated_Source\PSoC5/LCD_Character_Display.c ****     }
 959              		.loc 1 595 0
 960 0022 0837     		adds	r7, r7, #8
 961              		.cfi_def_cfa_offset 8
 962 0024 BD46     		mov	sp, r7
 963              		.cfi_def_cfa_register 13
 964              		@ sp needed
 965 0026 80BD     		pop	{r7, pc}
 966              		.cfi_endproc
 967              	.LFE13:
 968              		.size	LCD_Character_Display_PrintInt16, .-LCD_Character_Display_PrintInt16
 969              		.section	.text.LCD_Character_Display_PrintInt32,"ax",%progbits
 970              		.align	2
 971              		.global	LCD_Character_Display_PrintInt32
 972              		.thumb
 973              		.thumb_func
 974              		.type	LCD_Character_Display_PrintInt32, %function
 975              	LCD_Character_Display_PrintInt32:
 976              	.LFB14:
 596:Generated_Source\PSoC5/LCD_Character_Display.c **** 
 597:Generated_Source\PSoC5/LCD_Character_Display.c ****     
 598:Generated_Source\PSoC5/LCD_Character_Display.c ****     /*******************************************************************************
 599:Generated_Source\PSoC5/LCD_Character_Display.c ****     *  Function Name: LCD_Character_Display_PrintInt32
 600:Generated_Source\PSoC5/LCD_Character_Display.c ****     ********************************************************************************
 601:Generated_Source\PSoC5/LCD_Character_Display.c ****     *
 602:Generated_Source\PSoC5/LCD_Character_Display.c ****     * Summary:
 603:Generated_Source\PSoC5/LCD_Character_Display.c ****     *  Print a uint32 hexadecimal number as eight ASCII characters.
 604:Generated_Source\PSoC5/LCD_Character_Display.c ****     *
 605:Generated_Source\PSoC5/LCD_Character_Display.c ****     * Parameters:
 606:Generated_Source\PSoC5/LCD_Character_Display.c ****     *  value: The uint32 to be printed out as ASCII characters.
 607:Generated_Source\PSoC5/LCD_Character_Display.c ****     *
 608:Generated_Source\PSoC5/LCD_Character_Display.c ****     * Return:
 609:Generated_Source\PSoC5/LCD_Character_Display.c ****     *  None.
 610:Generated_Source\PSoC5/LCD_Character_Display.c ****     *
 611:Generated_Source\PSoC5/LCD_Character_Display.c ****     *******************************************************************************/
 612:Generated_Source\PSoC5/LCD_Character_Display.c ****     void LCD_Character_Display_PrintInt32(uint32 value) 
 613:Generated_Source\PSoC5/LCD_Character_Display.c ****     {
 977              		.loc 1 613 0
 978              		.cfi_startproc
 979              		@ args = 0, pretend = 0, frame = 16
 980              		@ frame_needed = 1, uses_anonymous_args = 0
 981 0000 80B5     		push	{r7, lr}
 982              		.cfi_def_cfa_offset 8
ARM GAS  C:\Users\bmt\AppData\Local\Temp\ccPPvAfH.s 			page 29


 983              		.cfi_offset 7, -8
 984              		.cfi_offset 14, -4
 985 0002 84B0     		sub	sp, sp, #16
 986              		.cfi_def_cfa_offset 24
 987 0004 00AF     		add	r7, sp, #0
 988              		.cfi_def_cfa_register 7
 989 0006 7860     		str	r0, [r7, #4]
 614:Generated_Source\PSoC5/LCD_Character_Display.c ****         uint8 shift = LCD_Character_Display_32_BIT_SHIFT;
 990              		.loc 1 614 0
 991 0008 2023     		movs	r3, #32
 992 000a FB73     		strb	r3, [r7, #15]
 615:Generated_Source\PSoC5/LCD_Character_Display.c ****         
 616:Generated_Source\PSoC5/LCD_Character_Display.c ****         while (shift != 0u)
 993              		.loc 1 616 0
 994 000c 0AE0     		b	.L44
 995              	.L45:
 617:Generated_Source\PSoC5/LCD_Character_Display.c ****         {
 618:Generated_Source\PSoC5/LCD_Character_Display.c ****             /* "shift" var is to be subtracted by 8 prior shifting. This implements 
 619:Generated_Source\PSoC5/LCD_Character_Display.c ****             * shifting by 24, 16, 8 and 0u. 
 620:Generated_Source\PSoC5/LCD_Character_Display.c ****             */
 621:Generated_Source\PSoC5/LCD_Character_Display.c ****             shift -= LCD_Character_Display_8_BIT_SHIFT;
 996              		.loc 1 621 0
 997 000e FB7B     		ldrb	r3, [r7, #15]
 998 0010 083B     		subs	r3, r3, #8
 999 0012 FB73     		strb	r3, [r7, #15]
 622:Generated_Source\PSoC5/LCD_Character_Display.c ****             
 623:Generated_Source\PSoC5/LCD_Character_Display.c ****             /* Print 8 bits of uint32 hex number */
 624:Generated_Source\PSoC5/LCD_Character_Display.c ****             LCD_Character_Display_PrintInt8((uint8) ((uint32) (value >> shift)));
 1000              		.loc 1 624 0
 1001 0014 FB7B     		ldrb	r3, [r7, #15]	@ zero_extendqisi2
 1002 0016 7A68     		ldr	r2, [r7, #4]
 1003 0018 22FA03F3 		lsr	r3, r2, r3
 1004 001c DBB2     		uxtb	r3, r3
 1005 001e 1846     		mov	r0, r3
 1006 0020 FFF7FEFF 		bl	LCD_Character_Display_PrintInt8
 1007              	.L44:
 616:Generated_Source\PSoC5/LCD_Character_Display.c ****         {
 1008              		.loc 1 616 0
 1009 0024 FB7B     		ldrb	r3, [r7, #15]	@ zero_extendqisi2
 1010 0026 002B     		cmp	r3, #0
 1011 0028 F1D1     		bne	.L45
 625:Generated_Source\PSoC5/LCD_Character_Display.c ****         }
 626:Generated_Source\PSoC5/LCD_Character_Display.c ****     }
 1012              		.loc 1 626 0
 1013 002a 1037     		adds	r7, r7, #16
 1014              		.cfi_def_cfa_offset 8
 1015 002c BD46     		mov	sp, r7
 1016              		.cfi_def_cfa_register 13
 1017              		@ sp needed
 1018 002e 80BD     		pop	{r7, pc}
 1019              		.cfi_endproc
 1020              	.LFE14:
 1021              		.size	LCD_Character_Display_PrintInt32, .-LCD_Character_Display_PrintInt32
 1022              		.section	.text.LCD_Character_Display_PrintU32Number,"ax",%progbits
 1023              		.align	2
 1024              		.global	LCD_Character_Display_PrintU32Number
 1025              		.thumb
ARM GAS  C:\Users\bmt\AppData\Local\Temp\ccPPvAfH.s 			page 30


 1026              		.thumb_func
 1027              		.type	LCD_Character_Display_PrintU32Number, %function
 1028              	LCD_Character_Display_PrintU32Number:
 1029              	.LFB15:
 627:Generated_Source\PSoC5/LCD_Character_Display.c ****     
 628:Generated_Source\PSoC5/LCD_Character_Display.c ****     
 629:Generated_Source\PSoC5/LCD_Character_Display.c ****     /*******************************************************************************
 630:Generated_Source\PSoC5/LCD_Character_Display.c ****     *  Function Name: LCD_Character_Display_PrintNumber
 631:Generated_Source\PSoC5/LCD_Character_Display.c ****     ********************************************************************************
 632:Generated_Source\PSoC5/LCD_Character_Display.c ****     *
 633:Generated_Source\PSoC5/LCD_Character_Display.c ****     * Summary:
 634:Generated_Source\PSoC5/LCD_Character_Display.c ****     *  Print an uint16 value as a left-justified decimal value.
 635:Generated_Source\PSoC5/LCD_Character_Display.c ****     *
 636:Generated_Source\PSoC5/LCD_Character_Display.c ****     * Parameters:
 637:Generated_Source\PSoC5/LCD_Character_Display.c ****     *  value: A 16-bit value to be printed in ASCII characters as a decimal number
 638:Generated_Source\PSoC5/LCD_Character_Display.c ****     *
 639:Generated_Source\PSoC5/LCD_Character_Display.c ****     * Return:
 640:Generated_Source\PSoC5/LCD_Character_Display.c ****     *  None.
 641:Generated_Source\PSoC5/LCD_Character_Display.c ****     *
 642:Generated_Source\PSoC5/LCD_Character_Display.c ****     * Note:
 643:Generated_Source\PSoC5/LCD_Character_Display.c ****     *  This function is implemented as a macro.
 644:Generated_Source\PSoC5/LCD_Character_Display.c ****     *
 645:Generated_Source\PSoC5/LCD_Character_Display.c ****     *******************************************************************************/
 646:Generated_Source\PSoC5/LCD_Character_Display.c **** 
 647:Generated_Source\PSoC5/LCD_Character_Display.c ****     
 648:Generated_Source\PSoC5/LCD_Character_Display.c ****     /*******************************************************************************
 649:Generated_Source\PSoC5/LCD_Character_Display.c ****     *  Function Name: LCD_Character_Display_PrintU32Number
 650:Generated_Source\PSoC5/LCD_Character_Display.c ****     ********************************************************************************
 651:Generated_Source\PSoC5/LCD_Character_Display.c ****     *
 652:Generated_Source\PSoC5/LCD_Character_Display.c ****     * Summary:
 653:Generated_Source\PSoC5/LCD_Character_Display.c ****     *  Print an uint32 value as a left-justified decimal value.
 654:Generated_Source\PSoC5/LCD_Character_Display.c ****     *
 655:Generated_Source\PSoC5/LCD_Character_Display.c ****     * Parameters:
 656:Generated_Source\PSoC5/LCD_Character_Display.c ****     *  value: A 32-bit value to be printed in ASCII characters as a decimal number
 657:Generated_Source\PSoC5/LCD_Character_Display.c ****     *
 658:Generated_Source\PSoC5/LCD_Character_Display.c ****     * Return:
 659:Generated_Source\PSoC5/LCD_Character_Display.c ****     *  None.
 660:Generated_Source\PSoC5/LCD_Character_Display.c ****     *
 661:Generated_Source\PSoC5/LCD_Character_Display.c ****     *******************************************************************************/
 662:Generated_Source\PSoC5/LCD_Character_Display.c ****     void LCD_Character_Display_PrintU32Number(uint32 value) 
 663:Generated_Source\PSoC5/LCD_Character_Display.c ****     {
 1030              		.loc 1 663 0
 1031              		.cfi_startproc
 1032              		@ args = 0, pretend = 0, frame = 24
 1033              		@ frame_needed = 1, uses_anonymous_args = 0
 1034 0000 80B5     		push	{r7, lr}
 1035              		.cfi_def_cfa_offset 8
 1036              		.cfi_offset 7, -8
 1037              		.cfi_offset 14, -4
 1038 0002 86B0     		sub	sp, sp, #24
 1039              		.cfi_def_cfa_offset 32
 1040 0004 00AF     		add	r7, sp, #0
 1041              		.cfi_def_cfa_register 7
 1042 0006 7860     		str	r0, [r7, #4]
 664:Generated_Source\PSoC5/LCD_Character_Display.c ****         uint8 tmpDigit;
 665:Generated_Source\PSoC5/LCD_Character_Display.c ****         char8 number[LCD_Character_Display_NUMBER_OF_REMAINDERS_U32 + 1u];
 666:Generated_Source\PSoC5/LCD_Character_Display.c ****         uint8 digIndex = LCD_Character_Display_NUMBER_OF_REMAINDERS_U32;
ARM GAS  C:\Users\bmt\AppData\Local\Temp\ccPPvAfH.s 			page 31


 1043              		.loc 1 666 0
 1044 0008 0A23     		movs	r3, #10
 1045 000a FB75     		strb	r3, [r7, #23]
 667:Generated_Source\PSoC5/LCD_Character_Display.c ****         
 668:Generated_Source\PSoC5/LCD_Character_Display.c ****         /* This API will output a decimal number as a string and that string will be 
 669:Generated_Source\PSoC5/LCD_Character_Display.c ****         * filled from end to start. Set Null termination character first.
 670:Generated_Source\PSoC5/LCD_Character_Display.c ****         */
 671:Generated_Source\PSoC5/LCD_Character_Display.c ****         number[digIndex] = (char8) '\0';
 1046              		.loc 1 671 0
 1047 000c FB7D     		ldrb	r3, [r7, #23]	@ zero_extendqisi2
 1048 000e 07F11802 		add	r2, r7, #24
 1049 0012 1344     		add	r3, r3, r2
 1050 0014 0022     		movs	r2, #0
 1051 0016 03F8102C 		strb	r2, [r3, #-16]
 672:Generated_Source\PSoC5/LCD_Character_Display.c ****         digIndex--;
 1052              		.loc 1 672 0
 1053 001a FB7D     		ldrb	r3, [r7, #23]	@ zero_extendqisi2
 1054 001c 013B     		subs	r3, r3, #1
 1055 001e FB75     		strb	r3, [r7, #23]
 673:Generated_Source\PSoC5/LCD_Character_Display.c ****         
 674:Generated_Source\PSoC5/LCD_Character_Display.c ****         /* Load these in reverse order */
 675:Generated_Source\PSoC5/LCD_Character_Display.c ****         while(value >= LCD_Character_Display_TEN)
 1056              		.loc 1 675 0
 1057 0020 1CE0     		b	.L47
 1058              	.L48:
 676:Generated_Source\PSoC5/LCD_Character_Display.c ****         {
 677:Generated_Source\PSoC5/LCD_Character_Display.c ****             /* Extract decimal digit, indexed by 'digIndex', from 'value' and
 678:Generated_Source\PSoC5/LCD_Character_Display.c ****             * convert it to ASCII character.
 679:Generated_Source\PSoC5/LCD_Character_Display.c ****             */
 680:Generated_Source\PSoC5/LCD_Character_Display.c ****             tmpDigit = (uint8) (((uint8) (value % LCD_Character_Display_TEN)) + (uint8) LCD_Charact
 1059              		.loc 1 680 0
 1060 0022 7968     		ldr	r1, [r7, #4]
 1061 0024 1E4B     		ldr	r3, .L49
 1062 0026 A3FB0123 		umull	r2, r3, r3, r1
 1063 002a DA08     		lsrs	r2, r3, #3
 1064 002c 1346     		mov	r3, r2
 1065 002e 9B00     		lsls	r3, r3, #2
 1066 0030 1344     		add	r3, r3, r2
 1067 0032 5B00     		lsls	r3, r3, #1
 1068 0034 CA1A     		subs	r2, r1, r3
 1069 0036 D3B2     		uxtb	r3, r2
 1070 0038 3033     		adds	r3, r3, #48
 1071 003a BB75     		strb	r3, [r7, #22]
 681:Generated_Source\PSoC5/LCD_Character_Display.c ****             
 682:Generated_Source\PSoC5/LCD_Character_Display.c ****             /* Temporary variable 'tmpDigit' is used to avoid Violation of MISRA rule 
 683:Generated_Source\PSoC5/LCD_Character_Display.c ****             * #10.3.
 684:Generated_Source\PSoC5/LCD_Character_Display.c ****             */
 685:Generated_Source\PSoC5/LCD_Character_Display.c ****             number[digIndex] = (char8) tmpDigit;
 1072              		.loc 1 685 0
 1073 003c FB7D     		ldrb	r3, [r7, #23]	@ zero_extendqisi2
 1074 003e 07F11802 		add	r2, r7, #24
 1075 0042 1344     		add	r3, r3, r2
 1076 0044 BA7D     		ldrb	r2, [r7, #22]
 1077 0046 03F8102C 		strb	r2, [r3, #-16]
 686:Generated_Source\PSoC5/LCD_Character_Display.c ****             value /= LCD_Character_Display_TEN;
 1078              		.loc 1 686 0
 1079 004a 7B68     		ldr	r3, [r7, #4]
ARM GAS  C:\Users\bmt\AppData\Local\Temp\ccPPvAfH.s 			page 32


 1080 004c 144A     		ldr	r2, .L49
 1081 004e A2FB0323 		umull	r2, r3, r2, r3
 1082 0052 DB08     		lsrs	r3, r3, #3
 1083 0054 7B60     		str	r3, [r7, #4]
 687:Generated_Source\PSoC5/LCD_Character_Display.c ****             digIndex--;
 1084              		.loc 1 687 0
 1085 0056 FB7D     		ldrb	r3, [r7, #23]	@ zero_extendqisi2
 1086 0058 013B     		subs	r3, r3, #1
 1087 005a FB75     		strb	r3, [r7, #23]
 1088              	.L47:
 675:Generated_Source\PSoC5/LCD_Character_Display.c ****         {
 1089              		.loc 1 675 0
 1090 005c 7B68     		ldr	r3, [r7, #4]
 1091 005e 092B     		cmp	r3, #9
 1092 0060 DFD8     		bhi	.L48
 688:Generated_Source\PSoC5/LCD_Character_Display.c ****         }
 689:Generated_Source\PSoC5/LCD_Character_Display.c ****         
 690:Generated_Source\PSoC5/LCD_Character_Display.c ****         /* Extract last decimal digit 'digIndex', from the 'value' and convert it
 691:Generated_Source\PSoC5/LCD_Character_Display.c ****         * to ASCII character.
 692:Generated_Source\PSoC5/LCD_Character_Display.c ****         */
 693:Generated_Source\PSoC5/LCD_Character_Display.c ****         tmpDigit = (uint8) (((uint8)(value % LCD_Character_Display_TEN)) + (uint8) LCD_Character_Di
 1093              		.loc 1 693 0
 1094 0062 7968     		ldr	r1, [r7, #4]
 1095 0064 0E4B     		ldr	r3, .L49
 1096 0066 A3FB0123 		umull	r2, r3, r3, r1
 1097 006a DA08     		lsrs	r2, r3, #3
 1098 006c 1346     		mov	r3, r2
 1099 006e 9B00     		lsls	r3, r3, #2
 1100 0070 1344     		add	r3, r3, r2
 1101 0072 5B00     		lsls	r3, r3, #1
 1102 0074 CA1A     		subs	r2, r1, r3
 1103 0076 D3B2     		uxtb	r3, r2
 1104 0078 3033     		adds	r3, r3, #48
 1105 007a BB75     		strb	r3, [r7, #22]
 694:Generated_Source\PSoC5/LCD_Character_Display.c ****         number[digIndex] = (char8) tmpDigit;
 1106              		.loc 1 694 0
 1107 007c FB7D     		ldrb	r3, [r7, #23]	@ zero_extendqisi2
 1108 007e 07F11802 		add	r2, r7, #24
 1109 0082 1344     		add	r3, r3, r2
 1110 0084 BA7D     		ldrb	r2, [r7, #22]
 1111 0086 03F8102C 		strb	r2, [r3, #-16]
 695:Generated_Source\PSoC5/LCD_Character_Display.c **** 
 696:Generated_Source\PSoC5/LCD_Character_Display.c ****         /* Print out number */
 697:Generated_Source\PSoC5/LCD_Character_Display.c ****         LCD_Character_Display_PrintString(&number[digIndex]);
 1112              		.loc 1 697 0
 1113 008a FB7D     		ldrb	r3, [r7, #23]	@ zero_extendqisi2
 1114 008c 07F10802 		add	r2, r7, #8
 1115 0090 1344     		add	r3, r3, r2
 1116 0092 1846     		mov	r0, r3
 1117 0094 FFF7FEFF 		bl	LCD_Character_Display_PrintString
 698:Generated_Source\PSoC5/LCD_Character_Display.c ****     }
 1118              		.loc 1 698 0
 1119 0098 1837     		adds	r7, r7, #24
 1120              		.cfi_def_cfa_offset 8
 1121 009a BD46     		mov	sp, r7
 1122              		.cfi_def_cfa_register 13
 1123              		@ sp needed
ARM GAS  C:\Users\bmt\AppData\Local\Temp\ccPPvAfH.s 			page 33


 1124 009c 80BD     		pop	{r7, pc}
 1125              	.L50:
 1126 009e 00BF     		.align	2
 1127              	.L49:
 1128 00a0 CDCCCCCC 		.word	-858993459
 1129              		.cfi_endproc
 1130              	.LFE15:
 1131              		.size	LCD_Character_Display_PrintU32Number, .-LCD_Character_Display_PrintU32Number
 1132              		.section	.rodata
 1133              		.align	2
 1134              		.type	LCD_Character_Display_hex.4905, %object
 1135              		.size	LCD_Character_Display_hex.4905, 16
 1136              	LCD_Character_Display_hex.4905:
 1137 0000 30313233 		.ascii	"0123456789ABCDEF"
 1137      34353637 
 1137      38394142 
 1137      43444546 
 1138              		.text
 1139              	.Letext0:
 1140              		.file 2 "Generated_Source\\PSoC5\\cytypes.h"
 1141              		.section	.debug_info,"",%progbits
 1142              	.Ldebug_info0:
 1143 0000 C4030000 		.4byte	0x3c4
 1144 0004 0400     		.2byte	0x4
 1145 0006 00000000 		.4byte	.Ldebug_abbrev0
 1146 000a 04       		.byte	0x4
 1147 000b 01       		.uleb128 0x1
 1148 000c 0A020000 		.4byte	.LASF51
 1149 0010 01       		.byte	0x1
 1150 0011 4E040000 		.4byte	.LASF52
 1151 0015 25010000 		.4byte	.LASF53
 1152 0019 00000000 		.4byte	.Ldebug_ranges0+0
 1153 001d 00000000 		.4byte	0
 1154 0021 00000000 		.4byte	.Ldebug_line0
 1155 0025 02       		.uleb128 0x2
 1156 0026 04       		.byte	0x4
 1157 0027 05       		.byte	0x5
 1158 0028 696E7400 		.ascii	"int\000"
 1159 002c 03       		.uleb128 0x3
 1160 002d 04       		.byte	0x4
 1161 002e 07       		.byte	0x7
 1162 002f DF020000 		.4byte	.LASF0
 1163 0033 03       		.uleb128 0x3
 1164 0034 01       		.byte	0x1
 1165 0035 06       		.byte	0x6
 1166 0036 7D040000 		.4byte	.LASF1
 1167 003a 03       		.uleb128 0x3
 1168 003b 01       		.byte	0x1
 1169 003c 08       		.byte	0x8
 1170 003d 17010000 		.4byte	.LASF2
 1171 0041 03       		.uleb128 0x3
 1172 0042 02       		.byte	0x2
 1173 0043 05       		.byte	0x5
 1174 0044 BE020000 		.4byte	.LASF3
 1175 0048 03       		.uleb128 0x3
 1176 0049 02       		.byte	0x2
 1177 004a 07       		.byte	0x7
ARM GAS  C:\Users\bmt\AppData\Local\Temp\ccPPvAfH.s 			page 34


 1178 004b B0000000 		.4byte	.LASF4
 1179 004f 03       		.uleb128 0x3
 1180 0050 04       		.byte	0x4
 1181 0051 05       		.byte	0x5
 1182 0052 40040000 		.4byte	.LASF5
 1183 0056 03       		.uleb128 0x3
 1184 0057 04       		.byte	0x4
 1185 0058 07       		.byte	0x7
 1186 0059 D1010000 		.4byte	.LASF6
 1187 005d 03       		.uleb128 0x3
 1188 005e 08       		.byte	0x8
 1189 005f 05       		.byte	0x5
 1190 0060 34030000 		.4byte	.LASF7
 1191 0064 03       		.uleb128 0x3
 1192 0065 08       		.byte	0x8
 1193 0066 07       		.byte	0x7
 1194 0067 EC020000 		.4byte	.LASF8
 1195 006b 03       		.uleb128 0x3
 1196 006c 04       		.byte	0x4
 1197 006d 07       		.byte	0x7
 1198 006e 25030000 		.4byte	.LASF9
 1199 0072 03       		.uleb128 0x3
 1200 0073 01       		.byte	0x1
 1201 0074 08       		.byte	0x8
 1202 0075 49040000 		.4byte	.LASF10
 1203 0079 04       		.uleb128 0x4
 1204 007a 04020000 		.4byte	.LASF11
 1205 007e 02       		.byte	0x2
 1206 007f 9201     		.2byte	0x192
 1207 0081 3A000000 		.4byte	0x3a
 1208 0085 04       		.uleb128 0x4
 1209 0086 C8020000 		.4byte	.LASF12
 1210 008a 02       		.byte	0x2
 1211 008b 9301     		.2byte	0x193
 1212 008d 48000000 		.4byte	0x48
 1213 0091 04       		.uleb128 0x4
 1214 0092 D8020000 		.4byte	.LASF13
 1215 0096 02       		.byte	0x2
 1216 0097 9401     		.2byte	0x194
 1217 0099 56000000 		.4byte	0x56
 1218 009d 03       		.uleb128 0x3
 1219 009e 04       		.byte	0x4
 1220 009f 04       		.byte	0x4
 1221 00a0 F3000000 		.4byte	.LASF14
 1222 00a4 03       		.uleb128 0x3
 1223 00a5 08       		.byte	0x8
 1224 00a6 04       		.byte	0x4
 1225 00a7 98020000 		.4byte	.LASF15
 1226 00ab 04       		.uleb128 0x4
 1227 00ac 2E030000 		.4byte	.LASF16
 1228 00b0 02       		.byte	0x2
 1229 00b1 A301     		.2byte	0x1a3
 1230 00b3 72000000 		.4byte	0x72
 1231 00b7 04       		.uleb128 0x4
 1232 00b8 8E010000 		.4byte	.LASF17
 1233 00bc 02       		.byte	0x2
 1234 00bd 3C02     		.2byte	0x23c
ARM GAS  C:\Users\bmt\AppData\Local\Temp\ccPPvAfH.s 			page 35


 1235 00bf C3000000 		.4byte	0xc3
 1236 00c3 05       		.uleb128 0x5
 1237 00c4 79000000 		.4byte	0x79
 1238 00c8 06       		.uleb128 0x6
 1239 00c9 0A030000 		.4byte	.LASF18
 1240 00cd 01       		.byte	0x1
 1241 00ce 37       		.byte	0x37
 1242 00cf 00000000 		.4byte	.LFB0
 1243 00d3 6C000000 		.4byte	.LFE0-.LFB0
 1244 00d7 01       		.uleb128 0x1
 1245 00d8 9C       		.byte	0x9c
 1246 00d9 06       		.uleb128 0x6
 1247 00da B4010000 		.4byte	.LASF19
 1248 00de 01       		.byte	0x1
 1249 00df 68       		.byte	0x68
 1250 00e0 00000000 		.4byte	.LFB1
 1251 00e4 18000000 		.4byte	.LFE1-.LFB1
 1252 00e8 01       		.uleb128 0x1
 1253 00e9 9C       		.byte	0x9c
 1254 00ea 06       		.uleb128 0x6
 1255 00eb 94000000 		.4byte	.LASF20
 1256 00ef 01       		.byte	0x1
 1257 00f0 89       		.byte	0x89
 1258 00f1 00000000 		.4byte	.LFB2
 1259 00f5 20000000 		.4byte	.LFE2-.LFB2
 1260 00f9 01       		.uleb128 0x1
 1261 00fa 9C       		.byte	0x9c
 1262 00fb 06       		.uleb128 0x6
 1263 00fc 00000000 		.4byte	.LASF21
 1264 0100 01       		.byte	0x1
 1265 0101 A8       		.byte	0xa8
 1266 0102 00000000 		.4byte	.LFB3
 1267 0106 18000000 		.4byte	.LFE3-.LFB3
 1268 010a 01       		.uleb128 0x1
 1269 010b 9C       		.byte	0x9c
 1270 010c 07       		.uleb128 0x7
 1271 010d FE030000 		.4byte	.LASF23
 1272 0111 01       		.byte	0x1
 1273 0112 C4       		.byte	0xc4
 1274 0113 00000000 		.4byte	.LFB4
 1275 0117 6C000000 		.4byte	.LFE4-.LFB4
 1276 011b 01       		.uleb128 0x1
 1277 011c 9C       		.byte	0x9c
 1278 011d 3E010000 		.4byte	0x13e
 1279 0121 08       		.uleb128 0x8
 1280 0122 726F7700 		.ascii	"row\000"
 1281 0126 01       		.byte	0x1
 1282 0127 C4       		.byte	0xc4
 1283 0128 79000000 		.4byte	0x79
 1284 012c 02       		.uleb128 0x2
 1285 012d 91       		.byte	0x91
 1286 012e 77       		.sleb128 -9
 1287 012f 09       		.uleb128 0x9
 1288 0130 EC000000 		.4byte	.LASF22
 1289 0134 01       		.byte	0x1
 1290 0135 C4       		.byte	0xc4
 1291 0136 79000000 		.4byte	0x79
ARM GAS  C:\Users\bmt\AppData\Local\Temp\ccPPvAfH.s 			page 36


 1292 013a 02       		.uleb128 0x2
 1293 013b 91       		.byte	0x91
 1294 013c 76       		.sleb128 -10
 1295 013d 00       		.byte	0
 1296 013e 07       		.uleb128 0x7
 1297 013f 42030000 		.4byte	.LASF24
 1298 0143 01       		.byte	0x1
 1299 0144 E9       		.byte	0xe9
 1300 0145 00000000 		.4byte	.LFB5
 1301 0149 38000000 		.4byte	.LFE5-.LFB5
 1302 014d 01       		.uleb128 0x1
 1303 014e 9C       		.byte	0x9c
 1304 014f 7E010000 		.4byte	0x17e
 1305 0153 09       		.uleb128 0x9
 1306 0154 E5000000 		.4byte	.LASF25
 1307 0158 01       		.byte	0x1
 1308 0159 E9       		.byte	0xe9
 1309 015a 7E010000 		.4byte	0x17e
 1310 015e 02       		.uleb128 0x2
 1311 015f 91       		.byte	0x91
 1312 0160 6C       		.sleb128 -20
 1313 0161 0A       		.uleb128 0xa
 1314 0162 C3000000 		.4byte	.LASF26
 1315 0166 01       		.byte	0x1
 1316 0167 EB       		.byte	0xeb
 1317 0168 79000000 		.4byte	0x79
 1318 016c 02       		.uleb128 0x2
 1319 016d 91       		.byte	0x91
 1320 016e 77       		.sleb128 -9
 1321 016f 0A       		.uleb128 0xa
 1322 0170 F6030000 		.4byte	.LASF27
 1323 0174 01       		.byte	0x1
 1324 0175 EC       		.byte	0xec
 1325 0176 AB000000 		.4byte	0xab
 1326 017a 02       		.uleb128 0x2
 1327 017b 91       		.byte	0x91
 1328 017c 76       		.sleb128 -10
 1329 017d 00       		.byte	0
 1330 017e 0B       		.uleb128 0xb
 1331 017f 04       		.byte	0x4
 1332 0180 84010000 		.4byte	0x184
 1333 0184 0C       		.uleb128 0xc
 1334 0185 AB000000 		.4byte	0xab
 1335 0189 0D       		.uleb128 0xd
 1336 018a 8C030000 		.4byte	.LASF28
 1337 018e 01       		.byte	0x1
 1338 018f 0801     		.2byte	0x108
 1339 0191 00000000 		.4byte	.LFB6
 1340 0195 18000000 		.4byte	.LFE6-.LFB6
 1341 0199 01       		.uleb128 0x1
 1342 019a 9C       		.byte	0x9c
 1343 019b AF010000 		.4byte	0x1af
 1344 019f 0E       		.uleb128 0xe
 1345 01a0 84000000 		.4byte	.LASF29
 1346 01a4 01       		.byte	0x1
 1347 01a5 0801     		.2byte	0x108
 1348 01a7 AB000000 		.4byte	0xab
ARM GAS  C:\Users\bmt\AppData\Local\Temp\ccPPvAfH.s 			page 37


 1349 01ab 02       		.uleb128 0x2
 1350 01ac 91       		.byte	0x91
 1351 01ad 77       		.sleb128 -9
 1352 01ae 00       		.byte	0
 1353 01af 0D       		.uleb128 0xd
 1354 01b0 6C030000 		.4byte	.LASF30
 1355 01b4 01       		.byte	0x1
 1356 01b5 1C01     		.2byte	0x11c
 1357 01b7 00000000 		.4byte	.LFB7
 1358 01bb 32000000 		.4byte	.LFE7-.LFB7
 1359 01bf 01       		.uleb128 0x1
 1360 01c0 9C       		.byte	0x9c
 1361 01c1 E4010000 		.4byte	0x1e4
 1362 01c5 0E       		.uleb128 0xe
 1363 01c6 89040000 		.4byte	.LASF31
 1364 01ca 01       		.byte	0x1
 1365 01cb 1C01     		.2byte	0x11c
 1366 01cd 79000000 		.4byte	0x79
 1367 01d1 02       		.uleb128 0x2
 1368 01d2 91       		.byte	0x91
 1369 01d3 6F       		.sleb128 -17
 1370 01d4 0F       		.uleb128 0xf
 1371 01d5 95040000 		.4byte	.LASF32
 1372 01d9 01       		.byte	0x1
 1373 01da 1E01     		.2byte	0x11e
 1374 01dc 79000000 		.4byte	0x79
 1375 01e0 02       		.uleb128 0x2
 1376 01e1 91       		.byte	0x91
 1377 01e2 77       		.sleb128 -9
 1378 01e3 00       		.byte	0
 1379 01e4 0D       		.uleb128 0xd
 1380 01e5 1D040000 		.4byte	.LASF33
 1381 01e9 01       		.byte	0x1
 1382 01ea 3A01     		.2byte	0x13a
 1383 01ec 00000000 		.4byte	.LFB8
 1384 01f0 32000000 		.4byte	.LFE8-.LFB8
 1385 01f4 01       		.uleb128 0x1
 1386 01f5 9C       		.byte	0x9c
 1387 01f6 19020000 		.4byte	0x219
 1388 01fa 0E       		.uleb128 0xe
 1389 01fb 8F040000 		.4byte	.LASF34
 1390 01ff 01       		.byte	0x1
 1391 0200 3A01     		.2byte	0x13a
 1392 0202 79000000 		.4byte	0x79
 1393 0206 02       		.uleb128 0x2
 1394 0207 91       		.byte	0x91
 1395 0208 6F       		.sleb128 -17
 1396 0209 0F       		.uleb128 0xf
 1397 020a 95040000 		.4byte	.LASF32
 1398 020e 01       		.byte	0x1
 1399 020f 3C01     		.2byte	0x13c
 1400 0211 79000000 		.4byte	0x79
 1401 0215 02       		.uleb128 0x2
 1402 0216 91       		.byte	0x91
 1403 0217 77       		.sleb128 -9
 1404 0218 00       		.byte	0
 1405 0219 0D       		.uleb128 0xd
ARM GAS  C:\Users\bmt\AppData\Local\Temp\ccPPvAfH.s 			page 38


 1406 021a 46000000 		.4byte	.LASF35
 1407 021e 01       		.byte	0x1
 1408 021f 5C01     		.2byte	0x15c
 1409 0221 00000000 		.4byte	.LFB9
 1410 0225 78010000 		.4byte	.LFE9-.LFB9
 1411 0229 01       		.uleb128 0x1
 1412 022a 9C       		.byte	0x9c
 1413 022b 4E020000 		.4byte	0x24e
 1414 022f 0F       		.uleb128 0xf
 1415 0230 8E000000 		.4byte	.LASF36
 1416 0234 01       		.byte	0x1
 1417 0235 5E01     		.2byte	0x15e
 1418 0237 79000000 		.4byte	0x79
 1419 023b 02       		.uleb128 0x2
 1420 023c 91       		.byte	0x91
 1421 023d 73       		.sleb128 -13
 1422 023e 0F       		.uleb128 0xf
 1423 023f 64030000 		.4byte	.LASF37
 1424 0243 01       		.byte	0x1
 1425 0244 5F01     		.2byte	0x15f
 1426 0246 91000000 		.4byte	0x91
 1427 024a 02       		.uleb128 0x2
 1428 024b 91       		.byte	0x91
 1429 024c 74       		.sleb128 -12
 1430 024d 00       		.byte	0
 1431 024e 10       		.uleb128 0x10
 1432 024f 9F020000 		.4byte	.LASF38
 1433 0253 01       		.byte	0x1
 1434 0254 E601     		.2byte	0x1e6
 1435 0256 00000000 		.4byte	.LFB10
 1436 025a 78000000 		.4byte	.LFE10-.LFB10
 1437 025e 01       		.uleb128 0x1
 1438 025f 9C       		.byte	0x9c
 1439 0260 74020000 		.4byte	0x274
 1440 0264 0E       		.uleb128 0xe
 1441 0265 95040000 		.4byte	.LASF32
 1442 0269 01       		.byte	0x1
 1443 026a E601     		.2byte	0x1e6
 1444 026c 79000000 		.4byte	0x79
 1445 0270 02       		.uleb128 0x2
 1446 0271 91       		.byte	0x91
 1447 0272 77       		.sleb128 -9
 1448 0273 00       		.byte	0
 1449 0274 10       		.uleb128 0x10
 1450 0275 D5030000 		.4byte	.LASF39
 1451 0279 01       		.byte	0x1
 1452 027a 1002     		.2byte	0x210
 1453 027c 00000000 		.4byte	.LFB11
 1454 0280 60000000 		.4byte	.LFE11-.LFB11
 1455 0284 01       		.uleb128 0x1
 1456 0285 9C       		.byte	0x9c
 1457 0286 9A020000 		.4byte	0x29a
 1458 028a 0E       		.uleb128 0xe
 1459 028b 95040000 		.4byte	.LASF32
 1460 028f 01       		.byte	0x1
 1461 0290 1002     		.2byte	0x210
 1462 0292 79000000 		.4byte	0x79
ARM GAS  C:\Users\bmt\AppData\Local\Temp\ccPPvAfH.s 			page 39


 1463 0296 02       		.uleb128 0x2
 1464 0297 91       		.byte	0x91
 1465 0298 77       		.sleb128 -9
 1466 0299 00       		.byte	0
 1467 029a 0D       		.uleb128 0xd
 1468 029b 64000000 		.4byte	.LASF40
 1469 029f 01       		.byte	0x1
 1470 02a0 3802     		.2byte	0x238
 1471 02a2 00000000 		.4byte	.LFB12
 1472 02a6 38000000 		.4byte	.LFE12-.LFB12
 1473 02aa 01       		.uleb128 0x1
 1474 02ab 9C       		.byte	0x9c
 1475 02ac D2020000 		.4byte	0x2d2
 1476 02b0 0E       		.uleb128 0xe
 1477 02b1 8E000000 		.4byte	.LASF36
 1478 02b5 01       		.byte	0x1
 1479 02b6 3802     		.2byte	0x238
 1480 02b8 79000000 		.4byte	0x79
 1481 02bc 02       		.uleb128 0x2
 1482 02bd 91       		.byte	0x91
 1483 02be 77       		.sleb128 -9
 1484 02bf 0F       		.uleb128 0xf
 1485 02c0 CB000000 		.4byte	.LASF41
 1486 02c4 01       		.byte	0x1
 1487 02c5 3A02     		.2byte	0x23a
 1488 02c7 E2020000 		.4byte	0x2e2
 1489 02cb 05       		.uleb128 0x5
 1490 02cc 03       		.byte	0x3
 1491 02cd 00000000 		.4byte	LCD_Character_Display_hex.4905
 1492 02d1 00       		.byte	0
 1493 02d2 11       		.uleb128 0x11
 1494 02d3 AB000000 		.4byte	0xab
 1495 02d7 E2020000 		.4byte	0x2e2
 1496 02db 12       		.uleb128 0x12
 1497 02dc 6B000000 		.4byte	0x6b
 1498 02e0 0F       		.byte	0xf
 1499 02e1 00       		.byte	0
 1500 02e2 0C       		.uleb128 0xc
 1501 02e3 D2020000 		.4byte	0x2d2
 1502 02e7 0D       		.uleb128 0xd
 1503 02e8 93010000 		.4byte	.LASF42
 1504 02ec 01       		.byte	0x1
 1505 02ed 4F02     		.2byte	0x24f
 1506 02ef 00000000 		.4byte	.LFB13
 1507 02f3 28000000 		.4byte	.LFE13-.LFB13
 1508 02f7 01       		.uleb128 0x1
 1509 02f8 9C       		.byte	0x9c
 1510 02f9 0D030000 		.4byte	0x30d
 1511 02fd 0E       		.uleb128 0xe
 1512 02fe 8E000000 		.4byte	.LASF36
 1513 0302 01       		.byte	0x1
 1514 0303 4F02     		.2byte	0x24f
 1515 0305 85000000 		.4byte	0x85
 1516 0309 02       		.uleb128 0x2
 1517 030a 91       		.byte	0x91
 1518 030b 76       		.sleb128 -10
 1519 030c 00       		.byte	0
ARM GAS  C:\Users\bmt\AppData\Local\Temp\ccPPvAfH.s 			page 40


 1520 030d 0D       		.uleb128 0xd
 1521 030e E3010000 		.4byte	.LASF43
 1522 0312 01       		.byte	0x1
 1523 0313 6402     		.2byte	0x264
 1524 0315 00000000 		.4byte	.LFB14
 1525 0319 30000000 		.4byte	.LFE14-.LFB14
 1526 031d 01       		.uleb128 0x1
 1527 031e 9C       		.byte	0x9c
 1528 031f 42030000 		.4byte	0x342
 1529 0323 0E       		.uleb128 0xe
 1530 0324 8E000000 		.4byte	.LASF36
 1531 0328 01       		.byte	0x1
 1532 0329 6402     		.2byte	0x264
 1533 032b 91000000 		.4byte	0x91
 1534 032f 02       		.uleb128 0x2
 1535 0330 91       		.byte	0x91
 1536 0331 6C       		.sleb128 -20
 1537 0332 0F       		.uleb128 0xf
 1538 0333 1B000000 		.4byte	.LASF44
 1539 0337 01       		.byte	0x1
 1540 0338 6602     		.2byte	0x266
 1541 033a 79000000 		.4byte	0x79
 1542 033e 02       		.uleb128 0x2
 1543 033f 91       		.byte	0x91
 1544 0340 77       		.sleb128 -9
 1545 0341 00       		.byte	0
 1546 0342 0D       		.uleb128 0xd
 1547 0343 21000000 		.4byte	.LASF45
 1548 0347 01       		.byte	0x1
 1549 0348 9602     		.2byte	0x296
 1550 034a 00000000 		.4byte	.LFB15
 1551 034e A4000000 		.4byte	.LFE15-.LFB15
 1552 0352 01       		.uleb128 0x1
 1553 0353 9C       		.byte	0x9c
 1554 0354 95030000 		.4byte	0x395
 1555 0358 0E       		.uleb128 0xe
 1556 0359 8E000000 		.4byte	.LASF36
 1557 035d 01       		.byte	0x1
 1558 035e 9602     		.2byte	0x296
 1559 0360 91000000 		.4byte	0x91
 1560 0364 02       		.uleb128 0x2
 1561 0365 91       		.byte	0x91
 1562 0366 64       		.sleb128 -28
 1563 0367 0F       		.uleb128 0xf
 1564 0368 AA030000 		.4byte	.LASF46
 1565 036c 01       		.byte	0x1
 1566 036d 9802     		.2byte	0x298
 1567 036f 79000000 		.4byte	0x79
 1568 0373 02       		.uleb128 0x2
 1569 0374 91       		.byte	0x91
 1570 0375 76       		.sleb128 -10
 1571 0376 0F       		.uleb128 0xf
 1572 0377 03030000 		.4byte	.LASF47
 1573 037b 01       		.byte	0x1
 1574 037c 9902     		.2byte	0x299
 1575 037e 95030000 		.4byte	0x395
 1576 0382 02       		.uleb128 0x2
ARM GAS  C:\Users\bmt\AppData\Local\Temp\ccPPvAfH.s 			page 41


 1577 0383 91       		.byte	0x91
 1578 0384 68       		.sleb128 -24
 1579 0385 0F       		.uleb128 0xf
 1580 0386 CF020000 		.4byte	.LASF48
 1581 038a 01       		.byte	0x1
 1582 038b 9A02     		.2byte	0x29a
 1583 038d 79000000 		.4byte	0x79
 1584 0391 02       		.uleb128 0x2
 1585 0392 91       		.byte	0x91
 1586 0393 77       		.sleb128 -9
 1587 0394 00       		.byte	0
 1588 0395 11       		.uleb128 0x11
 1589 0396 AB000000 		.4byte	0xab
 1590 039a A5030000 		.4byte	0x3a5
 1591 039e 12       		.uleb128 0x12
 1592 039f 6B000000 		.4byte	0x6b
 1593 03a3 0A       		.byte	0xa
 1594 03a4 00       		.byte	0
 1595 03a5 13       		.uleb128 0x13
 1596 03a6 F9000000 		.4byte	.LASF49
 1597 03aa 01       		.byte	0x1
 1598 03ab 1D       		.byte	0x1d
 1599 03ac 79000000 		.4byte	0x79
 1600 03b0 05       		.uleb128 0x5
 1601 03b1 03       		.byte	0x3
 1602 03b2 00000000 		.4byte	LCD_Character_Display_initVar
 1603 03b6 13       		.uleb128 0x13
 1604 03b7 B3030000 		.4byte	.LASF50
 1605 03bb 01       		.byte	0x1
 1606 03bc 1B       		.byte	0x1b
 1607 03bd 79000000 		.4byte	0x79
 1608 03c1 05       		.uleb128 0x5
 1609 03c2 03       		.byte	0x3
 1610 03c3 00000000 		.4byte	LCD_Character_Display_enableState
 1611 03c7 00       		.byte	0
 1612              		.section	.debug_abbrev,"",%progbits
 1613              	.Ldebug_abbrev0:
 1614 0000 01       		.uleb128 0x1
 1615 0001 11       		.uleb128 0x11
 1616 0002 01       		.byte	0x1
 1617 0003 25       		.uleb128 0x25
 1618 0004 0E       		.uleb128 0xe
 1619 0005 13       		.uleb128 0x13
 1620 0006 0B       		.uleb128 0xb
 1621 0007 03       		.uleb128 0x3
 1622 0008 0E       		.uleb128 0xe
 1623 0009 1B       		.uleb128 0x1b
 1624 000a 0E       		.uleb128 0xe
 1625 000b 55       		.uleb128 0x55
 1626 000c 17       		.uleb128 0x17
 1627 000d 11       		.uleb128 0x11
 1628 000e 01       		.uleb128 0x1
 1629 000f 10       		.uleb128 0x10
 1630 0010 17       		.uleb128 0x17
 1631 0011 00       		.byte	0
 1632 0012 00       		.byte	0
 1633 0013 02       		.uleb128 0x2
ARM GAS  C:\Users\bmt\AppData\Local\Temp\ccPPvAfH.s 			page 42


 1634 0014 24       		.uleb128 0x24
 1635 0015 00       		.byte	0
 1636 0016 0B       		.uleb128 0xb
 1637 0017 0B       		.uleb128 0xb
 1638 0018 3E       		.uleb128 0x3e
 1639 0019 0B       		.uleb128 0xb
 1640 001a 03       		.uleb128 0x3
 1641 001b 08       		.uleb128 0x8
 1642 001c 00       		.byte	0
 1643 001d 00       		.byte	0
 1644 001e 03       		.uleb128 0x3
 1645 001f 24       		.uleb128 0x24
 1646 0020 00       		.byte	0
 1647 0021 0B       		.uleb128 0xb
 1648 0022 0B       		.uleb128 0xb
 1649 0023 3E       		.uleb128 0x3e
 1650 0024 0B       		.uleb128 0xb
 1651 0025 03       		.uleb128 0x3
 1652 0026 0E       		.uleb128 0xe
 1653 0027 00       		.byte	0
 1654 0028 00       		.byte	0
 1655 0029 04       		.uleb128 0x4
 1656 002a 16       		.uleb128 0x16
 1657 002b 00       		.byte	0
 1658 002c 03       		.uleb128 0x3
 1659 002d 0E       		.uleb128 0xe
 1660 002e 3A       		.uleb128 0x3a
 1661 002f 0B       		.uleb128 0xb
 1662 0030 3B       		.uleb128 0x3b
 1663 0031 05       		.uleb128 0x5
 1664 0032 49       		.uleb128 0x49
 1665 0033 13       		.uleb128 0x13
 1666 0034 00       		.byte	0
 1667 0035 00       		.byte	0
 1668 0036 05       		.uleb128 0x5
 1669 0037 35       		.uleb128 0x35
 1670 0038 00       		.byte	0
 1671 0039 49       		.uleb128 0x49
 1672 003a 13       		.uleb128 0x13
 1673 003b 00       		.byte	0
 1674 003c 00       		.byte	0
 1675 003d 06       		.uleb128 0x6
 1676 003e 2E       		.uleb128 0x2e
 1677 003f 00       		.byte	0
 1678 0040 3F       		.uleb128 0x3f
 1679 0041 19       		.uleb128 0x19
 1680 0042 03       		.uleb128 0x3
 1681 0043 0E       		.uleb128 0xe
 1682 0044 3A       		.uleb128 0x3a
 1683 0045 0B       		.uleb128 0xb
 1684 0046 3B       		.uleb128 0x3b
 1685 0047 0B       		.uleb128 0xb
 1686 0048 27       		.uleb128 0x27
 1687 0049 19       		.uleb128 0x19
 1688 004a 11       		.uleb128 0x11
 1689 004b 01       		.uleb128 0x1
 1690 004c 12       		.uleb128 0x12
ARM GAS  C:\Users\bmt\AppData\Local\Temp\ccPPvAfH.s 			page 43


 1691 004d 06       		.uleb128 0x6
 1692 004e 40       		.uleb128 0x40
 1693 004f 18       		.uleb128 0x18
 1694 0050 9642     		.uleb128 0x2116
 1695 0052 19       		.uleb128 0x19
 1696 0053 00       		.byte	0
 1697 0054 00       		.byte	0
 1698 0055 07       		.uleb128 0x7
 1699 0056 2E       		.uleb128 0x2e
 1700 0057 01       		.byte	0x1
 1701 0058 3F       		.uleb128 0x3f
 1702 0059 19       		.uleb128 0x19
 1703 005a 03       		.uleb128 0x3
 1704 005b 0E       		.uleb128 0xe
 1705 005c 3A       		.uleb128 0x3a
 1706 005d 0B       		.uleb128 0xb
 1707 005e 3B       		.uleb128 0x3b
 1708 005f 0B       		.uleb128 0xb
 1709 0060 27       		.uleb128 0x27
 1710 0061 19       		.uleb128 0x19
 1711 0062 11       		.uleb128 0x11
 1712 0063 01       		.uleb128 0x1
 1713 0064 12       		.uleb128 0x12
 1714 0065 06       		.uleb128 0x6
 1715 0066 40       		.uleb128 0x40
 1716 0067 18       		.uleb128 0x18
 1717 0068 9642     		.uleb128 0x2116
 1718 006a 19       		.uleb128 0x19
 1719 006b 01       		.uleb128 0x1
 1720 006c 13       		.uleb128 0x13
 1721 006d 00       		.byte	0
 1722 006e 00       		.byte	0
 1723 006f 08       		.uleb128 0x8
 1724 0070 05       		.uleb128 0x5
 1725 0071 00       		.byte	0
 1726 0072 03       		.uleb128 0x3
 1727 0073 08       		.uleb128 0x8
 1728 0074 3A       		.uleb128 0x3a
 1729 0075 0B       		.uleb128 0xb
 1730 0076 3B       		.uleb128 0x3b
 1731 0077 0B       		.uleb128 0xb
 1732 0078 49       		.uleb128 0x49
 1733 0079 13       		.uleb128 0x13
 1734 007a 02       		.uleb128 0x2
 1735 007b 18       		.uleb128 0x18
 1736 007c 00       		.byte	0
 1737 007d 00       		.byte	0
 1738 007e 09       		.uleb128 0x9
 1739 007f 05       		.uleb128 0x5
 1740 0080 00       		.byte	0
 1741 0081 03       		.uleb128 0x3
 1742 0082 0E       		.uleb128 0xe
 1743 0083 3A       		.uleb128 0x3a
 1744 0084 0B       		.uleb128 0xb
 1745 0085 3B       		.uleb128 0x3b
 1746 0086 0B       		.uleb128 0xb
 1747 0087 49       		.uleb128 0x49
ARM GAS  C:\Users\bmt\AppData\Local\Temp\ccPPvAfH.s 			page 44


 1748 0088 13       		.uleb128 0x13
 1749 0089 02       		.uleb128 0x2
 1750 008a 18       		.uleb128 0x18
 1751 008b 00       		.byte	0
 1752 008c 00       		.byte	0
 1753 008d 0A       		.uleb128 0xa
 1754 008e 34       		.uleb128 0x34
 1755 008f 00       		.byte	0
 1756 0090 03       		.uleb128 0x3
 1757 0091 0E       		.uleb128 0xe
 1758 0092 3A       		.uleb128 0x3a
 1759 0093 0B       		.uleb128 0xb
 1760 0094 3B       		.uleb128 0x3b
 1761 0095 0B       		.uleb128 0xb
 1762 0096 49       		.uleb128 0x49
 1763 0097 13       		.uleb128 0x13
 1764 0098 02       		.uleb128 0x2
 1765 0099 18       		.uleb128 0x18
 1766 009a 00       		.byte	0
 1767 009b 00       		.byte	0
 1768 009c 0B       		.uleb128 0xb
 1769 009d 0F       		.uleb128 0xf
 1770 009e 00       		.byte	0
 1771 009f 0B       		.uleb128 0xb
 1772 00a0 0B       		.uleb128 0xb
 1773 00a1 49       		.uleb128 0x49
 1774 00a2 13       		.uleb128 0x13
 1775 00a3 00       		.byte	0
 1776 00a4 00       		.byte	0
 1777 00a5 0C       		.uleb128 0xc
 1778 00a6 26       		.uleb128 0x26
 1779 00a7 00       		.byte	0
 1780 00a8 49       		.uleb128 0x49
 1781 00a9 13       		.uleb128 0x13
 1782 00aa 00       		.byte	0
 1783 00ab 00       		.byte	0
 1784 00ac 0D       		.uleb128 0xd
 1785 00ad 2E       		.uleb128 0x2e
 1786 00ae 01       		.byte	0x1
 1787 00af 3F       		.uleb128 0x3f
 1788 00b0 19       		.uleb128 0x19
 1789 00b1 03       		.uleb128 0x3
 1790 00b2 0E       		.uleb128 0xe
 1791 00b3 3A       		.uleb128 0x3a
 1792 00b4 0B       		.uleb128 0xb
 1793 00b5 3B       		.uleb128 0x3b
 1794 00b6 05       		.uleb128 0x5
 1795 00b7 27       		.uleb128 0x27
 1796 00b8 19       		.uleb128 0x19
 1797 00b9 11       		.uleb128 0x11
 1798 00ba 01       		.uleb128 0x1
 1799 00bb 12       		.uleb128 0x12
 1800 00bc 06       		.uleb128 0x6
 1801 00bd 40       		.uleb128 0x40
 1802 00be 18       		.uleb128 0x18
 1803 00bf 9642     		.uleb128 0x2116
 1804 00c1 19       		.uleb128 0x19
ARM GAS  C:\Users\bmt\AppData\Local\Temp\ccPPvAfH.s 			page 45


 1805 00c2 01       		.uleb128 0x1
 1806 00c3 13       		.uleb128 0x13
 1807 00c4 00       		.byte	0
 1808 00c5 00       		.byte	0
 1809 00c6 0E       		.uleb128 0xe
 1810 00c7 05       		.uleb128 0x5
 1811 00c8 00       		.byte	0
 1812 00c9 03       		.uleb128 0x3
 1813 00ca 0E       		.uleb128 0xe
 1814 00cb 3A       		.uleb128 0x3a
 1815 00cc 0B       		.uleb128 0xb
 1816 00cd 3B       		.uleb128 0x3b
 1817 00ce 05       		.uleb128 0x5
 1818 00cf 49       		.uleb128 0x49
 1819 00d0 13       		.uleb128 0x13
 1820 00d1 02       		.uleb128 0x2
 1821 00d2 18       		.uleb128 0x18
 1822 00d3 00       		.byte	0
 1823 00d4 00       		.byte	0
 1824 00d5 0F       		.uleb128 0xf
 1825 00d6 34       		.uleb128 0x34
 1826 00d7 00       		.byte	0
 1827 00d8 03       		.uleb128 0x3
 1828 00d9 0E       		.uleb128 0xe
 1829 00da 3A       		.uleb128 0x3a
 1830 00db 0B       		.uleb128 0xb
 1831 00dc 3B       		.uleb128 0x3b
 1832 00dd 05       		.uleb128 0x5
 1833 00de 49       		.uleb128 0x49
 1834 00df 13       		.uleb128 0x13
 1835 00e0 02       		.uleb128 0x2
 1836 00e1 18       		.uleb128 0x18
 1837 00e2 00       		.byte	0
 1838 00e3 00       		.byte	0
 1839 00e4 10       		.uleb128 0x10
 1840 00e5 2E       		.uleb128 0x2e
 1841 00e6 01       		.byte	0x1
 1842 00e7 03       		.uleb128 0x3
 1843 00e8 0E       		.uleb128 0xe
 1844 00e9 3A       		.uleb128 0x3a
 1845 00ea 0B       		.uleb128 0xb
 1846 00eb 3B       		.uleb128 0x3b
 1847 00ec 05       		.uleb128 0x5
 1848 00ed 27       		.uleb128 0x27
 1849 00ee 19       		.uleb128 0x19
 1850 00ef 11       		.uleb128 0x11
 1851 00f0 01       		.uleb128 0x1
 1852 00f1 12       		.uleb128 0x12
 1853 00f2 06       		.uleb128 0x6
 1854 00f3 40       		.uleb128 0x40
 1855 00f4 18       		.uleb128 0x18
 1856 00f5 9642     		.uleb128 0x2116
 1857 00f7 19       		.uleb128 0x19
 1858 00f8 01       		.uleb128 0x1
 1859 00f9 13       		.uleb128 0x13
 1860 00fa 00       		.byte	0
 1861 00fb 00       		.byte	0
ARM GAS  C:\Users\bmt\AppData\Local\Temp\ccPPvAfH.s 			page 46


 1862 00fc 11       		.uleb128 0x11
 1863 00fd 01       		.uleb128 0x1
 1864 00fe 01       		.byte	0x1
 1865 00ff 49       		.uleb128 0x49
 1866 0100 13       		.uleb128 0x13
 1867 0101 01       		.uleb128 0x1
 1868 0102 13       		.uleb128 0x13
 1869 0103 00       		.byte	0
 1870 0104 00       		.byte	0
 1871 0105 12       		.uleb128 0x12
 1872 0106 21       		.uleb128 0x21
 1873 0107 00       		.byte	0
 1874 0108 49       		.uleb128 0x49
 1875 0109 13       		.uleb128 0x13
 1876 010a 2F       		.uleb128 0x2f
 1877 010b 0B       		.uleb128 0xb
 1878 010c 00       		.byte	0
 1879 010d 00       		.byte	0
 1880 010e 13       		.uleb128 0x13
 1881 010f 34       		.uleb128 0x34
 1882 0110 00       		.byte	0
 1883 0111 03       		.uleb128 0x3
 1884 0112 0E       		.uleb128 0xe
 1885 0113 3A       		.uleb128 0x3a
 1886 0114 0B       		.uleb128 0xb
 1887 0115 3B       		.uleb128 0x3b
 1888 0116 0B       		.uleb128 0xb
 1889 0117 49       		.uleb128 0x49
 1890 0118 13       		.uleb128 0x13
 1891 0119 3F       		.uleb128 0x3f
 1892 011a 19       		.uleb128 0x19
 1893 011b 02       		.uleb128 0x2
 1894 011c 18       		.uleb128 0x18
 1895 011d 00       		.byte	0
 1896 011e 00       		.byte	0
 1897 011f 00       		.byte	0
 1898              		.section	.debug_aranges,"",%progbits
 1899 0000 94000000 		.4byte	0x94
 1900 0004 0200     		.2byte	0x2
 1901 0006 00000000 		.4byte	.Ldebug_info0
 1902 000a 04       		.byte	0x4
 1903 000b 00       		.byte	0
 1904 000c 0000     		.2byte	0
 1905 000e 0000     		.2byte	0
 1906 0010 00000000 		.4byte	.LFB0
 1907 0014 6C000000 		.4byte	.LFE0-.LFB0
 1908 0018 00000000 		.4byte	.LFB1
 1909 001c 18000000 		.4byte	.LFE1-.LFB1
 1910 0020 00000000 		.4byte	.LFB2
 1911 0024 20000000 		.4byte	.LFE2-.LFB2
 1912 0028 00000000 		.4byte	.LFB3
 1913 002c 18000000 		.4byte	.LFE3-.LFB3
 1914 0030 00000000 		.4byte	.LFB4
 1915 0034 6C000000 		.4byte	.LFE4-.LFB4
 1916 0038 00000000 		.4byte	.LFB5
 1917 003c 38000000 		.4byte	.LFE5-.LFB5
 1918 0040 00000000 		.4byte	.LFB6
ARM GAS  C:\Users\bmt\AppData\Local\Temp\ccPPvAfH.s 			page 47


 1919 0044 18000000 		.4byte	.LFE6-.LFB6
 1920 0048 00000000 		.4byte	.LFB7
 1921 004c 32000000 		.4byte	.LFE7-.LFB7
 1922 0050 00000000 		.4byte	.LFB8
 1923 0054 32000000 		.4byte	.LFE8-.LFB8
 1924 0058 00000000 		.4byte	.LFB9
 1925 005c 78010000 		.4byte	.LFE9-.LFB9
 1926 0060 00000000 		.4byte	.LFB10
 1927 0064 78000000 		.4byte	.LFE10-.LFB10
 1928 0068 00000000 		.4byte	.LFB11
 1929 006c 60000000 		.4byte	.LFE11-.LFB11
 1930 0070 00000000 		.4byte	.LFB12
 1931 0074 38000000 		.4byte	.LFE12-.LFB12
 1932 0078 00000000 		.4byte	.LFB13
 1933 007c 28000000 		.4byte	.LFE13-.LFB13
 1934 0080 00000000 		.4byte	.LFB14
 1935 0084 30000000 		.4byte	.LFE14-.LFB14
 1936 0088 00000000 		.4byte	.LFB15
 1937 008c A4000000 		.4byte	.LFE15-.LFB15
 1938 0090 00000000 		.4byte	0
 1939 0094 00000000 		.4byte	0
 1940              		.section	.debug_ranges,"",%progbits
 1941              	.Ldebug_ranges0:
 1942 0000 00000000 		.4byte	.LFB0
 1943 0004 6C000000 		.4byte	.LFE0
 1944 0008 00000000 		.4byte	.LFB1
 1945 000c 18000000 		.4byte	.LFE1
 1946 0010 00000000 		.4byte	.LFB2
 1947 0014 20000000 		.4byte	.LFE2
 1948 0018 00000000 		.4byte	.LFB3
 1949 001c 18000000 		.4byte	.LFE3
 1950 0020 00000000 		.4byte	.LFB4
 1951 0024 6C000000 		.4byte	.LFE4
 1952 0028 00000000 		.4byte	.LFB5
 1953 002c 38000000 		.4byte	.LFE5
 1954 0030 00000000 		.4byte	.LFB6
 1955 0034 18000000 		.4byte	.LFE6
 1956 0038 00000000 		.4byte	.LFB7
 1957 003c 32000000 		.4byte	.LFE7
 1958 0040 00000000 		.4byte	.LFB8
 1959 0044 32000000 		.4byte	.LFE8
 1960 0048 00000000 		.4byte	.LFB9
 1961 004c 78010000 		.4byte	.LFE9
 1962 0050 00000000 		.4byte	.LFB10
 1963 0054 78000000 		.4byte	.LFE10
 1964 0058 00000000 		.4byte	.LFB11
 1965 005c 60000000 		.4byte	.LFE11
 1966 0060 00000000 		.4byte	.LFB12
 1967 0064 38000000 		.4byte	.LFE12
 1968 0068 00000000 		.4byte	.LFB13
 1969 006c 28000000 		.4byte	.LFE13
 1970 0070 00000000 		.4byte	.LFB14
 1971 0074 30000000 		.4byte	.LFE14
 1972 0078 00000000 		.4byte	.LFB15
 1973 007c A4000000 		.4byte	.LFE15
 1974 0080 00000000 		.4byte	0
 1975 0084 00000000 		.4byte	0
ARM GAS  C:\Users\bmt\AppData\Local\Temp\ccPPvAfH.s 			page 48


 1976              		.section	.debug_line,"",%progbits
 1977              	.Ldebug_line0:
 1978 0000 EF010000 		.section	.debug_str,"MS",%progbits,1
 1978      02005200 
 1978      00000201 
 1978      FB0E0D00 
 1978      01010101 
 1979              	.LASF21:
 1980 0000 4C43445F 		.ascii	"LCD_Character_Display_Stop\000"
 1980      43686172 
 1980      61637465 
 1980      725F4469 
 1980      73706C61 
 1981              	.LASF44:
 1982 001b 73686966 		.ascii	"shift\000"
 1982      7400
 1983              	.LASF45:
 1984 0021 4C43445F 		.ascii	"LCD_Character_Display_PrintU32Number\000"
 1984      43686172 
 1984      61637465 
 1984      725F4469 
 1984      73706C61 
 1985              	.LASF35:
 1986 0046 4C43445F 		.ascii	"LCD_Character_Display_IsReady\000"
 1986      43686172 
 1986      61637465 
 1986      725F4469 
 1986      73706C61 
 1987              	.LASF40:
 1988 0064 4C43445F 		.ascii	"LCD_Character_Display_PrintInt8\000"
 1988      43686172 
 1988      61637465 
 1988      725F4469 
 1988      73706C61 
 1989              	.LASF29:
 1990 0084 63686172 		.ascii	"character\000"
 1990      61637465 
 1990      7200
 1991              	.LASF36:
 1992 008e 76616C75 		.ascii	"value\000"
 1992      6500
 1993              	.LASF20:
 1994 0094 4C43445F 		.ascii	"LCD_Character_Display_Start\000"
 1994      43686172 
 1994      61637465 
 1994      725F4469 
 1994      73706C61 
 1995              	.LASF4:
 1996 00b0 73686F72 		.ascii	"short unsigned int\000"
 1996      7420756E 
 1996      7369676E 
 1996      65642069 
 1996      6E7400
 1997              	.LASF26:
 1998 00c3 696E6465 		.ascii	"indexU8\000"
 1998      78553800 
 1999              	.LASF41:
ARM GAS  C:\Users\bmt\AppData\Local\Temp\ccPPvAfH.s 			page 49


 2000 00cb 4C43445F 		.ascii	"LCD_Character_Display_hex\000"
 2000      43686172 
 2000      61637465 
 2000      725F4469 
 2000      73706C61 
 2001              	.LASF25:
 2002 00e5 73747269 		.ascii	"string\000"
 2002      6E6700
 2003              	.LASF22:
 2004 00ec 636F6C75 		.ascii	"column\000"
 2004      6D6E00
 2005              	.LASF14:
 2006 00f3 666C6F61 		.ascii	"float\000"
 2006      7400
 2007              	.LASF49:
 2008 00f9 4C43445F 		.ascii	"LCD_Character_Display_initVar\000"
 2008      43686172 
 2008      61637465 
 2008      725F4469 
 2008      73706C61 
 2009              	.LASF2:
 2010 0117 756E7369 		.ascii	"unsigned char\000"
 2010      676E6564 
 2010      20636861 
 2010      7200
 2011              	.LASF53:
 2012 0125 433A5C55 		.ascii	"C:\\Users\\bmt\\Downloads\\FreeRTOSv9.0.0\\FreeRTOS"
 2012      73657273 
 2012      5C626D74 
 2012      5C446F77 
 2012      6E6C6F61 
 2013 0153 5C44656D 		.ascii	"\\Demo\\CORTEX_CY8C5588_PSoC_Creator_GCC\\FreeRTOS_"
 2013      6F5C434F 
 2013      52544558 
 2013      5F435938 
 2013      43353538 
 2014 0183 44656D6F 		.ascii	"Demo.cydsn\000"
 2014      2E637964 
 2014      736E00
 2015              	.LASF17:
 2016 018e 72656738 		.ascii	"reg8\000"
 2016      00
 2017              	.LASF42:
 2018 0193 4C43445F 		.ascii	"LCD_Character_Display_PrintInt16\000"
 2018      43686172 
 2018      61637465 
 2018      725F4469 
 2018      73706C61 
 2019              	.LASF19:
 2020 01b4 4C43445F 		.ascii	"LCD_Character_Display_Enable\000"
 2020      43686172 
 2020      61637465 
 2020      725F4469 
 2020      73706C61 
 2021              	.LASF6:
 2022 01d1 6C6F6E67 		.ascii	"long unsigned int\000"
 2022      20756E73 
ARM GAS  C:\Users\bmt\AppData\Local\Temp\ccPPvAfH.s 			page 50


 2022      69676E65 
 2022      6420696E 
 2022      7400
 2023              	.LASF43:
 2024 01e3 4C43445F 		.ascii	"LCD_Character_Display_PrintInt32\000"
 2024      43686172 
 2024      61637465 
 2024      725F4469 
 2024      73706C61 
 2025              	.LASF11:
 2026 0204 75696E74 		.ascii	"uint8\000"
 2026      3800
 2027              	.LASF51:
 2028 020a 474E5520 		.ascii	"GNU C 4.9.3 20150303 (release) [ARM/embedded-4_9-br"
 2028      4320342E 
 2028      392E3320 
 2028      32303135 
 2028      30333033 
 2029 023d 616E6368 		.ascii	"anch revision 221220] -mcpu=cortex-m3 -mthumb -g -O"
 2029      20726576 
 2029      6973696F 
 2029      6E203232 
 2029      31323230 
 2030 0270 30202D66 		.ascii	"0 -ffunction-sections -ffat-lto-objects\000"
 2030      66756E63 
 2030      74696F6E 
 2030      2D736563 
 2030      74696F6E 
 2031              	.LASF15:
 2032 0298 646F7562 		.ascii	"double\000"
 2032      6C6500
 2033              	.LASF38:
 2034 029f 4C43445F 		.ascii	"LCD_Character_Display_WrDatNib\000"
 2034      43686172 
 2034      61637465 
 2034      725F4469 
 2034      73706C61 
 2035              	.LASF3:
 2036 02be 73686F72 		.ascii	"short int\000"
 2036      7420696E 
 2036      7400
 2037              	.LASF12:
 2038 02c8 75696E74 		.ascii	"uint16\000"
 2038      313600
 2039              	.LASF48:
 2040 02cf 64696749 		.ascii	"digIndex\000"
 2040      6E646578 
 2040      00
 2041              	.LASF13:
 2042 02d8 75696E74 		.ascii	"uint32\000"
 2042      333200
 2043              	.LASF0:
 2044 02df 756E7369 		.ascii	"unsigned int\000"
 2044      676E6564 
 2044      20696E74 
 2044      00
 2045              	.LASF8:
ARM GAS  C:\Users\bmt\AppData\Local\Temp\ccPPvAfH.s 			page 51


 2046 02ec 6C6F6E67 		.ascii	"long long unsigned int\000"
 2046      206C6F6E 
 2046      6720756E 
 2046      7369676E 
 2046      65642069 
 2047              	.LASF47:
 2048 0303 6E756D62 		.ascii	"number\000"
 2048      657200
 2049              	.LASF18:
 2050 030a 4C43445F 		.ascii	"LCD_Character_Display_Init\000"
 2050      43686172 
 2050      61637465 
 2050      725F4469 
 2050      73706C61 
 2051              	.LASF9:
 2052 0325 73697A65 		.ascii	"sizetype\000"
 2052      74797065 
 2052      00
 2053              	.LASF16:
 2054 032e 63686172 		.ascii	"char8\000"
 2054      3800
 2055              	.LASF7:
 2056 0334 6C6F6E67 		.ascii	"long long int\000"
 2056      206C6F6E 
 2056      6720696E 
 2056      7400
 2057              	.LASF24:
 2058 0342 4C43445F 		.ascii	"LCD_Character_Display_PrintString\000"
 2058      43686172 
 2058      61637465 
 2058      725F4469 
 2058      73706C61 
 2059              	.LASF37:
 2060 0364 74696D65 		.ascii	"timeout\000"
 2060      6F757400 
 2061              	.LASF30:
 2062 036c 4C43445F 		.ascii	"LCD_Character_Display_WriteData\000"
 2062      43686172 
 2062      61637465 
 2062      725F4469 
 2062      73706C61 
 2063              	.LASF28:
 2064 038c 4C43445F 		.ascii	"LCD_Character_Display_PutChar\000"
 2064      43686172 
 2064      61637465 
 2064      725F4469 
 2064      73706C61 
 2065              	.LASF46:
 2066 03aa 746D7044 		.ascii	"tmpDigit\000"
 2066      69676974 
 2066      00
 2067              	.LASF50:
 2068 03b3 4C43445F 		.ascii	"LCD_Character_Display_enableState\000"
 2068      43686172 
 2068      61637465 
 2068      725F4469 
 2068      73706C61 
ARM GAS  C:\Users\bmt\AppData\Local\Temp\ccPPvAfH.s 			page 52


 2069              	.LASF39:
 2070 03d5 4C43445F 		.ascii	"LCD_Character_Display_WrCntrlNib\000"
 2070      43686172 
 2070      61637465 
 2070      725F4469 
 2070      73706C61 
 2071              	.LASF27:
 2072 03f6 63757272 		.ascii	"current\000"
 2072      656E7400 
 2073              	.LASF23:
 2074 03fe 4C43445F 		.ascii	"LCD_Character_Display_Position\000"
 2074      43686172 
 2074      61637465 
 2074      725F4469 
 2074      73706C61 
 2075              	.LASF33:
 2076 041d 4C43445F 		.ascii	"LCD_Character_Display_WriteControl\000"
 2076      43686172 
 2076      61637465 
 2076      725F4469 
 2076      73706C61 
 2077              	.LASF5:
 2078 0440 6C6F6E67 		.ascii	"long int\000"
 2078      20696E74 
 2078      00
 2079              	.LASF10:
 2080 0449 63686172 		.ascii	"char\000"
 2080      00
 2081              	.LASF52:
 2082 044e 47656E65 		.ascii	"Generated_Source\\PSoC5\\LCD_Character_Display.c\000"
 2082      72617465 
 2082      645F536F 
 2082      75726365 
 2082      5C50536F 
 2083              	.LASF1:
 2084 047d 7369676E 		.ascii	"signed char\000"
 2084      65642063 
 2084      68617200 
 2085              	.LASF31:
 2086 0489 64427974 		.ascii	"dByte\000"
 2086      6500
 2087              	.LASF34:
 2088 048f 63427974 		.ascii	"cByte\000"
 2088      6500
 2089              	.LASF32:
 2090 0495 6E696262 		.ascii	"nibble\000"
 2090      6C6500
 2091              		.ident	"GCC: (GNU Tools for ARM Embedded Processors) 4.9.3 20150303 (release) [ARM/embedded-4_9-br
