ARM GAS  C:\Users\bmt\AppData\Local\Temp\ccDIdXzc.s 			page 1


   1              		.syntax unified
   2              		.cpu cortex-m3
   3              		.fpu softvfp
   4              		.eabi_attribute 20, 1
   5              		.eabi_attribute 21, 1
   6              		.eabi_attribute 23, 3
   7              		.eabi_attribute 24, 1
   8              		.eabi_attribute 25, 1
   9              		.eabi_attribute 26, 1
  10              		.eabi_attribute 30, 6
  11              		.eabi_attribute 34, 1
  12              		.eabi_attribute 18, 4
  13              		.thumb
  14              		.file	"main.c"
  15              		.text
  16              	.Ltext0:
  17              		.cfi_sections	.debug_frame
  18              		.section	.rodata
  19              		.align	2
  20              	.LC0:
  21 0000 43686563 		.ascii	"Check\000"
  21      6B00
  22              		.section	.text.main,"ax",%progbits
  23              		.align	2
  24              		.global	main
  25              		.thumb
  26              		.thumb_func
  27              		.type	main, %function
  28              	main:
  29              	.LFB68:
  30              		.file 1 "main.c"
   1:main.c        **** /*
   2:main.c        ****     FreeRTOS V9.0.0 - Copyright (C) 2016 Real Time Engineers Ltd.
   3:main.c        ****     All rights reserved
   4:main.c        **** 
   5:main.c        ****     VISIT http://www.FreeRTOS.org TO ENSURE YOU ARE USING THE LATEST VERSION.
   6:main.c        **** 
   7:main.c        ****     This file is part of the FreeRTOS distribution.
   8:main.c        **** 
   9:main.c        ****     FreeRTOS is free software; you can redistribute it and/or modify it under
  10:main.c        ****     the terms of the GNU General Public License (version 2) as published by the
  11:main.c        ****     Free Software Foundation >>>> AND MODIFIED BY <<<< the FreeRTOS exception.
  12:main.c        **** 
  13:main.c        ****     ***************************************************************************
  14:main.c        ****     >>!   NOTE: The modification to the GPL is included to allow you to     !<<
  15:main.c        ****     >>!   distribute a combined work that includes FreeRTOS without being   !<<
  16:main.c        ****     >>!   obliged to provide the source code for proprietary components     !<<
  17:main.c        ****     >>!   outside of the FreeRTOS kernel.                                   !<<
  18:main.c        ****     ***************************************************************************
  19:main.c        **** 
  20:main.c        ****     FreeRTOS is distributed in the hope that it will be useful, but WITHOUT ANY
  21:main.c        ****     WARRANTY; without even the implied warranty of MERCHANTABILITY or FITNESS
  22:main.c        ****     FOR A PARTICULAR PURPOSE.  Full license text is available on the following
  23:main.c        ****     link: http://www.freertos.org/a00114.html
  24:main.c        **** 
  25:main.c        ****     ***************************************************************************
  26:main.c        ****      *                                                                       *
ARM GAS  C:\Users\bmt\AppData\Local\Temp\ccDIdXzc.s 			page 2


  27:main.c        ****      *    FreeRTOS provides completely free yet professionally developed,    *
  28:main.c        ****      *    robust, strictly quality controlled, supported, and cross          *
  29:main.c        ****      *    platform software that is more than just the market leader, it     *
  30:main.c        ****      *    is the industry's de facto standard.                               *
  31:main.c        ****      *                                                                       *
  32:main.c        ****      *    Help yourself get started quickly while simultaneously helping     *
  33:main.c        ****      *    to support the FreeRTOS project by purchasing a FreeRTOS           *
  34:main.c        ****      *    tutorial book, reference manual, or both:                          *
  35:main.c        ****      *    http://www.FreeRTOS.org/Documentation                              *
  36:main.c        ****      *                                                                       *
  37:main.c        ****     ***************************************************************************
  38:main.c        **** 
  39:main.c        ****     http://www.FreeRTOS.org/FAQHelp.html - Having a problem?  Start by reading
  40:main.c        ****     the FAQ page "My application does not run, what could be wrong?".  Have you
  41:main.c        ****     defined configASSERT()?
  42:main.c        **** 
  43:main.c        ****     http://www.FreeRTOS.org/support - In return for receiving this top quality
  44:main.c        ****     embedded software for free we request you assist our global community by
  45:main.c        ****     participating in the support forum.
  46:main.c        **** 
  47:main.c        ****     http://www.FreeRTOS.org/training - Investing in training allows your team to
  48:main.c        ****     be as productive as possible as early as possible.  Now you can receive
  49:main.c        ****     FreeRTOS training directly from Richard Barry, CEO of Real Time Engineers
  50:main.c        ****     Ltd, and the world's leading authority on the world's leading RTOS.
  51:main.c        **** 
  52:main.c        ****     http://www.FreeRTOS.org/plus - A selection of FreeRTOS ecosystem products,
  53:main.c        ****     including FreeRTOS+Trace - an indispensable productivity tool, a DOS
  54:main.c        ****     compatible FAT file system, and our tiny thread aware UDP/IP stack.
  55:main.c        **** 
  56:main.c        ****     http://www.FreeRTOS.org/labs - Where new FreeRTOS products go to incubate.
  57:main.c        ****     Come and try FreeRTOS+TCP, our new open source TCP/IP stack for FreeRTOS.
  58:main.c        **** 
  59:main.c        ****     http://www.OpenRTOS.com - Real Time Engineers ltd. license FreeRTOS to High
  60:main.c        ****     Integrity Systems ltd. to sell under the OpenRTOS brand.  Low cost OpenRTOS
  61:main.c        ****     licenses offer ticketed support, indemnification and commercial middleware.
  62:main.c        **** 
  63:main.c        ****     http://www.SafeRTOS.com - High Integrity Systems also provide a safety
  64:main.c        ****     engineered and independently SIL3 certified version for use in safety and
  65:main.c        ****     mission critical applications that require provable dependability.
  66:main.c        **** 
  67:main.c        ****     1 tab == 4 spaces!
  68:main.c        **** */
  69:main.c        **** 
  70:main.c        **** #include <device.h>
  71:main.c        **** 
  72:main.c        **** /* RTOS includes. */
  73:main.c        **** #include "FreeRTOS.h"
  74:main.c        **** #include "task.h"
  75:main.c        **** #include "queue.h"
  76:main.c        **** #include "semphr.h"
  77:main.c        **** 
  78:main.c        **** /* Common Demo includes. */
  79:main.c        **** #include "serial.h"
  80:main.c        **** #include "BlockQ.h"
  81:main.c        **** #include "blocktim.h"
  82:main.c        **** #include "comtest.h"
  83:main.c        **** #include "countsem.h"
ARM GAS  C:\Users\bmt\AppData\Local\Temp\ccDIdXzc.s 			page 3


  84:main.c        **** #include "death.h"
  85:main.c        **** #include "dynamic.h"
  86:main.c        **** #include "flash.h"
  87:main.c        **** #include "flop.h"
  88:main.c        **** #include "GenQTest.h"
  89:main.c        **** #include "integer.h"
  90:main.c        **** #include "IntQueue.h"
  91:main.c        **** #include "mevents.h"
  92:main.c        **** #include "partest.h"
  93:main.c        **** #include "PollQ.h"
  94:main.c        **** #include "print.h"
  95:main.c        **** #include "QPeek.h"
  96:main.c        **** #include "semtest.h"
  97:main.c        **** #include "USBSerial.h"
  98:main.c        **** #include "xformatc.h"
  99:main.c        **** /*---------------------------------------------------------------------------*/
 100:main.c        **** 
 101:main.c        **** /* The time between cycles of the 'check' functionality (defined within the
 102:main.c        **** tick hook. */
 103:main.c        **** #define mainCHECK_DELAY						( ( TickType_t ) 5000 / portTICK_PERIOD_MS )
 104:main.c        **** #define mainCOM_LED							( 3 )
 105:main.c        **** 
 106:main.c        **** /* The number of nano seconds between each processor clock. */
 107:main.c        **** #define mainNS_PER_CLOCK ( ( unsigned long ) ( ( 1.0 / ( double ) configCPU_CLOCK_HZ ) * 1000000000
 108:main.c        **** 
 109:main.c        **** /* Task priorities. */
 110:main.c        **** #define mainQUEUE_POLL_PRIORITY				( tskIDLE_PRIORITY + 2 )
 111:main.c        **** #define mainCHECK_TASK_PRIORITY				( tskIDLE_PRIORITY + 3 )
 112:main.c        **** #define mainSEM_TEST_PRIORITY				( tskIDLE_PRIORITY + 1 )
 113:main.c        **** #define mainBLOCK_Q_PRIORITY				( tskIDLE_PRIORITY + 2 )
 114:main.c        **** #define mainCREATOR_TASK_PRIORITY           ( tskIDLE_PRIORITY + 3 )
 115:main.c        **** #define mainINTEGER_TASK_PRIORITY           ( tskIDLE_PRIORITY )
 116:main.c        **** #define mainGEN_QUEUE_TASK_PRIORITY			( tskIDLE_PRIORITY )
 117:main.c        **** #define mainCOM_TEST_TASK_PRIORITY			( tskIDLE_PRIORITY + 1 )
 118:main.c        **** #define mainFLASH_TEST_TASK_PRIORITY		( tskIDLE_PRIORITY + 2 )
 119:main.c        **** #define mainUSBSERIAL_TASK_PRIORITY	        ( tskIDLE_PRIORITY + 1 )
 120:main.c        **** /*---------------------------------------------------------------------------*/
 121:main.c        **** 
 122:main.c        **** /*
 123:main.c        ****  * Configures the timers and interrupts for the fast interrupt test as
 124:main.c        ****  * described at the top of this file.
 125:main.c        ****  */
 126:main.c        **** extern void vSetupTimerTest( void );
 127:main.c        **** /*---------------------------------------------------------------------------*/
 128:main.c        **** 
 129:main.c        **** /*
 130:main.c        ****  * The Check task periodical interrogates each of the running tests to
 131:main.c        ****  * ensure that they are still executing correctly.
 132:main.c        ****  * If all the tests pass, then the LCD is updated with Pass, the number of
 133:main.c        ****  * iterations and the Jitter time calculated but the Fast Interrupt Test.
 134:main.c        ****  * If any one of the tests fail, it is indicated with an error code printed on
 135:main.c        ****  * the display. This indicator won't disappear until the device is reset.
 136:main.c        ****  */
 137:main.c        **** void vCheckTask( void *pvParameters );
 138:main.c        **** 
 139:main.c        **** /*
 140:main.c        ****  * Installs the RTOS interrupt handlers and starts the peripherals.
ARM GAS  C:\Users\bmt\AppData\Local\Temp\ccDIdXzc.s 			page 4


 141:main.c        ****  */
 142:main.c        **** static void prvHardwareSetup( void );
 143:main.c        **** 
 144:main.c        **** 
 145:main.c        **** /*---------------------------------------------------------------------------*/
 146:main.c        **** 
 147:main.c        **** int main( void )
 148:main.c        **** {
  31              		.loc 1 148 0
  32              		.cfi_startproc
  33              		@ args = 0, pretend = 0, frame = 0
  34              		@ frame_needed = 1, uses_anonymous_args = 0
  35 0000 80B5     		push	{r7, lr}
  36              		.cfi_def_cfa_offset 8
  37              		.cfi_offset 7, -8
  38              		.cfi_offset 14, -4
  39 0002 82B0     		sub	sp, sp, #8
  40              		.cfi_def_cfa_offset 16
  41 0004 02AF     		add	r7, sp, #8
  42              		.cfi_def_cfa 7, 8
 149:main.c        ****     /* Place your initialization/startup code here (e.g. MyInst_Start()) */
 150:main.c        **** 	prvHardwareSetup();
  43              		.loc 1 150 0
  44 0006 FFF7FEFF 		bl	prvHardwareSetup
 151:main.c        **** 
 152:main.c        **** 	/* Start the standard demo tasks.  These are just here to exercise the
 153:main.c        **** 	kernel port and provide examples of how the FreeRTOS API can be used. */
 154:main.c        **** 	vStartBlockingQueueTasks( mainBLOCK_Q_PRIORITY );
  45              		.loc 1 154 0
  46 000a 0220     		movs	r0, #2
  47 000c FFF7FEFF 		bl	vStartBlockingQueueTasks
 155:main.c        **** 	vCreateBlockTimeTasks();
  48              		.loc 1 155 0
  49 0010 FFF7FEFF 		bl	vCreateBlockTimeTasks
 156:main.c        **** 	vStartCountingSemaphoreTasks();
  50              		.loc 1 156 0
  51 0014 FFF7FEFF 		bl	vStartCountingSemaphoreTasks
 157:main.c        **** 	vStartDynamicPriorityTasks();
  52              		.loc 1 157 0
  53 0018 FFF7FEFF 		bl	vStartDynamicPriorityTasks
 158:main.c        **** 	vStartMathTasks( mainINTEGER_TASK_PRIORITY );
  54              		.loc 1 158 0
  55 001c 0020     		movs	r0, #0
  56 001e FFF7FEFF 		bl	vStartMathTasks
 159:main.c        **** 	vStartGenericQueueTasks( mainGEN_QUEUE_TASK_PRIORITY );
  57              		.loc 1 159 0
  58 0022 0020     		movs	r0, #0
  59 0024 FFF7FEFF 		bl	vStartGenericQueueTasks
 160:main.c        **** 	vStartIntegerMathTasks( mainINTEGER_TASK_PRIORITY );
  60              		.loc 1 160 0
  61 0028 0020     		movs	r0, #0
  62 002a FFF7FEFF 		bl	vStartIntegerMathTasks
 161:main.c        **** 	vStartPolledQueueTasks( mainQUEUE_POLL_PRIORITY );
  63              		.loc 1 161 0
  64 002e 0220     		movs	r0, #2
  65 0030 FFF7FEFF 		bl	vStartPolledQueueTasks
 162:main.c        **** 	vStartQueuePeekTasks();
ARM GAS  C:\Users\bmt\AppData\Local\Temp\ccDIdXzc.s 			page 5


  66              		.loc 1 162 0
  67 0034 FFF7FEFF 		bl	vStartQueuePeekTasks
 163:main.c        **** 	vStartSemaphoreTasks( mainSEM_TEST_PRIORITY );
  68              		.loc 1 163 0
  69 0038 0120     		movs	r0, #1
  70 003a FFF7FEFF 		bl	vStartSemaphoreTasks
 164:main.c        **** 	vStartLEDFlashTasks( mainFLASH_TEST_TASK_PRIORITY );
  71              		.loc 1 164 0
  72 003e 0220     		movs	r0, #2
  73 0040 FFF7FEFF 		bl	vStartLEDFlashTasks
 165:main.c        ****     vStartUSBSerialTasks( mainUSBSERIAL_TASK_PRIORITY );
  74              		.loc 1 165 0
  75 0044 0120     		movs	r0, #1
  76 0046 FFF7FEFF 		bl	vStartUSBSerialTasks
 166:main.c        **** 	vAltStartComTestTasks( mainCOM_TEST_TASK_PRIORITY, 57600, mainCOM_LED );
  77              		.loc 1 166 0
  78 004a 0120     		movs	r0, #1
  79 004c 4FF46141 		mov	r1, #57600
  80 0050 0322     		movs	r2, #3
  81 0052 FFF7FEFF 		bl	vAltStartComTestTasks
 167:main.c        **** 	vStartInterruptQueueTasks();
  82              		.loc 1 167 0
  83 0056 FFF7FEFF 		bl	vStartInterruptQueueTasks
 168:main.c        **** 
 169:main.c        **** 	/* Start the error checking task. */
 170:main.c        ****   	( void ) xTaskCreate( vCheckTask, "Check", 1000, NULL, mainCHECK_TASK_PRIORITY, NULL );
  84              		.loc 1 170 0
  85 005a 0323     		movs	r3, #3
  86 005c 0093     		str	r3, [sp]
  87 005e 0023     		movs	r3, #0
  88 0060 0193     		str	r3, [sp, #4]
  89 0062 0748     		ldr	r0, .L3
  90 0064 0749     		ldr	r1, .L3+4
  91 0066 4FF47A72 		mov	r2, #1000
  92 006a 0023     		movs	r3, #0
  93 006c FFF7FEFF 		bl	xTaskCreate
 171:main.c        **** 
 172:main.c        **** 	/* Configure the timers used by the fast interrupt timer test. */
 173:main.c        **** 	vSetupTimerTest();
  94              		.loc 1 173 0
  95 0070 FFF7FEFF 		bl	vSetupTimerTest
 174:main.c        **** 
 175:main.c        **** 	/* The suicide tasks must be created last as they need to know how many
 176:main.c        **** 	tasks were running prior to their creation in order to ascertain whether
 177:main.c        **** 	or not the correct/expected number of tasks are running at any given time. */
 178:main.c        **** 	vCreateSuicidalTasks( mainCREATOR_TASK_PRIORITY );
  96              		.loc 1 178 0
  97 0074 0320     		movs	r0, #3
  98 0076 FFF7FEFF 		bl	vCreateSuicidalTasks
 179:main.c        **** 
 180:main.c        **** 	/* Will only get here if there was insufficient memory to create the idle
 181:main.c        ****     task.  The idle task is created within vTaskStartScheduler(). */
 182:main.c        **** 	vTaskStartScheduler();
  99              		.loc 1 182 0
 100 007a FFF7FEFF 		bl	vTaskStartScheduler
 101              	.L2:
 183:main.c        **** 
ARM GAS  C:\Users\bmt\AppData\Local\Temp\ccDIdXzc.s 			page 6


 184:main.c        **** 	/* Should never reach here as the kernel will now be running.  If
 185:main.c        **** 	vTaskStartScheduler() does return then it is very likely that there was
 186:main.c        **** 	insufficient (FreeRTOS) heap space available to create all the tasks,
 187:main.c        **** 	including the idle task that is created within vTaskStartScheduler() itself. */
 188:main.c        **** 	for( ;; );
 102              		.loc 1 188 0 discriminator 1
 103 007e FEE7     		b	.L2
 104              	.L4:
 105              		.align	2
 106              	.L3:
 107 0080 00000000 		.word	vCheckTask
 108 0084 00000000 		.word	.LC0
 109              		.cfi_endproc
 110              	.LFE68:
 111              		.size	main, .-main
 112              		.section	.text.prvHardwareSetup,"ax",%progbits
 113              		.align	2
 114              		.thumb
 115              		.thumb_func
 116              		.type	prvHardwareSetup, %function
 117              	prvHardwareSetup:
 118              	.LFB69:
 189:main.c        **** }
 190:main.c        **** /*---------------------------------------------------------------------------*/
 191:main.c        **** 
 192:main.c        **** void prvHardwareSetup( void )
 193:main.c        **** {
 119              		.loc 1 193 0
 120              		.cfi_startproc
 121              		@ args = 0, pretend = 0, frame = 0
 122              		@ frame_needed = 1, uses_anonymous_args = 0
 123 0000 80B5     		push	{r7, lr}
 124              		.cfi_def_cfa_offset 8
 125              		.cfi_offset 7, -8
 126              		.cfi_offset 14, -4
 127 0002 00AF     		add	r7, sp, #0
 128              		.cfi_def_cfa_register 7
 194:main.c        **** /* Port layer functions that need to be copied into the vector table. */
 195:main.c        **** extern void xPortPendSVHandler( void );
 196:main.c        **** extern void xPortSysTickHandler( void );
 197:main.c        **** extern void vPortSVCHandler( void );
 198:main.c        **** extern cyisraddress CyRamVectors[];
 199:main.c        **** 
 200:main.c        **** 	/* Install the OS Interrupt Handlers. */
 201:main.c        **** 	CyRamVectors[ 11 ] = ( cyisraddress ) vPortSVCHandler;
 129              		.loc 1 201 0
 130 0004 0A4B     		ldr	r3, .L6
 131 0006 0B4A     		ldr	r2, .L6+4
 132 0008 DA62     		str	r2, [r3, #44]
 202:main.c        **** 	CyRamVectors[ 14 ] = ( cyisraddress ) xPortPendSVHandler;
 133              		.loc 1 202 0
 134 000a 094B     		ldr	r3, .L6
 135 000c 0A4A     		ldr	r2, .L6+8
 136 000e 9A63     		str	r2, [r3, #56]
 203:main.c        **** 	CyRamVectors[ 15 ] = ( cyisraddress ) xPortSysTickHandler;
 137              		.loc 1 203 0
 138 0010 074B     		ldr	r3, .L6
ARM GAS  C:\Users\bmt\AppData\Local\Temp\ccDIdXzc.s 			page 7


 139 0012 0A4A     		ldr	r2, .L6+12
 140 0014 DA63     		str	r2, [r3, #60]
 204:main.c        **** 
 205:main.c        **** 	/* Start-up the peripherals. */
 206:main.c        **** 
 207:main.c        **** 
 208:main.c        **** 	/* Start the UART. */
 209:main.c        **** 	UART_1_Start();
 141              		.loc 1 209 0
 142 0016 FFF7FEFF 		bl	UART_1_Start
 210:main.c        **** 
 211:main.c        **** 	/* Initialise the LEDs. */
 212:main.c        **** 	vParTestInitialise();
 143              		.loc 1 212 0
 144 001a FFF7FEFF 		bl	vParTestInitialise
 213:main.c        **** 
 214:main.c        **** 	/* Start the PWM modules that drive the IntQueue tests. */
 215:main.c        **** 	High_Frequency_PWM_0_Start();
 145              		.loc 1 215 0
 146 001e FFF7FEFF 		bl	High_Frequency_PWM_0_Start
 216:main.c        **** 	High_Frequency_PWM_1_Start();
 147              		.loc 1 216 0
 148 0022 FFF7FEFF 		bl	High_Frequency_PWM_1_Start
 217:main.c        **** 
 218:main.c        **** 	/* Start the timers for the Jitter test. */
 219:main.c        **** 	Timer_20KHz_Start();
 149              		.loc 1 219 0
 150 0026 FFF7FEFF 		bl	Timer_20KHz_Start
 220:main.c        **** 	Timer_48MHz_Start();
 151              		.loc 1 220 0
 152 002a FFF7FEFF 		bl	Timer_48MHz_Start
 221:main.c        **** }
 153              		.loc 1 221 0
 154 002e 80BD     		pop	{r7, pc}
 155              	.L7:
 156              		.align	2
 157              	.L6:
 158 0030 00000000 		.word	CyRamVectors
 159 0034 00000000 		.word	vPortSVCHandler
 160 0038 00000000 		.word	xPortPendSVHandler
 161 003c 00000000 		.word	xPortSysTickHandler
 162              		.cfi_endproc
 163              	.LFE69:
 164              		.size	prvHardwareSetup, .-prvHardwareSetup
 165              		.section	.text.get_dec_str,"ax",%progbits
 166              		.align	2
 167              		.global	get_dec_str
 168              		.thumb
 169              		.thumb_func
 170              		.type	get_dec_str, %function
 171              	get_dec_str:
 172              	.LFB70:
 222:main.c        **** /*---------------------------------------------------------------------------*/
 223:main.c        **** void get_dec_str (char* str, size_t len, uint32_t val)
 224:main.c        **** {
 173              		.loc 1 224 0
 174              		.cfi_startproc
ARM GAS  C:\Users\bmt\AppData\Local\Temp\ccDIdXzc.s 			page 8


 175              		@ args = 0, pretend = 0, frame = 24
 176              		@ frame_needed = 1, uses_anonymous_args = 0
 177              		@ link register save eliminated.
 178 0000 80B4     		push	{r7}
 179              		.cfi_def_cfa_offset 4
 180              		.cfi_offset 7, -4
 181 0002 87B0     		sub	sp, sp, #28
 182              		.cfi_def_cfa_offset 32
 183 0004 00AF     		add	r7, sp, #0
 184              		.cfi_def_cfa_register 7
 185 0006 F860     		str	r0, [r7, #12]
 186 0008 B960     		str	r1, [r7, #8]
 187 000a 7A60     		str	r2, [r7, #4]
 225:main.c        ****   uint8_t i;
 226:main.c        ****   for(i=1; i<=len; i++)
 188              		.loc 1 226 0
 189 000c 0123     		movs	r3, #1
 190 000e FB75     		strb	r3, [r7, #23]
 191 0010 1BE0     		b	.L9
 192              	.L10:
 227:main.c        ****   {
 228:main.c        ****     str[len-i] = (uint8_t) ((val % 10UL) + '0');
 193              		.loc 1 228 0 discriminator 3
 194 0012 FB7D     		ldrb	r3, [r7, #23]	@ zero_extendqisi2
 195 0014 BA68     		ldr	r2, [r7, #8]
 196 0016 D31A     		subs	r3, r2, r3
 197 0018 FA68     		ldr	r2, [r7, #12]
 198 001a D018     		adds	r0, r2, r3
 199 001c 7968     		ldr	r1, [r7, #4]
 200 001e 0F4B     		ldr	r3, .L11
 201 0020 A3FB0123 		umull	r2, r3, r3, r1
 202 0024 DA08     		lsrs	r2, r3, #3
 203 0026 1346     		mov	r3, r2
 204 0028 9B00     		lsls	r3, r3, #2
 205 002a 1344     		add	r3, r3, r2
 206 002c 5B00     		lsls	r3, r3, #1
 207 002e CA1A     		subs	r2, r1, r3
 208 0030 D3B2     		uxtb	r3, r2
 209 0032 3033     		adds	r3, r3, #48
 210 0034 DBB2     		uxtb	r3, r3
 211 0036 0370     		strb	r3, [r0]
 229:main.c        ****     val/=10;
 212              		.loc 1 229 0 discriminator 3
 213 0038 7B68     		ldr	r3, [r7, #4]
 214 003a 084A     		ldr	r2, .L11
 215 003c A2FB0323 		umull	r2, r3, r2, r3
 216 0040 DB08     		lsrs	r3, r3, #3
 217 0042 7B60     		str	r3, [r7, #4]
 226:main.c        ****   {
 218              		.loc 1 226 0 discriminator 3
 219 0044 FB7D     		ldrb	r3, [r7, #23]	@ zero_extendqisi2
 220 0046 0133     		adds	r3, r3, #1
 221 0048 FB75     		strb	r3, [r7, #23]
 222              	.L9:
 226:main.c        ****   {
 223              		.loc 1 226 0 is_stmt 0 discriminator 1
 224 004a FA7D     		ldrb	r2, [r7, #23]	@ zero_extendqisi2
ARM GAS  C:\Users\bmt\AppData\Local\Temp\ccDIdXzc.s 			page 9


 225 004c BB68     		ldr	r3, [r7, #8]
 226 004e 9A42     		cmp	r2, r3
 227 0050 DFD9     		bls	.L10
 230:main.c        ****   }
 231:main.c        **** 
 232:main.c        **** }
 228              		.loc 1 232 0 is_stmt 1
 229 0052 1C37     		adds	r7, r7, #28
 230              		.cfi_def_cfa_offset 4
 231 0054 BD46     		mov	sp, r7
 232              		.cfi_def_cfa_register 13
 233              		@ sp needed
 234 0056 5DF8047B 		ldr	r7, [sp], #4
 235              		.cfi_restore 7
 236              		.cfi_def_cfa_offset 0
 237 005a 7047     		bx	lr
 238              	.L12:
 239              		.align	2
 240              	.L11:
 241 005c CDCCCCCC 		.word	-858993459
 242              		.cfi_endproc
 243              	.LFE70:
 244              		.size	get_dec_str, .-get_dec_str
 245              		.section	.rodata
 246 0006 0000     		.align	2
 247              	.LC1:
 248 0008 30313233 		.ascii	"0123456789ABCDE\000"
 248      34353637 
 248      38394142 
 248      43444500 
 249              		.section	.text.get_hex_str,"ax",%progbits
 250              		.align	2
 251              		.global	get_hex_str
 252              		.thumb
 253              		.thumb_func
 254              		.type	get_hex_str, %function
 255              	get_hex_str:
 256              	.LFB71:
 233:main.c        **** 
 234:main.c        **** void get_hex_str (char* str, size_t len, uint32_t val)
 235:main.c        **** {
 257              		.loc 1 235 0
 258              		.cfi_startproc
 259              		@ args = 0, pretend = 0, frame = 40
 260              		@ frame_needed = 1, uses_anonymous_args = 0
 261              		@ link register save eliminated.
 262 0000 90B4     		push	{r4, r7}
 263              		.cfi_def_cfa_offset 8
 264              		.cfi_offset 4, -8
 265              		.cfi_offset 7, -4
 266 0002 8AB0     		sub	sp, sp, #40
 267              		.cfi_def_cfa_offset 48
 268 0004 00AF     		add	r7, sp, #0
 269              		.cfi_def_cfa_register 7
 270 0006 F860     		str	r0, [r7, #12]
 271 0008 B960     		str	r1, [r7, #8]
 272 000a 7A60     		str	r2, [r7, #4]
ARM GAS  C:\Users\bmt\AppData\Local\Temp\ccDIdXzc.s 			page 10


 236:main.c        ****   uint8_t i;
 237:main.c        ****   const char hexchar[] = "0123456789ABCDE"; 
 273              		.loc 1 237 0
 274 000c 144B     		ldr	r3, .L16
 275 000e 07F11404 		add	r4, r7, #20
 276 0012 0FCB     		ldmia	r3, {r0, r1, r2, r3}
 277 0014 84E80F00 		stmia	r4, {r0, r1, r2, r3}
 238:main.c        ****   for(i=1; i<=len; i++)
 278              		.loc 1 238 0
 279 0018 0123     		movs	r3, #1
 280 001a 87F82730 		strb	r3, [r7, #39]
 281 001e 16E0     		b	.L14
 282              	.L15:
 239:main.c        ****   {
 240:main.c        ****     str[len-i] = (uint8_t) (hexchar[(val & 0xfL)]);
 283              		.loc 1 240 0 discriminator 3
 284 0020 97F82730 		ldrb	r3, [r7, #39]	@ zero_extendqisi2
 285 0024 BA68     		ldr	r2, [r7, #8]
 286 0026 D31A     		subs	r3, r2, r3
 287 0028 FA68     		ldr	r2, [r7, #12]
 288 002a 1344     		add	r3, r3, r2
 289 002c 7A68     		ldr	r2, [r7, #4]
 290 002e 02F00F02 		and	r2, r2, #15
 291 0032 07F12801 		add	r1, r7, #40
 292 0036 0A44     		add	r2, r2, r1
 293 0038 12F8142C 		ldrb	r2, [r2, #-20]	@ zero_extendqisi2
 294 003c 1A70     		strb	r2, [r3]
 241:main.c        ****     val/=16;
 295              		.loc 1 241 0 discriminator 3
 296 003e 7B68     		ldr	r3, [r7, #4]
 297 0040 1B09     		lsrs	r3, r3, #4
 298 0042 7B60     		str	r3, [r7, #4]
 238:main.c        ****   for(i=1; i<=len; i++)
 299              		.loc 1 238 0 discriminator 3
 300 0044 97F82730 		ldrb	r3, [r7, #39]	@ zero_extendqisi2
 301 0048 0133     		adds	r3, r3, #1
 302 004a 87F82730 		strb	r3, [r7, #39]
 303              	.L14:
 238:main.c        ****   for(i=1; i<=len; i++)
 304              		.loc 1 238 0 is_stmt 0 discriminator 1
 305 004e 97F82720 		ldrb	r2, [r7, #39]	@ zero_extendqisi2
 306 0052 BB68     		ldr	r3, [r7, #8]
 307 0054 9A42     		cmp	r2, r3
 308 0056 E3D9     		bls	.L15
 242:main.c        ****   }
 243:main.c        **** 
 244:main.c        **** }
 309              		.loc 1 244 0 is_stmt 1
 310 0058 2837     		adds	r7, r7, #40
 311              		.cfi_def_cfa_offset 8
 312 005a BD46     		mov	sp, r7
 313              		.cfi_def_cfa_register 13
 314              		@ sp needed
 315 005c 90BC     		pop	{r4, r7}
 316              		.cfi_restore 7
 317              		.cfi_restore 4
 318              		.cfi_def_cfa_offset 0
ARM GAS  C:\Users\bmt\AppData\Local\Temp\ccDIdXzc.s 			page 11


 319 005e 7047     		bx	lr
 320              	.L17:
 321              		.align	2
 322              	.L16:
 323 0060 08000000 		.word	.LC1
 324              		.cfi_endproc
 325              	.LFE71:
 326              		.size	get_hex_str, .-get_hex_str
 327              		.section	.text.myPutchar,"ax",%progbits
 328              		.align	2
 329              		.thumb
 330              		.thumb_func
 331              		.type	myPutchar, %function
 332              	myPutchar:
 333              	.LFB72:
 245:main.c        **** 
 246:main.c        **** static void myPutchar(void *arg,char c)
 247:main.c        **** {
 334              		.loc 1 247 0
 335              		.cfi_startproc
 336              		@ args = 0, pretend = 0, frame = 16
 337              		@ frame_needed = 1, uses_anonymous_args = 0
 338              		@ link register save eliminated.
 339 0000 80B4     		push	{r7}
 340              		.cfi_def_cfa_offset 4
 341              		.cfi_offset 7, -4
 342 0002 85B0     		sub	sp, sp, #20
 343              		.cfi_def_cfa_offset 24
 344 0004 00AF     		add	r7, sp, #0
 345              		.cfi_def_cfa_register 7
 346 0006 7860     		str	r0, [r7, #4]
 347 0008 0B46     		mov	r3, r1
 348 000a FB70     		strb	r3, [r7, #3]
 248:main.c        ****     char ** s = (char **)arg;
 349              		.loc 1 248 0
 350 000c 7B68     		ldr	r3, [r7, #4]
 351 000e FB60     		str	r3, [r7, #12]
 249:main.c        ****     *(*s)++ = c;
 352              		.loc 1 249 0
 353 0010 FB68     		ldr	r3, [r7, #12]
 354 0012 1B68     		ldr	r3, [r3]
 355 0014 591C     		adds	r1, r3, #1
 356 0016 FA68     		ldr	r2, [r7, #12]
 357 0018 1160     		str	r1, [r2]
 358 001a FA78     		ldrb	r2, [r7, #3]
 359 001c 1A70     		strb	r2, [r3]
 250:main.c        **** }
 360              		.loc 1 250 0
 361 001e 1437     		adds	r7, r7, #20
 362              		.cfi_def_cfa_offset 4
 363 0020 BD46     		mov	sp, r7
 364              		.cfi_def_cfa_register 13
 365              		@ sp needed
 366 0022 5DF8047B 		ldr	r7, [sp], #4
 367              		.cfi_restore 7
 368              		.cfi_def_cfa_offset 0
 369 0026 7047     		bx	lr
ARM GAS  C:\Users\bmt\AppData\Local\Temp\ccDIdXzc.s 			page 12


 370              		.cfi_endproc
 371              	.LFE72:
 372              		.size	myPutchar, .-myPutchar
 373              		.section	.text.xsprintf,"ax",%progbits
 374              		.align	2
 375              		.thumb
 376              		.thumb_func
 377              		.type	xsprintf, %function
 378              	xsprintf:
 379              	.LFB73:
 251:main.c        **** 
 252:main.c        **** static void xsprintf(char *buf,const char *fmt,...)
 253:main.c        **** {
 380              		.loc 1 253 0
 381              		.cfi_startproc
 382              		@ args = 4, pretend = 12, frame = 16
 383              		@ frame_needed = 1, uses_anonymous_args = 1
 384 0000 0EB4     		push	{r1, r2, r3}
 385              		.cfi_def_cfa_offset 12
 386              		.cfi_offset 1, -12
 387              		.cfi_offset 2, -8
 388              		.cfi_offset 3, -4
 389 0002 80B5     		push	{r7, lr}
 390              		.cfi_def_cfa_offset 20
 391              		.cfi_offset 7, -20
 392              		.cfi_offset 14, -16
 393 0004 85B0     		sub	sp, sp, #20
 394              		.cfi_def_cfa_offset 40
 395 0006 00AF     		add	r7, sp, #0
 396              		.cfi_def_cfa_register 7
 397 0008 7860     		str	r0, [r7, #4]
 254:main.c        ****     va_list list;
 255:main.c        ****     va_start(list,fmt);
 398              		.loc 1 255 0
 399 000a 07F12003 		add	r3, r7, #32
 400 000e FB60     		str	r3, [r7, #12]
 256:main.c        ****     xvformat(myPutchar,(void *)&buf,fmt,list);
 401              		.loc 1 256 0
 402 0010 3B1D     		adds	r3, r7, #4
 403 0012 0748     		ldr	r0, .L20
 404 0014 1946     		mov	r1, r3
 405 0016 FA69     		ldr	r2, [r7, #28]
 406 0018 FB68     		ldr	r3, [r7, #12]
 407 001a FFF7FEFF 		bl	xvformat
 257:main.c        ****     *buf = 0;
 408              		.loc 1 257 0
 409 001e 7B68     		ldr	r3, [r7, #4]
 410 0020 0022     		movs	r2, #0
 411 0022 1A70     		strb	r2, [r3]
 258:main.c        ****     va_end(list);
 259:main.c        **** }
 412              		.loc 1 259 0
 413 0024 1437     		adds	r7, r7, #20
 414              		.cfi_def_cfa_offset 20
 415 0026 BD46     		mov	sp, r7
 416              		.cfi_def_cfa_register 13
 417              		@ sp needed
ARM GAS  C:\Users\bmt\AppData\Local\Temp\ccDIdXzc.s 			page 13


 418 0028 BDE88040 		pop	{r7, lr}
 419              		.cfi_restore 14
 420              		.cfi_restore 7
 421              		.cfi_def_cfa_offset 12
 422 002c 03B0     		add	sp, sp, #12
 423              		.cfi_restore 3
 424              		.cfi_restore 2
 425              		.cfi_restore 1
 426              		.cfi_def_cfa_offset 0
 427 002e 7047     		bx	lr
 428              	.L21:
 429              		.align	2
 430              	.L20:
 431 0030 00000000 		.word	myPutchar
 432              		.cfi_endproc
 433              	.LFE73:
 434              		.size	xsprintf, .-xsprintf
 435              		.section	.rodata
 436              		.align	2
 437              	.LC2:
 438 0018 50617373 		.ascii	"Pass: %lu Jitter(ns): %lu\015\012\000"
 438      3A20256C 
 438      75204A69 
 438      74746572 
 438      286E7329 
 439              		.align	2
 440              	.LC3:
 441 0034 4661696C 		.ascii	"Fail at: %u Error: 0x%04X\015\012\000"
 441      2061743A 
 441      20257520 
 441      4572726F 
 441      723A2030 
 442              		.section	.text.vCheckTask,"ax",%progbits
 443              		.align	2
 444              		.global	vCheckTask
 445              		.thumb
 446              		.thumb_func
 447              		.type	vCheckTask, %function
 448              	vCheckTask:
 449              	.LFB74:
 260:main.c        **** 
 261:main.c        **** void vCheckTask( void *pvParameters )
 262:main.c        **** {
 450              		.loc 1 262 0
 451              		.cfi_startproc
 452              		@ args = 0, pretend = 0, frame = 152
 453              		@ frame_needed = 1, uses_anonymous_args = 0
 454 0000 90B5     		push	{r4, r7, lr}
 455              		.cfi_def_cfa_offset 12
 456              		.cfi_offset 4, -12
 457              		.cfi_offset 7, -8
 458              		.cfi_offset 14, -4
 459 0002 A7B0     		sub	sp, sp, #156
 460              		.cfi_def_cfa_offset 168
 461 0004 00AF     		add	r7, sp, #0
 462              		.cfi_def_cfa_register 7
 463 0006 7860     		str	r0, [r7, #4]
ARM GAS  C:\Users\bmt\AppData\Local\Temp\ccDIdXzc.s 			page 14


 263:main.c        **** char strbuf[128];
 264:main.c        **** TickType_t xDelay = 0;
 464              		.loc 1 264 0
 465 0008 0023     		movs	r3, #0
 466 000a BB60     		str	r3, [r7, #8]
 265:main.c        **** unsigned short usErrorCode = 0;
 467              		.loc 1 265 0
 468 000c 0023     		movs	r3, #0
 469 000e A7F89630 		strh	r3, [r7, #150]	@ movhi
 266:main.c        **** unsigned long ulIteration = 0;
 470              		.loc 1 266 0
 471 0012 0023     		movs	r3, #0
 472 0014 C7F89030 		str	r3, [r7, #144]
 267:main.c        **** unsigned long ulMaxJitter = 0;
 473              		.loc 1 267 0
 474 0018 0023     		movs	r3, #0
 475 001a C7F88C30 		str	r3, [r7, #140]
 268:main.c        **** extern unsigned short usMaxJitter;
 269:main.c        **** 
 270:main.c        **** 	/* Intialise the sleeper. */
 271:main.c        **** 	xDelay = xTaskGetTickCount();
 476              		.loc 1 271 0
 477 001e FFF7FEFF 		bl	xTaskGetTickCount
 478 0022 0346     		mov	r3, r0
 479 0024 BB60     		str	r3, [r7, #8]
 480              	.L38:
 272:main.c        **** 
 273:main.c        **** 	for( ;; )
 274:main.c        **** 	{
 275:main.c        **** 		/* Perform this check every mainCHECK_DELAY milliseconds. */
 276:main.c        **** 		vTaskDelayUntil( &xDelay, mainCHECK_DELAY );
 481              		.loc 1 276 0
 482 0026 07F10803 		add	r3, r7, #8
 483 002a 1846     		mov	r0, r3
 484 002c 41F28831 		movw	r1, #5000
 485 0030 FFF7FEFF 		bl	vTaskDelayUntil
 277:main.c        **** 
 278:main.c        **** 		/* Check that all of the Demo tasks are still running. */
 279:main.c        **** 		if( pdTRUE != xAreBlockingQueuesStillRunning() )
 486              		.loc 1 279 0
 487 0034 FFF7FEFF 		bl	xAreBlockingQueuesStillRunning
 488 0038 0346     		mov	r3, r0
 489 003a 012B     		cmp	r3, #1
 490 003c 05D0     		beq	.L23
 280:main.c        **** 		{
 281:main.c        **** 			usErrorCode |= 0x1;
 491              		.loc 1 281 0
 492 003e B7F89630 		ldrh	r3, [r7, #150]	@ movhi
 493 0042 43F00103 		orr	r3, r3, #1
 494 0046 A7F89630 		strh	r3, [r7, #150]	@ movhi
 495              	.L23:
 282:main.c        **** 		}
 283:main.c        **** 
 284:main.c        **** 		if( pdTRUE != xAreBlockTimeTestTasksStillRunning() )
 496              		.loc 1 284 0
 497 004a FFF7FEFF 		bl	xAreBlockTimeTestTasksStillRunning
 498 004e 0346     		mov	r3, r0
ARM GAS  C:\Users\bmt\AppData\Local\Temp\ccDIdXzc.s 			page 15


 499 0050 012B     		cmp	r3, #1
 500 0052 05D0     		beq	.L24
 285:main.c        **** 		{
 286:main.c        **** 			usErrorCode |= 0x2;
 501              		.loc 1 286 0
 502 0054 B7F89630 		ldrh	r3, [r7, #150]	@ movhi
 503 0058 43F00203 		orr	r3, r3, #2
 504 005c A7F89630 		strh	r3, [r7, #150]	@ movhi
 505              	.L24:
 287:main.c        **** 		}
 288:main.c        **** 
 289:main.c        **** 		if( pdTRUE != xAreCountingSemaphoreTasksStillRunning() )
 506              		.loc 1 289 0
 507 0060 FFF7FEFF 		bl	xAreCountingSemaphoreTasksStillRunning
 508 0064 0346     		mov	r3, r0
 509 0066 012B     		cmp	r3, #1
 510 0068 05D0     		beq	.L25
 290:main.c        **** 		{
 291:main.c        **** 			usErrorCode |= 0x4;
 511              		.loc 1 291 0
 512 006a B7F89630 		ldrh	r3, [r7, #150]	@ movhi
 513 006e 43F00403 		orr	r3, r3, #4
 514 0072 A7F89630 		strh	r3, [r7, #150]	@ movhi
 515              	.L25:
 292:main.c        **** 		}
 293:main.c        **** 
 294:main.c        **** 		if( pdTRUE != xIsCreateTaskStillRunning() )
 516              		.loc 1 294 0
 517 0076 FFF7FEFF 		bl	xIsCreateTaskStillRunning
 518 007a 0346     		mov	r3, r0
 519 007c 012B     		cmp	r3, #1
 520 007e 05D0     		beq	.L26
 295:main.c        **** 		{
 296:main.c        **** 			usErrorCode |= 0x8;
 521              		.loc 1 296 0
 522 0080 B7F89630 		ldrh	r3, [r7, #150]	@ movhi
 523 0084 43F00803 		orr	r3, r3, #8
 524 0088 A7F89630 		strh	r3, [r7, #150]	@ movhi
 525              	.L26:
 297:main.c        **** 		}
 298:main.c        **** 
 299:main.c        **** 		if( pdTRUE != xAreDynamicPriorityTasksStillRunning() )
 526              		.loc 1 299 0
 527 008c FFF7FEFF 		bl	xAreDynamicPriorityTasksStillRunning
 528 0090 0346     		mov	r3, r0
 529 0092 012B     		cmp	r3, #1
 530 0094 05D0     		beq	.L27
 300:main.c        **** 		{
 301:main.c        **** 			usErrorCode |= 0x10;
 531              		.loc 1 301 0
 532 0096 B7F89630 		ldrh	r3, [r7, #150]	@ movhi
 533 009a 43F01003 		orr	r3, r3, #16
 534 009e A7F89630 		strh	r3, [r7, #150]	@ movhi
 535              	.L27:
 302:main.c        **** 		}
 303:main.c        **** 
 304:main.c        **** 		if( pdTRUE != xAreMathsTaskStillRunning() )
ARM GAS  C:\Users\bmt\AppData\Local\Temp\ccDIdXzc.s 			page 16


 536              		.loc 1 304 0
 537 00a2 FFF7FEFF 		bl	xAreMathsTaskStillRunning
 538 00a6 0346     		mov	r3, r0
 539 00a8 012B     		cmp	r3, #1
 540 00aa 05D0     		beq	.L28
 305:main.c        **** 		{
 306:main.c        **** 			usErrorCode |= 0x20;
 541              		.loc 1 306 0
 542 00ac B7F89630 		ldrh	r3, [r7, #150]	@ movhi
 543 00b0 43F02003 		orr	r3, r3, #32
 544 00b4 A7F89630 		strh	r3, [r7, #150]	@ movhi
 545              	.L28:
 307:main.c        **** 		}
 308:main.c        **** 
 309:main.c        **** 		if( pdTRUE != xAreGenericQueueTasksStillRunning() )
 546              		.loc 1 309 0
 547 00b8 FFF7FEFF 		bl	xAreGenericQueueTasksStillRunning
 548 00bc 0346     		mov	r3, r0
 549 00be 012B     		cmp	r3, #1
 550 00c0 05D0     		beq	.L29
 310:main.c        **** 		{
 311:main.c        **** 			usErrorCode |= 0x40;
 551              		.loc 1 311 0
 552 00c2 B7F89630 		ldrh	r3, [r7, #150]	@ movhi
 553 00c6 43F04003 		orr	r3, r3, #64
 554 00ca A7F89630 		strh	r3, [r7, #150]	@ movhi
 555              	.L29:
 312:main.c        **** 		}
 313:main.c        **** 
 314:main.c        **** 		if( pdTRUE != xAreIntegerMathsTaskStillRunning() )
 556              		.loc 1 314 0
 557 00ce FFF7FEFF 		bl	xAreIntegerMathsTaskStillRunning
 558 00d2 0346     		mov	r3, r0
 559 00d4 012B     		cmp	r3, #1
 560 00d6 05D0     		beq	.L30
 315:main.c        **** 		{
 316:main.c        **** 			usErrorCode |= 0x80;
 561              		.loc 1 316 0
 562 00d8 B7F89630 		ldrh	r3, [r7, #150]	@ movhi
 563 00dc 43F08003 		orr	r3, r3, #128
 564 00e0 A7F89630 		strh	r3, [r7, #150]	@ movhi
 565              	.L30:
 317:main.c        **** 		}
 318:main.c        **** 
 319:main.c        **** 		if( pdTRUE != xArePollingQueuesStillRunning() )
 566              		.loc 1 319 0
 567 00e4 FFF7FEFF 		bl	xArePollingQueuesStillRunning
 568 00e8 0346     		mov	r3, r0
 569 00ea 012B     		cmp	r3, #1
 570 00ec 05D0     		beq	.L31
 320:main.c        **** 		{
 321:main.c        **** 			usErrorCode |= 0x100;
 571              		.loc 1 321 0
 572 00ee B7F89630 		ldrh	r3, [r7, #150]	@ movhi
 573 00f2 43F48073 		orr	r3, r3, #256
 574 00f6 A7F89630 		strh	r3, [r7, #150]	@ movhi
 575              	.L31:
ARM GAS  C:\Users\bmt\AppData\Local\Temp\ccDIdXzc.s 			page 17


 322:main.c        **** 		}
 323:main.c        **** 
 324:main.c        **** 		if( pdTRUE != xAreQueuePeekTasksStillRunning() )
 576              		.loc 1 324 0
 577 00fa FFF7FEFF 		bl	xAreQueuePeekTasksStillRunning
 578 00fe 0346     		mov	r3, r0
 579 0100 012B     		cmp	r3, #1
 580 0102 05D0     		beq	.L32
 325:main.c        **** 		{
 326:main.c        **** 			usErrorCode |= 0x200;
 581              		.loc 1 326 0
 582 0104 B7F89630 		ldrh	r3, [r7, #150]	@ movhi
 583 0108 43F40073 		orr	r3, r3, #512
 584 010c A7F89630 		strh	r3, [r7, #150]	@ movhi
 585              	.L32:
 327:main.c        **** 		}
 328:main.c        **** 
 329:main.c        **** 		if( pdTRUE != xAreSemaphoreTasksStillRunning() )
 586              		.loc 1 329 0
 587 0110 FFF7FEFF 		bl	xAreSemaphoreTasksStillRunning
 588 0114 0346     		mov	r3, r0
 589 0116 012B     		cmp	r3, #1
 590 0118 05D0     		beq	.L33
 330:main.c        **** 		{
 331:main.c        **** 			usErrorCode |= 0x400;
 591              		.loc 1 331 0
 592 011a B7F89630 		ldrh	r3, [r7, #150]	@ movhi
 593 011e 43F48063 		orr	r3, r3, #1024
 594 0122 A7F89630 		strh	r3, [r7, #150]	@ movhi
 595              	.L33:
 332:main.c        **** 		}
 333:main.c        **** 
 334:main.c        **** 		if( pdTRUE != xAreComTestTasksStillRunning() )
 596              		.loc 1 334 0
 597 0126 FFF7FEFF 		bl	xAreComTestTasksStillRunning
 598 012a 0346     		mov	r3, r0
 599 012c 012B     		cmp	r3, #1
 600 012e 05D0     		beq	.L34
 335:main.c        **** 		{
 336:main.c        **** 			usErrorCode |= 0x800;
 601              		.loc 1 336 0
 602 0130 B7F89630 		ldrh	r3, [r7, #150]	@ movhi
 603 0134 43F40063 		orr	r3, r3, #2048
 604 0138 A7F89630 		strh	r3, [r7, #150]	@ movhi
 605              	.L34:
 337:main.c        **** 		}
 338:main.c        **** 
 339:main.c        **** 		if( pdTRUE != xAreIntQueueTasksStillRunning() )
 606              		.loc 1 339 0
 607 013c FFF7FEFF 		bl	xAreIntQueueTasksStillRunning
 608 0140 0346     		mov	r3, r0
 609 0142 012B     		cmp	r3, #1
 610 0144 05D0     		beq	.L35
 340:main.c        **** 		{
 341:main.c        **** 			usErrorCode |= 0x1000;
 611              		.loc 1 341 0
 612 0146 B7F89630 		ldrh	r3, [r7, #150]	@ movhi
ARM GAS  C:\Users\bmt\AppData\Local\Temp\ccDIdXzc.s 			page 18


 613 014a 43F48053 		orr	r3, r3, #4096
 614 014e A7F89630 		strh	r3, [r7, #150]	@ movhi
 615              	.L35:
 342:main.c        **** 		}
 343:main.c        ****         
 344:main.c        **** 		if( 0 == usErrorCode )
 616              		.loc 1 344 0
 617 0152 B7F89630 		ldrh	r3, [r7, #150]
 618 0156 002B     		cmp	r3, #0
 619 0158 1CD1     		bne	.L36
 345:main.c        **** 		{
 346:main.c        ****             ulMaxJitter = ( usMaxJitter * mainNS_PER_CLOCK );
 620              		.loc 1 346 0
 621 015a 194B     		ldr	r3, .L39
 622 015c 1B88     		ldrh	r3, [r3]
 623 015e 1A46     		mov	r2, r3
 624 0160 1346     		mov	r3, r2
 625 0162 9B00     		lsls	r3, r3, #2
 626 0164 1344     		add	r3, r3, r2
 627 0166 9B00     		lsls	r3, r3, #2
 628 0168 C7F88C30 		str	r3, [r7, #140]
 347:main.c        ****             xsprintf(strbuf,"Pass: %lu Jitter(ns): %lu\r\n",ulIteration++,ulMaxJitter);
 629              		.loc 1 347 0
 630 016c D7F89030 		ldr	r3, [r7, #144]
 631 0170 5A1C     		adds	r2, r3, #1
 632 0172 C7F89020 		str	r2, [r7, #144]
 633 0176 07F10C02 		add	r2, r7, #12
 634 017a 1046     		mov	r0, r2
 635 017c 1149     		ldr	r1, .L39+4
 636 017e 1A46     		mov	r2, r3
 637 0180 D7F88C30 		ldr	r3, [r7, #140]
 638 0184 FFF7FEFF 		bl	xsprintf
 348:main.c        ****             usbserial_putString(strbuf);
 639              		.loc 1 348 0
 640 0188 07F10C03 		add	r3, r7, #12
 641 018c 1846     		mov	r0, r3
 642 018e FFF7FEFF 		bl	usbserial_putString
 643 0192 13E0     		b	.L37
 644              	.L36:
 349:main.c        **** 		}
 350:main.c        **** 		else
 351:main.c        **** 		{
 352:main.c        ****             xsprintf(strbuf,"Fail at: %u Error: 0x%04X\r\n",ulIteration++,usErrorCode);
 645              		.loc 1 352 0
 646 0194 D7F89030 		ldr	r3, [r7, #144]
 647 0198 5A1C     		adds	r2, r3, #1
 648 019a C7F89020 		str	r2, [r7, #144]
 649 019e B7F89640 		ldrh	r4, [r7, #150]
 650 01a2 07F10C02 		add	r2, r7, #12
 651 01a6 1046     		mov	r0, r2
 652 01a8 0749     		ldr	r1, .L39+8
 653 01aa 1A46     		mov	r2, r3
 654 01ac 2346     		mov	r3, r4
 655 01ae FFF7FEFF 		bl	xsprintf
 353:main.c        ****             usbserial_putString(strbuf);
 656              		.loc 1 353 0
 657 01b2 07F10C03 		add	r3, r7, #12
ARM GAS  C:\Users\bmt\AppData\Local\Temp\ccDIdXzc.s 			page 19


 658 01b6 1846     		mov	r0, r3
 659 01b8 FFF7FEFF 		bl	usbserial_putString
 660              	.L37:
 354:main.c        ****         }
 355:main.c        **** 
 356:main.c        **** 	}
 661              		.loc 1 356 0
 662 01bc 33E7     		b	.L38
 663              	.L40:
 664 01be 00BF     		.align	2
 665              	.L39:
 666 01c0 00000000 		.word	usMaxJitter
 667 01c4 18000000 		.word	.LC2
 668 01c8 34000000 		.word	.LC3
 669              		.cfi_endproc
 670              	.LFE74:
 671              		.size	vCheckTask, .-vCheckTask
 672              		.section	.text.vApplicationStackOverflowHook,"ax",%progbits
 673              		.align	2
 674              		.global	vApplicationStackOverflowHook
 675              		.thumb
 676              		.thumb_func
 677              		.type	vApplicationStackOverflowHook, %function
 678              	vApplicationStackOverflowHook:
 679              	.LFB75:
 357:main.c        **** }
 358:main.c        **** /*---------------------------------------------------------------------------*/
 359:main.c        **** 
 360:main.c        **** void vApplicationStackOverflowHook( TaskHandle_t pxTask, char *pcTaskName )
 361:main.c        **** {
 680              		.loc 1 361 0
 681              		.cfi_startproc
 682              		@ args = 0, pretend = 0, frame = 16
 683              		@ frame_needed = 1, uses_anonymous_args = 0
 684              		@ link register save eliminated.
 685 0000 80B4     		push	{r7}
 686              		.cfi_def_cfa_offset 4
 687              		.cfi_offset 7, -4
 688 0002 85B0     		sub	sp, sp, #20
 689              		.cfi_def_cfa_offset 24
 690 0004 00AF     		add	r7, sp, #0
 691              		.cfi_def_cfa_register 7
 692 0006 7860     		str	r0, [r7, #4]
 693 0008 3960     		str	r1, [r7]
 694              	.LBB6:
 695              	.LBB7:
 696              		.file 2 "..\\Source\\portable\\GCC\\ARM_CM3/portmacro.h"
   1:..\Source\portable\GCC\ARM_CM3/portmacro.h **** /*
   2:..\Source\portable\GCC\ARM_CM3/portmacro.h ****     FreeRTOS V9.0.0 - Copyright (C) 2016 Real Time Engineers Ltd.
   3:..\Source\portable\GCC\ARM_CM3/portmacro.h ****     All rights reserved
   4:..\Source\portable\GCC\ARM_CM3/portmacro.h **** 
   5:..\Source\portable\GCC\ARM_CM3/portmacro.h ****     VISIT http://www.FreeRTOS.org TO ENSURE YOU ARE USING THE LATEST VERSION.
   6:..\Source\portable\GCC\ARM_CM3/portmacro.h **** 
   7:..\Source\portable\GCC\ARM_CM3/portmacro.h ****     This file is part of the FreeRTOS distribution.
   8:..\Source\portable\GCC\ARM_CM3/portmacro.h **** 
   9:..\Source\portable\GCC\ARM_CM3/portmacro.h ****     FreeRTOS is free software; you can redistribute it and/or modify it under
  10:..\Source\portable\GCC\ARM_CM3/portmacro.h ****     the terms of the GNU General Public License (version 2) as published by the
ARM GAS  C:\Users\bmt\AppData\Local\Temp\ccDIdXzc.s 			page 20


  11:..\Source\portable\GCC\ARM_CM3/portmacro.h ****     Free Software Foundation >>>> AND MODIFIED BY <<<< the FreeRTOS exception.
  12:..\Source\portable\GCC\ARM_CM3/portmacro.h **** 
  13:..\Source\portable\GCC\ARM_CM3/portmacro.h ****     ***************************************************************************
  14:..\Source\portable\GCC\ARM_CM3/portmacro.h ****     >>!   NOTE: The modification to the GPL is included to allow you to     !<<
  15:..\Source\portable\GCC\ARM_CM3/portmacro.h ****     >>!   distribute a combined work that includes FreeRTOS without being   !<<
  16:..\Source\portable\GCC\ARM_CM3/portmacro.h ****     >>!   obliged to provide the source code for proprietary components     !<<
  17:..\Source\portable\GCC\ARM_CM3/portmacro.h ****     >>!   outside of the FreeRTOS kernel.                                   !<<
  18:..\Source\portable\GCC\ARM_CM3/portmacro.h ****     ***************************************************************************
  19:..\Source\portable\GCC\ARM_CM3/portmacro.h **** 
  20:..\Source\portable\GCC\ARM_CM3/portmacro.h ****     FreeRTOS is distributed in the hope that it will be useful, but WITHOUT ANY
  21:..\Source\portable\GCC\ARM_CM3/portmacro.h ****     WARRANTY; without even the implied warranty of MERCHANTABILITY or FITNESS
  22:..\Source\portable\GCC\ARM_CM3/portmacro.h ****     FOR A PARTICULAR PURPOSE.  Full license text is available on the following
  23:..\Source\portable\GCC\ARM_CM3/portmacro.h ****     link: http://www.freertos.org/a00114.html
  24:..\Source\portable\GCC\ARM_CM3/portmacro.h **** 
  25:..\Source\portable\GCC\ARM_CM3/portmacro.h ****     ***************************************************************************
  26:..\Source\portable\GCC\ARM_CM3/portmacro.h ****      *                                                                       *
  27:..\Source\portable\GCC\ARM_CM3/portmacro.h ****      *    FreeRTOS provides completely free yet professionally developed,    *
  28:..\Source\portable\GCC\ARM_CM3/portmacro.h ****      *    robust, strictly quality controlled, supported, and cross          *
  29:..\Source\portable\GCC\ARM_CM3/portmacro.h ****      *    platform software that is more than just the market leader, it     *
  30:..\Source\portable\GCC\ARM_CM3/portmacro.h ****      *    is the industry's de facto standard.                               *
  31:..\Source\portable\GCC\ARM_CM3/portmacro.h ****      *                                                                       *
  32:..\Source\portable\GCC\ARM_CM3/portmacro.h ****      *    Help yourself get started quickly while simultaneously helping     *
  33:..\Source\portable\GCC\ARM_CM3/portmacro.h ****      *    to support the FreeRTOS project by purchasing a FreeRTOS           *
  34:..\Source\portable\GCC\ARM_CM3/portmacro.h ****      *    tutorial book, reference manual, or both:                          *
  35:..\Source\portable\GCC\ARM_CM3/portmacro.h ****      *    http://www.FreeRTOS.org/Documentation                              *
  36:..\Source\portable\GCC\ARM_CM3/portmacro.h ****      *                                                                       *
  37:..\Source\portable\GCC\ARM_CM3/portmacro.h ****     ***************************************************************************
  38:..\Source\portable\GCC\ARM_CM3/portmacro.h **** 
  39:..\Source\portable\GCC\ARM_CM3/portmacro.h ****     http://www.FreeRTOS.org/FAQHelp.html - Having a problem?  Start by reading
  40:..\Source\portable\GCC\ARM_CM3/portmacro.h ****     the FAQ page "My application does not run, what could be wrong?".  Have you
  41:..\Source\portable\GCC\ARM_CM3/portmacro.h ****     defined configASSERT()?
  42:..\Source\portable\GCC\ARM_CM3/portmacro.h **** 
  43:..\Source\portable\GCC\ARM_CM3/portmacro.h ****     http://www.FreeRTOS.org/support - In return for receiving this top quality
  44:..\Source\portable\GCC\ARM_CM3/portmacro.h ****     embedded software for free we request you assist our global community by
  45:..\Source\portable\GCC\ARM_CM3/portmacro.h ****     participating in the support forum.
  46:..\Source\portable\GCC\ARM_CM3/portmacro.h **** 
  47:..\Source\portable\GCC\ARM_CM3/portmacro.h ****     http://www.FreeRTOS.org/training - Investing in training allows your team to
  48:..\Source\portable\GCC\ARM_CM3/portmacro.h ****     be as productive as possible as early as possible.  Now you can receive
  49:..\Source\portable\GCC\ARM_CM3/portmacro.h ****     FreeRTOS training directly from Richard Barry, CEO of Real Time Engineers
  50:..\Source\portable\GCC\ARM_CM3/portmacro.h ****     Ltd, and the world's leading authority on the world's leading RTOS.
  51:..\Source\portable\GCC\ARM_CM3/portmacro.h **** 
  52:..\Source\portable\GCC\ARM_CM3/portmacro.h ****     http://www.FreeRTOS.org/plus - A selection of FreeRTOS ecosystem products,
  53:..\Source\portable\GCC\ARM_CM3/portmacro.h ****     including FreeRTOS+Trace - an indispensable productivity tool, a DOS
  54:..\Source\portable\GCC\ARM_CM3/portmacro.h ****     compatible FAT file system, and our tiny thread aware UDP/IP stack.
  55:..\Source\portable\GCC\ARM_CM3/portmacro.h **** 
  56:..\Source\portable\GCC\ARM_CM3/portmacro.h ****     http://www.FreeRTOS.org/labs - Where new FreeRTOS products go to incubate.
  57:..\Source\portable\GCC\ARM_CM3/portmacro.h ****     Come and try FreeRTOS+TCP, our new open source TCP/IP stack for FreeRTOS.
  58:..\Source\portable\GCC\ARM_CM3/portmacro.h **** 
  59:..\Source\portable\GCC\ARM_CM3/portmacro.h ****     http://www.OpenRTOS.com - Real Time Engineers ltd. license FreeRTOS to High
  60:..\Source\portable\GCC\ARM_CM3/portmacro.h ****     Integrity Systems ltd. to sell under the OpenRTOS brand.  Low cost OpenRTOS
  61:..\Source\portable\GCC\ARM_CM3/portmacro.h ****     licenses offer ticketed support, indemnification and commercial middleware.
  62:..\Source\portable\GCC\ARM_CM3/portmacro.h **** 
  63:..\Source\portable\GCC\ARM_CM3/portmacro.h ****     http://www.SafeRTOS.com - High Integrity Systems also provide a safety
  64:..\Source\portable\GCC\ARM_CM3/portmacro.h ****     engineered and independently SIL3 certified version for use in safety and
  65:..\Source\portable\GCC\ARM_CM3/portmacro.h ****     mission critical applications that require provable dependability.
  66:..\Source\portable\GCC\ARM_CM3/portmacro.h **** 
  67:..\Source\portable\GCC\ARM_CM3/portmacro.h ****     1 tab == 4 spaces!
ARM GAS  C:\Users\bmt\AppData\Local\Temp\ccDIdXzc.s 			page 21


  68:..\Source\portable\GCC\ARM_CM3/portmacro.h **** */
  69:..\Source\portable\GCC\ARM_CM3/portmacro.h **** 
  70:..\Source\portable\GCC\ARM_CM3/portmacro.h **** 
  71:..\Source\portable\GCC\ARM_CM3/portmacro.h **** #ifndef PORTMACRO_H
  72:..\Source\portable\GCC\ARM_CM3/portmacro.h **** #define PORTMACRO_H
  73:..\Source\portable\GCC\ARM_CM3/portmacro.h **** 
  74:..\Source\portable\GCC\ARM_CM3/portmacro.h **** #ifdef __cplusplus
  75:..\Source\portable\GCC\ARM_CM3/portmacro.h **** extern "C" {
  76:..\Source\portable\GCC\ARM_CM3/portmacro.h **** #endif
  77:..\Source\portable\GCC\ARM_CM3/portmacro.h **** 
  78:..\Source\portable\GCC\ARM_CM3/portmacro.h **** /*-----------------------------------------------------------
  79:..\Source\portable\GCC\ARM_CM3/portmacro.h ****  * Port specific definitions.
  80:..\Source\portable\GCC\ARM_CM3/portmacro.h ****  *
  81:..\Source\portable\GCC\ARM_CM3/portmacro.h ****  * The settings in this file configure FreeRTOS correctly for the
  82:..\Source\portable\GCC\ARM_CM3/portmacro.h ****  * given hardware and compiler.
  83:..\Source\portable\GCC\ARM_CM3/portmacro.h ****  *
  84:..\Source\portable\GCC\ARM_CM3/portmacro.h ****  * These settings should not be altered.
  85:..\Source\portable\GCC\ARM_CM3/portmacro.h ****  *-----------------------------------------------------------
  86:..\Source\portable\GCC\ARM_CM3/portmacro.h ****  */
  87:..\Source\portable\GCC\ARM_CM3/portmacro.h **** 
  88:..\Source\portable\GCC\ARM_CM3/portmacro.h **** /* Type definitions. */
  89:..\Source\portable\GCC\ARM_CM3/portmacro.h **** #define portCHAR		char
  90:..\Source\portable\GCC\ARM_CM3/portmacro.h **** #define portFLOAT		float
  91:..\Source\portable\GCC\ARM_CM3/portmacro.h **** #define portDOUBLE		double
  92:..\Source\portable\GCC\ARM_CM3/portmacro.h **** #define portLONG		long
  93:..\Source\portable\GCC\ARM_CM3/portmacro.h **** #define portSHORT		short
  94:..\Source\portable\GCC\ARM_CM3/portmacro.h **** #define portSTACK_TYPE	uint32_t
  95:..\Source\portable\GCC\ARM_CM3/portmacro.h **** #define portBASE_TYPE	long
  96:..\Source\portable\GCC\ARM_CM3/portmacro.h **** 
  97:..\Source\portable\GCC\ARM_CM3/portmacro.h **** typedef portSTACK_TYPE StackType_t;
  98:..\Source\portable\GCC\ARM_CM3/portmacro.h **** typedef long BaseType_t;
  99:..\Source\portable\GCC\ARM_CM3/portmacro.h **** typedef unsigned long UBaseType_t;
 100:..\Source\portable\GCC\ARM_CM3/portmacro.h **** 
 101:..\Source\portable\GCC\ARM_CM3/portmacro.h **** #if( configUSE_16_BIT_TICKS == 1 )
 102:..\Source\portable\GCC\ARM_CM3/portmacro.h **** 	typedef uint16_t TickType_t;
 103:..\Source\portable\GCC\ARM_CM3/portmacro.h **** 	#define portMAX_DELAY ( TickType_t ) 0xffff
 104:..\Source\portable\GCC\ARM_CM3/portmacro.h **** #else
 105:..\Source\portable\GCC\ARM_CM3/portmacro.h **** 	typedef uint32_t TickType_t;
 106:..\Source\portable\GCC\ARM_CM3/portmacro.h **** 	#define portMAX_DELAY ( TickType_t ) 0xffffffffUL
 107:..\Source\portable\GCC\ARM_CM3/portmacro.h **** 
 108:..\Source\portable\GCC\ARM_CM3/portmacro.h **** 	/* 32-bit tick type on a 32-bit architecture, so reads of the tick count do
 109:..\Source\portable\GCC\ARM_CM3/portmacro.h **** 	not need to be guarded with a critical section. */
 110:..\Source\portable\GCC\ARM_CM3/portmacro.h **** 	#define portTICK_TYPE_IS_ATOMIC 1
 111:..\Source\portable\GCC\ARM_CM3/portmacro.h **** #endif
 112:..\Source\portable\GCC\ARM_CM3/portmacro.h **** /*-----------------------------------------------------------*/
 113:..\Source\portable\GCC\ARM_CM3/portmacro.h **** 
 114:..\Source\portable\GCC\ARM_CM3/portmacro.h **** /* Architecture specifics. */
 115:..\Source\portable\GCC\ARM_CM3/portmacro.h **** #define portSTACK_GROWTH			( -1 )
 116:..\Source\portable\GCC\ARM_CM3/portmacro.h **** #define portTICK_PERIOD_MS			( ( TickType_t ) 1000 / configTICK_RATE_HZ )
 117:..\Source\portable\GCC\ARM_CM3/portmacro.h **** #define portBYTE_ALIGNMENT			8
 118:..\Source\portable\GCC\ARM_CM3/portmacro.h **** /*-----------------------------------------------------------*/
 119:..\Source\portable\GCC\ARM_CM3/portmacro.h **** 
 120:..\Source\portable\GCC\ARM_CM3/portmacro.h **** /* Scheduler utilities. */
 121:..\Source\portable\GCC\ARM_CM3/portmacro.h **** #define portYIELD() 															\
 122:..\Source\portable\GCC\ARM_CM3/portmacro.h **** {																				\
 123:..\Source\portable\GCC\ARM_CM3/portmacro.h **** 	/* Set a PendSV to request a context switch. */								\
 124:..\Source\portable\GCC\ARM_CM3/portmacro.h **** 	portNVIC_INT_CTRL_REG = portNVIC_PENDSVSET_BIT;								\
ARM GAS  C:\Users\bmt\AppData\Local\Temp\ccDIdXzc.s 			page 22


 125:..\Source\portable\GCC\ARM_CM3/portmacro.h **** 																				\
 126:..\Source\portable\GCC\ARM_CM3/portmacro.h **** 	/* Barriers are normally not required but do ensure the code is completely	\
 127:..\Source\portable\GCC\ARM_CM3/portmacro.h **** 	within the specified behaviour for the architecture. */						\
 128:..\Source\portable\GCC\ARM_CM3/portmacro.h **** 	__asm volatile( "dsb" );													\
 129:..\Source\portable\GCC\ARM_CM3/portmacro.h **** 	__asm volatile( "isb" );													\
 130:..\Source\portable\GCC\ARM_CM3/portmacro.h **** }
 131:..\Source\portable\GCC\ARM_CM3/portmacro.h **** 
 132:..\Source\portable\GCC\ARM_CM3/portmacro.h **** #define portNVIC_INT_CTRL_REG		( * ( ( volatile uint32_t * ) 0xe000ed04 ) )
 133:..\Source\portable\GCC\ARM_CM3/portmacro.h **** #define portNVIC_PENDSVSET_BIT		( 1UL << 28UL )
 134:..\Source\portable\GCC\ARM_CM3/portmacro.h **** #define portEND_SWITCHING_ISR( xSwitchRequired ) if( xSwitchRequired != pdFALSE ) portYIELD()
 135:..\Source\portable\GCC\ARM_CM3/portmacro.h **** #define portYIELD_FROM_ISR( x ) portEND_SWITCHING_ISR( x )
 136:..\Source\portable\GCC\ARM_CM3/portmacro.h **** /*-----------------------------------------------------------*/
 137:..\Source\portable\GCC\ARM_CM3/portmacro.h **** 
 138:..\Source\portable\GCC\ARM_CM3/portmacro.h **** /* Critical section management. */
 139:..\Source\portable\GCC\ARM_CM3/portmacro.h **** extern void vPortEnterCritical( void );
 140:..\Source\portable\GCC\ARM_CM3/portmacro.h **** extern void vPortExitCritical( void );
 141:..\Source\portable\GCC\ARM_CM3/portmacro.h **** #define portSET_INTERRUPT_MASK_FROM_ISR()		ulPortRaiseBASEPRI()
 142:..\Source\portable\GCC\ARM_CM3/portmacro.h **** #define portCLEAR_INTERRUPT_MASK_FROM_ISR(x)	vPortSetBASEPRI(x)
 143:..\Source\portable\GCC\ARM_CM3/portmacro.h **** #define portDISABLE_INTERRUPTS()				vPortRaiseBASEPRI()
 144:..\Source\portable\GCC\ARM_CM3/portmacro.h **** #define portENABLE_INTERRUPTS()					vPortSetBASEPRI(0)
 145:..\Source\portable\GCC\ARM_CM3/portmacro.h **** #define portENTER_CRITICAL()					vPortEnterCritical()
 146:..\Source\portable\GCC\ARM_CM3/portmacro.h **** #define portEXIT_CRITICAL()						vPortExitCritical()
 147:..\Source\portable\GCC\ARM_CM3/portmacro.h **** 
 148:..\Source\portable\GCC\ARM_CM3/portmacro.h **** /*-----------------------------------------------------------*/
 149:..\Source\portable\GCC\ARM_CM3/portmacro.h **** 
 150:..\Source\portable\GCC\ARM_CM3/portmacro.h **** /* Task function macros as described on the FreeRTOS.org WEB site.  These are
 151:..\Source\portable\GCC\ARM_CM3/portmacro.h **** not necessary for to use this port.  They are defined so the common demo files
 152:..\Source\portable\GCC\ARM_CM3/portmacro.h **** (which build with all the ports) will build. */
 153:..\Source\portable\GCC\ARM_CM3/portmacro.h **** #define portTASK_FUNCTION_PROTO( vFunction, pvParameters ) void vFunction( void *pvParameters )
 154:..\Source\portable\GCC\ARM_CM3/portmacro.h **** #define portTASK_FUNCTION( vFunction, pvParameters ) void vFunction( void *pvParameters )
 155:..\Source\portable\GCC\ARM_CM3/portmacro.h **** /*-----------------------------------------------------------*/
 156:..\Source\portable\GCC\ARM_CM3/portmacro.h **** 
 157:..\Source\portable\GCC\ARM_CM3/portmacro.h **** /* Tickless idle/low power functionality. */
 158:..\Source\portable\GCC\ARM_CM3/portmacro.h **** #ifndef portSUPPRESS_TICKS_AND_SLEEP
 159:..\Source\portable\GCC\ARM_CM3/portmacro.h **** 	extern void vPortSuppressTicksAndSleep( TickType_t xExpectedIdleTime );
 160:..\Source\portable\GCC\ARM_CM3/portmacro.h **** 	#define portSUPPRESS_TICKS_AND_SLEEP( xExpectedIdleTime ) vPortSuppressTicksAndSleep( xExpectedIdl
 161:..\Source\portable\GCC\ARM_CM3/portmacro.h **** #endif
 162:..\Source\portable\GCC\ARM_CM3/portmacro.h **** /*-----------------------------------------------------------*/
 163:..\Source\portable\GCC\ARM_CM3/portmacro.h **** 
 164:..\Source\portable\GCC\ARM_CM3/portmacro.h **** /* Architecture specific optimisations. */
 165:..\Source\portable\GCC\ARM_CM3/portmacro.h **** #ifndef configUSE_PORT_OPTIMISED_TASK_SELECTION
 166:..\Source\portable\GCC\ARM_CM3/portmacro.h **** 	#define configUSE_PORT_OPTIMISED_TASK_SELECTION 1
 167:..\Source\portable\GCC\ARM_CM3/portmacro.h **** #endif
 168:..\Source\portable\GCC\ARM_CM3/portmacro.h **** 
 169:..\Source\portable\GCC\ARM_CM3/portmacro.h **** #if configUSE_PORT_OPTIMISED_TASK_SELECTION == 1
 170:..\Source\portable\GCC\ARM_CM3/portmacro.h **** 
 171:..\Source\portable\GCC\ARM_CM3/portmacro.h **** 	/* Generic helper function. */
 172:..\Source\portable\GCC\ARM_CM3/portmacro.h **** 	__attribute__( ( always_inline ) ) static inline uint8_t ucPortCountLeadingZeros( uint32_t ulBitma
 173:..\Source\portable\GCC\ARM_CM3/portmacro.h **** 	{
 174:..\Source\portable\GCC\ARM_CM3/portmacro.h **** 	uint8_t ucReturn;
 175:..\Source\portable\GCC\ARM_CM3/portmacro.h **** 
 176:..\Source\portable\GCC\ARM_CM3/portmacro.h **** 		__asm volatile ( "clz %0, %1" : "=r" ( ucReturn ) : "r" ( ulBitmap ) );
 177:..\Source\portable\GCC\ARM_CM3/portmacro.h **** 		return ucReturn;
 178:..\Source\portable\GCC\ARM_CM3/portmacro.h **** 	}
 179:..\Source\portable\GCC\ARM_CM3/portmacro.h **** 
 180:..\Source\portable\GCC\ARM_CM3/portmacro.h **** 	/* Check the configuration. */
 181:..\Source\portable\GCC\ARM_CM3/portmacro.h **** 	#if( configMAX_PRIORITIES > 32 )
ARM GAS  C:\Users\bmt\AppData\Local\Temp\ccDIdXzc.s 			page 23


 182:..\Source\portable\GCC\ARM_CM3/portmacro.h **** 		#error configUSE_PORT_OPTIMISED_TASK_SELECTION can only be set to 1 when configMAX_PRIORITIES is 
 183:..\Source\portable\GCC\ARM_CM3/portmacro.h **** 	#endif
 184:..\Source\portable\GCC\ARM_CM3/portmacro.h **** 
 185:..\Source\portable\GCC\ARM_CM3/portmacro.h **** 	/* Store/clear the ready priorities in a bit map. */
 186:..\Source\portable\GCC\ARM_CM3/portmacro.h **** 	#define portRECORD_READY_PRIORITY( uxPriority, uxReadyPriorities ) ( uxReadyPriorities ) |= ( 1UL 
 187:..\Source\portable\GCC\ARM_CM3/portmacro.h **** 	#define portRESET_READY_PRIORITY( uxPriority, uxReadyPriorities ) ( uxReadyPriorities ) &= ~( 1UL 
 188:..\Source\portable\GCC\ARM_CM3/portmacro.h **** 
 189:..\Source\portable\GCC\ARM_CM3/portmacro.h **** 	/*-----------------------------------------------------------*/
 190:..\Source\portable\GCC\ARM_CM3/portmacro.h **** 
 191:..\Source\portable\GCC\ARM_CM3/portmacro.h **** 	#define portGET_HIGHEST_PRIORITY( uxTopPriority, uxReadyPriorities ) uxTopPriority = ( 31UL - ( ui
 192:..\Source\portable\GCC\ARM_CM3/portmacro.h **** 
 193:..\Source\portable\GCC\ARM_CM3/portmacro.h **** #endif /* configUSE_PORT_OPTIMISED_TASK_SELECTION */
 194:..\Source\portable\GCC\ARM_CM3/portmacro.h **** 
 195:..\Source\portable\GCC\ARM_CM3/portmacro.h **** /*-----------------------------------------------------------*/
 196:..\Source\portable\GCC\ARM_CM3/portmacro.h **** 
 197:..\Source\portable\GCC\ARM_CM3/portmacro.h **** #ifdef configASSERT
 198:..\Source\portable\GCC\ARM_CM3/portmacro.h **** 	void vPortValidateInterruptPriority( void );
 199:..\Source\portable\GCC\ARM_CM3/portmacro.h **** 	#define portASSERT_IF_INTERRUPT_PRIORITY_INVALID() 	vPortValidateInterruptPriority()
 200:..\Source\portable\GCC\ARM_CM3/portmacro.h **** #endif
 201:..\Source\portable\GCC\ARM_CM3/portmacro.h **** 
 202:..\Source\portable\GCC\ARM_CM3/portmacro.h **** /* portNOP() is not required by this port. */
 203:..\Source\portable\GCC\ARM_CM3/portmacro.h **** #define portNOP()
 204:..\Source\portable\GCC\ARM_CM3/portmacro.h **** 
 205:..\Source\portable\GCC\ARM_CM3/portmacro.h **** #define portINLINE	__inline
 206:..\Source\portable\GCC\ARM_CM3/portmacro.h **** 
 207:..\Source\portable\GCC\ARM_CM3/portmacro.h **** #ifndef portFORCE_INLINE
 208:..\Source\portable\GCC\ARM_CM3/portmacro.h **** 	#define portFORCE_INLINE inline __attribute__(( always_inline))
 209:..\Source\portable\GCC\ARM_CM3/portmacro.h **** #endif
 210:..\Source\portable\GCC\ARM_CM3/portmacro.h **** 
 211:..\Source\portable\GCC\ARM_CM3/portmacro.h **** portFORCE_INLINE static BaseType_t xPortIsInsideInterrupt( void )
 212:..\Source\portable\GCC\ARM_CM3/portmacro.h **** {
 213:..\Source\portable\GCC\ARM_CM3/portmacro.h **** uint32_t ulCurrentInterrupt;
 214:..\Source\portable\GCC\ARM_CM3/portmacro.h **** BaseType_t xReturn;
 215:..\Source\portable\GCC\ARM_CM3/portmacro.h **** 
 216:..\Source\portable\GCC\ARM_CM3/portmacro.h **** 	/* Obtain the number of the currently executing interrupt. */
 217:..\Source\portable\GCC\ARM_CM3/portmacro.h **** 	__asm volatile( "mrs %0, ipsr" : "=r"( ulCurrentInterrupt ) );
 218:..\Source\portable\GCC\ARM_CM3/portmacro.h **** 
 219:..\Source\portable\GCC\ARM_CM3/portmacro.h **** 	if( ulCurrentInterrupt == 0 )
 220:..\Source\portable\GCC\ARM_CM3/portmacro.h **** 	{
 221:..\Source\portable\GCC\ARM_CM3/portmacro.h **** 		xReturn = pdFALSE;
 222:..\Source\portable\GCC\ARM_CM3/portmacro.h **** 	}
 223:..\Source\portable\GCC\ARM_CM3/portmacro.h **** 	else
 224:..\Source\portable\GCC\ARM_CM3/portmacro.h **** 	{
 225:..\Source\portable\GCC\ARM_CM3/portmacro.h **** 		xReturn = pdTRUE;
 226:..\Source\portable\GCC\ARM_CM3/portmacro.h **** 	}
 227:..\Source\portable\GCC\ARM_CM3/portmacro.h **** 
 228:..\Source\portable\GCC\ARM_CM3/portmacro.h **** 	return xReturn;
 229:..\Source\portable\GCC\ARM_CM3/portmacro.h **** }
 230:..\Source\portable\GCC\ARM_CM3/portmacro.h **** 
 231:..\Source\portable\GCC\ARM_CM3/portmacro.h **** /*-----------------------------------------------------------*/
 232:..\Source\portable\GCC\ARM_CM3/portmacro.h **** 
 233:..\Source\portable\GCC\ARM_CM3/portmacro.h **** portFORCE_INLINE static void vPortRaiseBASEPRI( void )
 234:..\Source\portable\GCC\ARM_CM3/portmacro.h **** {
 235:..\Source\portable\GCC\ARM_CM3/portmacro.h **** uint32_t ulNewBASEPRI;
 236:..\Source\portable\GCC\ARM_CM3/portmacro.h **** 
 237:..\Source\portable\GCC\ARM_CM3/portmacro.h **** 	__asm volatile
 697              		.loc 2 237 0
ARM GAS  C:\Users\bmt\AppData\Local\Temp\ccDIdXzc.s 			page 24


 698              	@ 237 "..\Source\portable\GCC\ARM_CM3/portmacro.h" 1
 699 000a 4FF0A003 			mov r3, #160												
 700 000e 83F31188 		msr basepri, r3											
 701 0012 BFF36F8F 		isb														
 702 0016 BFF34F8F 		dsb														
 703              	
 704              	@ 0 "" 2
 705              		.thumb
 706 001a FB60     		str	r3, [r7, #12]
 707              	.LBE7:
 708              	.LBE6:
 362:main.c        **** 	/* The stack space has been execeeded for a task, considering allocating more. */
 363:main.c        **** 	taskDISABLE_INTERRUPTS();
 364:main.c        **** }/*---------------------------------------------------------------------------*/
 709              		.loc 1 364 0
 710 001c 1437     		adds	r7, r7, #20
 711              		.cfi_def_cfa_offset 4
 712 001e BD46     		mov	sp, r7
 713              		.cfi_def_cfa_register 13
 714              		@ sp needed
 715 0020 5DF8047B 		ldr	r7, [sp], #4
 716              		.cfi_restore 7
 717              		.cfi_def_cfa_offset 0
 718 0024 7047     		bx	lr
 719              		.cfi_endproc
 720              	.LFE75:
 721              		.size	vApplicationStackOverflowHook, .-vApplicationStackOverflowHook
 722 0026 00BF     		.section	.text.vApplicationMallocFailedHook,"ax",%progbits
 723              		.align	2
 724              		.global	vApplicationMallocFailedHook
 725              		.thumb
 726              		.thumb_func
 727              		.type	vApplicationMallocFailedHook, %function
 728              	vApplicationMallocFailedHook:
 729              	.LFB76:
 365:main.c        **** 
 366:main.c        **** void vApplicationMallocFailedHook( void )
 367:main.c        **** {
 730              		.loc 1 367 0
 731              		.cfi_startproc
 732              		@ args = 0, pretend = 0, frame = 8
 733              		@ frame_needed = 1, uses_anonymous_args = 0
 734              		@ link register save eliminated.
 735 0000 80B4     		push	{r7}
 736              		.cfi_def_cfa_offset 4
 737              		.cfi_offset 7, -4
 738 0002 83B0     		sub	sp, sp, #12
 739              		.cfi_def_cfa_offset 16
 740 0004 00AF     		add	r7, sp, #0
 741              		.cfi_def_cfa_register 7
 742              	.LBB8:
 743              	.LBB9:
 744              		.loc 2 237 0
 745              	@ 237 "..\Source\portable\GCC\ARM_CM3/portmacro.h" 1
 746 0006 4FF0A003 			mov r3, #160												
 747 000a 83F31188 		msr basepri, r3											
 748 000e BFF36F8F 		isb														
ARM GAS  C:\Users\bmt\AppData\Local\Temp\ccDIdXzc.s 			page 25


 749 0012 BFF34F8F 		dsb														
 750              	
 751              	@ 0 "" 2
 752              		.thumb
 753 0016 7B60     		str	r3, [r7, #4]
 754              	.LBE9:
 755              	.LBE8:
 368:main.c        **** 	/* The heap space has been execeeded. */
 369:main.c        **** 	taskDISABLE_INTERRUPTS();
 370:main.c        **** }
 756              		.loc 1 370 0
 757 0018 0C37     		adds	r7, r7, #12
 758              		.cfi_def_cfa_offset 4
 759 001a BD46     		mov	sp, r7
 760              		.cfi_def_cfa_register 13
 761              		@ sp needed
 762 001c 5DF8047B 		ldr	r7, [sp], #4
 763              		.cfi_restore 7
 764              		.cfi_def_cfa_offset 0
 765 0020 7047     		bx	lr
 766              		.cfi_endproc
 767              	.LFE76:
 768              		.size	vApplicationMallocFailedHook, .-vApplicationMallocFailedHook
 769 0022 00BF     		.text
 770              	.Letext0:
 771              		.file 3 "c:\\program files (x86)\\cypress\\psoc creator\\4.0\\psoc creator\\import\\gnu\\arm\\4.9.
 772              		.file 4 "c:\\program files (x86)\\cypress\\psoc creator\\4.0\\psoc creator\\import\\gnu\\arm\\4.9.
 773              		.file 5 "Generated_Source\\PSoC5/cytypes.h"
 774              		.file 6 "c:\\program files (x86)\\cypress\\psoc creator\\4.0\\psoc creator\\import\\gnu\\arm\\4.9.
 775              		.file 7 "..\\Source\\include/task.h"
 776              		.file 8 "c:\\program files (x86)\\cypress\\psoc creator\\4.0\\psoc creator\\import\\gnu\\arm\\4.9.
 777              		.file 9 "Generated_Source\\PSoC5/core_cm3.h"
 778              		.file 10 "<built-in>"