ARM GAS  C:\Users\bmt\AppData\Local\Temp\cc20rSAl.s 			page 1


   1              		.syntax unified
   2              		.cpu cortex-m3
   3              		.fpu softvfp
   4              		.eabi_attribute 20, 1
   5              		.eabi_attribute 21, 1
   6              		.eabi_attribute 23, 3
   7              		.eabi_attribute 24, 1
   8              		.eabi_attribute 25, 1
   9              		.eabi_attribute 26, 1
  10              		.eabi_attribute 30, 6
  11              		.eabi_attribute 34, 1
  12              		.eabi_attribute 18, 4
  13              		.thumb
  14              		.file	"ParTest.c"
  15              		.text
  16              	.Ltext0:
  17              		.cfi_sections	.debug_frame
  18              		.bss
  19              		.align	2
  20              	cLedOutput:
  21 0000 00000000 		.space	4
  22              		.section	.text.vParTestInitialise,"ax",%progbits
  23              		.align	2
  24              		.global	vParTestInitialise
  25              		.thumb
  26              		.thumb_func
  27              		.type	vParTestInitialise, %function
  28              	vParTestInitialise:
  29              	.LFB68:
  30              		.file 1 "ParTest.c"
   1:ParTest.c     **** /*
   2:ParTest.c     ****     FreeRTOS V9.0.0 - Copyright (C) 2016 Real Time Engineers Ltd.
   3:ParTest.c     ****     All rights reserved
   4:ParTest.c     **** 
   5:ParTest.c     ****     VISIT http://www.FreeRTOS.org TO ENSURE YOU ARE USING THE LATEST VERSION.
   6:ParTest.c     **** 
   7:ParTest.c     ****     This file is part of the FreeRTOS distribution.
   8:ParTest.c     **** 
   9:ParTest.c     ****     FreeRTOS is free software; you can redistribute it and/or modify it under
  10:ParTest.c     ****     the terms of the GNU General Public License (version 2) as published by the
  11:ParTest.c     ****     Free Software Foundation >>>> AND MODIFIED BY <<<< the FreeRTOS exception.
  12:ParTest.c     **** 
  13:ParTest.c     ****     ***************************************************************************
  14:ParTest.c     ****     >>!   NOTE: The modification to the GPL is included to allow you to     !<<
  15:ParTest.c     ****     >>!   distribute a combined work that includes FreeRTOS without being   !<<
  16:ParTest.c     ****     >>!   obliged to provide the source code for proprietary components     !<<
  17:ParTest.c     ****     >>!   outside of the FreeRTOS kernel.                                   !<<
  18:ParTest.c     ****     ***************************************************************************
  19:ParTest.c     **** 
  20:ParTest.c     ****     FreeRTOS is distributed in the hope that it will be useful, but WITHOUT ANY
  21:ParTest.c     ****     WARRANTY; without even the implied warranty of MERCHANTABILITY or FITNESS
  22:ParTest.c     ****     FOR A PARTICULAR PURPOSE.  Full license text is available on the following
  23:ParTest.c     ****     link: http://www.freertos.org/a00114.html
  24:ParTest.c     **** 
  25:ParTest.c     ****     ***************************************************************************
  26:ParTest.c     ****      *                                                                       *
  27:ParTest.c     ****      *    FreeRTOS provides completely free yet professionally developed,    *
ARM GAS  C:\Users\bmt\AppData\Local\Temp\cc20rSAl.s 			page 2


  28:ParTest.c     ****      *    robust, strictly quality controlled, supported, and cross          *
  29:ParTest.c     ****      *    platform software that is more than just the market leader, it     *
  30:ParTest.c     ****      *    is the industry's de facto standard.                               *
  31:ParTest.c     ****      *                                                                       *
  32:ParTest.c     ****      *    Help yourself get started quickly while simultaneously helping     *
  33:ParTest.c     ****      *    to support the FreeRTOS project by purchasing a FreeRTOS           *
  34:ParTest.c     ****      *    tutorial book, reference manual, or both:                          *
  35:ParTest.c     ****      *    http://www.FreeRTOS.org/Documentation                              *
  36:ParTest.c     ****      *                                                                       *
  37:ParTest.c     ****     ***************************************************************************
  38:ParTest.c     **** 
  39:ParTest.c     ****     http://www.FreeRTOS.org/FAQHelp.html - Having a problem?  Start by reading
  40:ParTest.c     ****     the FAQ page "My application does not run, what could be wrong?".  Have you
  41:ParTest.c     ****     defined configASSERT()?
  42:ParTest.c     **** 
  43:ParTest.c     ****     http://www.FreeRTOS.org/support - In return for receiving this top quality
  44:ParTest.c     ****     embedded software for free we request you assist our global community by
  45:ParTest.c     ****     participating in the support forum.
  46:ParTest.c     **** 
  47:ParTest.c     ****     http://www.FreeRTOS.org/training - Investing in training allows your team to
  48:ParTest.c     ****     be as productive as possible as early as possible.  Now you can receive
  49:ParTest.c     ****     FreeRTOS training directly from Richard Barry, CEO of Real Time Engineers
  50:ParTest.c     ****     Ltd, and the world's leading authority on the world's leading RTOS.
  51:ParTest.c     **** 
  52:ParTest.c     ****     http://www.FreeRTOS.org/plus - A selection of FreeRTOS ecosystem products,
  53:ParTest.c     ****     including FreeRTOS+Trace - an indispensable productivity tool, a DOS
  54:ParTest.c     ****     compatible FAT file system, and our tiny thread aware UDP/IP stack.
  55:ParTest.c     **** 
  56:ParTest.c     ****     http://www.FreeRTOS.org/labs - Where new FreeRTOS products go to incubate.
  57:ParTest.c     ****     Come and try FreeRTOS+TCP, our new open source TCP/IP stack for FreeRTOS.
  58:ParTest.c     **** 
  59:ParTest.c     ****     http://www.OpenRTOS.com - Real Time Engineers ltd. license FreeRTOS to High
  60:ParTest.c     ****     Integrity Systems ltd. to sell under the OpenRTOS brand.  Low cost OpenRTOS
  61:ParTest.c     ****     licenses offer ticketed support, indemnification and commercial middleware.
  62:ParTest.c     **** 
  63:ParTest.c     ****     http://www.SafeRTOS.com - High Integrity Systems also provide a safety
  64:ParTest.c     ****     engineered and independently SIL3 certified version for use in safety and
  65:ParTest.c     ****     mission critical applications that require provable dependability.
  66:ParTest.c     **** 
  67:ParTest.c     ****     1 tab == 4 spaces!
  68:ParTest.c     **** */
  69:ParTest.c     **** 
  70:ParTest.c     **** #include <device.h>
  71:ParTest.c     **** 
  72:ParTest.c     **** #include "FreeRTOS.h"
  73:ParTest.c     **** #include "task.h"
  74:ParTest.c     **** #include "partest.h"
  75:ParTest.c     **** /*---------------------------------------------------------------------------*/
  76:ParTest.c     **** 
  77:ParTest.c     **** #define partstMAX_LED			( 4 )
  78:ParTest.c     **** /*---------------------------------------------------------------------------*/
  79:ParTest.c     **** 
  80:ParTest.c     **** static volatile char cLedOutput[ partstMAX_LED ];
  81:ParTest.c     **** /*---------------------------------------------------------------------------*/
  82:ParTest.c     **** 
  83:ParTest.c     **** void vParTestInitialise( void )
  84:ParTest.c     **** {
ARM GAS  C:\Users\bmt\AppData\Local\Temp\cc20rSAl.s 			page 3


  31              		.loc 1 84 0
  32              		.cfi_startproc
  33              		@ args = 0, pretend = 0, frame = 8
  34              		@ frame_needed = 1, uses_anonymous_args = 0
  35              		@ link register save eliminated.
  36 0000 80B4     		push	{r7}
  37              		.cfi_def_cfa_offset 4
  38              		.cfi_offset 7, -4
  39 0002 83B0     		sub	sp, sp, #12
  40              		.cfi_def_cfa_offset 16
  41 0004 00AF     		add	r7, sp, #0
  42              		.cfi_def_cfa_register 7
  85:ParTest.c     **** long lIndex;
  86:ParTest.c     **** 
  87:ParTest.c     **** 	for( lIndex = 0; lIndex < partstMAX_LED; lIndex++ )
  43              		.loc 1 87 0
  44 0006 0023     		movs	r3, #0
  45 0008 7B60     		str	r3, [r7, #4]
  46 000a 07E0     		b	.L2
  47              	.L3:
  88:ParTest.c     **** 	{
  89:ParTest.c     **** 		cLedOutput[ lIndex ] = 0;
  48              		.loc 1 89 0 discriminator 3
  49 000c 074A     		ldr	r2, .L4
  50 000e 7B68     		ldr	r3, [r7, #4]
  51 0010 1344     		add	r3, r3, r2
  52 0012 0022     		movs	r2, #0
  53 0014 1A70     		strb	r2, [r3]
  87:ParTest.c     **** 	{
  54              		.loc 1 87 0 discriminator 3
  55 0016 7B68     		ldr	r3, [r7, #4]
  56 0018 0133     		adds	r3, r3, #1
  57 001a 7B60     		str	r3, [r7, #4]
  58              	.L2:
  87:ParTest.c     **** 	{
  59              		.loc 1 87 0 is_stmt 0 discriminator 1
  60 001c 7B68     		ldr	r3, [r7, #4]
  61 001e 032B     		cmp	r3, #3
  62 0020 F4DD     		ble	.L3
  90:ParTest.c     **** 	}
  91:ParTest.c     **** }
  63              		.loc 1 91 0 is_stmt 1
  64 0022 0C37     		adds	r7, r7, #12
  65              		.cfi_def_cfa_offset 4
  66 0024 BD46     		mov	sp, r7
  67              		.cfi_def_cfa_register 13
  68              		@ sp needed
  69 0026 5DF8047B 		ldr	r7, [sp], #4
  70              		.cfi_restore 7
  71              		.cfi_def_cfa_offset 0
  72 002a 7047     		bx	lr
  73              	.L5:
  74              		.align	2
  75              	.L4:
  76 002c 00000000 		.word	cLedOutput
  77              		.cfi_endproc
  78              	.LFE68:
ARM GAS  C:\Users\bmt\AppData\Local\Temp\cc20rSAl.s 			page 4


  79              		.size	vParTestInitialise, .-vParTestInitialise
  80              		.section	.text.vParTestSetLED,"ax",%progbits
  81              		.align	2
  82              		.global	vParTestSetLED
  83              		.thumb
  84              		.thumb_func
  85              		.type	vParTestSetLED, %function
  86              	vParTestSetLED:
  87              	.LFB69:
  92:ParTest.c     **** /*---------------------------------------------------------------------------*/
  93:ParTest.c     **** 
  94:ParTest.c     **** void vParTestSetLED( unsigned portBASE_TYPE uxLED, signed portBASE_TYPE xValue )
  95:ParTest.c     **** {
  88              		.loc 1 95 0
  89              		.cfi_startproc
  90              		@ args = 0, pretend = 0, frame = 8
  91              		@ frame_needed = 1, uses_anonymous_args = 0
  92 0000 80B5     		push	{r7, lr}
  93              		.cfi_def_cfa_offset 8
  94              		.cfi_offset 7, -8
  95              		.cfi_offset 14, -4
  96 0002 82B0     		sub	sp, sp, #8
  97              		.cfi_def_cfa_offset 16
  98 0004 00AF     		add	r7, sp, #0
  99              		.cfi_def_cfa_register 7
 100 0006 7860     		str	r0, [r7, #4]
 101 0008 3960     		str	r1, [r7]
  96:ParTest.c     **** 	taskENTER_CRITICAL();
 102              		.loc 1 96 0
 103 000a FFF7FEFF 		bl	vPortEnterCritical
  97:ParTest.c     **** 	{
  98:ParTest.c     **** 		switch( uxLED )
 104              		.loc 1 98 0
 105 000e 7B68     		ldr	r3, [r7, #4]
 106 0010 032B     		cmp	r3, #3
 107 0012 2FD8     		bhi	.L15
 108 0014 01A2     		adr	r2, .L9
 109 0016 52F823F0 		ldr	pc, [r2, r3, lsl #2]
 110 001a 00BF     		.p2align 2
 111              	.L9:
 112 001c 2D000000 		.word	.L8+1
 113 0020 3F000000 		.word	.L10+1
 114 0024 51000000 		.word	.L11+1
 115 0028 63000000 		.word	.L12+1
 116              		.p2align 1
 117              	.L8:
  99:ParTest.c     **** 		{
 100:ParTest.c     **** 			case 0:
 101:ParTest.c     **** 				Pin_LED_0_Write( xValue & 0x1 );
 118              		.loc 1 101 0
 119 002c 3B68     		ldr	r3, [r7]
 120 002e DBB2     		uxtb	r3, r3
 121 0030 03F00103 		and	r3, r3, #1
 122 0034 DBB2     		uxtb	r3, r3
 123 0036 1846     		mov	r0, r3
 124 0038 FFF7FEFF 		bl	Pin_LED_0_Write
 102:ParTest.c     **** 				break;
ARM GAS  C:\Users\bmt\AppData\Local\Temp\cc20rSAl.s 			page 5


 125              		.loc 1 102 0
 126 003c 1BE0     		b	.L13
 127              	.L10:
 103:ParTest.c     **** 			case 1:
 104:ParTest.c     **** 				Pin_LED_1_Write( xValue & 0x1 );
 128              		.loc 1 104 0
 129 003e 3B68     		ldr	r3, [r7]
 130 0040 DBB2     		uxtb	r3, r3
 131 0042 03F00103 		and	r3, r3, #1
 132 0046 DBB2     		uxtb	r3, r3
 133 0048 1846     		mov	r0, r3
 134 004a FFF7FEFF 		bl	Pin_LED_1_Write
 105:ParTest.c     **** 				break;
 135              		.loc 1 105 0
 136 004e 12E0     		b	.L13
 137              	.L11:
 106:ParTest.c     **** 			case 2:
 107:ParTest.c     **** 				Pin_LED_2_Write( xValue & 0x1 );
 138              		.loc 1 107 0
 139 0050 3B68     		ldr	r3, [r7]
 140 0052 DBB2     		uxtb	r3, r3
 141 0054 03F00103 		and	r3, r3, #1
 142 0058 DBB2     		uxtb	r3, r3
 143 005a 1846     		mov	r0, r3
 144 005c FFF7FEFF 		bl	Pin_LED_2_Write
 108:ParTest.c     **** 				break;
 145              		.loc 1 108 0
 146 0060 09E0     		b	.L13
 147              	.L12:
 109:ParTest.c     **** 			case 3:
 110:ParTest.c     **** 				Pin_LED_3_Write( xValue & 0x1 );
 148              		.loc 1 110 0
 149 0062 3B68     		ldr	r3, [r7]
 150 0064 DBB2     		uxtb	r3, r3
 151 0066 03F00103 		and	r3, r3, #1
 152 006a DBB2     		uxtb	r3, r3
 153 006c 1846     		mov	r0, r3
 154 006e FFF7FEFF 		bl	Pin_LED_3_Write
 111:ParTest.c     **** 				break;
 155              		.loc 1 111 0
 156 0072 00E0     		b	.L13
 157              	.L15:
 112:ParTest.c     **** 			default:
 113:ParTest.c     **** 				/* Do nothing. */
 114:ParTest.c     **** 				break;
 158              		.loc 1 114 0
 159 0074 00BF     		nop
 160              	.L13:
 115:ParTest.c     **** 		}
 116:ParTest.c     **** 	}
 117:ParTest.c     **** 	taskEXIT_CRITICAL();
 161              		.loc 1 117 0
 162 0076 FFF7FEFF 		bl	vPortExitCritical
 118:ParTest.c     **** 	
 119:ParTest.c     **** 	/* Record the output for the sake of toggling. */
 120:ParTest.c     **** 	if( uxLED < partstMAX_LED )
 163              		.loc 1 120 0
ARM GAS  C:\Users\bmt\AppData\Local\Temp\cc20rSAl.s 			page 6


 164 007a 7B68     		ldr	r3, [r7, #4]
 165 007c 032B     		cmp	r3, #3
 166 007e 09D8     		bhi	.L6
 121:ParTest.c     **** 	{
 122:ParTest.c     **** 		cLedOutput[ uxLED ] = ( xValue & 0x1 );
 167              		.loc 1 122 0
 168 0080 3B68     		ldr	r3, [r7]
 169 0082 DBB2     		uxtb	r3, r3
 170 0084 03F00103 		and	r3, r3, #1
 171 0088 D9B2     		uxtb	r1, r3
 172 008a 044A     		ldr	r2, .L16
 173 008c 7B68     		ldr	r3, [r7, #4]
 174 008e 1344     		add	r3, r3, r2
 175 0090 0A46     		mov	r2, r1
 176 0092 1A70     		strb	r2, [r3]
 177              	.L6:
 123:ParTest.c     **** 	}
 124:ParTest.c     **** }
 178              		.loc 1 124 0
 179 0094 0837     		adds	r7, r7, #8
 180              		.cfi_def_cfa_offset 8
 181 0096 BD46     		mov	sp, r7
 182              		.cfi_def_cfa_register 13
 183              		@ sp needed
 184 0098 80BD     		pop	{r7, pc}
 185              	.L17:
 186 009a 00BF     		.align	2
 187              	.L16:
 188 009c 00000000 		.word	cLedOutput
 189              		.cfi_endproc
 190              	.LFE69:
 191              		.size	vParTestSetLED, .-vParTestSetLED
 192              		.section	.text.vParTestToggleLED,"ax",%progbits
 193              		.align	2
 194              		.global	vParTestToggleLED
 195              		.thumb
 196              		.thumb_func
 197              		.type	vParTestToggleLED, %function
 198              	vParTestToggleLED:
 199              	.LFB70:
 125:ParTest.c     **** /*---------------------------------------------------------------------------*/
 126:ParTest.c     **** 
 127:ParTest.c     **** void vParTestToggleLED( unsigned portBASE_TYPE uxLED )
 128:ParTest.c     **** {
 200              		.loc 1 128 0
 201              		.cfi_startproc
 202              		@ args = 0, pretend = 0, frame = 8
 203              		@ frame_needed = 1, uses_anonymous_args = 0
 204 0000 80B5     		push	{r7, lr}
 205              		.cfi_def_cfa_offset 8
 206              		.cfi_offset 7, -8
 207              		.cfi_offset 14, -4
 208 0002 82B0     		sub	sp, sp, #8
 209              		.cfi_def_cfa_offset 16
 210 0004 00AF     		add	r7, sp, #0
 211              		.cfi_def_cfa_register 7
 212 0006 7860     		str	r0, [r7, #4]
ARM GAS  C:\Users\bmt\AppData\Local\Temp\cc20rSAl.s 			page 7


 129:ParTest.c     **** 	if( uxLED < partstMAX_LED )
 213              		.loc 1 129 0
 214 0008 7B68     		ldr	r3, [r7, #4]
 215 000a 032B     		cmp	r3, #3
 216 000c 0DD8     		bhi	.L18
 130:ParTest.c     **** 	{
 131:ParTest.c     **** 		vParTestSetLED( uxLED, !cLedOutput[ uxLED ] );
 217              		.loc 1 131 0
 218 000e 084A     		ldr	r2, .L20
 219 0010 7B68     		ldr	r3, [r7, #4]
 220 0012 1344     		add	r3, r3, r2
 221 0014 1B78     		ldrb	r3, [r3]
 222 0016 DBB2     		uxtb	r3, r3
 223 0018 002B     		cmp	r3, #0
 224 001a 0CBF     		ite	eq
 225 001c 0123     		moveq	r3, #1
 226 001e 0023     		movne	r3, #0
 227 0020 DBB2     		uxtb	r3, r3
 228 0022 7868     		ldr	r0, [r7, #4]
 229 0024 1946     		mov	r1, r3
 230 0026 FFF7FEFF 		bl	vParTestSetLED
 231              	.L18:
 132:ParTest.c     **** 	}
 133:ParTest.c     **** }
 232              		.loc 1 133 0
 233 002a 0837     		adds	r7, r7, #8
 234              		.cfi_def_cfa_offset 8
 235 002c BD46     		mov	sp, r7
 236              		.cfi_def_cfa_register 13
 237              		@ sp needed
 238 002e 80BD     		pop	{r7, pc}
 239              	.L21:
 240              		.align	2
 241              	.L20:
 242 0030 00000000 		.word	cLedOutput
 243              		.cfi_endproc
 244              	.LFE70:
 245              		.size	vParTestToggleLED, .-vParTestToggleLED
 246              		.text
 247              	.Letext0:
 248              		.file 2 "c:\\program files (x86)\\cypress\\psoc creator\\4.0\\psoc creator\\import\\gnu\\arm\\4.9.
 249              		.file 3 "c:\\program files (x86)\\cypress\\psoc creator\\4.0\\psoc creator\\import\\gnu\\arm\\4.9.
 250              		.file 4 "Generated_Source\\PSoC5/core_cm3.h"