ARM GAS  C:\Users\bmt\AppData\Local\Temp\ccOHQGpf.s 			page 1


   1              		.syntax unified
   2              		.cpu cortex-m3
   3              		.fpu softvfp
   4              		.eabi_attribute 20, 1
   5              		.eabi_attribute 21, 1
   6              		.eabi_attribute 23, 3
   7              		.eabi_attribute 24, 1
   8              		.eabi_attribute 25, 1
   9              		.eabi_attribute 26, 1
  10              		.eabi_attribute 30, 6
  11              		.eabi_attribute 34, 1
  12              		.eabi_attribute 18, 4
  13              		.thumb
  14              		.file	"PollQ.c"
  15              		.text
  16              	.Ltext0:
  17              		.cfi_sections	.debug_frame
  18              		.bss
  19              		.align	2
  20              	xPollingConsumerCount:
  21 0000 00000000 		.space	4
  22              		.align	2
  23              	xPollingProducerCount:
  24 0004 00000000 		.space	4
  25              		.section	.rodata
  26              		.align	2
  27              	.LC0:
  28 0000 506F6C6C 		.ascii	"Poll_Test_Queue\000"
  28      5F546573 
  28      745F5175 
  28      65756500 
  29              		.align	2
  30              	.LC1:
  31 0010 51436F6E 		.ascii	"QConsNB\000"
  31      734E4200 
  32              		.align	2
  33              	.LC2:
  34 0018 5150726F 		.ascii	"QProdNB\000"
  34      644E4200 
  35              		.section	.text.vStartPolledQueueTasks,"ax",%progbits
  36              		.align	2
  37              		.global	vStartPolledQueueTasks
  38              		.thumb
  39              		.thumb_func
  40              		.type	vStartPolledQueueTasks, %function
  41              	vStartPolledQueueTasks:
  42              	.LFB68:
  43              		.file 1 "..\\Common\\Minimal\\PollQ.c"
   1:..\Common\Minimal/PollQ.c **** /*
   2:..\Common\Minimal/PollQ.c ****     FreeRTOS V9.0.0 - Copyright (C) 2016 Real Time Engineers Ltd.
   3:..\Common\Minimal/PollQ.c ****     All rights reserved
   4:..\Common\Minimal/PollQ.c **** 
   5:..\Common\Minimal/PollQ.c ****     VISIT http://www.FreeRTOS.org TO ENSURE YOU ARE USING THE LATEST VERSION.
   6:..\Common\Minimal/PollQ.c **** 
   7:..\Common\Minimal/PollQ.c ****     This file is part of the FreeRTOS distribution.
   8:..\Common\Minimal/PollQ.c **** 
   9:..\Common\Minimal/PollQ.c ****     FreeRTOS is free software; you can redistribute it and/or modify it under
ARM GAS  C:\Users\bmt\AppData\Local\Temp\ccOHQGpf.s 			page 2


  10:..\Common\Minimal/PollQ.c ****     the terms of the GNU General Public License (version 2) as published by the
  11:..\Common\Minimal/PollQ.c ****     Free Software Foundation >>>> AND MODIFIED BY <<<< the FreeRTOS exception.
  12:..\Common\Minimal/PollQ.c **** 
  13:..\Common\Minimal/PollQ.c ****     ***************************************************************************
  14:..\Common\Minimal/PollQ.c ****     >>!   NOTE: The modification to the GPL is included to allow you to     !<<
  15:..\Common\Minimal/PollQ.c ****     >>!   distribute a combined work that includes FreeRTOS without being   !<<
  16:..\Common\Minimal/PollQ.c ****     >>!   obliged to provide the source code for proprietary components     !<<
  17:..\Common\Minimal/PollQ.c ****     >>!   outside of the FreeRTOS kernel.                                   !<<
  18:..\Common\Minimal/PollQ.c ****     ***************************************************************************
  19:..\Common\Minimal/PollQ.c **** 
  20:..\Common\Minimal/PollQ.c ****     FreeRTOS is distributed in the hope that it will be useful, but WITHOUT ANY
  21:..\Common\Minimal/PollQ.c ****     WARRANTY; without even the implied warranty of MERCHANTABILITY or FITNESS
  22:..\Common\Minimal/PollQ.c ****     FOR A PARTICULAR PURPOSE.  Full license text is available on the following
  23:..\Common\Minimal/PollQ.c ****     link: http://www.freertos.org/a00114.html
  24:..\Common\Minimal/PollQ.c **** 
  25:..\Common\Minimal/PollQ.c ****     ***************************************************************************
  26:..\Common\Minimal/PollQ.c ****      *                                                                       *
  27:..\Common\Minimal/PollQ.c ****      *    FreeRTOS provides completely free yet professionally developed,    *
  28:..\Common\Minimal/PollQ.c ****      *    robust, strictly quality controlled, supported, and cross          *
  29:..\Common\Minimal/PollQ.c ****      *    platform software that is more than just the market leader, it     *
  30:..\Common\Minimal/PollQ.c ****      *    is the industry's de facto standard.                               *
  31:..\Common\Minimal/PollQ.c ****      *                                                                       *
  32:..\Common\Minimal/PollQ.c ****      *    Help yourself get started quickly while simultaneously helping     *
  33:..\Common\Minimal/PollQ.c ****      *    to support the FreeRTOS project by purchasing a FreeRTOS           *
  34:..\Common\Minimal/PollQ.c ****      *    tutorial book, reference manual, or both:                          *
  35:..\Common\Minimal/PollQ.c ****      *    http://www.FreeRTOS.org/Documentation                              *
  36:..\Common\Minimal/PollQ.c ****      *                                                                       *
  37:..\Common\Minimal/PollQ.c ****     ***************************************************************************
  38:..\Common\Minimal/PollQ.c **** 
  39:..\Common\Minimal/PollQ.c ****     http://www.FreeRTOS.org/FAQHelp.html - Having a problem?  Start by reading
  40:..\Common\Minimal/PollQ.c ****     the FAQ page "My application does not run, what could be wrong?".  Have you
  41:..\Common\Minimal/PollQ.c ****     defined configASSERT()?
  42:..\Common\Minimal/PollQ.c **** 
  43:..\Common\Minimal/PollQ.c ****     http://www.FreeRTOS.org/support - In return for receiving this top quality
  44:..\Common\Minimal/PollQ.c ****     embedded software for free we request you assist our global community by
  45:..\Common\Minimal/PollQ.c ****     participating in the support forum.
  46:..\Common\Minimal/PollQ.c **** 
  47:..\Common\Minimal/PollQ.c ****     http://www.FreeRTOS.org/training - Investing in training allows your team to
  48:..\Common\Minimal/PollQ.c ****     be as productive as possible as early as possible.  Now you can receive
  49:..\Common\Minimal/PollQ.c ****     FreeRTOS training directly from Richard Barry, CEO of Real Time Engineers
  50:..\Common\Minimal/PollQ.c ****     Ltd, and the world's leading authority on the world's leading RTOS.
  51:..\Common\Minimal/PollQ.c **** 
  52:..\Common\Minimal/PollQ.c ****     http://www.FreeRTOS.org/plus - A selection of FreeRTOS ecosystem products,
  53:..\Common\Minimal/PollQ.c ****     including FreeRTOS+Trace - an indispensable productivity tool, a DOS
  54:..\Common\Minimal/PollQ.c ****     compatible FAT file system, and our tiny thread aware UDP/IP stack.
  55:..\Common\Minimal/PollQ.c **** 
  56:..\Common\Minimal/PollQ.c ****     http://www.FreeRTOS.org/labs - Where new FreeRTOS products go to incubate.
  57:..\Common\Minimal/PollQ.c ****     Come and try FreeRTOS+TCP, our new open source TCP/IP stack for FreeRTOS.
  58:..\Common\Minimal/PollQ.c **** 
  59:..\Common\Minimal/PollQ.c ****     http://www.OpenRTOS.com - Real Time Engineers ltd. license FreeRTOS to High
  60:..\Common\Minimal/PollQ.c ****     Integrity Systems ltd. to sell under the OpenRTOS brand.  Low cost OpenRTOS
  61:..\Common\Minimal/PollQ.c ****     licenses offer ticketed support, indemnification and commercial middleware.
  62:..\Common\Minimal/PollQ.c **** 
  63:..\Common\Minimal/PollQ.c ****     http://www.SafeRTOS.com - High Integrity Systems also provide a safety
  64:..\Common\Minimal/PollQ.c ****     engineered and independently SIL3 certified version for use in safety and
  65:..\Common\Minimal/PollQ.c ****     mission critical applications that require provable dependability.
  66:..\Common\Minimal/PollQ.c **** 
ARM GAS  C:\Users\bmt\AppData\Local\Temp\ccOHQGpf.s 			page 3


  67:..\Common\Minimal/PollQ.c ****     1 tab == 4 spaces!
  68:..\Common\Minimal/PollQ.c **** */
  69:..\Common\Minimal/PollQ.c **** 
  70:..\Common\Minimal/PollQ.c **** /*
  71:..\Common\Minimal/PollQ.c ****  * This version of PollQ. c is for use on systems that have limited stack
  72:..\Common\Minimal/PollQ.c ****  * space and no display facilities.  The complete version can be found in
  73:..\Common\Minimal/PollQ.c ****  * the Demo/Common/Full directory.
  74:..\Common\Minimal/PollQ.c ****  *
  75:..\Common\Minimal/PollQ.c ****  * Creates two tasks that communicate over a single queue.  One task acts as a
  76:..\Common\Minimal/PollQ.c ****  * producer, the other a consumer.
  77:..\Common\Minimal/PollQ.c ****  *
  78:..\Common\Minimal/PollQ.c ****  * The producer loops for three iteration, posting an incrementing number onto the
  79:..\Common\Minimal/PollQ.c ****  * queue each cycle.  It then delays for a fixed period before doing exactly the
  80:..\Common\Minimal/PollQ.c ****  * same again.
  81:..\Common\Minimal/PollQ.c ****  *
  82:..\Common\Minimal/PollQ.c ****  * The consumer loops emptying the queue.  Each item removed from the queue is
  83:..\Common\Minimal/PollQ.c ****  * checked to ensure it contains the expected value.  When the queue is empty it
  84:..\Common\Minimal/PollQ.c ****  * blocks for a fixed period, then does the same again.
  85:..\Common\Minimal/PollQ.c ****  *
  86:..\Common\Minimal/PollQ.c ****  * All queue access is performed without blocking.  The consumer completely empties
  87:..\Common\Minimal/PollQ.c ****  * the queue each time it runs so the producer should never find the queue full.
  88:..\Common\Minimal/PollQ.c ****  *
  89:..\Common\Minimal/PollQ.c ****  * An error is flagged if the consumer obtains an unexpected value or the producer
  90:..\Common\Minimal/PollQ.c ****  * find the queue is full.
  91:..\Common\Minimal/PollQ.c ****  */
  92:..\Common\Minimal/PollQ.c **** 
  93:..\Common\Minimal/PollQ.c **** /*
  94:..\Common\Minimal/PollQ.c **** Changes from V2.0.0
  95:..\Common\Minimal/PollQ.c **** 
  96:..\Common\Minimal/PollQ.c **** 	+ Delay periods are now specified using variables and constants of
  97:..\Common\Minimal/PollQ.c **** 	  TickType_t rather than uint32_t.
  98:..\Common\Minimal/PollQ.c **** */
  99:..\Common\Minimal/PollQ.c **** 
 100:..\Common\Minimal/PollQ.c **** #include <stdlib.h>
 101:..\Common\Minimal/PollQ.c **** 
 102:..\Common\Minimal/PollQ.c **** /* Scheduler include files. */
 103:..\Common\Minimal/PollQ.c **** #include "FreeRTOS.h"
 104:..\Common\Minimal/PollQ.c **** #include "task.h"
 105:..\Common\Minimal/PollQ.c **** #include "queue.h"
 106:..\Common\Minimal/PollQ.c **** 
 107:..\Common\Minimal/PollQ.c **** /* Demo program include files. */
 108:..\Common\Minimal/PollQ.c **** #include "PollQ.h"
 109:..\Common\Minimal/PollQ.c **** 
 110:..\Common\Minimal/PollQ.c **** #define pollqSTACK_SIZE			configMINIMAL_STACK_SIZE
 111:..\Common\Minimal/PollQ.c **** #define pollqQUEUE_SIZE			( 10 )
 112:..\Common\Minimal/PollQ.c **** #define pollqPRODUCER_DELAY		( pdMS_TO_TICKS( ( TickType_t ) 200 ) )
 113:..\Common\Minimal/PollQ.c **** #define pollqCONSUMER_DELAY		( pollqPRODUCER_DELAY - ( TickType_t ) ( 20 / portTICK_PERIOD_MS ) )
 114:..\Common\Minimal/PollQ.c **** #define pollqNO_DELAY			( ( TickType_t ) 0 )
 115:..\Common\Minimal/PollQ.c **** #define pollqVALUES_TO_PRODUCE	( ( BaseType_t ) 3 )
 116:..\Common\Minimal/PollQ.c **** #define pollqINITIAL_VALUE		( ( BaseType_t ) 0 )
 117:..\Common\Minimal/PollQ.c **** 
 118:..\Common\Minimal/PollQ.c **** /* The task that posts the incrementing number onto the queue. */
 119:..\Common\Minimal/PollQ.c **** static portTASK_FUNCTION_PROTO( vPolledQueueProducer, pvParameters );
 120:..\Common\Minimal/PollQ.c **** 
 121:..\Common\Minimal/PollQ.c **** /* The task that empties the queue. */
 122:..\Common\Minimal/PollQ.c **** static portTASK_FUNCTION_PROTO( vPolledQueueConsumer, pvParameters );
 123:..\Common\Minimal/PollQ.c **** 
ARM GAS  C:\Users\bmt\AppData\Local\Temp\ccOHQGpf.s 			page 4


 124:..\Common\Minimal/PollQ.c **** /* Variables that are used to check that the tasks are still running with no
 125:..\Common\Minimal/PollQ.c **** errors. */
 126:..\Common\Minimal/PollQ.c **** static volatile BaseType_t xPollingConsumerCount = pollqINITIAL_VALUE, xPollingProducerCount = poll
 127:..\Common\Minimal/PollQ.c **** 
 128:..\Common\Minimal/PollQ.c **** /*-----------------------------------------------------------*/
 129:..\Common\Minimal/PollQ.c **** 
 130:..\Common\Minimal/PollQ.c **** void vStartPolledQueueTasks( UBaseType_t uxPriority )
 131:..\Common\Minimal/PollQ.c **** {
  44              		.loc 1 131 0
  45              		.cfi_startproc
  46              		@ args = 0, pretend = 0, frame = 8
  47              		@ frame_needed = 1, uses_anonymous_args = 0
  48 0000 80B5     		push	{r7, lr}
  49              		.cfi_def_cfa_offset 8
  50              		.cfi_offset 7, -8
  51              		.cfi_offset 14, -4
  52 0002 84B0     		sub	sp, sp, #16
  53              		.cfi_def_cfa_offset 24
  54 0004 02AF     		add	r7, sp, #8
  55              		.cfi_def_cfa 7, 16
  56 0006 7860     		str	r0, [r7, #4]
 132:..\Common\Minimal/PollQ.c **** static QueueHandle_t xPolledQueue;
 133:..\Common\Minimal/PollQ.c **** 
 134:..\Common\Minimal/PollQ.c **** 	/* Create the queue used by the producer and consumer. */
 135:..\Common\Minimal/PollQ.c **** 	xPolledQueue = xQueueCreate( pollqQUEUE_SIZE, ( UBaseType_t ) sizeof( uint16_t ) );
  57              		.loc 1 135 0
  58 0008 0A20     		movs	r0, #10
  59 000a 0221     		movs	r1, #2
  60 000c 0022     		movs	r2, #0
  61 000e FFF7FEFF 		bl	xQueueGenericCreate
  62 0012 0246     		mov	r2, r0
  63 0014 114B     		ldr	r3, .L3
  64 0016 1A60     		str	r2, [r3]
 136:..\Common\Minimal/PollQ.c **** 
 137:..\Common\Minimal/PollQ.c **** 	if( xPolledQueue != NULL )
  65              		.loc 1 137 0
  66 0018 104B     		ldr	r3, .L3
  67 001a 1B68     		ldr	r3, [r3]
  68 001c 002B     		cmp	r3, #0
  69 001e 19D0     		beq	.L1
 138:..\Common\Minimal/PollQ.c **** 	{
 139:..\Common\Minimal/PollQ.c **** 		/* vQueueAddToRegistry() adds the queue to the queue registry, if one is
 140:..\Common\Minimal/PollQ.c **** 		in use.  The queue registry is provided as a means for kernel aware
 141:..\Common\Minimal/PollQ.c **** 		debuggers to locate queues and has no purpose if a kernel aware debugger
 142:..\Common\Minimal/PollQ.c **** 		is not being used.  The call to vQueueAddToRegistry() will be removed
 143:..\Common\Minimal/PollQ.c **** 		by the pre-processor if configQUEUE_REGISTRY_SIZE is not defined or is
 144:..\Common\Minimal/PollQ.c **** 		defined to be less than 1. */
 145:..\Common\Minimal/PollQ.c **** 		vQueueAddToRegistry( xPolledQueue, "Poll_Test_Queue" );
  70              		.loc 1 145 0
  71 0020 0E4B     		ldr	r3, .L3
  72 0022 1B68     		ldr	r3, [r3]
  73 0024 1846     		mov	r0, r3
  74 0026 0E49     		ldr	r1, .L3+4
  75 0028 FFF7FEFF 		bl	vQueueAddToRegistry
 146:..\Common\Minimal/PollQ.c **** 
 147:..\Common\Minimal/PollQ.c **** 		/* Spawn the producer and consumer. */
 148:..\Common\Minimal/PollQ.c **** 		xTaskCreate( vPolledQueueConsumer, "QConsNB", pollqSTACK_SIZE, ( void * ) &xPolledQueue, uxPriori
ARM GAS  C:\Users\bmt\AppData\Local\Temp\ccOHQGpf.s 			page 5


  76              		.loc 1 148 0
  77 002c 7B68     		ldr	r3, [r7, #4]
  78 002e 0093     		str	r3, [sp]
  79 0030 0023     		movs	r3, #0
  80 0032 0193     		str	r3, [sp, #4]
  81 0034 0B48     		ldr	r0, .L3+8
  82 0036 0C49     		ldr	r1, .L3+12
  83 0038 6422     		movs	r2, #100
  84 003a 084B     		ldr	r3, .L3
  85 003c FFF7FEFF 		bl	xTaskCreate
 149:..\Common\Minimal/PollQ.c **** 		xTaskCreate( vPolledQueueProducer, "QProdNB", pollqSTACK_SIZE, ( void * ) &xPolledQueue, uxPriori
  86              		.loc 1 149 0
  87 0040 7B68     		ldr	r3, [r7, #4]
  88 0042 0093     		str	r3, [sp]
  89 0044 0023     		movs	r3, #0
  90 0046 0193     		str	r3, [sp, #4]
  91 0048 0848     		ldr	r0, .L3+16
  92 004a 0949     		ldr	r1, .L3+20
  93 004c 6422     		movs	r2, #100
  94 004e 034B     		ldr	r3, .L3
  95 0050 FFF7FEFF 		bl	xTaskCreate
  96              	.L1:
 150:..\Common\Minimal/PollQ.c **** 	}
 151:..\Common\Minimal/PollQ.c **** }
  97              		.loc 1 151 0
  98 0054 0837     		adds	r7, r7, #8
  99              		.cfi_def_cfa_offset 8
 100 0056 BD46     		mov	sp, r7
 101              		.cfi_def_cfa_register 13
 102              		@ sp needed
 103 0058 80BD     		pop	{r7, pc}
 104              	.L4:
 105 005a 00BF     		.align	2
 106              	.L3:
 107 005c 08000000 		.word	xPolledQueue.7061
 108 0060 00000000 		.word	.LC0
 109 0064 00000000 		.word	vPolledQueueConsumer
 110 0068 10000000 		.word	.LC1
 111 006c 00000000 		.word	vPolledQueueProducer
 112 0070 18000000 		.word	.LC2
 113              		.cfi_endproc
 114              	.LFE68:
 115              		.size	vStartPolledQueueTasks, .-vStartPolledQueueTasks
 116              		.section	.text.vPolledQueueProducer,"ax",%progbits
 117              		.align	2
 118              		.thumb
 119              		.thumb_func
 120              		.type	vPolledQueueProducer, %function
 121              	vPolledQueueProducer:
 122              	.LFB69:
 152:..\Common\Minimal/PollQ.c **** /*-----------------------------------------------------------*/
 153:..\Common\Minimal/PollQ.c **** 
 154:..\Common\Minimal/PollQ.c **** static portTASK_FUNCTION( vPolledQueueProducer, pvParameters )
 155:..\Common\Minimal/PollQ.c **** {
 123              		.loc 1 155 0
 124              		.cfi_startproc
 125              		@ args = 0, pretend = 0, frame = 24
ARM GAS  C:\Users\bmt\AppData\Local\Temp\ccOHQGpf.s 			page 6


 126              		@ frame_needed = 1, uses_anonymous_args = 0
 127 0000 80B5     		push	{r7, lr}
 128              		.cfi_def_cfa_offset 8
 129              		.cfi_offset 7, -8
 130              		.cfi_offset 14, -4
 131 0002 86B0     		sub	sp, sp, #24
 132              		.cfi_def_cfa_offset 32
 133 0004 00AF     		add	r7, sp, #0
 134              		.cfi_def_cfa_register 7
 135 0006 7860     		str	r0, [r7, #4]
 156:..\Common\Minimal/PollQ.c **** uint16_t usValue = ( uint16_t ) 0;
 136              		.loc 1 156 0
 137 0008 0023     		movs	r3, #0
 138 000a FB81     		strh	r3, [r7, #14]	@ movhi
 157:..\Common\Minimal/PollQ.c **** BaseType_t xError = pdFALSE, xLoop;
 139              		.loc 1 157 0
 140 000c 0023     		movs	r3, #0
 141 000e 7B61     		str	r3, [r7, #20]
 142              	.L11:
 158:..\Common\Minimal/PollQ.c **** 
 159:..\Common\Minimal/PollQ.c **** 	for( ;; )
 160:..\Common\Minimal/PollQ.c **** 	{
 161:..\Common\Minimal/PollQ.c **** 		for( xLoop = 0; xLoop < pollqVALUES_TO_PRODUCE; xLoop++ )
 143              		.loc 1 161 0
 144 0010 0023     		movs	r3, #0
 145 0012 3B61     		str	r3, [r7, #16]
 146 0014 22E0     		b	.L6
 147              	.L10:
 162:..\Common\Minimal/PollQ.c **** 		{
 163:..\Common\Minimal/PollQ.c **** 			/* Send an incrementing number on the queue without blocking. */
 164:..\Common\Minimal/PollQ.c **** 			if( xQueueSend( *( ( QueueHandle_t * ) pvParameters ), ( void * ) &usValue, pollqNO_DELAY ) != p
 148              		.loc 1 164 0
 149 0016 7B68     		ldr	r3, [r7, #4]
 150 0018 1A68     		ldr	r2, [r3]
 151 001a 07F10E03 		add	r3, r7, #14
 152 001e 1046     		mov	r0, r2
 153 0020 1946     		mov	r1, r3
 154 0022 0022     		movs	r2, #0
 155 0024 0023     		movs	r3, #0
 156 0026 FFF7FEFF 		bl	xQueueGenericSend
 157 002a 0346     		mov	r3, r0
 158 002c 012B     		cmp	r3, #1
 159 002e 02D0     		beq	.L7
 165:..\Common\Minimal/PollQ.c **** 			{
 166:..\Common\Minimal/PollQ.c **** 				/* We should never find the queue full so if we get here there
 167:..\Common\Minimal/PollQ.c **** 				has been an error. */
 168:..\Common\Minimal/PollQ.c **** 				xError = pdTRUE;
 160              		.loc 1 168 0
 161 0030 0123     		movs	r3, #1
 162 0032 7B61     		str	r3, [r7, #20]
 163 0034 0FE0     		b	.L8
 164              	.L7:
 169:..\Common\Minimal/PollQ.c **** 			}
 170:..\Common\Minimal/PollQ.c **** 			else
 171:..\Common\Minimal/PollQ.c **** 			{
 172:..\Common\Minimal/PollQ.c **** 				if( xError == pdFALSE )
 165              		.loc 1 172 0
ARM GAS  C:\Users\bmt\AppData\Local\Temp\ccOHQGpf.s 			page 7


 166 0036 7B69     		ldr	r3, [r7, #20]
 167 0038 002B     		cmp	r3, #0
 168 003a 08D1     		bne	.L9
 173:..\Common\Minimal/PollQ.c **** 				{
 174:..\Common\Minimal/PollQ.c **** 					/* If an error has ever been recorded we stop incrementing the
 175:..\Common\Minimal/PollQ.c **** 					check variable. */
 176:..\Common\Minimal/PollQ.c **** 					portENTER_CRITICAL();
 169              		.loc 1 176 0
 170 003c FFF7FEFF 		bl	vPortEnterCritical
 177:..\Common\Minimal/PollQ.c **** 						xPollingProducerCount++;
 171              		.loc 1 177 0
 172 0040 0A4B     		ldr	r3, .L12
 173 0042 1B68     		ldr	r3, [r3]
 174 0044 0133     		adds	r3, r3, #1
 175 0046 094A     		ldr	r2, .L12
 176 0048 1360     		str	r3, [r2]
 178:..\Common\Minimal/PollQ.c **** 					portEXIT_CRITICAL();
 177              		.loc 1 178 0
 178 004a FFF7FEFF 		bl	vPortExitCritical
 179              	.L9:
 179:..\Common\Minimal/PollQ.c **** 				}
 180:..\Common\Minimal/PollQ.c **** 
 181:..\Common\Minimal/PollQ.c **** 				/* Update the value we are going to post next time around. */
 182:..\Common\Minimal/PollQ.c **** 				usValue++;
 180              		.loc 1 182 0
 181 004e FB89     		ldrh	r3, [r7, #14]
 182 0050 0133     		adds	r3, r3, #1
 183 0052 9BB2     		uxth	r3, r3
 184 0054 FB81     		strh	r3, [r7, #14]	@ movhi
 185              	.L8:
 161:..\Common\Minimal/PollQ.c **** 		{
 186              		.loc 1 161 0 discriminator 2
 187 0056 3B69     		ldr	r3, [r7, #16]
 188 0058 0133     		adds	r3, r3, #1
 189 005a 3B61     		str	r3, [r7, #16]
 190              	.L6:
 161:..\Common\Minimal/PollQ.c **** 		{
 191              		.loc 1 161 0 is_stmt 0 discriminator 1
 192 005c 3B69     		ldr	r3, [r7, #16]
 193 005e 022B     		cmp	r3, #2
 194 0060 D9DD     		ble	.L10
 183:..\Common\Minimal/PollQ.c **** 			}
 184:..\Common\Minimal/PollQ.c **** 		}
 185:..\Common\Minimal/PollQ.c **** 
 186:..\Common\Minimal/PollQ.c **** 		/* Wait before we start posting again to ensure the consumer runs and
 187:..\Common\Minimal/PollQ.c **** 		empties the queue. */
 188:..\Common\Minimal/PollQ.c **** 		vTaskDelay( pollqPRODUCER_DELAY );
 195              		.loc 1 188 0 is_stmt 1
 196 0062 C820     		movs	r0, #200
 197 0064 FFF7FEFF 		bl	vTaskDelay
 189:..\Common\Minimal/PollQ.c **** 	}
 198              		.loc 1 189 0
 199 0068 D2E7     		b	.L11
 200              	.L13:
 201 006a 00BF     		.align	2
 202              	.L12:
 203 006c 04000000 		.word	xPollingProducerCount
ARM GAS  C:\Users\bmt\AppData\Local\Temp\ccOHQGpf.s 			page 8


 204              		.cfi_endproc
 205              	.LFE69:
 206              		.size	vPolledQueueProducer, .-vPolledQueueProducer
 207              		.section	.text.vPolledQueueConsumer,"ax",%progbits
 208              		.align	2
 209              		.thumb
 210              		.thumb_func
 211              		.type	vPolledQueueConsumer, %function
 212              	vPolledQueueConsumer:
 213              	.LFB70:
 190:..\Common\Minimal/PollQ.c **** }  /*lint !e818 Function prototype must conform to API. */
 191:..\Common\Minimal/PollQ.c **** /*-----------------------------------------------------------*/
 192:..\Common\Minimal/PollQ.c **** 
 193:..\Common\Minimal/PollQ.c **** static portTASK_FUNCTION( vPolledQueueConsumer, pvParameters )
 194:..\Common\Minimal/PollQ.c **** {
 214              		.loc 1 194 0
 215              		.cfi_startproc
 216              		@ args = 0, pretend = 0, frame = 24
 217              		@ frame_needed = 1, uses_anonymous_args = 0
 218 0000 80B5     		push	{r7, lr}
 219              		.cfi_def_cfa_offset 8
 220              		.cfi_offset 7, -8
 221              		.cfi_offset 14, -4
 222 0002 86B0     		sub	sp, sp, #24
 223              		.cfi_def_cfa_offset 32
 224 0004 00AF     		add	r7, sp, #0
 225              		.cfi_def_cfa_register 7
 226 0006 7860     		str	r0, [r7, #4]
 195:..\Common\Minimal/PollQ.c **** uint16_t usData, usExpectedValue = ( uint16_t ) 0;
 227              		.loc 1 195 0
 228 0008 0023     		movs	r3, #0
 229 000a FB82     		strh	r3, [r7, #22]	@ movhi
 196:..\Common\Minimal/PollQ.c **** BaseType_t xError = pdFALSE;
 230              		.loc 1 196 0
 231 000c 0023     		movs	r3, #0
 232 000e 3B61     		str	r3, [r7, #16]
 233              	.L19:
 197:..\Common\Minimal/PollQ.c **** 
 198:..\Common\Minimal/PollQ.c **** 	for( ;; )
 199:..\Common\Minimal/PollQ.c **** 	{
 200:..\Common\Minimal/PollQ.c **** 		/* Loop until the queue is empty. */
 201:..\Common\Minimal/PollQ.c **** 		while( uxQueueMessagesWaiting( *( ( QueueHandle_t * ) pvParameters ) ) )
 234              		.loc 1 201 0
 235 0010 24E0     		b	.L15
 236              	.L18:
 202:..\Common\Minimal/PollQ.c **** 		{
 203:..\Common\Minimal/PollQ.c **** 			if( xQueueReceive( *( ( QueueHandle_t * ) pvParameters ), &usData, pollqNO_DELAY ) == pdPASS )
 237              		.loc 1 203 0
 238 0012 7B68     		ldr	r3, [r7, #4]
 239 0014 1A68     		ldr	r2, [r3]
 240 0016 07F10E03 		add	r3, r7, #14
 241 001a 1046     		mov	r0, r2
 242 001c 1946     		mov	r1, r3
 243 001e 0022     		movs	r2, #0
 244 0020 0023     		movs	r3, #0
 245 0022 FFF7FEFF 		bl	xQueueGenericReceive
 246 0026 0346     		mov	r3, r0
ARM GAS  C:\Users\bmt\AppData\Local\Temp\ccOHQGpf.s 			page 9


 247 0028 012B     		cmp	r3, #1
 248 002a 17D1     		bne	.L15
 204:..\Common\Minimal/PollQ.c **** 			{
 205:..\Common\Minimal/PollQ.c **** 				if( usData != usExpectedValue )
 249              		.loc 1 205 0
 250 002c FB89     		ldrh	r3, [r7, #14]
 251 002e FA8A     		ldrh	r2, [r7, #22]
 252 0030 9A42     		cmp	r2, r3
 253 0032 04D0     		beq	.L16
 206:..\Common\Minimal/PollQ.c **** 				{
 207:..\Common\Minimal/PollQ.c **** 					/* This is not what we expected to receive so an error has
 208:..\Common\Minimal/PollQ.c **** 					occurred. */
 209:..\Common\Minimal/PollQ.c **** 					xError = pdTRUE;
 254              		.loc 1 209 0
 255 0034 0123     		movs	r3, #1
 256 0036 3B61     		str	r3, [r7, #16]
 210:..\Common\Minimal/PollQ.c **** 
 211:..\Common\Minimal/PollQ.c **** 					/* Catch-up to the value we received so our next expected
 212:..\Common\Minimal/PollQ.c **** 					value should again be correct. */
 213:..\Common\Minimal/PollQ.c **** 					usExpectedValue = usData;
 257              		.loc 1 213 0
 258 0038 FB89     		ldrh	r3, [r7, #14]	@ movhi
 259 003a FB82     		strh	r3, [r7, #22]	@ movhi
 260 003c 0BE0     		b	.L17
 261              	.L16:
 214:..\Common\Minimal/PollQ.c **** 				}
 215:..\Common\Minimal/PollQ.c **** 				else
 216:..\Common\Minimal/PollQ.c **** 				{
 217:..\Common\Minimal/PollQ.c **** 					if( xError == pdFALSE )
 262              		.loc 1 217 0
 263 003e 3B69     		ldr	r3, [r7, #16]
 264 0040 002B     		cmp	r3, #0
 265 0042 08D1     		bne	.L17
 218:..\Common\Minimal/PollQ.c **** 					{
 219:..\Common\Minimal/PollQ.c **** 						/* Only increment the check variable if no errors have
 220:..\Common\Minimal/PollQ.c **** 						occurred. */
 221:..\Common\Minimal/PollQ.c **** 						portENTER_CRITICAL();
 266              		.loc 1 221 0
 267 0044 FFF7FEFF 		bl	vPortEnterCritical
 222:..\Common\Minimal/PollQ.c **** 							xPollingConsumerCount++;
 268              		.loc 1 222 0
 269 0048 0A4B     		ldr	r3, .L20
 270 004a 1B68     		ldr	r3, [r3]
 271 004c 0133     		adds	r3, r3, #1
 272 004e 094A     		ldr	r2, .L20
 273 0050 1360     		str	r3, [r2]
 223:..\Common\Minimal/PollQ.c **** 						portEXIT_CRITICAL();
 274              		.loc 1 223 0
 275 0052 FFF7FEFF 		bl	vPortExitCritical
 276              	.L17:
 224:..\Common\Minimal/PollQ.c **** 					}
 225:..\Common\Minimal/PollQ.c **** 				}
 226:..\Common\Minimal/PollQ.c **** 
 227:..\Common\Minimal/PollQ.c **** 				/* Next time round we would expect the number to be one higher. */
 228:..\Common\Minimal/PollQ.c **** 				usExpectedValue++;
 277              		.loc 1 228 0
 278 0056 FB8A     		ldrh	r3, [r7, #22]
ARM GAS  C:\Users\bmt\AppData\Local\Temp\ccOHQGpf.s 			page 10


 279 0058 0133     		adds	r3, r3, #1
 280 005a FB82     		strh	r3, [r7, #22]	@ movhi
 281              	.L15:
 201:..\Common\Minimal/PollQ.c **** 		{
 282              		.loc 1 201 0
 283 005c 7B68     		ldr	r3, [r7, #4]
 284 005e 1B68     		ldr	r3, [r3]
 285 0060 1846     		mov	r0, r3
 286 0062 FFF7FEFF 		bl	uxQueueMessagesWaiting
 287 0066 0346     		mov	r3, r0
 288 0068 002B     		cmp	r3, #0
 289 006a D2D1     		bne	.L18
 229:..\Common\Minimal/PollQ.c **** 			}
 230:..\Common\Minimal/PollQ.c **** 		}
 231:..\Common\Minimal/PollQ.c **** 
 232:..\Common\Minimal/PollQ.c **** 		/* Now the queue is empty we block, allowing the producer to place more
 233:..\Common\Minimal/PollQ.c **** 		items in the queue. */
 234:..\Common\Minimal/PollQ.c **** 		vTaskDelay( pollqCONSUMER_DELAY );
 290              		.loc 1 234 0
 291 006c B420     		movs	r0, #180
 292 006e FFF7FEFF 		bl	vTaskDelay
 235:..\Common\Minimal/PollQ.c **** 	}
 293              		.loc 1 235 0
 294 0072 CDE7     		b	.L19
 295              	.L21:
 296              		.align	2
 297              	.L20:
 298 0074 00000000 		.word	xPollingConsumerCount
 299              		.cfi_endproc
 300              	.LFE70:
 301              		.size	vPolledQueueConsumer, .-vPolledQueueConsumer
 302              		.section	.text.xArePollingQueuesStillRunning,"ax",%progbits
 303              		.align	2
 304              		.global	xArePollingQueuesStillRunning
 305              		.thumb
 306              		.thumb_func
 307              		.type	xArePollingQueuesStillRunning, %function
 308              	xArePollingQueuesStillRunning:
 309              	.LFB71:
 236:..\Common\Minimal/PollQ.c **** } /*lint !e818 Function prototype must conform to API. */
 237:..\Common\Minimal/PollQ.c **** /*-----------------------------------------------------------*/
 238:..\Common\Minimal/PollQ.c **** 
 239:..\Common\Minimal/PollQ.c **** /* This is called to check that all the created tasks are still running with no errors. */
 240:..\Common\Minimal/PollQ.c **** BaseType_t xArePollingQueuesStillRunning( void )
 241:..\Common\Minimal/PollQ.c **** {
 310              		.loc 1 241 0
 311              		.cfi_startproc
 312              		@ args = 0, pretend = 0, frame = 8
 313              		@ frame_needed = 1, uses_anonymous_args = 0
 314              		@ link register save eliminated.
 315 0000 80B4     		push	{r7}
 316              		.cfi_def_cfa_offset 4
 317              		.cfi_offset 7, -4
 318 0002 83B0     		sub	sp, sp, #12
 319              		.cfi_def_cfa_offset 16
 320 0004 00AF     		add	r7, sp, #0
 321              		.cfi_def_cfa_register 7
ARM GAS  C:\Users\bmt\AppData\Local\Temp\ccOHQGpf.s 			page 11


 242:..\Common\Minimal/PollQ.c **** BaseType_t xReturn;
 243:..\Common\Minimal/PollQ.c **** 
 244:..\Common\Minimal/PollQ.c **** 	/* Check both the consumer and producer poll count to check they have both
 245:..\Common\Minimal/PollQ.c **** 	been changed since out last trip round.  We do not need a critical section
 246:..\Common\Minimal/PollQ.c **** 	around the check variables as this is called from a higher priority than
 247:..\Common\Minimal/PollQ.c **** 	the other tasks that access the same variables. */
 248:..\Common\Minimal/PollQ.c **** 	if( ( xPollingConsumerCount == pollqINITIAL_VALUE ) ||
 322              		.loc 1 248 0
 323 0006 0D4B     		ldr	r3, .L27
 324 0008 1B68     		ldr	r3, [r3]
 325 000a 002B     		cmp	r3, #0
 326 000c 03D0     		beq	.L23
 249:..\Common\Minimal/PollQ.c **** 		( xPollingProducerCount == pollqINITIAL_VALUE )
 327              		.loc 1 249 0 discriminator 1
 328 000e 0C4B     		ldr	r3, .L27+4
 329 0010 1B68     		ldr	r3, [r3]
 248:..\Common\Minimal/PollQ.c **** 		( xPollingProducerCount == pollqINITIAL_VALUE )
 330              		.loc 1 248 0 discriminator 1
 331 0012 002B     		cmp	r3, #0
 332 0014 02D1     		bne	.L24
 333              	.L23:
 250:..\Common\Minimal/PollQ.c **** 	  )
 251:..\Common\Minimal/PollQ.c **** 	{
 252:..\Common\Minimal/PollQ.c **** 		xReturn = pdFALSE;
 334              		.loc 1 252 0
 335 0016 0023     		movs	r3, #0
 336 0018 7B60     		str	r3, [r7, #4]
 337 001a 01E0     		b	.L25
 338              	.L24:
 253:..\Common\Minimal/PollQ.c **** 	}
 254:..\Common\Minimal/PollQ.c **** 	else
 255:..\Common\Minimal/PollQ.c **** 	{
 256:..\Common\Minimal/PollQ.c **** 		xReturn = pdTRUE;
 339              		.loc 1 256 0
 340 001c 0123     		movs	r3, #1
 341 001e 7B60     		str	r3, [r7, #4]
 342              	.L25:
 257:..\Common\Minimal/PollQ.c **** 	}
 258:..\Common\Minimal/PollQ.c **** 
 259:..\Common\Minimal/PollQ.c **** 	/* Set the check variables back down so we know if they have been
 260:..\Common\Minimal/PollQ.c **** 	incremented the next time around. */
 261:..\Common\Minimal/PollQ.c **** 	xPollingConsumerCount = pollqINITIAL_VALUE;
 343              		.loc 1 261 0
 344 0020 064B     		ldr	r3, .L27
 345 0022 0022     		movs	r2, #0
 346 0024 1A60     		str	r2, [r3]
 262:..\Common\Minimal/PollQ.c **** 	xPollingProducerCount = pollqINITIAL_VALUE;
 347              		.loc 1 262 0
 348 0026 064B     		ldr	r3, .L27+4
 349 0028 0022     		movs	r2, #0
 350 002a 1A60     		str	r2, [r3]
 263:..\Common\Minimal/PollQ.c **** 
 264:..\Common\Minimal/PollQ.c **** 	return xReturn;
 351              		.loc 1 264 0
 352 002c 7B68     		ldr	r3, [r7, #4]
 265:..\Common\Minimal/PollQ.c **** }
 353              		.loc 1 265 0
ARM GAS  C:\Users\bmt\AppData\Local\Temp\ccOHQGpf.s 			page 12


 354 002e 1846     		mov	r0, r3
 355 0030 0C37     		adds	r7, r7, #12
 356              		.cfi_def_cfa_offset 4
 357 0032 BD46     		mov	sp, r7
 358              		.cfi_def_cfa_register 13
 359              		@ sp needed
 360 0034 5DF8047B 		ldr	r7, [sp], #4
 361              		.cfi_restore 7
 362              		.cfi_def_cfa_offset 0
 363 0038 7047     		bx	lr
 364              	.L28:
 365 003a 00BF     		.align	2
 366              	.L27:
 367 003c 00000000 		.word	xPollingConsumerCount
 368 0040 04000000 		.word	xPollingProducerCount
 369              		.cfi_endproc
 370              	.LFE71:
 371              		.size	xArePollingQueuesStillRunning, .-xArePollingQueuesStillRunning
 372              		.bss
 373              		.align	2
 374              	xPolledQueue.7061:
 375 0008 00000000 		.space	4
 376              		.text
 377              	.Letext0:
 378              		.file 2 "c:\\program files (x86)\\cypress\\psoc creator\\4.0\\psoc creator\\import\\gnu\\arm\\4.9.
 379              		.file 3 "c:\\program files (x86)\\cypress\\psoc creator\\4.0\\psoc creator\\import\\gnu\\arm\\4.9.
 380              		.file 4 "..\\Source\\portable\\GCC\\ARM_CM3/portmacro.h"
 381              		.file 5 "..\\Source\\include/task.h"
 382              		.file 6 "..\\Source\\include/queue.h"
 383              		.file 7 "Generated_Source\\PSoC5/core_cm3.h"