ARM GAS  C:\Users\bmt\AppData\Local\Temp\ccXDSw9y.s 			page 1


   1              		.syntax unified
   2              		.cpu cortex-m3
   3              		.fpu softvfp
   4              		.eabi_attribute 20, 1
   5              		.eabi_attribute 21, 1
   6              		.eabi_attribute 23, 3
   7              		.eabi_attribute 24, 1
   8              		.eabi_attribute 25, 1
   9              		.eabi_attribute 26, 1
  10              		.eabi_attribute 30, 6
  11              		.eabi_attribute 34, 1
  12              		.eabi_attribute 18, 4
  13              		.thumb
  14              		.file	"semtest.c"
  15              		.text
  16              	.Ltext0:
  17              		.cfi_sections	.debug_frame
  18              		.bss
  19              		.align	2
  20              	sCheckVariables:
  21 0000 00000000 		.space	8
  21      00000000 
  22              		.align	1
  23              	sNextCheckVariable:
  24 0008 0000     		.space	2
  25              		.section	.rodata
  26              		.align	2
  27              	.LC0:
  28 0000 506F6C53 		.ascii	"PolSEM1\000"
  28      454D3100 
  29              		.align	2
  30              	.LC1:
  31 0008 506F6C53 		.ascii	"PolSEM2\000"
  31      454D3200 
  32              		.align	2
  33              	.LC2:
  34 0010 436F756E 		.ascii	"Counting_Sem_1\000"
  34      74696E67 
  34      5F53656D 
  34      5F3100
  35 001f 00       		.align	2
  36              	.LC3:
  37 0020 426C6B53 		.ascii	"BlkSEM1\000"
  37      454D3100 
  38              		.align	2
  39              	.LC4:
  40 0028 426C6B53 		.ascii	"BlkSEM2\000"
  40      454D3200 
  41              		.align	2
  42              	.LC5:
  43 0030 436F756E 		.ascii	"Counting_Sem_2\000"
  43      74696E67 
  43      5F53656D 
  43      5F3200
  44 003f 00       		.section	.text.vStartSemaphoreTasks,"ax",%progbits
  45              		.align	2
  46              		.global	vStartSemaphoreTasks
ARM GAS  C:\Users\bmt\AppData\Local\Temp\ccXDSw9y.s 			page 2


  47              		.thumb
  48              		.thumb_func
  49              		.type	vStartSemaphoreTasks, %function
  50              	vStartSemaphoreTasks:
  51              	.LFB68:
  52              		.file 1 "..\\Common\\Minimal\\semtest.c"
   1:..\Common\Minimal/semtest.c **** /*
   2:..\Common\Minimal/semtest.c ****     FreeRTOS V9.0.0 - Copyright (C) 2016 Real Time Engineers Ltd.
   3:..\Common\Minimal/semtest.c ****     All rights reserved
   4:..\Common\Minimal/semtest.c **** 
   5:..\Common\Minimal/semtest.c ****     VISIT http://www.FreeRTOS.org TO ENSURE YOU ARE USING THE LATEST VERSION.
   6:..\Common\Minimal/semtest.c **** 
   7:..\Common\Minimal/semtest.c ****     This file is part of the FreeRTOS distribution.
   8:..\Common\Minimal/semtest.c **** 
   9:..\Common\Minimal/semtest.c ****     FreeRTOS is free software; you can redistribute it and/or modify it under
  10:..\Common\Minimal/semtest.c ****     the terms of the GNU General Public License (version 2) as published by the
  11:..\Common\Minimal/semtest.c ****     Free Software Foundation >>>> AND MODIFIED BY <<<< the FreeRTOS exception.
  12:..\Common\Minimal/semtest.c **** 
  13:..\Common\Minimal/semtest.c ****     ***************************************************************************
  14:..\Common\Minimal/semtest.c ****     >>!   NOTE: The modification to the GPL is included to allow you to     !<<
  15:..\Common\Minimal/semtest.c ****     >>!   distribute a combined work that includes FreeRTOS without being   !<<
  16:..\Common\Minimal/semtest.c ****     >>!   obliged to provide the source code for proprietary components     !<<
  17:..\Common\Minimal/semtest.c ****     >>!   outside of the FreeRTOS kernel.                                   !<<
  18:..\Common\Minimal/semtest.c ****     ***************************************************************************
  19:..\Common\Minimal/semtest.c **** 
  20:..\Common\Minimal/semtest.c ****     FreeRTOS is distributed in the hope that it will be useful, but WITHOUT ANY
  21:..\Common\Minimal/semtest.c ****     WARRANTY; without even the implied warranty of MERCHANTABILITY or FITNESS
  22:..\Common\Minimal/semtest.c ****     FOR A PARTICULAR PURPOSE.  Full license text is available on the following
  23:..\Common\Minimal/semtest.c ****     link: http://www.freertos.org/a00114.html
  24:..\Common\Minimal/semtest.c **** 
  25:..\Common\Minimal/semtest.c ****     ***************************************************************************
  26:..\Common\Minimal/semtest.c ****      *                                                                       *
  27:..\Common\Minimal/semtest.c ****      *    FreeRTOS provides completely free yet professionally developed,    *
  28:..\Common\Minimal/semtest.c ****      *    robust, strictly quality controlled, supported, and cross          *
  29:..\Common\Minimal/semtest.c ****      *    platform software that is more than just the market leader, it     *
  30:..\Common\Minimal/semtest.c ****      *    is the industry's de facto standard.                               *
  31:..\Common\Minimal/semtest.c ****      *                                                                       *
  32:..\Common\Minimal/semtest.c ****      *    Help yourself get started quickly while simultaneously helping     *
  33:..\Common\Minimal/semtest.c ****      *    to support the FreeRTOS project by purchasing a FreeRTOS           *
  34:..\Common\Minimal/semtest.c ****      *    tutorial book, reference manual, or both:                          *
  35:..\Common\Minimal/semtest.c ****      *    http://www.FreeRTOS.org/Documentation                              *
  36:..\Common\Minimal/semtest.c ****      *                                                                       *
  37:..\Common\Minimal/semtest.c ****     ***************************************************************************
  38:..\Common\Minimal/semtest.c **** 
  39:..\Common\Minimal/semtest.c ****     http://www.FreeRTOS.org/FAQHelp.html - Having a problem?  Start by reading
  40:..\Common\Minimal/semtest.c ****     the FAQ page "My application does not run, what could be wrong?".  Have you
  41:..\Common\Minimal/semtest.c ****     defined configASSERT()?
  42:..\Common\Minimal/semtest.c **** 
  43:..\Common\Minimal/semtest.c ****     http://www.FreeRTOS.org/support - In return for receiving this top quality
  44:..\Common\Minimal/semtest.c ****     embedded software for free we request you assist our global community by
  45:..\Common\Minimal/semtest.c ****     participating in the support forum.
  46:..\Common\Minimal/semtest.c **** 
  47:..\Common\Minimal/semtest.c ****     http://www.FreeRTOS.org/training - Investing in training allows your team to
  48:..\Common\Minimal/semtest.c ****     be as productive as possible as early as possible.  Now you can receive
  49:..\Common\Minimal/semtest.c ****     FreeRTOS training directly from Richard Barry, CEO of Real Time Engineers
  50:..\Common\Minimal/semtest.c ****     Ltd, and the world's leading authority on the world's leading RTOS.
  51:..\Common\Minimal/semtest.c **** 
ARM GAS  C:\Users\bmt\AppData\Local\Temp\ccXDSw9y.s 			page 3


  52:..\Common\Minimal/semtest.c ****     http://www.FreeRTOS.org/plus - A selection of FreeRTOS ecosystem products,
  53:..\Common\Minimal/semtest.c ****     including FreeRTOS+Trace - an indispensable productivity tool, a DOS
  54:..\Common\Minimal/semtest.c ****     compatible FAT file system, and our tiny thread aware UDP/IP stack.
  55:..\Common\Minimal/semtest.c **** 
  56:..\Common\Minimal/semtest.c ****     http://www.FreeRTOS.org/labs - Where new FreeRTOS products go to incubate.
  57:..\Common\Minimal/semtest.c ****     Come and try FreeRTOS+TCP, our new open source TCP/IP stack for FreeRTOS.
  58:..\Common\Minimal/semtest.c **** 
  59:..\Common\Minimal/semtest.c ****     http://www.OpenRTOS.com - Real Time Engineers ltd. license FreeRTOS to High
  60:..\Common\Minimal/semtest.c ****     Integrity Systems ltd. to sell under the OpenRTOS brand.  Low cost OpenRTOS
  61:..\Common\Minimal/semtest.c ****     licenses offer ticketed support, indemnification and commercial middleware.
  62:..\Common\Minimal/semtest.c **** 
  63:..\Common\Minimal/semtest.c ****     http://www.SafeRTOS.com - High Integrity Systems also provide a safety
  64:..\Common\Minimal/semtest.c ****     engineered and independently SIL3 certified version for use in safety and
  65:..\Common\Minimal/semtest.c ****     mission critical applications that require provable dependability.
  66:..\Common\Minimal/semtest.c **** 
  67:..\Common\Minimal/semtest.c ****     1 tab == 4 spaces!
  68:..\Common\Minimal/semtest.c **** */
  69:..\Common\Minimal/semtest.c **** 
  70:..\Common\Minimal/semtest.c **** /*
  71:..\Common\Minimal/semtest.c ****  * Creates two sets of two tasks.  The tasks within a set share a variable, access
  72:..\Common\Minimal/semtest.c ****  * to which is guarded by a semaphore.
  73:..\Common\Minimal/semtest.c ****  *
  74:..\Common\Minimal/semtest.c ****  * Each task starts by attempting to obtain the semaphore.  On obtaining a
  75:..\Common\Minimal/semtest.c ****  * semaphore a task checks to ensure that the guarded variable has an expected
  76:..\Common\Minimal/semtest.c ****  * value.  It then clears the variable to zero before counting it back up to the
  77:..\Common\Minimal/semtest.c ****  * expected value in increments of 1.  After each increment the variable is checked
  78:..\Common\Minimal/semtest.c ****  * to ensure it contains the value to which it was just set. When the starting
  79:..\Common\Minimal/semtest.c ****  * value is again reached the task releases the semaphore giving the other task in
  80:..\Common\Minimal/semtest.c ****  * the set a chance to do exactly the same thing.  The starting value is high
  81:..\Common\Minimal/semtest.c ****  * enough to ensure that a tick is likely to occur during the incrementing loop.
  82:..\Common\Minimal/semtest.c ****  *
  83:..\Common\Minimal/semtest.c ****  * An error is flagged if at any time during the process a shared variable is
  84:..\Common\Minimal/semtest.c ****  * found to have a value other than that expected.  Such an occurrence would
  85:..\Common\Minimal/semtest.c ****  * suggest an error in the mutual exclusion mechanism by which access to the
  86:..\Common\Minimal/semtest.c ****  * variable is restricted.
  87:..\Common\Minimal/semtest.c ****  *
  88:..\Common\Minimal/semtest.c ****  * The first set of two tasks poll their semaphore.  The second set use blocking
  89:..\Common\Minimal/semtest.c ****  * calls.
  90:..\Common\Minimal/semtest.c ****  *
  91:..\Common\Minimal/semtest.c ****  */
  92:..\Common\Minimal/semtest.c **** 
  93:..\Common\Minimal/semtest.c **** 
  94:..\Common\Minimal/semtest.c **** #include <stdlib.h>
  95:..\Common\Minimal/semtest.c **** 
  96:..\Common\Minimal/semtest.c **** /* Scheduler include files. */
  97:..\Common\Minimal/semtest.c **** #include "FreeRTOS.h"
  98:..\Common\Minimal/semtest.c **** #include "task.h"
  99:..\Common\Minimal/semtest.c **** #include "semphr.h"
 100:..\Common\Minimal/semtest.c **** 
 101:..\Common\Minimal/semtest.c **** /* Demo app include files. */
 102:..\Common\Minimal/semtest.c **** #include "semtest.h"
 103:..\Common\Minimal/semtest.c **** 
 104:..\Common\Minimal/semtest.c **** /* The value to which the shared variables are counted. */
 105:..\Common\Minimal/semtest.c **** #define semtstBLOCKING_EXPECTED_VALUE		( ( uint32_t ) 0xfff )
 106:..\Common\Minimal/semtest.c **** #define semtstNON_BLOCKING_EXPECTED_VALUE	( ( uint32_t ) 0xff  )
 107:..\Common\Minimal/semtest.c **** 
 108:..\Common\Minimal/semtest.c **** #define semtstSTACK_SIZE			configMINIMAL_STACK_SIZE
ARM GAS  C:\Users\bmt\AppData\Local\Temp\ccXDSw9y.s 			page 4


 109:..\Common\Minimal/semtest.c **** 
 110:..\Common\Minimal/semtest.c **** #define semtstNUM_TASKS				( 4 )
 111:..\Common\Minimal/semtest.c **** 
 112:..\Common\Minimal/semtest.c **** #define semtstDELAY_FACTOR			( ( TickType_t ) 10 )
 113:..\Common\Minimal/semtest.c **** 
 114:..\Common\Minimal/semtest.c **** /* The task function as described at the top of the file. */
 115:..\Common\Minimal/semtest.c **** static portTASK_FUNCTION_PROTO( prvSemaphoreTest, pvParameters );
 116:..\Common\Minimal/semtest.c **** 
 117:..\Common\Minimal/semtest.c **** /* Structure used to pass parameters to each task. */
 118:..\Common\Minimal/semtest.c **** typedef struct SEMAPHORE_PARAMETERS
 119:..\Common\Minimal/semtest.c **** {
 120:..\Common\Minimal/semtest.c **** 	SemaphoreHandle_t xSemaphore;
 121:..\Common\Minimal/semtest.c **** 	volatile uint32_t *pulSharedVariable;
 122:..\Common\Minimal/semtest.c **** 	TickType_t xBlockTime;
 123:..\Common\Minimal/semtest.c **** } xSemaphoreParameters;
 124:..\Common\Minimal/semtest.c **** 
 125:..\Common\Minimal/semtest.c **** /* Variables used to check that all the tasks are still running without errors. */
 126:..\Common\Minimal/semtest.c **** static volatile short sCheckVariables[ semtstNUM_TASKS ] = { 0 };
 127:..\Common\Minimal/semtest.c **** static volatile short sNextCheckVariable = 0;
 128:..\Common\Minimal/semtest.c **** 
 129:..\Common\Minimal/semtest.c **** /*-----------------------------------------------------------*/
 130:..\Common\Minimal/semtest.c **** 
 131:..\Common\Minimal/semtest.c **** void vStartSemaphoreTasks( UBaseType_t uxPriority )
 132:..\Common\Minimal/semtest.c **** {
  53              		.loc 1 132 0
  54              		.cfi_startproc
  55              		@ args = 0, pretend = 0, frame = 24
  56              		@ frame_needed = 1, uses_anonymous_args = 0
  57 0000 80B5     		push	{r7, lr}
  58              		.cfi_def_cfa_offset 8
  59              		.cfi_offset 7, -8
  60              		.cfi_offset 14, -4
  61 0002 88B0     		sub	sp, sp, #32
  62              		.cfi_def_cfa_offset 40
  63 0004 02AF     		add	r7, sp, #8
  64              		.cfi_def_cfa 7, 32
  65 0006 7860     		str	r0, [r7, #4]
 133:..\Common\Minimal/semtest.c **** xSemaphoreParameters *pxFirstSemaphoreParameters, *pxSecondSemaphoreParameters;
 134:..\Common\Minimal/semtest.c **** const TickType_t xBlockTime = ( TickType_t ) 100;
  66              		.loc 1 134 0
  67 0008 6423     		movs	r3, #100
  68 000a 7B61     		str	r3, [r7, #20]
 135:..\Common\Minimal/semtest.c **** 
 136:..\Common\Minimal/semtest.c **** 	/* Create the structure used to pass parameters to the first two tasks. */
 137:..\Common\Minimal/semtest.c **** 	pxFirstSemaphoreParameters = ( xSemaphoreParameters * ) pvPortMalloc( sizeof( xSemaphoreParameters
  69              		.loc 1 137 0
  70 000c 0C20     		movs	r0, #12
  71 000e FFF7FEFF 		bl	pvPortMalloc
  72 0012 3861     		str	r0, [r7, #16]
 138:..\Common\Minimal/semtest.c **** 
 139:..\Common\Minimal/semtest.c **** 	if( pxFirstSemaphoreParameters != NULL )
  73              		.loc 1 139 0
  74 0014 3B69     		ldr	r3, [r7, #16]
  75 0016 002B     		cmp	r3, #0
  76 0018 3AD0     		beq	.L2
 140:..\Common\Minimal/semtest.c **** 	{
 141:..\Common\Minimal/semtest.c **** 		/* Create the semaphore used by the first two tasks. */
ARM GAS  C:\Users\bmt\AppData\Local\Temp\ccXDSw9y.s 			page 5


 142:..\Common\Minimal/semtest.c **** 		pxFirstSemaphoreParameters->xSemaphore = xSemaphoreCreateBinary();		
  77              		.loc 1 142 0
  78 001a 0120     		movs	r0, #1
  79 001c 0021     		movs	r1, #0
  80 001e 0322     		movs	r2, #3
  81 0020 FFF7FEFF 		bl	xQueueGenericCreate
  82 0024 0246     		mov	r2, r0
  83 0026 3B69     		ldr	r3, [r7, #16]
  84 0028 1A60     		str	r2, [r3]
 143:..\Common\Minimal/semtest.c **** 
 144:..\Common\Minimal/semtest.c **** 		if( pxFirstSemaphoreParameters->xSemaphore != NULL )
  85              		.loc 1 144 0
  86 002a 3B69     		ldr	r3, [r7, #16]
  87 002c 1B68     		ldr	r3, [r3]
  88 002e 002B     		cmp	r3, #0
  89 0030 2ED0     		beq	.L2
 145:..\Common\Minimal/semtest.c **** 		{
 146:..\Common\Minimal/semtest.c **** 			xSemaphoreGive( pxFirstSemaphoreParameters->xSemaphore );
  90              		.loc 1 146 0
  91 0032 3B69     		ldr	r3, [r7, #16]
  92 0034 1B68     		ldr	r3, [r3]
  93 0036 1846     		mov	r0, r3
  94 0038 0021     		movs	r1, #0
  95 003a 0022     		movs	r2, #0
  96 003c 0023     		movs	r3, #0
  97 003e FFF7FEFF 		bl	xQueueGenericSend
 147:..\Common\Minimal/semtest.c **** 			
 148:..\Common\Minimal/semtest.c **** 			/* Create the variable which is to be shared by the first two tasks. */
 149:..\Common\Minimal/semtest.c **** 			pxFirstSemaphoreParameters->pulSharedVariable = ( uint32_t * ) pvPortMalloc( sizeof( uint32_t ) 
  98              		.loc 1 149 0
  99 0042 0420     		movs	r0, #4
 100 0044 FFF7FEFF 		bl	pvPortMalloc
 101 0048 0246     		mov	r2, r0
 102 004a 3B69     		ldr	r3, [r7, #16]
 103 004c 5A60     		str	r2, [r3, #4]
 150:..\Common\Minimal/semtest.c **** 
 151:..\Common\Minimal/semtest.c **** 			/* Initialise the share variable to the value the tasks expect. */
 152:..\Common\Minimal/semtest.c **** 			*( pxFirstSemaphoreParameters->pulSharedVariable ) = semtstNON_BLOCKING_EXPECTED_VALUE;
 104              		.loc 1 152 0
 105 004e 3B69     		ldr	r3, [r7, #16]
 106 0050 5B68     		ldr	r3, [r3, #4]
 107 0052 FF22     		movs	r2, #255
 108 0054 1A60     		str	r2, [r3]
 153:..\Common\Minimal/semtest.c **** 
 154:..\Common\Minimal/semtest.c **** 			/* The first two tasks do not block on semaphore calls. */
 155:..\Common\Minimal/semtest.c **** 			pxFirstSemaphoreParameters->xBlockTime = ( TickType_t ) 0;
 109              		.loc 1 155 0
 110 0056 3B69     		ldr	r3, [r7, #16]
 111 0058 0022     		movs	r2, #0
 112 005a 9A60     		str	r2, [r3, #8]
 156:..\Common\Minimal/semtest.c **** 
 157:..\Common\Minimal/semtest.c **** 			/* Spawn the first two tasks.  As they poll they operate at the idle priority. */
 158:..\Common\Minimal/semtest.c **** 			xTaskCreate( prvSemaphoreTest, "PolSEM1", semtstSTACK_SIZE, ( void * ) pxFirstSemaphoreParameter
 113              		.loc 1 158 0
 114 005c 0023     		movs	r3, #0
 115 005e 0093     		str	r3, [sp]
 116 0060 0023     		movs	r3, #0
ARM GAS  C:\Users\bmt\AppData\Local\Temp\ccXDSw9y.s 			page 6


 117 0062 0193     		str	r3, [sp, #4]
 118 0064 2D48     		ldr	r0, .L4
 119 0066 2E49     		ldr	r1, .L4+4
 120 0068 6422     		movs	r2, #100
 121 006a 3B69     		ldr	r3, [r7, #16]
 122 006c FFF7FEFF 		bl	xTaskCreate
 159:..\Common\Minimal/semtest.c **** 			xTaskCreate( prvSemaphoreTest, "PolSEM2", semtstSTACK_SIZE, ( void * ) pxFirstSemaphoreParameter
 123              		.loc 1 159 0
 124 0070 0023     		movs	r3, #0
 125 0072 0093     		str	r3, [sp]
 126 0074 0023     		movs	r3, #0
 127 0076 0193     		str	r3, [sp, #4]
 128 0078 2848     		ldr	r0, .L4
 129 007a 2A49     		ldr	r1, .L4+8
 130 007c 6422     		movs	r2, #100
 131 007e 3B69     		ldr	r3, [r7, #16]
 132 0080 FFF7FEFF 		bl	xTaskCreate
 160:..\Common\Minimal/semtest.c **** 
 161:..\Common\Minimal/semtest.c **** 			/* vQueueAddToRegistry() adds the semaphore to the registry, if one
 162:..\Common\Minimal/semtest.c **** 			is in use.  The registry is provided as a means for kernel aware
 163:..\Common\Minimal/semtest.c **** 			debuggers to locate semaphores and has no purpose if a kernel aware
 164:..\Common\Minimal/semtest.c **** 			debugger is not being used.  The call to vQueueAddToRegistry() will
 165:..\Common\Minimal/semtest.c **** 			be removed by the pre-processor if configQUEUE_REGISTRY_SIZE is not
 166:..\Common\Minimal/semtest.c **** 			defined or is defined to be less than 1. */
 167:..\Common\Minimal/semtest.c **** 			vQueueAddToRegistry( ( QueueHandle_t ) pxFirstSemaphoreParameters->xSemaphore, "Counting_Sem_1" 
 133              		.loc 1 167 0
 134 0084 3B69     		ldr	r3, [r7, #16]
 135 0086 1B68     		ldr	r3, [r3]
 136 0088 1846     		mov	r0, r3
 137 008a 2749     		ldr	r1, .L4+12
 138 008c FFF7FEFF 		bl	vQueueAddToRegistry
 139              	.L2:
 168:..\Common\Minimal/semtest.c **** 		}
 169:..\Common\Minimal/semtest.c **** 	}
 170:..\Common\Minimal/semtest.c **** 
 171:..\Common\Minimal/semtest.c **** 	/* Do exactly the same to create the second set of tasks, only this time
 172:..\Common\Minimal/semtest.c **** 	provide a block time for the semaphore calls. */
 173:..\Common\Minimal/semtest.c **** 	pxSecondSemaphoreParameters = ( xSemaphoreParameters * ) pvPortMalloc( sizeof( xSemaphoreParameter
 140              		.loc 1 173 0
 141 0090 0C20     		movs	r0, #12
 142 0092 FFF7FEFF 		bl	pvPortMalloc
 143 0096 F860     		str	r0, [r7, #12]
 174:..\Common\Minimal/semtest.c **** 	if( pxSecondSemaphoreParameters != NULL )
 144              		.loc 1 174 0
 145 0098 FB68     		ldr	r3, [r7, #12]
 146 009a 002B     		cmp	r3, #0
 147 009c 3BD0     		beq	.L1
 175:..\Common\Minimal/semtest.c **** 	{
 176:..\Common\Minimal/semtest.c **** 		pxSecondSemaphoreParameters->xSemaphore = xSemaphoreCreateBinary();		
 148              		.loc 1 176 0
 149 009e 0120     		movs	r0, #1
 150 00a0 0021     		movs	r1, #0
 151 00a2 0322     		movs	r2, #3
 152 00a4 FFF7FEFF 		bl	xQueueGenericCreate
 153 00a8 0246     		mov	r2, r0
 154 00aa FB68     		ldr	r3, [r7, #12]
 155 00ac 1A60     		str	r2, [r3]
ARM GAS  C:\Users\bmt\AppData\Local\Temp\ccXDSw9y.s 			page 7


 177:..\Common\Minimal/semtest.c **** 
 178:..\Common\Minimal/semtest.c **** 		if( pxSecondSemaphoreParameters->xSemaphore != NULL )
 156              		.loc 1 178 0
 157 00ae FB68     		ldr	r3, [r7, #12]
 158 00b0 1B68     		ldr	r3, [r3]
 159 00b2 002B     		cmp	r3, #0
 160 00b4 2FD0     		beq	.L1
 179:..\Common\Minimal/semtest.c **** 		{
 180:..\Common\Minimal/semtest.c **** 			xSemaphoreGive( pxSecondSemaphoreParameters->xSemaphore );
 161              		.loc 1 180 0
 162 00b6 FB68     		ldr	r3, [r7, #12]
 163 00b8 1B68     		ldr	r3, [r3]
 164 00ba 1846     		mov	r0, r3
 165 00bc 0021     		movs	r1, #0
 166 00be 0022     		movs	r2, #0
 167 00c0 0023     		movs	r3, #0
 168 00c2 FFF7FEFF 		bl	xQueueGenericSend
 181:..\Common\Minimal/semtest.c **** 			
 182:..\Common\Minimal/semtest.c **** 			pxSecondSemaphoreParameters->pulSharedVariable = ( uint32_t * ) pvPortMalloc( sizeof( uint32_t )
 169              		.loc 1 182 0
 170 00c6 0420     		movs	r0, #4
 171 00c8 FFF7FEFF 		bl	pvPortMalloc
 172 00cc 0246     		mov	r2, r0
 173 00ce FB68     		ldr	r3, [r7, #12]
 174 00d0 5A60     		str	r2, [r3, #4]
 183:..\Common\Minimal/semtest.c **** 			*( pxSecondSemaphoreParameters->pulSharedVariable ) = semtstBLOCKING_EXPECTED_VALUE;
 175              		.loc 1 183 0
 176 00d2 FB68     		ldr	r3, [r7, #12]
 177 00d4 5B68     		ldr	r3, [r3, #4]
 178 00d6 40F6FF72 		movw	r2, #4095
 179 00da 1A60     		str	r2, [r3]
 184:..\Common\Minimal/semtest.c **** 			pxSecondSemaphoreParameters->xBlockTime = xBlockTime / portTICK_PERIOD_MS;
 180              		.loc 1 184 0
 181 00dc FB68     		ldr	r3, [r7, #12]
 182 00de 7A69     		ldr	r2, [r7, #20]
 183 00e0 9A60     		str	r2, [r3, #8]
 185:..\Common\Minimal/semtest.c **** 
 186:..\Common\Minimal/semtest.c **** 			xTaskCreate( prvSemaphoreTest, "BlkSEM1", semtstSTACK_SIZE, ( void * ) pxSecondSemaphoreParamete
 184              		.loc 1 186 0
 185 00e2 7B68     		ldr	r3, [r7, #4]
 186 00e4 0093     		str	r3, [sp]
 187 00e6 0023     		movs	r3, #0
 188 00e8 0193     		str	r3, [sp, #4]
 189 00ea 0C48     		ldr	r0, .L4
 190 00ec 0F49     		ldr	r1, .L4+16
 191 00ee 6422     		movs	r2, #100
 192 00f0 FB68     		ldr	r3, [r7, #12]
 193 00f2 FFF7FEFF 		bl	xTaskCreate
 187:..\Common\Minimal/semtest.c **** 			xTaskCreate( prvSemaphoreTest, "BlkSEM2", semtstSTACK_SIZE, ( void * ) pxSecondSemaphoreParamete
 194              		.loc 1 187 0
 195 00f6 7B68     		ldr	r3, [r7, #4]
 196 00f8 0093     		str	r3, [sp]
 197 00fa 0023     		movs	r3, #0
 198 00fc 0193     		str	r3, [sp, #4]
 199 00fe 0748     		ldr	r0, .L4
 200 0100 0B49     		ldr	r1, .L4+20
 201 0102 6422     		movs	r2, #100
ARM GAS  C:\Users\bmt\AppData\Local\Temp\ccXDSw9y.s 			page 8


 202 0104 FB68     		ldr	r3, [r7, #12]
 203 0106 FFF7FEFF 		bl	xTaskCreate
 188:..\Common\Minimal/semtest.c **** 
 189:..\Common\Minimal/semtest.c **** 			/* vQueueAddToRegistry() adds the semaphore to the registry, if one
 190:..\Common\Minimal/semtest.c **** 			is in use.  The registry is provided as a means for kernel aware
 191:..\Common\Minimal/semtest.c **** 			debuggers to locate semaphores and has no purpose if a kernel aware
 192:..\Common\Minimal/semtest.c **** 			debugger is not being used.  The call to vQueueAddToRegistry() will
 193:..\Common\Minimal/semtest.c **** 			be removed by the pre-processor if configQUEUE_REGISTRY_SIZE is not
 194:..\Common\Minimal/semtest.c **** 			defined or is defined to be less than 1. */
 195:..\Common\Minimal/semtest.c **** 			vQueueAddToRegistry( ( QueueHandle_t ) pxSecondSemaphoreParameters->xSemaphore, "Counting_Sem_2"
 204              		.loc 1 195 0
 205 010a FB68     		ldr	r3, [r7, #12]
 206 010c 1B68     		ldr	r3, [r3]
 207 010e 1846     		mov	r0, r3
 208 0110 0849     		ldr	r1, .L4+24
 209 0112 FFF7FEFF 		bl	vQueueAddToRegistry
 210              	.L1:
 196:..\Common\Minimal/semtest.c **** 		}
 197:..\Common\Minimal/semtest.c **** 	}
 198:..\Common\Minimal/semtest.c **** }
 211              		.loc 1 198 0
 212 0116 1837     		adds	r7, r7, #24
 213              		.cfi_def_cfa_offset 8
 214 0118 BD46     		mov	sp, r7
 215              		.cfi_def_cfa_register 13
 216              		@ sp needed
 217 011a 80BD     		pop	{r7, pc}
 218              	.L5:
 219              		.align	2
 220              	.L4:
 221 011c 00000000 		.word	prvSemaphoreTest
 222 0120 00000000 		.word	.LC0
 223 0124 08000000 		.word	.LC1
 224 0128 10000000 		.word	.LC2
 225 012c 20000000 		.word	.LC3
 226 0130 28000000 		.word	.LC4
 227 0134 30000000 		.word	.LC5
 228              		.cfi_endproc
 229              	.LFE68:
 230              		.size	vStartSemaphoreTasks, .-vStartSemaphoreTasks
 231              		.section	.text.prvSemaphoreTest,"ax",%progbits
 232              		.align	2
 233              		.thumb
 234              		.thumb_func
 235              		.type	prvSemaphoreTest, %function
 236              	prvSemaphoreTest:
 237              	.LFB69:
 199:..\Common\Minimal/semtest.c **** /*-----------------------------------------------------------*/
 200:..\Common\Minimal/semtest.c **** 
 201:..\Common\Minimal/semtest.c **** static portTASK_FUNCTION( prvSemaphoreTest, pvParameters )
 202:..\Common\Minimal/semtest.c **** {
 238              		.loc 1 202 0
 239              		.cfi_startproc
 240              		@ args = 0, pretend = 0, frame = 32
 241              		@ frame_needed = 1, uses_anonymous_args = 0
 242 0000 80B5     		push	{r7, lr}
 243              		.cfi_def_cfa_offset 8
ARM GAS  C:\Users\bmt\AppData\Local\Temp\ccXDSw9y.s 			page 9


 244              		.cfi_offset 7, -8
 245              		.cfi_offset 14, -4
 246 0002 88B0     		sub	sp, sp, #32
 247              		.cfi_def_cfa_offset 40
 248 0004 00AF     		add	r7, sp, #0
 249              		.cfi_def_cfa_register 7
 250 0006 7860     		str	r0, [r7, #4]
 203:..\Common\Minimal/semtest.c **** xSemaphoreParameters *pxParameters;
 204:..\Common\Minimal/semtest.c **** volatile uint32_t *pulSharedVariable, ulExpectedValue;
 205:..\Common\Minimal/semtest.c **** uint32_t ulCounter;
 206:..\Common\Minimal/semtest.c **** short sError = pdFALSE, sCheckVariableToUse;
 251              		.loc 1 206 0
 252 0008 0023     		movs	r3, #0
 253 000a 7B83     		strh	r3, [r7, #26]	@ movhi
 207:..\Common\Minimal/semtest.c **** 
 208:..\Common\Minimal/semtest.c **** 	/* See which check variable to use.  sNextCheckVariable is not semaphore
 209:..\Common\Minimal/semtest.c **** 	protected! */
 210:..\Common\Minimal/semtest.c **** 	portENTER_CRITICAL();
 254              		.loc 1 210 0
 255 000c FFF7FEFF 		bl	vPortEnterCritical
 211:..\Common\Minimal/semtest.c **** 		sCheckVariableToUse = sNextCheckVariable;
 256              		.loc 1 211 0
 257 0010 3F4B     		ldr	r3, .L17
 258 0012 1B88     		ldrh	r3, [r3]	@ movhi
 259 0014 3B83     		strh	r3, [r7, #24]	@ movhi
 212:..\Common\Minimal/semtest.c **** 		sNextCheckVariable++;
 260              		.loc 1 212 0
 261 0016 3E4B     		ldr	r3, .L17
 262 0018 1B88     		ldrh	r3, [r3]	@ movhi
 263 001a 9BB2     		uxth	r3, r3
 264 001c 9BB2     		uxth	r3, r3
 265 001e 9BB2     		uxth	r3, r3
 266 0020 0133     		adds	r3, r3, #1
 267 0022 9BB2     		uxth	r3, r3
 268 0024 9AB2     		uxth	r2, r3
 269 0026 3A4B     		ldr	r3, .L17
 270 0028 1A80     		strh	r2, [r3]	@ movhi
 213:..\Common\Minimal/semtest.c **** 	portEXIT_CRITICAL();
 271              		.loc 1 213 0
 272 002a FFF7FEFF 		bl	vPortExitCritical
 214:..\Common\Minimal/semtest.c **** 
 215:..\Common\Minimal/semtest.c **** 	/* A structure is passed in as the parameter.  This contains the shared
 216:..\Common\Minimal/semtest.c **** 	variable being guarded. */
 217:..\Common\Minimal/semtest.c **** 	pxParameters = ( xSemaphoreParameters * ) pvParameters;
 273              		.loc 1 217 0
 274 002e 7B68     		ldr	r3, [r7, #4]
 275 0030 7B61     		str	r3, [r7, #20]
 218:..\Common\Minimal/semtest.c **** 	pulSharedVariable = pxParameters->pulSharedVariable;
 276              		.loc 1 218 0
 277 0032 7B69     		ldr	r3, [r7, #20]
 278 0034 5B68     		ldr	r3, [r3, #4]
 279 0036 3B61     		str	r3, [r7, #16]
 219:..\Common\Minimal/semtest.c **** 
 220:..\Common\Minimal/semtest.c **** 	/* If we are blocking we use a much higher count to ensure loads of context
 221:..\Common\Minimal/semtest.c **** 	switches occur during the count. */
 222:..\Common\Minimal/semtest.c **** 	if( pxParameters->xBlockTime > ( TickType_t ) 0 )
 280              		.loc 1 222 0
ARM GAS  C:\Users\bmt\AppData\Local\Temp\ccXDSw9y.s 			page 10


 281 0038 7B69     		ldr	r3, [r7, #20]
 282 003a 9B68     		ldr	r3, [r3, #8]
 283 003c 002B     		cmp	r3, #0
 284 003e 03D0     		beq	.L7
 223:..\Common\Minimal/semtest.c **** 	{
 224:..\Common\Minimal/semtest.c **** 		ulExpectedValue = semtstBLOCKING_EXPECTED_VALUE;
 285              		.loc 1 224 0
 286 0040 40F6FF73 		movw	r3, #4095
 287 0044 FB60     		str	r3, [r7, #12]
 288 0046 01E0     		b	.L8
 289              	.L7:
 225:..\Common\Minimal/semtest.c **** 	}
 226:..\Common\Minimal/semtest.c **** 	else
 227:..\Common\Minimal/semtest.c **** 	{
 228:..\Common\Minimal/semtest.c **** 		ulExpectedValue = semtstNON_BLOCKING_EXPECTED_VALUE;
 290              		.loc 1 228 0
 291 0048 FF23     		movs	r3, #255
 292 004a FB60     		str	r3, [r7, #12]
 293              	.L8:
 229:..\Common\Minimal/semtest.c **** 	}
 230:..\Common\Minimal/semtest.c **** 
 231:..\Common\Minimal/semtest.c **** 	for( ;; )
 232:..\Common\Minimal/semtest.c **** 	{
 233:..\Common\Minimal/semtest.c **** 		/* Try to obtain the semaphore. */
 234:..\Common\Minimal/semtest.c **** 		if( xSemaphoreTake( pxParameters->xSemaphore, pxParameters->xBlockTime ) == pdPASS )
 294              		.loc 1 234 0
 295 004c 7B69     		ldr	r3, [r7, #20]
 296 004e 1A68     		ldr	r2, [r3]
 297 0050 7B69     		ldr	r3, [r7, #20]
 298 0052 9B68     		ldr	r3, [r3, #8]
 299 0054 1046     		mov	r0, r2
 300 0056 0021     		movs	r1, #0
 301 0058 1A46     		mov	r2, r3
 302 005a 0023     		movs	r3, #0
 303 005c FFF7FEFF 		bl	xQueueGenericReceive
 304 0060 0346     		mov	r3, r0
 305 0062 012B     		cmp	r3, #1
 306 0064 47D1     		bne	.L9
 235:..\Common\Minimal/semtest.c **** 		{
 236:..\Common\Minimal/semtest.c **** 			/* We have the semaphore and so expect any other tasks using the
 237:..\Common\Minimal/semtest.c **** 			shared variable to have left it in the state we expect to find
 238:..\Common\Minimal/semtest.c **** 			it. */
 239:..\Common\Minimal/semtest.c **** 			if( *pulSharedVariable != ulExpectedValue )
 307              		.loc 1 239 0
 308 0066 3B69     		ldr	r3, [r7, #16]
 309 0068 1A68     		ldr	r2, [r3]
 310 006a FB68     		ldr	r3, [r7, #12]
 311 006c 9A42     		cmp	r2, r3
 312 006e 01D0     		beq	.L10
 240:..\Common\Minimal/semtest.c **** 			{
 241:..\Common\Minimal/semtest.c **** 				sError = pdTRUE;
 313              		.loc 1 241 0
 314 0070 0123     		movs	r3, #1
 315 0072 7B83     		strh	r3, [r7, #26]	@ movhi
 316              	.L10:
 242:..\Common\Minimal/semtest.c **** 			}
 243:..\Common\Minimal/semtest.c **** 
ARM GAS  C:\Users\bmt\AppData\Local\Temp\ccXDSw9y.s 			page 11


 244:..\Common\Minimal/semtest.c **** 			/* Clear the variable, then count it back up to the expected value
 245:..\Common\Minimal/semtest.c **** 			before releasing the semaphore.  Would expect a context switch or
 246:..\Common\Minimal/semtest.c **** 			two during this time. */
 247:..\Common\Minimal/semtest.c **** 			for( ulCounter = ( uint32_t ) 0; ulCounter <= ulExpectedValue; ulCounter++ )
 317              		.loc 1 247 0
 318 0074 0023     		movs	r3, #0
 319 0076 FB61     		str	r3, [r7, #28]
 320 0078 0CE0     		b	.L11
 321              	.L13:
 248:..\Common\Minimal/semtest.c **** 			{
 249:..\Common\Minimal/semtest.c **** 				*pulSharedVariable = ulCounter;
 322              		.loc 1 249 0
 323 007a 3B69     		ldr	r3, [r7, #16]
 324 007c FA69     		ldr	r2, [r7, #28]
 325 007e 1A60     		str	r2, [r3]
 250:..\Common\Minimal/semtest.c **** 				if( *pulSharedVariable != ulCounter )
 326              		.loc 1 250 0
 327 0080 3B69     		ldr	r3, [r7, #16]
 328 0082 1A68     		ldr	r2, [r3]
 329 0084 FB69     		ldr	r3, [r7, #28]
 330 0086 9A42     		cmp	r2, r3
 331 0088 01D0     		beq	.L12
 251:..\Common\Minimal/semtest.c **** 				{
 252:..\Common\Minimal/semtest.c **** 					sError = pdTRUE;
 332              		.loc 1 252 0
 333 008a 0123     		movs	r3, #1
 334 008c 7B83     		strh	r3, [r7, #26]	@ movhi
 335              	.L12:
 247:..\Common\Minimal/semtest.c **** 			{
 336              		.loc 1 247 0 discriminator 2
 337 008e FB69     		ldr	r3, [r7, #28]
 338 0090 0133     		adds	r3, r3, #1
 339 0092 FB61     		str	r3, [r7, #28]
 340              	.L11:
 247:..\Common\Minimal/semtest.c **** 			{
 341              		.loc 1 247 0 is_stmt 0 discriminator 1
 342 0094 FB68     		ldr	r3, [r7, #12]
 343 0096 FA69     		ldr	r2, [r7, #28]
 344 0098 9A42     		cmp	r2, r3
 345 009a EED9     		bls	.L13
 253:..\Common\Minimal/semtest.c **** 				}
 254:..\Common\Minimal/semtest.c **** 			}
 255:..\Common\Minimal/semtest.c **** 
 256:..\Common\Minimal/semtest.c **** 			/* Release the semaphore, and if no errors have occurred increment the check
 257:..\Common\Minimal/semtest.c **** 			variable. */
 258:..\Common\Minimal/semtest.c **** 			if(	xSemaphoreGive( pxParameters->xSemaphore ) == pdFALSE )
 346              		.loc 1 258 0 is_stmt 1
 347 009c 7B69     		ldr	r3, [r7, #20]
 348 009e 1B68     		ldr	r3, [r3]
 349 00a0 1846     		mov	r0, r3
 350 00a2 0021     		movs	r1, #0
 351 00a4 0022     		movs	r2, #0
 352 00a6 0023     		movs	r3, #0
 353 00a8 FFF7FEFF 		bl	xQueueGenericSend
 354 00ac 0346     		mov	r3, r0
 355 00ae 002B     		cmp	r3, #0
 356 00b0 01D1     		bne	.L14
ARM GAS  C:\Users\bmt\AppData\Local\Temp\ccXDSw9y.s 			page 12


 259:..\Common\Minimal/semtest.c **** 			{
 260:..\Common\Minimal/semtest.c **** 				sError = pdTRUE;
 357              		.loc 1 260 0
 358 00b2 0123     		movs	r3, #1
 359 00b4 7B83     		strh	r3, [r7, #26]	@ movhi
 360              	.L14:
 261:..\Common\Minimal/semtest.c **** 			}
 262:..\Common\Minimal/semtest.c **** 
 263:..\Common\Minimal/semtest.c **** 			if( sError == pdFALSE )
 361              		.loc 1 263 0
 362 00b6 B7F91A30 		ldrsh	r3, [r7, #26]
 363 00ba 002B     		cmp	r3, #0
 364 00bc 11D1     		bne	.L15
 264:..\Common\Minimal/semtest.c **** 			{
 265:..\Common\Minimal/semtest.c **** 				if( sCheckVariableToUse < semtstNUM_TASKS )
 365              		.loc 1 265 0
 366 00be B7F91830 		ldrsh	r3, [r7, #24]
 367 00c2 032B     		cmp	r3, #3
 368 00c4 0DDC     		bgt	.L15
 266:..\Common\Minimal/semtest.c **** 				{
 267:..\Common\Minimal/semtest.c **** 					( sCheckVariables[ sCheckVariableToUse ] )++;
 369              		.loc 1 267 0
 370 00c6 B7F91820 		ldrsh	r2, [r7, #24]
 371 00ca 124B     		ldr	r3, .L17+4
 372 00cc 33F81230 		ldrh	r3, [r3, r2, lsl #1]	@ movhi
 373 00d0 9BB2     		uxth	r3, r3
 374 00d2 9BB2     		uxth	r3, r3
 375 00d4 9BB2     		uxth	r3, r3
 376 00d6 0133     		adds	r3, r3, #1
 377 00d8 9BB2     		uxth	r3, r3
 378 00da 99B2     		uxth	r1, r3
 379 00dc 0D4B     		ldr	r3, .L17+4
 380 00de 23F81210 		strh	r1, [r3, r2, lsl #1]	@ movhi
 381              	.L15:
 268:..\Common\Minimal/semtest.c **** 				}
 269:..\Common\Minimal/semtest.c **** 			}
 270:..\Common\Minimal/semtest.c **** 
 271:..\Common\Minimal/semtest.c **** 			/* If we have a block time then we are running at a priority higher
 272:..\Common\Minimal/semtest.c **** 			than the idle priority.  This task takes a long time to complete
 273:..\Common\Minimal/semtest.c **** 			a cycle	(deliberately so to test the guarding) so will be starving
 274:..\Common\Minimal/semtest.c **** 			out lower priority tasks.  Block for some time to allow give lower
 275:..\Common\Minimal/semtest.c **** 			priority tasks some processor time. */
 276:..\Common\Minimal/semtest.c **** 			vTaskDelay( pxParameters->xBlockTime * semtstDELAY_FACTOR );
 382              		.loc 1 276 0
 383 00e2 7B69     		ldr	r3, [r7, #20]
 384 00e4 9A68     		ldr	r2, [r3, #8]
 385 00e6 1346     		mov	r3, r2
 386 00e8 9B00     		lsls	r3, r3, #2
 387 00ea 1344     		add	r3, r3, r2
 388 00ec 5B00     		lsls	r3, r3, #1
 389 00ee 1846     		mov	r0, r3
 390 00f0 FFF7FEFF 		bl	vTaskDelay
 391 00f4 0BE0     		b	.L16
 392              	.L9:
 277:..\Common\Minimal/semtest.c **** 		}
 278:..\Common\Minimal/semtest.c **** 		else
 279:..\Common\Minimal/semtest.c **** 		{
ARM GAS  C:\Users\bmt\AppData\Local\Temp\ccXDSw9y.s 			page 13


 280:..\Common\Minimal/semtest.c **** 			if( pxParameters->xBlockTime == ( TickType_t ) 0 )
 393              		.loc 1 280 0
 394 00f6 7B69     		ldr	r3, [r7, #20]
 395 00f8 9B68     		ldr	r3, [r3, #8]
 396 00fa 002B     		cmp	r3, #0
 397 00fc 07D1     		bne	.L16
 281:..\Common\Minimal/semtest.c **** 			{
 282:..\Common\Minimal/semtest.c **** 				/* We have not got the semaphore yet, so no point using the
 283:..\Common\Minimal/semtest.c **** 				processor.  We are not blocking when attempting to obtain the
 284:..\Common\Minimal/semtest.c **** 				semaphore. */
 285:..\Common\Minimal/semtest.c **** 				taskYIELD();
 398              		.loc 1 285 0
 399 00fe 064B     		ldr	r3, .L17+8
 400 0100 4FF08052 		mov	r2, #268435456
 401 0104 1A60     		str	r2, [r3]
 402              	@ 285 "..\Common\Minimal\semtest.c" 1
 403 0106 BFF34F8F 		dsb
 404              	@ 0 "" 2
 405              	@ 285 "..\Common\Minimal\semtest.c" 1
 406 010a BFF36F8F 		isb
 407              	@ 0 "" 2
 408              		.thumb
 409              	.L16:
 286:..\Common\Minimal/semtest.c **** 			}
 287:..\Common\Minimal/semtest.c **** 		}
 288:..\Common\Minimal/semtest.c **** 	}
 410              		.loc 1 288 0
 411 010e 9DE7     		b	.L8
 412              	.L18:
 413              		.align	2
 414              	.L17:
 415 0110 08000000 		.word	sNextCheckVariable
 416 0114 00000000 		.word	sCheckVariables
 417 0118 04ED00E0 		.word	-536810236
 418              		.cfi_endproc
 419              	.LFE69:
 420              		.size	prvSemaphoreTest, .-prvSemaphoreTest
 421              		.section	.text.xAreSemaphoreTasksStillRunning,"ax",%progbits
 422              		.align	2
 423              		.global	xAreSemaphoreTasksStillRunning
 424              		.thumb
 425              		.thumb_func
 426              		.type	xAreSemaphoreTasksStillRunning, %function
 427              	xAreSemaphoreTasksStillRunning:
 428              	.LFB70:
 289:..\Common\Minimal/semtest.c **** }
 290:..\Common\Minimal/semtest.c **** /*-----------------------------------------------------------*/
 291:..\Common\Minimal/semtest.c **** 
 292:..\Common\Minimal/semtest.c **** /* This is called to check that all the created tasks are still running. */
 293:..\Common\Minimal/semtest.c **** BaseType_t xAreSemaphoreTasksStillRunning( void )
 294:..\Common\Minimal/semtest.c **** {
 429              		.loc 1 294 0
 430              		.cfi_startproc
 431              		@ args = 0, pretend = 0, frame = 8
 432              		@ frame_needed = 1, uses_anonymous_args = 0
 433              		@ link register save eliminated.
 434 0000 80B4     		push	{r7}
ARM GAS  C:\Users\bmt\AppData\Local\Temp\ccXDSw9y.s 			page 14


 435              		.cfi_def_cfa_offset 4
 436              		.cfi_offset 7, -4
 437 0002 83B0     		sub	sp, sp, #12
 438              		.cfi_def_cfa_offset 16
 439 0004 00AF     		add	r7, sp, #0
 440              		.cfi_def_cfa_register 7
 295:..\Common\Minimal/semtest.c **** static short sLastCheckVariables[ semtstNUM_TASKS ] = { 0 };
 296:..\Common\Minimal/semtest.c **** BaseType_t xTask, xReturn = pdTRUE;
 441              		.loc 1 296 0
 442 0006 0123     		movs	r3, #1
 443 0008 3B60     		str	r3, [r7]
 297:..\Common\Minimal/semtest.c **** 
 298:..\Common\Minimal/semtest.c **** 	for( xTask = 0; xTask < semtstNUM_TASKS; xTask++ )
 444              		.loc 1 298 0
 445 000a 0023     		movs	r3, #0
 446 000c 7B60     		str	r3, [r7, #4]
 447 000e 1AE0     		b	.L20
 448              	.L22:
 299:..\Common\Minimal/semtest.c **** 	{
 300:..\Common\Minimal/semtest.c **** 		if( sLastCheckVariables[ xTask ] == sCheckVariables[ xTask ] )
 449              		.loc 1 300 0
 450 0010 124A     		ldr	r2, .L24
 451 0012 7B68     		ldr	r3, [r7, #4]
 452 0014 32F81310 		ldrh	r1, [r2, r3, lsl #1]
 453 0018 114A     		ldr	r2, .L24+4
 454 001a 7B68     		ldr	r3, [r7, #4]
 455 001c 32F81330 		ldrh	r3, [r2, r3, lsl #1]	@ movhi
 456 0020 9BB2     		uxth	r3, r3
 457 0022 0AB2     		sxth	r2, r1
 458 0024 1BB2     		sxth	r3, r3
 459 0026 9A42     		cmp	r2, r3
 460 0028 01D1     		bne	.L21
 301:..\Common\Minimal/semtest.c **** 		{
 302:..\Common\Minimal/semtest.c **** 			xReturn = pdFALSE;
 461              		.loc 1 302 0
 462 002a 0023     		movs	r3, #0
 463 002c 3B60     		str	r3, [r7]
 464              	.L21:
 303:..\Common\Minimal/semtest.c **** 		}
 304:..\Common\Minimal/semtest.c **** 
 305:..\Common\Minimal/semtest.c **** 		sLastCheckVariables[ xTask ] = sCheckVariables[ xTask ];
 465              		.loc 1 305 0 discriminator 2
 466 002e 0C4A     		ldr	r2, .L24+4
 467 0030 7B68     		ldr	r3, [r7, #4]
 468 0032 32F81330 		ldrh	r3, [r2, r3, lsl #1]	@ movhi
 469 0036 99B2     		uxth	r1, r3
 470 0038 084A     		ldr	r2, .L24
 471 003a 7B68     		ldr	r3, [r7, #4]
 472 003c 22F81310 		strh	r1, [r2, r3, lsl #1]	@ movhi
 298:..\Common\Minimal/semtest.c **** 	{
 473              		.loc 1 298 0 discriminator 2
 474 0040 7B68     		ldr	r3, [r7, #4]
 475 0042 0133     		adds	r3, r3, #1
 476 0044 7B60     		str	r3, [r7, #4]
 477              	.L20:
 298:..\Common\Minimal/semtest.c **** 	{
 478              		.loc 1 298 0 is_stmt 0 discriminator 1
ARM GAS  C:\Users\bmt\AppData\Local\Temp\ccXDSw9y.s 			page 15


 479 0046 7B68     		ldr	r3, [r7, #4]
 480 0048 032B     		cmp	r3, #3
 481 004a E1DD     		ble	.L22
 306:..\Common\Minimal/semtest.c **** 	}
 307:..\Common\Minimal/semtest.c **** 
 308:..\Common\Minimal/semtest.c **** 	return xReturn;
 482              		.loc 1 308 0 is_stmt 1
 483 004c 3B68     		ldr	r3, [r7]
 309:..\Common\Minimal/semtest.c **** }
 484              		.loc 1 309 0
 485 004e 1846     		mov	r0, r3
 486 0050 0C37     		adds	r7, r7, #12
 487              		.cfi_def_cfa_offset 4
 488 0052 BD46     		mov	sp, r7
 489              		.cfi_def_cfa_register 13
 490              		@ sp needed
 491 0054 5DF8047B 		ldr	r7, [sp], #4
 492              		.cfi_restore 7
 493              		.cfi_def_cfa_offset 0
 494 0058 7047     		bx	lr
 495              	.L25:
 496 005a 00BF     		.align	2
 497              	.L24:
 498 005c 0C000000 		.word	sLastCheckVariables.7084
 499 0060 00000000 		.word	sCheckVariables
 500              		.cfi_endproc
 501              	.LFE70:
 502              		.size	xAreSemaphoreTasksStillRunning, .-xAreSemaphoreTasksStillRunning
 503              		.bss
 504 000a 0000     		.align	2
 505              	sLastCheckVariables.7084:
 506 000c 00000000 		.space	8
 506      00000000 
 507              		.text
 508              	.Letext0:
 509              		.file 2 "c:\\program files (x86)\\cypress\\psoc creator\\4.0\\psoc creator\\import\\gnu\\arm\\4.9.
 510              		.file 3 "c:\\program files (x86)\\cypress\\psoc creator\\4.0\\psoc creator\\import\\gnu\\arm\\4.9.
 511              		.file 4 "..\\Source\\portable\\GCC\\ARM_CM3/portmacro.h"
 512              		.file 5 "..\\Source\\include/task.h"
 513              		.file 6 "..\\Source\\include/queue.h"
 514              		.file 7 "..\\Source\\include/semphr.h"
 515              		.file 8 "Generated_Source\\PSoC5/core_cm3.h"