ARM GAS  C:\Users\bmt\AppData\Local\Temp\ccyp4MuE.s 			page 1


   1              		.syntax unified
   2              		.cpu cortex-m3
   3              		.fpu softvfp
   4              		.eabi_attribute 20, 1
   5              		.eabi_attribute 21, 1
   6              		.eabi_attribute 23, 3
   7              		.eabi_attribute 24, 1
   8              		.eabi_attribute 25, 1
   9              		.eabi_attribute 26, 1
  10              		.eabi_attribute 30, 6
  11              		.eabi_attribute 34, 1
  12              		.eabi_attribute 18, 4
  13              		.thumb
  14              		.file	"Serial.c"
  15              		.text
  16              	.Ltext0:
  17              		.cfi_sections	.debug_frame
  18              		.bss
  19              		.align	2
  20              	xSerialTxQueue:
  21 0000 00000000 		.space	4
  22              		.align	2
  23              	xSerialRxQueue:
  24 0004 00000000 		.space	4
  25              		.section	.text.xSerialPortInitMinimal,"ax",%progbits
  26              		.align	2
  27              		.global	xSerialPortInitMinimal
  28              		.thumb
  29              		.thumb_func
  30              		.type	xSerialPortInitMinimal, %function
  31              	xSerialPortInitMinimal:
  32              	.LFB68:
  33              		.file 1 "Serial.c"
   1:Serial.c      **** /*
   2:Serial.c      ****     FreeRTOS V9.0.0 - Copyright (C) 2016 Real Time Engineers Ltd.
   3:Serial.c      ****     All rights reserved
   4:Serial.c      **** 
   5:Serial.c      ****     VISIT http://www.FreeRTOS.org TO ENSURE YOU ARE USING THE LATEST VERSION.
   6:Serial.c      **** 
   7:Serial.c      ****     This file is part of the FreeRTOS distribution.
   8:Serial.c      **** 
   9:Serial.c      ****     FreeRTOS is free software; you can redistribute it and/or modify it under
  10:Serial.c      ****     the terms of the GNU General Public License (version 2) as published by the
  11:Serial.c      ****     Free Software Foundation >>>> AND MODIFIED BY <<<< the FreeRTOS exception.
  12:Serial.c      **** 
  13:Serial.c      ****     ***************************************************************************
  14:Serial.c      ****     >>!   NOTE: The modification to the GPL is included to allow you to     !<<
  15:Serial.c      ****     >>!   distribute a combined work that includes FreeRTOS without being   !<<
  16:Serial.c      ****     >>!   obliged to provide the source code for proprietary components     !<<
  17:Serial.c      ****     >>!   outside of the FreeRTOS kernel.                                   !<<
  18:Serial.c      ****     ***************************************************************************
  19:Serial.c      **** 
  20:Serial.c      ****     FreeRTOS is distributed in the hope that it will be useful, but WITHOUT ANY
  21:Serial.c      ****     WARRANTY; without even the implied warranty of MERCHANTABILITY or FITNESS
  22:Serial.c      ****     FOR A PARTICULAR PURPOSE.  Full license text is available on the following
  23:Serial.c      ****     link: http://www.freertos.org/a00114.html
  24:Serial.c      **** 
ARM GAS  C:\Users\bmt\AppData\Local\Temp\ccyp4MuE.s 			page 2


  25:Serial.c      ****     ***************************************************************************
  26:Serial.c      ****      *                                                                       *
  27:Serial.c      ****      *    FreeRTOS provides completely free yet professionally developed,    *
  28:Serial.c      ****      *    robust, strictly quality controlled, supported, and cross          *
  29:Serial.c      ****      *    platform software that is more than just the market leader, it     *
  30:Serial.c      ****      *    is the industry's de facto standard.                               *
  31:Serial.c      ****      *                                                                       *
  32:Serial.c      ****      *    Help yourself get started quickly while simultaneously helping     *
  33:Serial.c      ****      *    to support the FreeRTOS project by purchasing a FreeRTOS           *
  34:Serial.c      ****      *    tutorial book, reference manual, or both:                          *
  35:Serial.c      ****      *    http://www.FreeRTOS.org/Documentation                              *
  36:Serial.c      ****      *                                                                       *
  37:Serial.c      ****     ***************************************************************************
  38:Serial.c      **** 
  39:Serial.c      ****     http://www.FreeRTOS.org/FAQHelp.html - Having a problem?  Start by reading
  40:Serial.c      ****     the FAQ page "My application does not run, what could be wrong?".  Have you
  41:Serial.c      ****     defined configASSERT()?
  42:Serial.c      **** 
  43:Serial.c      ****     http://www.FreeRTOS.org/support - In return for receiving this top quality
  44:Serial.c      ****     embedded software for free we request you assist our global community by
  45:Serial.c      ****     participating in the support forum.
  46:Serial.c      **** 
  47:Serial.c      ****     http://www.FreeRTOS.org/training - Investing in training allows your team to
  48:Serial.c      ****     be as productive as possible as early as possible.  Now you can receive
  49:Serial.c      ****     FreeRTOS training directly from Richard Barry, CEO of Real Time Engineers
  50:Serial.c      ****     Ltd, and the world's leading authority on the world's leading RTOS.
  51:Serial.c      **** 
  52:Serial.c      ****     http://www.FreeRTOS.org/plus - A selection of FreeRTOS ecosystem products,
  53:Serial.c      ****     including FreeRTOS+Trace - an indispensable productivity tool, a DOS
  54:Serial.c      ****     compatible FAT file system, and our tiny thread aware UDP/IP stack.
  55:Serial.c      **** 
  56:Serial.c      ****     http://www.FreeRTOS.org/labs - Where new FreeRTOS products go to incubate.
  57:Serial.c      ****     Come and try FreeRTOS+TCP, our new open source TCP/IP stack for FreeRTOS.
  58:Serial.c      **** 
  59:Serial.c      ****     http://www.OpenRTOS.com - Real Time Engineers ltd. license FreeRTOS to High
  60:Serial.c      ****     Integrity Systems ltd. to sell under the OpenRTOS brand.  Low cost OpenRTOS
  61:Serial.c      ****     licenses offer ticketed support, indemnification and commercial middleware.
  62:Serial.c      **** 
  63:Serial.c      ****     http://www.SafeRTOS.com - High Integrity Systems also provide a safety
  64:Serial.c      ****     engineered and independently SIL3 certified version for use in safety and
  65:Serial.c      ****     mission critical applications that require provable dependability.
  66:Serial.c      **** 
  67:Serial.c      ****     1 tab == 4 spaces!
  68:Serial.c      **** */
  69:Serial.c      **** 
  70:Serial.c      **** #include <device.h>
  71:Serial.c      **** #include "FreeRTOS.h"
  72:Serial.c      **** #include "queue.h"
  73:Serial.c      **** #include "task.h"
  74:Serial.c      **** #include "serial.h"
  75:Serial.c      **** /*---------------------------------------------------------------------------*/
  76:Serial.c      **** 
  77:Serial.c      **** #define serialSTRING_DELAY_TICKS		( portMAX_DELAY )
  78:Serial.c      **** /*---------------------------------------------------------------------------*/
  79:Serial.c      **** 
  80:Serial.c      **** CY_ISR_PROTO( vUartRxISR );
  81:Serial.c      **** CY_ISR_PROTO( vUartTxISR );
ARM GAS  C:\Users\bmt\AppData\Local\Temp\ccyp4MuE.s 			page 3


  82:Serial.c      **** /*---------------------------------------------------------------------------*/
  83:Serial.c      **** 
  84:Serial.c      **** static QueueHandle_t xSerialTxQueue = NULL;
  85:Serial.c      **** static QueueHandle_t xSerialRxQueue = NULL;
  86:Serial.c      **** /*---------------------------------------------------------------------------*/
  87:Serial.c      **** 
  88:Serial.c      **** xComPortHandle xSerialPortInitMinimal( unsigned long ulWantedBaud, unsigned portBASE_TYPE uxQueueLe
  89:Serial.c      **** {
  34              		.loc 1 89 0
  35              		.cfi_startproc
  36              		@ args = 0, pretend = 0, frame = 8
  37              		@ frame_needed = 1, uses_anonymous_args = 0
  38 0000 80B5     		push	{r7, lr}
  39              		.cfi_def_cfa_offset 8
  40              		.cfi_offset 7, -8
  41              		.cfi_offset 14, -4
  42 0002 82B0     		sub	sp, sp, #8
  43              		.cfi_def_cfa_offset 16
  44 0004 00AF     		add	r7, sp, #0
  45              		.cfi_def_cfa_register 7
  46 0006 7860     		str	r0, [r7, #4]
  47 0008 3960     		str	r1, [r7]
  90:Serial.c      **** 	/* Configure Rx. */
  91:Serial.c      **** 	xSerialRxQueue = xQueueCreate( uxQueueLength, sizeof( signed char ) );	
  48              		.loc 1 91 0
  49 000a 3868     		ldr	r0, [r7]
  50 000c 0121     		movs	r1, #1
  51 000e 0022     		movs	r2, #0
  52 0010 FFF7FEFF 		bl	xQueueGenericCreate
  53 0014 0246     		mov	r2, r0
  54 0016 134B     		ldr	r3, .L5
  55 0018 1A60     		str	r2, [r3]
  92:Serial.c      **** 	isr_UART1_RX_BYTE_RECEIVED_ClearPending();
  56              		.loc 1 92 0
  57 001a FFF7FEFF 		bl	isr_UART1_RX_BYTE_RECEIVED_ClearPending
  93:Serial.c      **** 	isr_UART1_RX_BYTE_RECEIVED_StartEx(vUartRxISR);
  58              		.loc 1 93 0
  59 001e 1248     		ldr	r0, .L5+4
  60 0020 FFF7FEFF 		bl	isr_UART1_RX_BYTE_RECEIVED_StartEx
  94:Serial.c      **** 
  95:Serial.c      **** 	/* Configure Tx */
  96:Serial.c      **** 	xSerialTxQueue = xQueueCreate( uxQueueLength, sizeof( signed char ) );
  61              		.loc 1 96 0
  62 0024 3868     		ldr	r0, [r7]
  63 0026 0121     		movs	r1, #1
  64 0028 0022     		movs	r2, #0
  65 002a FFF7FEFF 		bl	xQueueGenericCreate
  66 002e 0246     		mov	r2, r0
  67 0030 0E4B     		ldr	r3, .L5+8
  68 0032 1A60     		str	r2, [r3]
  97:Serial.c      **** 	isr_UART1_TX_BYTE_COMPLETE_ClearPending() ;
  69              		.loc 1 97 0
  70 0034 FFF7FEFF 		bl	isr_UART1_TX_BYTE_COMPLETE_ClearPending
  98:Serial.c      **** 	isr_UART1_TX_BYTE_COMPLETE_StartEx(vUartTxISR);
  71              		.loc 1 98 0
  72 0038 0D48     		ldr	r0, .L5+12
  73 003a FFF7FEFF 		bl	isr_UART1_TX_BYTE_COMPLETE_StartEx
ARM GAS  C:\Users\bmt\AppData\Local\Temp\ccyp4MuE.s 			page 4


  99:Serial.c      **** 
 100:Serial.c      **** 	/* Clear the interrupt modes for the Tx for the time being. */
 101:Serial.c      **** 	UART_1_SetTxInterruptMode( 0 );
  74              		.loc 1 101 0
  75 003e 0020     		movs	r0, #0
  76 0040 FFF7FEFF 		bl	UART_1_SetTxInterruptMode
 102:Serial.c      **** 
 103:Serial.c      **** 	/* Both configured successfully. */
 104:Serial.c      **** 	return ( xComPortHandle )( xSerialTxQueue && xSerialRxQueue );
  77              		.loc 1 104 0
  78 0044 094B     		ldr	r3, .L5+8
  79 0046 1B68     		ldr	r3, [r3]
  80 0048 002B     		cmp	r3, #0
  81 004a 05D0     		beq	.L2
  82              		.loc 1 104 0 is_stmt 0 discriminator 1
  83 004c 054B     		ldr	r3, .L5
  84 004e 1B68     		ldr	r3, [r3]
  85 0050 002B     		cmp	r3, #0
  86 0052 01D0     		beq	.L2
  87              		.loc 1 104 0 discriminator 3
  88 0054 0123     		movs	r3, #1
  89 0056 00E0     		b	.L3
  90              	.L2:
  91              		.loc 1 104 0 discriminator 4
  92 0058 0023     		movs	r3, #0
  93              	.L3:
 105:Serial.c      **** }
  94              		.loc 1 105 0 is_stmt 1 discriminator 6
  95 005a 1846     		mov	r0, r3
  96 005c 0837     		adds	r7, r7, #8
  97              		.cfi_def_cfa_offset 8
  98 005e BD46     		mov	sp, r7
  99              		.cfi_def_cfa_register 13
 100              		@ sp needed
 101 0060 80BD     		pop	{r7, pc}
 102              	.L6:
 103 0062 00BF     		.align	2
 104              	.L5:
 105 0064 04000000 		.word	xSerialRxQueue
 106 0068 00000000 		.word	vUartRxISR
 107 006c 00000000 		.word	xSerialTxQueue
 108 0070 00000000 		.word	vUartTxISR
 109              		.cfi_endproc
 110              	.LFE68:
 111              		.size	xSerialPortInitMinimal, .-xSerialPortInitMinimal
 112              		.section	.text.vSerialPutString,"ax",%progbits
 113              		.align	2
 114              		.global	vSerialPutString
 115              		.thumb
 116              		.thumb_func
 117              		.type	vSerialPutString, %function
 118              	vSerialPutString:
 119              	.LFB69:
 106:Serial.c      **** /*---------------------------------------------------------------------------*/
 107:Serial.c      **** 
 108:Serial.c      **** void vSerialPutString( xComPortHandle pxPort, const signed char * const pcString, unsigned short us
 109:Serial.c      **** {
ARM GAS  C:\Users\bmt\AppData\Local\Temp\ccyp4MuE.s 			page 5


 120              		.loc 1 109 0
 121              		.cfi_startproc
 122              		@ args = 0, pretend = 0, frame = 24
 123              		@ frame_needed = 1, uses_anonymous_args = 0
 124 0000 80B5     		push	{r7, lr}
 125              		.cfi_def_cfa_offset 8
 126              		.cfi_offset 7, -8
 127              		.cfi_offset 14, -4
 128 0002 86B0     		sub	sp, sp, #24
 129              		.cfi_def_cfa_offset 32
 130 0004 00AF     		add	r7, sp, #0
 131              		.cfi_def_cfa_register 7
 132 0006 F860     		str	r0, [r7, #12]
 133 0008 B960     		str	r1, [r7, #8]
 134 000a 1346     		mov	r3, r2
 135 000c FB80     		strh	r3, [r7, #6]	@ movhi
 110:Serial.c      **** unsigned short usIndex = 0;
 136              		.loc 1 110 0
 137 000e 0023     		movs	r3, #0
 138 0010 FB82     		strh	r3, [r7, #22]	@ movhi
 111:Serial.c      **** 
 112:Serial.c      **** 	for( usIndex = 0; usIndex < usStringLength; usIndex++ )
 139              		.loc 1 112 0
 140 0012 0023     		movs	r3, #0
 141 0014 FB82     		strh	r3, [r7, #22]	@ movhi
 142 0016 14E0     		b	.L8
 143              	.L11:
 113:Serial.c      **** 	{
 114:Serial.c      **** 		/* Check for pre-mature end of line. */
 115:Serial.c      **** 		if( '\0' == pcString[ usIndex ] )
 144              		.loc 1 115 0
 145 0018 FB8A     		ldrh	r3, [r7, #22]
 146 001a BA68     		ldr	r2, [r7, #8]
 147 001c 1344     		add	r3, r3, r2
 148 001e 1B78     		ldrb	r3, [r3]	@ zero_extendqisi2
 149 0020 002B     		cmp	r3, #0
 150 0022 00D1     		bne	.L9
 116:Serial.c      **** 		{
 117:Serial.c      **** 			break;
 151              		.loc 1 117 0
 152 0024 11E0     		b	.L7
 153              	.L9:
 118:Serial.c      **** 		}
 119:Serial.c      **** 		
 120:Serial.c      **** 		/* Send out, one character at a time. */
 121:Serial.c      **** 		if( pdTRUE != xSerialPutChar( NULL, pcString[ usIndex ], serialSTRING_DELAY_TICKS ) )
 154              		.loc 1 121 0
 155 0026 FB8A     		ldrh	r3, [r7, #22]
 156 0028 BA68     		ldr	r2, [r7, #8]
 157 002a 1344     		add	r3, r3, r2
 158 002c 1B78     		ldrb	r3, [r3]	@ zero_extendqisi2
 159 002e 5BB2     		sxtb	r3, r3
 160 0030 0020     		movs	r0, #0
 161 0032 1946     		mov	r1, r3
 162 0034 4FF0FF32 		mov	r2, #-1
 163 0038 FFF7FEFF 		bl	xSerialPutChar
 112:Serial.c      **** 	{
ARM GAS  C:\Users\bmt\AppData\Local\Temp\ccyp4MuE.s 			page 6


 164              		.loc 1 112 0
 165 003c FB8A     		ldrh	r3, [r7, #22]
 166 003e 0133     		adds	r3, r3, #1
 167 0040 FB82     		strh	r3, [r7, #22]	@ movhi
 168              	.L8:
 112:Serial.c      **** 	{
 169              		.loc 1 112 0 is_stmt 0 discriminator 1
 170 0042 FA8A     		ldrh	r2, [r7, #22]
 171 0044 FB88     		ldrh	r3, [r7, #6]
 172 0046 9A42     		cmp	r2, r3
 173 0048 E6D3     		bcc	.L11
 174              	.L7:
 122:Serial.c      **** 		{
 123:Serial.c      **** 			/* Failed to send, this will be picked up in the receive comtest task. */
 124:Serial.c      **** 		}
 125:Serial.c      **** 	}
 126:Serial.c      **** }
 175              		.loc 1 126 0 is_stmt 1
 176 004a 1837     		adds	r7, r7, #24
 177              		.cfi_def_cfa_offset 8
 178 004c BD46     		mov	sp, r7
 179              		.cfi_def_cfa_register 13
 180              		@ sp needed
 181 004e 80BD     		pop	{r7, pc}
 182              		.cfi_endproc
 183              	.LFE69:
 184              		.size	vSerialPutString, .-vSerialPutString
 185              		.section	.text.xSerialGetChar,"ax",%progbits
 186              		.align	2
 187              		.global	xSerialGetChar
 188              		.thumb
 189              		.thumb_func
 190              		.type	xSerialGetChar, %function
 191              	xSerialGetChar:
 192              	.LFB70:
 127:Serial.c      **** /*---------------------------------------------------------------------------*/
 128:Serial.c      **** 
 129:Serial.c      **** signed portBASE_TYPE xSerialGetChar( xComPortHandle pxPort, signed char *pcRxedChar, TickType_t xBl
 130:Serial.c      **** {
 193              		.loc 1 130 0
 194              		.cfi_startproc
 195              		@ args = 0, pretend = 0, frame = 24
 196              		@ frame_needed = 1, uses_anonymous_args = 0
 197 0000 80B5     		push	{r7, lr}
 198              		.cfi_def_cfa_offset 8
 199              		.cfi_offset 7, -8
 200              		.cfi_offset 14, -4
 201 0002 86B0     		sub	sp, sp, #24
 202              		.cfi_def_cfa_offset 32
 203 0004 00AF     		add	r7, sp, #0
 204              		.cfi_def_cfa_register 7
 205 0006 F860     		str	r0, [r7, #12]
 206 0008 B960     		str	r1, [r7, #8]
 207 000a 7A60     		str	r2, [r7, #4]
 131:Serial.c      **** portBASE_TYPE xReturn = pdFALSE;
 208              		.loc 1 131 0
 209 000c 0023     		movs	r3, #0
ARM GAS  C:\Users\bmt\AppData\Local\Temp\ccyp4MuE.s 			page 7


 210 000e 7B61     		str	r3, [r7, #20]
 132:Serial.c      **** 
 133:Serial.c      **** 	if( pdTRUE == xQueueReceive( xSerialRxQueue, pcRxedChar, xBlockTime ) )
 211              		.loc 1 133 0
 212 0010 084B     		ldr	r3, .L15
 213 0012 1B68     		ldr	r3, [r3]
 214 0014 1846     		mov	r0, r3
 215 0016 B968     		ldr	r1, [r7, #8]
 216 0018 7A68     		ldr	r2, [r7, #4]
 217 001a 0023     		movs	r3, #0
 218 001c FFF7FEFF 		bl	xQueueGenericReceive
 219 0020 0346     		mov	r3, r0
 220 0022 012B     		cmp	r3, #1
 221 0024 01D1     		bne	.L13
 134:Serial.c      **** 	{
 135:Serial.c      **** 		/* Picked up a character. */
 136:Serial.c      **** 		xReturn = pdTRUE;
 222              		.loc 1 136 0
 223 0026 0123     		movs	r3, #1
 224 0028 7B61     		str	r3, [r7, #20]
 225              	.L13:
 137:Serial.c      **** 	}
 138:Serial.c      **** 	return xReturn;
 226              		.loc 1 138 0
 227 002a 7B69     		ldr	r3, [r7, #20]
 139:Serial.c      **** }
 228              		.loc 1 139 0
 229 002c 1846     		mov	r0, r3
 230 002e 1837     		adds	r7, r7, #24
 231              		.cfi_def_cfa_offset 8
 232 0030 BD46     		mov	sp, r7
 233              		.cfi_def_cfa_register 13
 234              		@ sp needed
 235 0032 80BD     		pop	{r7, pc}
 236              	.L16:
 237              		.align	2
 238              	.L15:
 239 0034 04000000 		.word	xSerialRxQueue
 240              		.cfi_endproc
 241              	.LFE70:
 242              		.size	xSerialGetChar, .-xSerialGetChar
 243              		.section	.text.xSerialPutChar,"ax",%progbits
 244              		.align	2
 245              		.global	xSerialPutChar
 246              		.thumb
 247              		.thumb_func
 248              		.type	xSerialPutChar, %function
 249              	xSerialPutChar:
 250              	.LFB71:
 140:Serial.c      **** /*---------------------------------------------------------------------------*/
 141:Serial.c      **** 
 142:Serial.c      **** signed portBASE_TYPE xSerialPutChar( xComPortHandle pxPort, signed char cOutChar, TickType_t xBlock
 143:Serial.c      **** {
 251              		.loc 1 143 0
 252              		.cfi_startproc
 253              		@ args = 0, pretend = 0, frame = 24
 254              		@ frame_needed = 1, uses_anonymous_args = 0
ARM GAS  C:\Users\bmt\AppData\Local\Temp\ccyp4MuE.s 			page 8


 255 0000 80B5     		push	{r7, lr}
 256              		.cfi_def_cfa_offset 8
 257              		.cfi_offset 7, -8
 258              		.cfi_offset 14, -4
 259 0002 86B0     		sub	sp, sp, #24
 260              		.cfi_def_cfa_offset 32
 261 0004 00AF     		add	r7, sp, #0
 262              		.cfi_def_cfa_register 7
 263 0006 F860     		str	r0, [r7, #12]
 264 0008 0B46     		mov	r3, r1
 265 000a 7A60     		str	r2, [r7, #4]
 266 000c FB72     		strb	r3, [r7, #11]
 144:Serial.c      **** portBASE_TYPE xReturn = pdFALSE;
 267              		.loc 1 144 0
 268 000e 0023     		movs	r3, #0
 269 0010 7B61     		str	r3, [r7, #20]
 145:Serial.c      **** 
 146:Serial.c      **** 	/* The ISR is processing characters is so just add to the end of the queue. */
 147:Serial.c      **** 	if( pdTRUE == xQueueSend( xSerialTxQueue, &cOutChar, xBlockTime ) )
 270              		.loc 1 147 0
 271 0012 0F4B     		ldr	r3, .L21
 272 0014 1A68     		ldr	r2, [r3]
 273 0016 07F10B03 		add	r3, r7, #11
 274 001a 1046     		mov	r0, r2
 275 001c 1946     		mov	r1, r3
 276 001e 7A68     		ldr	r2, [r7, #4]
 277 0020 0023     		movs	r3, #0
 278 0022 FFF7FEFF 		bl	xQueueGenericSend
 279 0026 0346     		mov	r3, r0
 280 0028 012B     		cmp	r3, #1
 281 002a 02D1     		bne	.L18
 148:Serial.c      **** 	{	
 149:Serial.c      **** 		xReturn = pdTRUE;
 282              		.loc 1 149 0
 283 002c 0123     		movs	r3, #1
 284 002e 7B61     		str	r3, [r7, #20]
 285 0030 01E0     		b	.L19
 286              	.L18:
 150:Serial.c      **** 	}
 151:Serial.c      **** 	else
 152:Serial.c      **** 	{
 153:Serial.c      **** 		/* The queue is probably full. */
 154:Serial.c      **** 		xReturn = pdFALSE;
 287              		.loc 1 154 0
 288 0032 0023     		movs	r3, #0
 289 0034 7B61     		str	r3, [r7, #20]
 290              	.L19:
 155:Serial.c      **** 	}
 156:Serial.c      **** 
 157:Serial.c      **** 	/* Make sure that the interrupt will fire in the case where:
 158:Serial.c      **** 	    Currently sending so the Tx Complete will fire.
 159:Serial.c      **** 	    Not sending so the Empty will fire.	*/
 160:Serial.c      **** 	taskENTER_CRITICAL();
 291              		.loc 1 160 0
 292 0036 FFF7FEFF 		bl	vPortEnterCritical
 161:Serial.c      **** 		UART_1_SetTxInterruptMode( UART_1_TX_STS_COMPLETE | UART_1_TX_STS_FIFO_EMPTY );
 293              		.loc 1 161 0
ARM GAS  C:\Users\bmt\AppData\Local\Temp\ccyp4MuE.s 			page 9


 294 003a 0320     		movs	r0, #3
 295 003c FFF7FEFF 		bl	UART_1_SetTxInterruptMode
 162:Serial.c      **** 	taskEXIT_CRITICAL();
 296              		.loc 1 162 0
 297 0040 FFF7FEFF 		bl	vPortExitCritical
 163:Serial.c      **** 	
 164:Serial.c      **** 	return xReturn;
 298              		.loc 1 164 0
 299 0044 7B69     		ldr	r3, [r7, #20]
 165:Serial.c      **** }
 300              		.loc 1 165 0
 301 0046 1846     		mov	r0, r3
 302 0048 1837     		adds	r7, r7, #24
 303              		.cfi_def_cfa_offset 8
 304 004a BD46     		mov	sp, r7
 305              		.cfi_def_cfa_register 13
 306              		@ sp needed
 307 004c 80BD     		pop	{r7, pc}
 308              	.L22:
 309 004e 00BF     		.align	2
 310              	.L21:
 311 0050 00000000 		.word	xSerialTxQueue
 312              		.cfi_endproc
 313              	.LFE71:
 314              		.size	xSerialPutChar, .-xSerialPutChar
 315              		.section	.text.vUartRxISR,"ax",%progbits
 316              		.align	2
 317              		.global	vUartRxISR
 318              		.thumb
 319              		.thumb_func
 320              		.type	vUartRxISR, %function
 321              	vUartRxISR:
 322              	.LFB72:
 166:Serial.c      **** /*---------------------------------------------------------------------------*/
 167:Serial.c      **** 
 168:Serial.c      **** CY_ISR(vUartRxISR)
 169:Serial.c      **** {
 323              		.loc 1 169 0
 324              		.cfi_startproc
 325              		@ args = 0, pretend = 0, frame = 24
 326              		@ frame_needed = 1, uses_anonymous_args = 0
 327 0000 80B5     		push	{r7, lr}
 328              		.cfi_def_cfa_offset 8
 329              		.cfi_offset 7, -8
 330              		.cfi_offset 14, -4
 331 0002 86B0     		sub	sp, sp, #24
 332              		.cfi_def_cfa_offset 32
 333 0004 00AF     		add	r7, sp, #0
 334              		.cfi_def_cfa_register 7
 170:Serial.c      **** portBASE_TYPE xHigherPriorityTaskWoken = pdFALSE;
 335              		.loc 1 170 0
 336 0006 0023     		movs	r3, #0
 337 0008 7B60     		str	r3, [r7, #4]
 171:Serial.c      **** volatile unsigned char ucStatus = 0;
 338              		.loc 1 171 0
 339 000a 0023     		movs	r3, #0
 340 000c FB70     		strb	r3, [r7, #3]
ARM GAS  C:\Users\bmt\AppData\Local\Temp\ccyp4MuE.s 			page 10


 172:Serial.c      **** signed char cInChar = 0;
 341              		.loc 1 172 0
 342 000e 0023     		movs	r3, #0
 343 0010 BB70     		strb	r3, [r7, #2]
 173:Serial.c      **** unsigned long ulMask = 0;
 344              		.loc 1 173 0
 345 0012 0023     		movs	r3, #0
 346 0014 7B61     		str	r3, [r7, #20]
 174:Serial.c      **** 
 175:Serial.c      **** 	/* Read the status to acknowledge. */
 176:Serial.c      **** 	ucStatus = UART_1_ReadRxStatus();
 347              		.loc 1 176 0
 348 0016 FFF7FEFF 		bl	UART_1_ReadRxStatus
 349 001a 0346     		mov	r3, r0
 350 001c FB70     		strb	r3, [r7, #3]
 177:Serial.c      **** 
 178:Serial.c      **** 	/* Only interested in a character being received. */
 179:Serial.c      **** 	if( 0 != ( ucStatus & UART_1_RX_STS_FIFO_NOTEMPTY ) )
 351              		.loc 1 179 0
 352 001e FB78     		ldrb	r3, [r7, #3]
 353 0020 DBB2     		uxtb	r3, r3
 354 0022 03F02003 		and	r3, r3, #32
 355 0026 002B     		cmp	r3, #0
 356 0028 21D0     		beq	.L24
 180:Serial.c      **** 	{
 181:Serial.c      **** 		/* Get the character. */
 182:Serial.c      **** 		cInChar = UART_1_GetChar();
 357              		.loc 1 182 0
 358 002a FFF7FEFF 		bl	UART_1_GetChar
 359 002e 0346     		mov	r3, r0
 360 0030 DBB2     		uxtb	r3, r3
 361 0032 BB70     		strb	r3, [r7, #2]
 362              	.LBB10:
 363              	.LBB11:
 364              		.file 2 "..\\Source\\portable\\GCC\\ARM_CM3/portmacro.h"
   1:..\Source\portable\GCC\ARM_CM3/portmacro.h **** /*
   2:..\Source\portable\GCC\ARM_CM3/portmacro.h ****     FreeRTOS V9.0.0 - Copyright (C) 2016 Real Time Engineers Ltd.
   3:..\Source\portable\GCC\ARM_CM3/portmacro.h ****     All rights reserved
   4:..\Source\portable\GCC\ARM_CM3/portmacro.h **** 
   5:..\Source\portable\GCC\ARM_CM3/portmacro.h ****     VISIT http://www.FreeRTOS.org TO ENSURE YOU ARE USING THE LATEST VERSION.
   6:..\Source\portable\GCC\ARM_CM3/portmacro.h **** 
   7:..\Source\portable\GCC\ARM_CM3/portmacro.h ****     This file is part of the FreeRTOS distribution.
   8:..\Source\portable\GCC\ARM_CM3/portmacro.h **** 
   9:..\Source\portable\GCC\ARM_CM3/portmacro.h ****     FreeRTOS is free software; you can redistribute it and/or modify it under
  10:..\Source\portable\GCC\ARM_CM3/portmacro.h ****     the terms of the GNU General Public License (version 2) as published by the
  11:..\Source\portable\GCC\ARM_CM3/portmacro.h ****     Free Software Foundation >>>> AND MODIFIED BY <<<< the FreeRTOS exception.
  12:..\Source\portable\GCC\ARM_CM3/portmacro.h **** 
  13:..\Source\portable\GCC\ARM_CM3/portmacro.h ****     ***************************************************************************
  14:..\Source\portable\GCC\ARM_CM3/portmacro.h ****     >>!   NOTE: The modification to the GPL is included to allow you to     !<<
  15:..\Source\portable\GCC\ARM_CM3/portmacro.h ****     >>!   distribute a combined work that includes FreeRTOS without being   !<<
  16:..\Source\portable\GCC\ARM_CM3/portmacro.h ****     >>!   obliged to provide the source code for proprietary components     !<<
  17:..\Source\portable\GCC\ARM_CM3/portmacro.h ****     >>!   outside of the FreeRTOS kernel.                                   !<<
  18:..\Source\portable\GCC\ARM_CM3/portmacro.h ****     ***************************************************************************
  19:..\Source\portable\GCC\ARM_CM3/portmacro.h **** 
  20:..\Source\portable\GCC\ARM_CM3/portmacro.h ****     FreeRTOS is distributed in the hope that it will be useful, but WITHOUT ANY
  21:..\Source\portable\GCC\ARM_CM3/portmacro.h ****     WARRANTY; without even the implied warranty of MERCHANTABILITY or FITNESS
  22:..\Source\portable\GCC\ARM_CM3/portmacro.h ****     FOR A PARTICULAR PURPOSE.  Full license text is available on the following
ARM GAS  C:\Users\bmt\AppData\Local\Temp\ccyp4MuE.s 			page 11


  23:..\Source\portable\GCC\ARM_CM3/portmacro.h ****     link: http://www.freertos.org/a00114.html
  24:..\Source\portable\GCC\ARM_CM3/portmacro.h **** 
  25:..\Source\portable\GCC\ARM_CM3/portmacro.h ****     ***************************************************************************
  26:..\Source\portable\GCC\ARM_CM3/portmacro.h ****      *                                                                       *
  27:..\Source\portable\GCC\ARM_CM3/portmacro.h ****      *    FreeRTOS provides completely free yet professionally developed,    *
  28:..\Source\portable\GCC\ARM_CM3/portmacro.h ****      *    robust, strictly quality controlled, supported, and cross          *
  29:..\Source\portable\GCC\ARM_CM3/portmacro.h ****      *    platform software that is more than just the market leader, it     *
  30:..\Source\portable\GCC\ARM_CM3/portmacro.h ****      *    is the industry's de facto standard.                               *
  31:..\Source\portable\GCC\ARM_CM3/portmacro.h ****      *                                                                       *
  32:..\Source\portable\GCC\ARM_CM3/portmacro.h ****      *    Help yourself get started quickly while simultaneously helping     *
  33:..\Source\portable\GCC\ARM_CM3/portmacro.h ****      *    to support the FreeRTOS project by purchasing a FreeRTOS           *
  34:..\Source\portable\GCC\ARM_CM3/portmacro.h ****      *    tutorial book, reference manual, or both:                          *
  35:..\Source\portable\GCC\ARM_CM3/portmacro.h ****      *    http://www.FreeRTOS.org/Documentation                              *
  36:..\Source\portable\GCC\ARM_CM3/portmacro.h ****      *                                                                       *
  37:..\Source\portable\GCC\ARM_CM3/portmacro.h ****     ***************************************************************************
  38:..\Source\portable\GCC\ARM_CM3/portmacro.h **** 
  39:..\Source\portable\GCC\ARM_CM3/portmacro.h ****     http://www.FreeRTOS.org/FAQHelp.html - Having a problem?  Start by reading
  40:..\Source\portable\GCC\ARM_CM3/portmacro.h ****     the FAQ page "My application does not run, what could be wrong?".  Have you
  41:..\Source\portable\GCC\ARM_CM3/portmacro.h ****     defined configASSERT()?
  42:..\Source\portable\GCC\ARM_CM3/portmacro.h **** 
  43:..\Source\portable\GCC\ARM_CM3/portmacro.h ****     http://www.FreeRTOS.org/support - In return for receiving this top quality
  44:..\Source\portable\GCC\ARM_CM3/portmacro.h ****     embedded software for free we request you assist our global community by
  45:..\Source\portable\GCC\ARM_CM3/portmacro.h ****     participating in the support forum.
  46:..\Source\portable\GCC\ARM_CM3/portmacro.h **** 
  47:..\Source\portable\GCC\ARM_CM3/portmacro.h ****     http://www.FreeRTOS.org/training - Investing in training allows your team to
  48:..\Source\portable\GCC\ARM_CM3/portmacro.h ****     be as productive as possible as early as possible.  Now you can receive
  49:..\Source\portable\GCC\ARM_CM3/portmacro.h ****     FreeRTOS training directly from Richard Barry, CEO of Real Time Engineers
  50:..\Source\portable\GCC\ARM_CM3/portmacro.h ****     Ltd, and the world's leading authority on the world's leading RTOS.
  51:..\Source\portable\GCC\ARM_CM3/portmacro.h **** 
  52:..\Source\portable\GCC\ARM_CM3/portmacro.h ****     http://www.FreeRTOS.org/plus - A selection of FreeRTOS ecosystem products,
  53:..\Source\portable\GCC\ARM_CM3/portmacro.h ****     including FreeRTOS+Trace - an indispensable productivity tool, a DOS
  54:..\Source\portable\GCC\ARM_CM3/portmacro.h ****     compatible FAT file system, and our tiny thread aware UDP/IP stack.
  55:..\Source\portable\GCC\ARM_CM3/portmacro.h **** 
  56:..\Source\portable\GCC\ARM_CM3/portmacro.h ****     http://www.FreeRTOS.org/labs - Where new FreeRTOS products go to incubate.
  57:..\Source\portable\GCC\ARM_CM3/portmacro.h ****     Come and try FreeRTOS+TCP, our new open source TCP/IP stack for FreeRTOS.
  58:..\Source\portable\GCC\ARM_CM3/portmacro.h **** 
  59:..\Source\portable\GCC\ARM_CM3/portmacro.h ****     http://www.OpenRTOS.com - Real Time Engineers ltd. license FreeRTOS to High
  60:..\Source\portable\GCC\ARM_CM3/portmacro.h ****     Integrity Systems ltd. to sell under the OpenRTOS brand.  Low cost OpenRTOS
  61:..\Source\portable\GCC\ARM_CM3/portmacro.h ****     licenses offer ticketed support, indemnification and commercial middleware.
  62:..\Source\portable\GCC\ARM_CM3/portmacro.h **** 
  63:..\Source\portable\GCC\ARM_CM3/portmacro.h ****     http://www.SafeRTOS.com - High Integrity Systems also provide a safety
  64:..\Source\portable\GCC\ARM_CM3/portmacro.h ****     engineered and independently SIL3 certified version for use in safety and
  65:..\Source\portable\GCC\ARM_CM3/portmacro.h ****     mission critical applications that require provable dependability.
  66:..\Source\portable\GCC\ARM_CM3/portmacro.h **** 
  67:..\Source\portable\GCC\ARM_CM3/portmacro.h ****     1 tab == 4 spaces!
  68:..\Source\portable\GCC\ARM_CM3/portmacro.h **** */
  69:..\Source\portable\GCC\ARM_CM3/portmacro.h **** 
  70:..\Source\portable\GCC\ARM_CM3/portmacro.h **** 
  71:..\Source\portable\GCC\ARM_CM3/portmacro.h **** #ifndef PORTMACRO_H
  72:..\Source\portable\GCC\ARM_CM3/portmacro.h **** #define PORTMACRO_H
  73:..\Source\portable\GCC\ARM_CM3/portmacro.h **** 
  74:..\Source\portable\GCC\ARM_CM3/portmacro.h **** #ifdef __cplusplus
  75:..\Source\portable\GCC\ARM_CM3/portmacro.h **** extern "C" {
  76:..\Source\portable\GCC\ARM_CM3/portmacro.h **** #endif
  77:..\Source\portable\GCC\ARM_CM3/portmacro.h **** 
  78:..\Source\portable\GCC\ARM_CM3/portmacro.h **** /*-----------------------------------------------------------
  79:..\Source\portable\GCC\ARM_CM3/portmacro.h ****  * Port specific definitions.
ARM GAS  C:\Users\bmt\AppData\Local\Temp\ccyp4MuE.s 			page 12


  80:..\Source\portable\GCC\ARM_CM3/portmacro.h ****  *
  81:..\Source\portable\GCC\ARM_CM3/portmacro.h ****  * The settings in this file configure FreeRTOS correctly for the
  82:..\Source\portable\GCC\ARM_CM3/portmacro.h ****  * given hardware and compiler.
  83:..\Source\portable\GCC\ARM_CM3/portmacro.h ****  *
  84:..\Source\portable\GCC\ARM_CM3/portmacro.h ****  * These settings should not be altered.
  85:..\Source\portable\GCC\ARM_CM3/portmacro.h ****  *-----------------------------------------------------------
  86:..\Source\portable\GCC\ARM_CM3/portmacro.h ****  */
  87:..\Source\portable\GCC\ARM_CM3/portmacro.h **** 
  88:..\Source\portable\GCC\ARM_CM3/portmacro.h **** /* Type definitions. */
  89:..\Source\portable\GCC\ARM_CM3/portmacro.h **** #define portCHAR		char
  90:..\Source\portable\GCC\ARM_CM3/portmacro.h **** #define portFLOAT		float
  91:..\Source\portable\GCC\ARM_CM3/portmacro.h **** #define portDOUBLE		double
  92:..\Source\portable\GCC\ARM_CM3/portmacro.h **** #define portLONG		long
  93:..\Source\portable\GCC\ARM_CM3/portmacro.h **** #define portSHORT		short
  94:..\Source\portable\GCC\ARM_CM3/portmacro.h **** #define portSTACK_TYPE	uint32_t
  95:..\Source\portable\GCC\ARM_CM3/portmacro.h **** #define portBASE_TYPE	long
  96:..\Source\portable\GCC\ARM_CM3/portmacro.h **** 
  97:..\Source\portable\GCC\ARM_CM3/portmacro.h **** typedef portSTACK_TYPE StackType_t;
  98:..\Source\portable\GCC\ARM_CM3/portmacro.h **** typedef long BaseType_t;
  99:..\Source\portable\GCC\ARM_CM3/portmacro.h **** typedef unsigned long UBaseType_t;
 100:..\Source\portable\GCC\ARM_CM3/portmacro.h **** 
 101:..\Source\portable\GCC\ARM_CM3/portmacro.h **** #if( configUSE_16_BIT_TICKS == 1 )
 102:..\Source\portable\GCC\ARM_CM3/portmacro.h **** 	typedef uint16_t TickType_t;
 103:..\Source\portable\GCC\ARM_CM3/portmacro.h **** 	#define portMAX_DELAY ( TickType_t ) 0xffff
 104:..\Source\portable\GCC\ARM_CM3/portmacro.h **** #else
 105:..\Source\portable\GCC\ARM_CM3/portmacro.h **** 	typedef uint32_t TickType_t;
 106:..\Source\portable\GCC\ARM_CM3/portmacro.h **** 	#define portMAX_DELAY ( TickType_t ) 0xffffffffUL
 107:..\Source\portable\GCC\ARM_CM3/portmacro.h **** 
 108:..\Source\portable\GCC\ARM_CM3/portmacro.h **** 	/* 32-bit tick type on a 32-bit architecture, so reads of the tick count do
 109:..\Source\portable\GCC\ARM_CM3/portmacro.h **** 	not need to be guarded with a critical section. */
 110:..\Source\portable\GCC\ARM_CM3/portmacro.h **** 	#define portTICK_TYPE_IS_ATOMIC 1
 111:..\Source\portable\GCC\ARM_CM3/portmacro.h **** #endif
 112:..\Source\portable\GCC\ARM_CM3/portmacro.h **** /*-----------------------------------------------------------*/
 113:..\Source\portable\GCC\ARM_CM3/portmacro.h **** 
 114:..\Source\portable\GCC\ARM_CM3/portmacro.h **** /* Architecture specifics. */
 115:..\Source\portable\GCC\ARM_CM3/portmacro.h **** #define portSTACK_GROWTH			( -1 )
 116:..\Source\portable\GCC\ARM_CM3/portmacro.h **** #define portTICK_PERIOD_MS			( ( TickType_t ) 1000 / configTICK_RATE_HZ )
 117:..\Source\portable\GCC\ARM_CM3/portmacro.h **** #define portBYTE_ALIGNMENT			8
 118:..\Source\portable\GCC\ARM_CM3/portmacro.h **** /*-----------------------------------------------------------*/
 119:..\Source\portable\GCC\ARM_CM3/portmacro.h **** 
 120:..\Source\portable\GCC\ARM_CM3/portmacro.h **** /* Scheduler utilities. */
 121:..\Source\portable\GCC\ARM_CM3/portmacro.h **** #define portYIELD() 															\
 122:..\Source\portable\GCC\ARM_CM3/portmacro.h **** {																				\
 123:..\Source\portable\GCC\ARM_CM3/portmacro.h **** 	/* Set a PendSV to request a context switch. */								\
 124:..\Source\portable\GCC\ARM_CM3/portmacro.h **** 	portNVIC_INT_CTRL_REG = portNVIC_PENDSVSET_BIT;								\
 125:..\Source\portable\GCC\ARM_CM3/portmacro.h **** 																				\
 126:..\Source\portable\GCC\ARM_CM3/portmacro.h **** 	/* Barriers are normally not required but do ensure the code is completely	\
 127:..\Source\portable\GCC\ARM_CM3/portmacro.h **** 	within the specified behaviour for the architecture. */						\
 128:..\Source\portable\GCC\ARM_CM3/portmacro.h **** 	__asm volatile( "dsb" );													\
 129:..\Source\portable\GCC\ARM_CM3/portmacro.h **** 	__asm volatile( "isb" );													\
 130:..\Source\portable\GCC\ARM_CM3/portmacro.h **** }
 131:..\Source\portable\GCC\ARM_CM3/portmacro.h **** 
 132:..\Source\portable\GCC\ARM_CM3/portmacro.h **** #define portNVIC_INT_CTRL_REG		( * ( ( volatile uint32_t * ) 0xe000ed04 ) )
 133:..\Source\portable\GCC\ARM_CM3/portmacro.h **** #define portNVIC_PENDSVSET_BIT		( 1UL << 28UL )
 134:..\Source\portable\GCC\ARM_CM3/portmacro.h **** #define portEND_SWITCHING_ISR( xSwitchRequired ) if( xSwitchRequired != pdFALSE ) portYIELD()
 135:..\Source\portable\GCC\ARM_CM3/portmacro.h **** #define portYIELD_FROM_ISR( x ) portEND_SWITCHING_ISR( x )
 136:..\Source\portable\GCC\ARM_CM3/portmacro.h **** /*-----------------------------------------------------------*/
ARM GAS  C:\Users\bmt\AppData\Local\Temp\ccyp4MuE.s 			page 13


 137:..\Source\portable\GCC\ARM_CM3/portmacro.h **** 
 138:..\Source\portable\GCC\ARM_CM3/portmacro.h **** /* Critical section management. */
 139:..\Source\portable\GCC\ARM_CM3/portmacro.h **** extern void vPortEnterCritical( void );
 140:..\Source\portable\GCC\ARM_CM3/portmacro.h **** extern void vPortExitCritical( void );
 141:..\Source\portable\GCC\ARM_CM3/portmacro.h **** #define portSET_INTERRUPT_MASK_FROM_ISR()		ulPortRaiseBASEPRI()
 142:..\Source\portable\GCC\ARM_CM3/portmacro.h **** #define portCLEAR_INTERRUPT_MASK_FROM_ISR(x)	vPortSetBASEPRI(x)
 143:..\Source\portable\GCC\ARM_CM3/portmacro.h **** #define portDISABLE_INTERRUPTS()				vPortRaiseBASEPRI()
 144:..\Source\portable\GCC\ARM_CM3/portmacro.h **** #define portENABLE_INTERRUPTS()					vPortSetBASEPRI(0)
 145:..\Source\portable\GCC\ARM_CM3/portmacro.h **** #define portENTER_CRITICAL()					vPortEnterCritical()
 146:..\Source\portable\GCC\ARM_CM3/portmacro.h **** #define portEXIT_CRITICAL()						vPortExitCritical()
 147:..\Source\portable\GCC\ARM_CM3/portmacro.h **** 
 148:..\Source\portable\GCC\ARM_CM3/portmacro.h **** /*-----------------------------------------------------------*/
 149:..\Source\portable\GCC\ARM_CM3/portmacro.h **** 
 150:..\Source\portable\GCC\ARM_CM3/portmacro.h **** /* Task function macros as described on the FreeRTOS.org WEB site.  These are
 151:..\Source\portable\GCC\ARM_CM3/portmacro.h **** not necessary for to use this port.  They are defined so the common demo files
 152:..\Source\portable\GCC\ARM_CM3/portmacro.h **** (which build with all the ports) will build. */
 153:..\Source\portable\GCC\ARM_CM3/portmacro.h **** #define portTASK_FUNCTION_PROTO( vFunction, pvParameters ) void vFunction( void *pvParameters )
 154:..\Source\portable\GCC\ARM_CM3/portmacro.h **** #define portTASK_FUNCTION( vFunction, pvParameters ) void vFunction( void *pvParameters )
 155:..\Source\portable\GCC\ARM_CM3/portmacro.h **** /*-----------------------------------------------------------*/
 156:..\Source\portable\GCC\ARM_CM3/portmacro.h **** 
 157:..\Source\portable\GCC\ARM_CM3/portmacro.h **** /* Tickless idle/low power functionality. */
 158:..\Source\portable\GCC\ARM_CM3/portmacro.h **** #ifndef portSUPPRESS_TICKS_AND_SLEEP
 159:..\Source\portable\GCC\ARM_CM3/portmacro.h **** 	extern void vPortSuppressTicksAndSleep( TickType_t xExpectedIdleTime );
 160:..\Source\portable\GCC\ARM_CM3/portmacro.h **** 	#define portSUPPRESS_TICKS_AND_SLEEP( xExpectedIdleTime ) vPortSuppressTicksAndSleep( xExpectedIdl
 161:..\Source\portable\GCC\ARM_CM3/portmacro.h **** #endif
 162:..\Source\portable\GCC\ARM_CM3/portmacro.h **** /*-----------------------------------------------------------*/
 163:..\Source\portable\GCC\ARM_CM3/portmacro.h **** 
 164:..\Source\portable\GCC\ARM_CM3/portmacro.h **** /* Architecture specific optimisations. */
 165:..\Source\portable\GCC\ARM_CM3/portmacro.h **** #ifndef configUSE_PORT_OPTIMISED_TASK_SELECTION
 166:..\Source\portable\GCC\ARM_CM3/portmacro.h **** 	#define configUSE_PORT_OPTIMISED_TASK_SELECTION 1
 167:..\Source\portable\GCC\ARM_CM3/portmacro.h **** #endif
 168:..\Source\portable\GCC\ARM_CM3/portmacro.h **** 
 169:..\Source\portable\GCC\ARM_CM3/portmacro.h **** #if configUSE_PORT_OPTIMISED_TASK_SELECTION == 1
 170:..\Source\portable\GCC\ARM_CM3/portmacro.h **** 
 171:..\Source\portable\GCC\ARM_CM3/portmacro.h **** 	/* Generic helper function. */
 172:..\Source\portable\GCC\ARM_CM3/portmacro.h **** 	__attribute__( ( always_inline ) ) static inline uint8_t ucPortCountLeadingZeros( uint32_t ulBitma
 173:..\Source\portable\GCC\ARM_CM3/portmacro.h **** 	{
 174:..\Source\portable\GCC\ARM_CM3/portmacro.h **** 	uint8_t ucReturn;
 175:..\Source\portable\GCC\ARM_CM3/portmacro.h **** 
 176:..\Source\portable\GCC\ARM_CM3/portmacro.h **** 		__asm volatile ( "clz %0, %1" : "=r" ( ucReturn ) : "r" ( ulBitmap ) );
 177:..\Source\portable\GCC\ARM_CM3/portmacro.h **** 		return ucReturn;
 178:..\Source\portable\GCC\ARM_CM3/portmacro.h **** 	}
 179:..\Source\portable\GCC\ARM_CM3/portmacro.h **** 
 180:..\Source\portable\GCC\ARM_CM3/portmacro.h **** 	/* Check the configuration. */
 181:..\Source\portable\GCC\ARM_CM3/portmacro.h **** 	#if( configMAX_PRIORITIES > 32 )
 182:..\Source\portable\GCC\ARM_CM3/portmacro.h **** 		#error configUSE_PORT_OPTIMISED_TASK_SELECTION can only be set to 1 when configMAX_PRIORITIES is 
 183:..\Source\portable\GCC\ARM_CM3/portmacro.h **** 	#endif
 184:..\Source\portable\GCC\ARM_CM3/portmacro.h **** 
 185:..\Source\portable\GCC\ARM_CM3/portmacro.h **** 	/* Store/clear the ready priorities in a bit map. */
 186:..\Source\portable\GCC\ARM_CM3/portmacro.h **** 	#define portRECORD_READY_PRIORITY( uxPriority, uxReadyPriorities ) ( uxReadyPriorities ) |= ( 1UL 
 187:..\Source\portable\GCC\ARM_CM3/portmacro.h **** 	#define portRESET_READY_PRIORITY( uxPriority, uxReadyPriorities ) ( uxReadyPriorities ) &= ~( 1UL 
 188:..\Source\portable\GCC\ARM_CM3/portmacro.h **** 
 189:..\Source\portable\GCC\ARM_CM3/portmacro.h **** 	/*-----------------------------------------------------------*/
 190:..\Source\portable\GCC\ARM_CM3/portmacro.h **** 
 191:..\Source\portable\GCC\ARM_CM3/portmacro.h **** 	#define portGET_HIGHEST_PRIORITY( uxTopPriority, uxReadyPriorities ) uxTopPriority = ( 31UL - ( ui
 192:..\Source\portable\GCC\ARM_CM3/portmacro.h **** 
 193:..\Source\portable\GCC\ARM_CM3/portmacro.h **** #endif /* configUSE_PORT_OPTIMISED_TASK_SELECTION */
ARM GAS  C:\Users\bmt\AppData\Local\Temp\ccyp4MuE.s 			page 14


 194:..\Source\portable\GCC\ARM_CM3/portmacro.h **** 
 195:..\Source\portable\GCC\ARM_CM3/portmacro.h **** /*-----------------------------------------------------------*/
 196:..\Source\portable\GCC\ARM_CM3/portmacro.h **** 
 197:..\Source\portable\GCC\ARM_CM3/portmacro.h **** #ifdef configASSERT
 198:..\Source\portable\GCC\ARM_CM3/portmacro.h **** 	void vPortValidateInterruptPriority( void );
 199:..\Source\portable\GCC\ARM_CM3/portmacro.h **** 	#define portASSERT_IF_INTERRUPT_PRIORITY_INVALID() 	vPortValidateInterruptPriority()
 200:..\Source\portable\GCC\ARM_CM3/portmacro.h **** #endif
 201:..\Source\portable\GCC\ARM_CM3/portmacro.h **** 
 202:..\Source\portable\GCC\ARM_CM3/portmacro.h **** /* portNOP() is not required by this port. */
 203:..\Source\portable\GCC\ARM_CM3/portmacro.h **** #define portNOP()
 204:..\Source\portable\GCC\ARM_CM3/portmacro.h **** 
 205:..\Source\portable\GCC\ARM_CM3/portmacro.h **** #define portINLINE	__inline
 206:..\Source\portable\GCC\ARM_CM3/portmacro.h **** 
 207:..\Source\portable\GCC\ARM_CM3/portmacro.h **** #ifndef portFORCE_INLINE
 208:..\Source\portable\GCC\ARM_CM3/portmacro.h **** 	#define portFORCE_INLINE inline __attribute__(( always_inline))
 209:..\Source\portable\GCC\ARM_CM3/portmacro.h **** #endif
 210:..\Source\portable\GCC\ARM_CM3/portmacro.h **** 
 211:..\Source\portable\GCC\ARM_CM3/portmacro.h **** portFORCE_INLINE static BaseType_t xPortIsInsideInterrupt( void )
 212:..\Source\portable\GCC\ARM_CM3/portmacro.h **** {
 213:..\Source\portable\GCC\ARM_CM3/portmacro.h **** uint32_t ulCurrentInterrupt;
 214:..\Source\portable\GCC\ARM_CM3/portmacro.h **** BaseType_t xReturn;
 215:..\Source\portable\GCC\ARM_CM3/portmacro.h **** 
 216:..\Source\portable\GCC\ARM_CM3/portmacro.h **** 	/* Obtain the number of the currently executing interrupt. */
 217:..\Source\portable\GCC\ARM_CM3/portmacro.h **** 	__asm volatile( "mrs %0, ipsr" : "=r"( ulCurrentInterrupt ) );
 218:..\Source\portable\GCC\ARM_CM3/portmacro.h **** 
 219:..\Source\portable\GCC\ARM_CM3/portmacro.h **** 	if( ulCurrentInterrupt == 0 )
 220:..\Source\portable\GCC\ARM_CM3/portmacro.h **** 	{
 221:..\Source\portable\GCC\ARM_CM3/portmacro.h **** 		xReturn = pdFALSE;
 222:..\Source\portable\GCC\ARM_CM3/portmacro.h **** 	}
 223:..\Source\portable\GCC\ARM_CM3/portmacro.h **** 	else
 224:..\Source\portable\GCC\ARM_CM3/portmacro.h **** 	{
 225:..\Source\portable\GCC\ARM_CM3/portmacro.h **** 		xReturn = pdTRUE;
 226:..\Source\portable\GCC\ARM_CM3/portmacro.h **** 	}
 227:..\Source\portable\GCC\ARM_CM3/portmacro.h **** 
 228:..\Source\portable\GCC\ARM_CM3/portmacro.h **** 	return xReturn;
 229:..\Source\portable\GCC\ARM_CM3/portmacro.h **** }
 230:..\Source\portable\GCC\ARM_CM3/portmacro.h **** 
 231:..\Source\portable\GCC\ARM_CM3/portmacro.h **** /*-----------------------------------------------------------*/
 232:..\Source\portable\GCC\ARM_CM3/portmacro.h **** 
 233:..\Source\portable\GCC\ARM_CM3/portmacro.h **** portFORCE_INLINE static void vPortRaiseBASEPRI( void )
 234:..\Source\portable\GCC\ARM_CM3/portmacro.h **** {
 235:..\Source\portable\GCC\ARM_CM3/portmacro.h **** uint32_t ulNewBASEPRI;
 236:..\Source\portable\GCC\ARM_CM3/portmacro.h **** 
 237:..\Source\portable\GCC\ARM_CM3/portmacro.h **** 	__asm volatile
 238:..\Source\portable\GCC\ARM_CM3/portmacro.h **** 	(
 239:..\Source\portable\GCC\ARM_CM3/portmacro.h **** 		"	mov %0, %1												\n"	\
 240:..\Source\portable\GCC\ARM_CM3/portmacro.h **** 		"	msr basepri, %0											\n" \
 241:..\Source\portable\GCC\ARM_CM3/portmacro.h **** 		"	isb														\n" \
 242:..\Source\portable\GCC\ARM_CM3/portmacro.h **** 		"	dsb														\n" \
 243:..\Source\portable\GCC\ARM_CM3/portmacro.h **** 		:"=r" (ulNewBASEPRI) : "i" ( configMAX_SYSCALL_INTERRUPT_PRIORITY )
 244:..\Source\portable\GCC\ARM_CM3/portmacro.h **** 	);
 245:..\Source\portable\GCC\ARM_CM3/portmacro.h **** }
 246:..\Source\portable\GCC\ARM_CM3/portmacro.h **** 
 247:..\Source\portable\GCC\ARM_CM3/portmacro.h **** /*-----------------------------------------------------------*/
 248:..\Source\portable\GCC\ARM_CM3/portmacro.h **** 
 249:..\Source\portable\GCC\ARM_CM3/portmacro.h **** portFORCE_INLINE static uint32_t ulPortRaiseBASEPRI( void )
 250:..\Source\portable\GCC\ARM_CM3/portmacro.h **** {
ARM GAS  C:\Users\bmt\AppData\Local\Temp\ccyp4MuE.s 			page 15


 251:..\Source\portable\GCC\ARM_CM3/portmacro.h **** uint32_t ulOriginalBASEPRI, ulNewBASEPRI;
 252:..\Source\portable\GCC\ARM_CM3/portmacro.h **** 
 253:..\Source\portable\GCC\ARM_CM3/portmacro.h **** 	__asm volatile
 365              		.loc 2 253 0
 366              	@ 253 "..\Source\portable\GCC\ARM_CM3/portmacro.h" 1
 367 0034 EFF31182 			mrs r2, basepri											
 368 0038 4FF0A003 		mov r3, #160												
 369 003c 83F31188 		msr basepri, r3											
 370 0040 BFF36F8F 		isb														
 371 0044 BFF34F8F 		dsb														
 372              	
 373              	@ 0 "" 2
 374              		.thumb
 375 0048 3A61     		str	r2, [r7, #16]
 376 004a FB60     		str	r3, [r7, #12]
 254:..\Source\portable\GCC\ARM_CM3/portmacro.h **** 	(
 255:..\Source\portable\GCC\ARM_CM3/portmacro.h **** 		"	mrs %0, basepri											\n" \
 256:..\Source\portable\GCC\ARM_CM3/portmacro.h **** 		"	mov %1, %2												\n"	\
 257:..\Source\portable\GCC\ARM_CM3/portmacro.h **** 		"	msr basepri, %1											\n" \
 258:..\Source\portable\GCC\ARM_CM3/portmacro.h **** 		"	isb														\n" \
 259:..\Source\portable\GCC\ARM_CM3/portmacro.h **** 		"	dsb														\n" \
 260:..\Source\portable\GCC\ARM_CM3/portmacro.h **** 		:"=r" (ulOriginalBASEPRI), "=r" (ulNewBASEPRI) : "i" ( configMAX_SYSCALL_INTERRUPT_PRIORITY )
 261:..\Source\portable\GCC\ARM_CM3/portmacro.h **** 	);
 262:..\Source\portable\GCC\ARM_CM3/portmacro.h **** 
 263:..\Source\portable\GCC\ARM_CM3/portmacro.h **** 	/* This return will not be reached but is necessary to prevent compiler
 264:..\Source\portable\GCC\ARM_CM3/portmacro.h **** 	warnings. */
 265:..\Source\portable\GCC\ARM_CM3/portmacro.h **** 	return ulOriginalBASEPRI;
 377              		.loc 2 265 0
 378 004c 3B69     		ldr	r3, [r7, #16]
 379              	.LBE11:
 380              	.LBE10:
 183:Serial.c      **** 		
 184:Serial.c      **** 		/* Mask off the other RTOS interrupts to interact with the queue. */
 185:Serial.c      **** 		ulMask = portSET_INTERRUPT_MASK_FROM_ISR();
 381              		.loc 1 185 0
 382 004e 7B61     		str	r3, [r7, #20]
 186:Serial.c      **** 		{
 187:Serial.c      **** 			/* Try to deliver the character. */
 188:Serial.c      **** 			if( pdTRUE != xQueueSendFromISR( xSerialRxQueue, &cInChar, &xHigherPriorityTaskWoken ) )
 383              		.loc 1 188 0
 384 0050 0E4B     		ldr	r3, .L27
 385 0052 1968     		ldr	r1, [r3]
 386 0054 BA1C     		adds	r2, r7, #2
 387 0056 3B1D     		adds	r3, r7, #4
 388 0058 0846     		mov	r0, r1
 389 005a 1146     		mov	r1, r2
 390 005c 1A46     		mov	r2, r3
 391 005e 0023     		movs	r3, #0
 392 0060 FFF7FEFF 		bl	xQueueGenericSendFromISR
 393 0064 7B69     		ldr	r3, [r7, #20]
 394 0066 BB60     		str	r3, [r7, #8]
 395              	.LBB12:
 396              	.LBB13:
 266:..\Source\portable\GCC\ARM_CM3/portmacro.h **** }
 267:..\Source\portable\GCC\ARM_CM3/portmacro.h **** /*-----------------------------------------------------------*/
 268:..\Source\portable\GCC\ARM_CM3/portmacro.h **** 
 269:..\Source\portable\GCC\ARM_CM3/portmacro.h **** portFORCE_INLINE static void vPortSetBASEPRI( uint32_t ulNewMaskValue )
ARM GAS  C:\Users\bmt\AppData\Local\Temp\ccyp4MuE.s 			page 16


 270:..\Source\portable\GCC\ARM_CM3/portmacro.h **** {
 271:..\Source\portable\GCC\ARM_CM3/portmacro.h **** 	__asm volatile
 397              		.loc 2 271 0
 398 0068 BB68     		ldr	r3, [r7, #8]
 399              	@ 271 "..\Source\portable\GCC\ARM_CM3/portmacro.h" 1
 400 006a 83F31188 			msr basepri, r3	
 401              	@ 0 "" 2
 402              		.thumb
 403              	.L24:
 404              	.LBE13:
 405              	.LBE12:
 189:Serial.c      **** 			{
 190:Serial.c      **** 				/* Run out of space. */
 191:Serial.c      **** 			}
 192:Serial.c      **** 		}
 193:Serial.c      **** 		portCLEAR_INTERRUPT_MASK_FROM_ISR( ulMask );
 194:Serial.c      **** 	}
 195:Serial.c      **** 
 196:Serial.c      **** 	/* If we delivered the character then a context switch might be required.
 197:Serial.c      **** 	xHigherPriorityTaskWoken was set to pdFALSE on interrupt entry.  If calling 
 198:Serial.c      **** 	xQueueSendFromISR() caused a task to unblock, and the unblocked task has
 199:Serial.c      **** 	a priority equal to or higher than the currently running task (the task this
 200:Serial.c      **** 	ISR interrupted), then xHigherPriorityTaskWoken will have been set to pdTRUE and
 201:Serial.c      **** 	portEND_SWITCHING_ISR() will request a context switch to the newly unblocked
 202:Serial.c      **** 	task. */
 203:Serial.c      **** 	portEND_SWITCHING_ISR( xHigherPriorityTaskWoken );
 406              		.loc 1 203 0
 407 006e 7B68     		ldr	r3, [r7, #4]
 408 0070 002B     		cmp	r3, #0
 409 0072 07D0     		beq	.L23
 410              		.loc 1 203 0 is_stmt 0 discriminator 1
 411 0074 064B     		ldr	r3, .L27+4
 412 0076 4FF08052 		mov	r2, #268435456
 413 007a 1A60     		str	r2, [r3]
 414              	@ 203 "Serial.c" 1
 415 007c BFF34F8F 		dsb
 416              	@ 0 "" 2
 417              	@ 203 "Serial.c" 1
 418 0080 BFF36F8F 		isb
 419              	@ 0 "" 2
 420              		.thumb
 421              	.L23:
 204:Serial.c      **** }
 422              		.loc 1 204 0 is_stmt 1
 423 0084 1837     		adds	r7, r7, #24
 424              		.cfi_def_cfa_offset 8
 425 0086 BD46     		mov	sp, r7
 426              		.cfi_def_cfa_register 13
 427              		@ sp needed
 428 0088 80BD     		pop	{r7, pc}
 429              	.L28:
 430 008a 00BF     		.align	2
 431              	.L27:
 432 008c 04000000 		.word	xSerialRxQueue
 433 0090 04ED00E0 		.word	-536810236
 434              		.cfi_endproc
 435              	.LFE72:
ARM GAS  C:\Users\bmt\AppData\Local\Temp\ccyp4MuE.s 			page 17


 436              		.size	vUartRxISR, .-vUartRxISR
 437              		.section	.text.vUartTxISR,"ax",%progbits
 438              		.align	2
 439              		.global	vUartTxISR
 440              		.thumb
 441              		.thumb_func
 442              		.type	vUartTxISR, %function
 443              	vUartTxISR:
 444              	.LFB73:
 205:Serial.c      **** /*---------------------------------------------------------------------------*/
 206:Serial.c      **** 
 207:Serial.c      **** CY_ISR(vUartTxISR)
 208:Serial.c      **** {
 445              		.loc 1 208 0
 446              		.cfi_startproc
 447              		@ args = 0, pretend = 0, frame = 24
 448              		@ frame_needed = 1, uses_anonymous_args = 0
 449 0000 80B5     		push	{r7, lr}
 450              		.cfi_def_cfa_offset 8
 451              		.cfi_offset 7, -8
 452              		.cfi_offset 14, -4
 453 0002 86B0     		sub	sp, sp, #24
 454              		.cfi_def_cfa_offset 32
 455 0004 00AF     		add	r7, sp, #0
 456              		.cfi_def_cfa_register 7
 209:Serial.c      **** portBASE_TYPE xHigherPriorityTaskWoken = pdFALSE;
 457              		.loc 1 209 0
 458 0006 0023     		movs	r3, #0
 459 0008 7B60     		str	r3, [r7, #4]
 210:Serial.c      **** volatile unsigned char ucStatus = 0;
 460              		.loc 1 210 0
 461 000a 0023     		movs	r3, #0
 462 000c FB70     		strb	r3, [r7, #3]
 211:Serial.c      **** signed char cOutChar = 0;
 463              		.loc 1 211 0
 464 000e 0023     		movs	r3, #0
 465 0010 BB70     		strb	r3, [r7, #2]
 212:Serial.c      **** unsigned long ulMask = 0;
 466              		.loc 1 212 0
 467 0012 0023     		movs	r3, #0
 468 0014 7B61     		str	r3, [r7, #20]
 213:Serial.c      **** 
 214:Serial.c      **** 	/* Read the status to acknowledge. */
 215:Serial.c      **** 	ucStatus = UART_1_ReadTxStatus();
 469              		.loc 1 215 0
 470 0016 FFF7FEFF 		bl	UART_1_ReadTxStatus
 471 001a 0346     		mov	r3, r0
 472 001c FB70     		strb	r3, [r7, #3]
 216:Serial.c      **** 	
 217:Serial.c      **** 	/* Check to see whether this is a genuine interrupt. */
 218:Serial.c      **** 	if( ( 0 != ( ucStatus & UART_1_TX_STS_COMPLETE ) ) || ( 0 != ( ucStatus & UART_1_TX_STS_FIFO_EMPTY
 473              		.loc 1 218 0
 474 001e FB78     		ldrb	r3, [r7, #3]
 475 0020 DBB2     		uxtb	r3, r3
 476 0022 03F00103 		and	r3, r3, #1
 477 0026 002B     		cmp	r3, #0
 478 0028 05D1     		bne	.L30
ARM GAS  C:\Users\bmt\AppData\Local\Temp\ccyp4MuE.s 			page 18


 479              		.loc 1 218 0 is_stmt 0 discriminator 1
 480 002a FB78     		ldrb	r3, [r7, #3]
 481 002c DBB2     		uxtb	r3, r3
 482 002e 03F00203 		and	r3, r3, #2
 483 0032 002B     		cmp	r3, #0
 484 0034 2AD0     		beq	.L31
 485              	.L30:
 486              	.LBB14:
 487              	.LBB15:
 253:..\Source\portable\GCC\ARM_CM3/portmacro.h **** 	(
 488              		.loc 2 253 0 is_stmt 1
 489              	@ 253 "..\Source\portable\GCC\ARM_CM3/portmacro.h" 1
 490 0036 EFF31182 			mrs r2, basepri											
 491 003a 4FF0A003 		mov r3, #160												
 492 003e 83F31188 		msr basepri, r3											
 493 0042 BFF36F8F 		isb														
 494 0046 BFF34F8F 		dsb														
 495              	
 496              	@ 0 "" 2
 497              		.thumb
 498 004a 3A61     		str	r2, [r7, #16]
 499 004c FB60     		str	r3, [r7, #12]
 265:..\Source\portable\GCC\ARM_CM3/portmacro.h **** }
 500              		.loc 2 265 0
 501 004e 3B69     		ldr	r3, [r7, #16]
 502              	.LBE15:
 503              	.LBE14:
 219:Serial.c      **** 	{	
 220:Serial.c      **** 		/* Mask off the other RTOS interrupts to interact with the queue. */
 221:Serial.c      **** 		ulMask = portSET_INTERRUPT_MASK_FROM_ISR();
 504              		.loc 1 221 0
 505 0050 7B61     		str	r3, [r7, #20]
 222:Serial.c      **** 		{
 223:Serial.c      **** 			if( pdTRUE == xQueueReceiveFromISR( xSerialTxQueue, &cOutChar, &xHigherPriorityTaskWoken ) )
 506              		.loc 1 223 0
 507 0052 154B     		ldr	r3, .L36
 508 0054 1968     		ldr	r1, [r3]
 509 0056 BA1C     		adds	r2, r7, #2
 510 0058 3B1D     		adds	r3, r7, #4
 511 005a 0846     		mov	r0, r1
 512 005c 1146     		mov	r1, r2
 513 005e 1A46     		mov	r2, r3
 514 0060 FFF7FEFF 		bl	xQueueReceiveFromISR
 515 0064 0346     		mov	r3, r0
 516 0066 012B     		cmp	r3, #1
 517 0068 08D1     		bne	.L33
 224:Serial.c      **** 			{
 225:Serial.c      **** 				/* Send the next character. */
 226:Serial.c      **** 				UART_1_PutChar( cOutChar );			
 518              		.loc 1 226 0
 519 006a BB78     		ldrb	r3, [r7, #2]	@ zero_extendqisi2
 520 006c DBB2     		uxtb	r3, r3
 521 006e 1846     		mov	r0, r3
 522 0070 FFF7FEFF 		bl	UART_1_PutChar
 227:Serial.c      **** 
 228:Serial.c      **** 				/* If we are firing, then the only interrupt we are interested in
 229:Serial.c      **** 				is the Complete. The application code will add the Empty interrupt
ARM GAS  C:\Users\bmt\AppData\Local\Temp\ccyp4MuE.s 			page 19


 230:Serial.c      **** 				when there is something else to be done. */
 231:Serial.c      **** 				UART_1_SetTxInterruptMode( UART_1_TX_STS_COMPLETE );
 523              		.loc 1 231 0
 524 0074 0120     		movs	r0, #1
 525 0076 FFF7FEFF 		bl	UART_1_SetTxInterruptMode
 526 007a 02E0     		b	.L34
 527              	.L33:
 232:Serial.c      **** 			}
 233:Serial.c      **** 			else
 234:Serial.c      **** 			{
 235:Serial.c      **** 				/* There is no work left so disable the interrupt until the application 
 236:Serial.c      **** 				puts more into the queue. */
 237:Serial.c      **** 				UART_1_SetTxInterruptMode( 0 );
 528              		.loc 1 237 0
 529 007c 0020     		movs	r0, #0
 530 007e FFF7FEFF 		bl	UART_1_SetTxInterruptMode
 531              	.L34:
 532 0082 7B69     		ldr	r3, [r7, #20]
 533 0084 BB60     		str	r3, [r7, #8]
 534              	.LBB16:
 535              	.LBB17:
 536              		.loc 2 271 0
 537 0086 BB68     		ldr	r3, [r7, #8]
 538              	@ 271 "..\Source\portable\GCC\ARM_CM3/portmacro.h" 1
 539 0088 83F31188 			msr basepri, r3	
 540              	@ 0 "" 2
 541              		.thumb
 542              	.L31:
 543              	.LBE17:
 544              	.LBE16:
 238:Serial.c      **** 			}
 239:Serial.c      **** 		}
 240:Serial.c      **** 		portCLEAR_INTERRUPT_MASK_FROM_ISR( ulMask );
 241:Serial.c      **** 	}
 242:Serial.c      **** 
 243:Serial.c      **** 	/* If we delivered the character then a context switch might be required.
 244:Serial.c      **** 	xHigherPriorityTaskWoken was set to pdFALSE on interrupt entry.  If calling 
 245:Serial.c      **** 	xQueueSendFromISR() caused a task to unblock, and the unblocked task has
 246:Serial.c      **** 	a priority equal to or higher than the currently running task (the task this
 247:Serial.c      **** 	ISR interrupted), then xHigherPriorityTaskWoken will have been set to pdTRUE and
 248:Serial.c      **** 	portEND_SWITCHING_ISR() will request a context switch to the newly unblocked
 249:Serial.c      **** 	task. */
 250:Serial.c      **** 	portEND_SWITCHING_ISR( xHigherPriorityTaskWoken );
 545              		.loc 1 250 0
 546 008c 7B68     		ldr	r3, [r7, #4]
 547 008e 002B     		cmp	r3, #0
 548 0090 07D0     		beq	.L29
 549              		.loc 1 250 0 is_stmt 0 discriminator 1
 550 0092 064B     		ldr	r3, .L36+4
 551 0094 4FF08052 		mov	r2, #268435456
 552 0098 1A60     		str	r2, [r3]
 553              	@ 250 "Serial.c" 1
 554 009a BFF34F8F 		dsb
 555              	@ 0 "" 2
 556              	@ 250 "Serial.c" 1
 557 009e BFF36F8F 		isb
 558              	@ 0 "" 2
ARM GAS  C:\Users\bmt\AppData\Local\Temp\ccyp4MuE.s 			page 20


 559              		.thumb
 560              	.L29:
 251:Serial.c      **** }
 561              		.loc 1 251 0 is_stmt 1
 562 00a2 1837     		adds	r7, r7, #24
 563              		.cfi_def_cfa_offset 8
 564 00a4 BD46     		mov	sp, r7
 565              		.cfi_def_cfa_register 13
 566              		@ sp needed
 567 00a6 80BD     		pop	{r7, pc}
 568              	.L37:
 569              		.align	2
 570              	.L36:
 571 00a8 00000000 		.word	xSerialTxQueue
 572 00ac 04ED00E0 		.word	-536810236
 573              		.cfi_endproc
 574              	.LFE73:
 575              		.size	vUartTxISR, .-vUartTxISR
 576              		.text
 577              	.Letext0:
 578              		.file 3 "c:\\program files (x86)\\cypress\\psoc creator\\4.0\\psoc creator\\import\\gnu\\arm\\4.9.
 579              		.file 4 "c:\\program files (x86)\\cypress\\psoc creator\\4.0\\psoc creator\\import\\gnu\\arm\\4.9.
 580              		.file 5 "Generated_Source\\PSoC5/cytypes.h"
 581              		.file 6 "..\\Source\\include/queue.h"
 582              		.file 7 "..\\Common\\include/serial.h"
 583              		.file 8 "Generated_Source\\PSoC5/core_cm3.h"