ARM GAS  C:\Users\bmt\AppData\Local\Temp\ccld84Qq.s 			page 1


   1              		.syntax unified
   2              		.cpu cortex-m3
   3              		.fpu softvfp
   4              		.eabi_attribute 20, 1
   5              		.eabi_attribute 21, 1
   6              		.eabi_attribute 23, 3
   7              		.eabi_attribute 24, 1
   8              		.eabi_attribute 25, 1
   9              		.eabi_attribute 26, 1
  10              		.eabi_attribute 30, 6
  11              		.eabi_attribute 34, 1
  12              		.eabi_attribute 18, 4
  13              		.thumb
  14              		.file	"tasks.c"
  15              		.text
  16              	.Ltext0:
  17              		.cfi_sections	.debug_frame
  18              		.global	pxCurrentTCB
  19              		.bss
  20              		.align	2
  21              		.type	pxCurrentTCB, %object
  22              		.size	pxCurrentTCB, 4
  23              	pxCurrentTCB:
  24 0000 00000000 		.space	4
  25              		.align	2
  26              	pxReadyTasksLists:
  27 0004 00000000 		.space	100
  27      00000000 
  27      00000000 
  27      00000000 
  27      00000000 
  28              		.align	2
  29              	xDelayedTaskList1:
  30 0068 00000000 		.space	20
  30      00000000 
  30      00000000 
  30      00000000 
  30      00000000 
  31              		.align	2
  32              	xDelayedTaskList2:
  33 007c 00000000 		.space	20
  33      00000000 
  33      00000000 
  33      00000000 
  33      00000000 
  34              		.align	2
  35              	pxDelayedTaskList:
  36 0090 00000000 		.space	4
  37              		.align	2
  38              	pxOverflowDelayedTaskList:
  39 0094 00000000 		.space	4
  40              		.align	2
  41              	xPendingReadyList:
  42 0098 00000000 		.space	20
  42      00000000 
  42      00000000 
  42      00000000 
ARM GAS  C:\Users\bmt\AppData\Local\Temp\ccld84Qq.s 			page 2


  42      00000000 
  43              		.align	2
  44              	xTasksWaitingTermination:
  45 00ac 00000000 		.space	20
  45      00000000 
  45      00000000 
  45      00000000 
  45      00000000 
  46              		.align	2
  47              	uxDeletedTasksWaitingCleanUp:
  48 00c0 00000000 		.space	4
  49              		.align	2
  50              	xSuspendedTaskList:
  51 00c4 00000000 		.space	20
  51      00000000 
  51      00000000 
  51      00000000 
  51      00000000 
  52              		.align	2
  53              	uxCurrentNumberOfTasks:
  54 00d8 00000000 		.space	4
  55              		.align	2
  56              	xTickCount:
  57 00dc 00000000 		.space	4
  58              		.align	2
  59              	uxTopReadyPriority:
  60 00e0 00000000 		.space	4
  61              		.align	2
  62              	xSchedulerRunning:
  63 00e4 00000000 		.space	4
  64              		.align	2
  65              	uxPendedTicks:
  66 00e8 00000000 		.space	4
  67              		.align	2
  68              	xYieldPending:
  69 00ec 00000000 		.space	4
  70              		.align	2
  71              	xNumOfOverflows:
  72 00f0 00000000 		.space	4
  73              		.align	2
  74              	uxTaskNumber:
  75 00f4 00000000 		.space	4
  76              		.align	2
  77              	xNextTaskUnblockTime:
  78 00f8 00000000 		.space	4
  79              		.align	2
  80              	xIdleTaskHandle:
  81 00fc 00000000 		.space	4
  82              		.align	2
  83              	uxSchedulerSuspended:
  84 0100 00000000 		.space	4
  85              		.section	.text.xTaskCreate,"ax",%progbits
  86              		.align	2
  87              		.global	xTaskCreate
  88              		.thumb
  89              		.thumb_func
  90              		.type	xTaskCreate, %function
ARM GAS  C:\Users\bmt\AppData\Local\Temp\ccld84Qq.s 			page 3


  91              	xTaskCreate:
  92              	.LFB68:
  93              		.file 1 "..\\Source\\tasks.c"
   1:..\Source/tasks.c **** /*
   2:..\Source/tasks.c ****     FreeRTOS V9.0.0 - Copyright (C) 2016 Real Time Engineers Ltd.
   3:..\Source/tasks.c ****     All rights reserved
   4:..\Source/tasks.c **** 
   5:..\Source/tasks.c ****     VISIT http://www.FreeRTOS.org TO ENSURE YOU ARE USING THE LATEST VERSION.
   6:..\Source/tasks.c **** 
   7:..\Source/tasks.c ****     This file is part of the FreeRTOS distribution.
   8:..\Source/tasks.c **** 
   9:..\Source/tasks.c ****     FreeRTOS is free software; you can redistribute it and/or modify it under
  10:..\Source/tasks.c ****     the terms of the GNU General Public License (version 2) as published by the
  11:..\Source/tasks.c ****     Free Software Foundation >>>> AND MODIFIED BY <<<< the FreeRTOS exception.
  12:..\Source/tasks.c **** 
  13:..\Source/tasks.c ****     ***************************************************************************
  14:..\Source/tasks.c ****     >>!   NOTE: The modification to the GPL is included to allow you to     !<<
  15:..\Source/tasks.c ****     >>!   distribute a combined work that includes FreeRTOS without being   !<<
  16:..\Source/tasks.c ****     >>!   obliged to provide the source code for proprietary components     !<<
  17:..\Source/tasks.c ****     >>!   outside of the FreeRTOS kernel.                                   !<<
  18:..\Source/tasks.c ****     ***************************************************************************
  19:..\Source/tasks.c **** 
  20:..\Source/tasks.c ****     FreeRTOS is distributed in the hope that it will be useful, but WITHOUT ANY
  21:..\Source/tasks.c ****     WARRANTY; without even the implied warranty of MERCHANTABILITY or FITNESS
  22:..\Source/tasks.c ****     FOR A PARTICULAR PURPOSE.  Full license text is available on the following
  23:..\Source/tasks.c ****     link: http://www.freertos.org/a00114.html
  24:..\Source/tasks.c **** 
  25:..\Source/tasks.c ****     ***************************************************************************
  26:..\Source/tasks.c ****      *                                                                       *
  27:..\Source/tasks.c ****      *    FreeRTOS provides completely free yet professionally developed,    *
  28:..\Source/tasks.c ****      *    robust, strictly quality controlled, supported, and cross          *
  29:..\Source/tasks.c ****      *    platform software that is more than just the market leader, it     *
  30:..\Source/tasks.c ****      *    is the industry's de facto standard.                               *
  31:..\Source/tasks.c ****      *                                                                       *
  32:..\Source/tasks.c ****      *    Help yourself get started quickly while simultaneously helping     *
  33:..\Source/tasks.c ****      *    to support the FreeRTOS project by purchasing a FreeRTOS           *
  34:..\Source/tasks.c ****      *    tutorial book, reference manual, or both:                          *
  35:..\Source/tasks.c ****      *    http://www.FreeRTOS.org/Documentation                              *
  36:..\Source/tasks.c ****      *                                                                       *
  37:..\Source/tasks.c ****     ***************************************************************************
  38:..\Source/tasks.c **** 
  39:..\Source/tasks.c ****     http://www.FreeRTOS.org/FAQHelp.html - Having a problem?  Start by reading
  40:..\Source/tasks.c ****     the FAQ page "My application does not run, what could be wrong?".  Have you
  41:..\Source/tasks.c ****     defined configASSERT()?
  42:..\Source/tasks.c **** 
  43:..\Source/tasks.c ****     http://www.FreeRTOS.org/support - In return for receiving this top quality
  44:..\Source/tasks.c ****     embedded software for free we request you assist our global community by
  45:..\Source/tasks.c ****     participating in the support forum.
  46:..\Source/tasks.c **** 
  47:..\Source/tasks.c ****     http://www.FreeRTOS.org/training - Investing in training allows your team to
  48:..\Source/tasks.c ****     be as productive as possible as early as possible.  Now you can receive
  49:..\Source/tasks.c ****     FreeRTOS training directly from Richard Barry, CEO of Real Time Engineers
  50:..\Source/tasks.c ****     Ltd, and the world's leading authority on the world's leading RTOS.
  51:..\Source/tasks.c **** 
  52:..\Source/tasks.c ****     http://www.FreeRTOS.org/plus - A selection of FreeRTOS ecosystem products,
  53:..\Source/tasks.c ****     including FreeRTOS+Trace - an indispensable productivity tool, a DOS
  54:..\Source/tasks.c ****     compatible FAT file system, and our tiny thread aware UDP/IP stack.
ARM GAS  C:\Users\bmt\AppData\Local\Temp\ccld84Qq.s 			page 4


  55:..\Source/tasks.c **** 
  56:..\Source/tasks.c ****     http://www.FreeRTOS.org/labs - Where new FreeRTOS products go to incubate.
  57:..\Source/tasks.c ****     Come and try FreeRTOS+TCP, our new open source TCP/IP stack for FreeRTOS.
  58:..\Source/tasks.c **** 
  59:..\Source/tasks.c ****     http://www.OpenRTOS.com - Real Time Engineers ltd. license FreeRTOS to High
  60:..\Source/tasks.c ****     Integrity Systems ltd. to sell under the OpenRTOS brand.  Low cost OpenRTOS
  61:..\Source/tasks.c ****     licenses offer ticketed support, indemnification and commercial middleware.
  62:..\Source/tasks.c **** 
  63:..\Source/tasks.c ****     http://www.SafeRTOS.com - High Integrity Systems also provide a safety
  64:..\Source/tasks.c ****     engineered and independently SIL3 certified version for use in safety and
  65:..\Source/tasks.c ****     mission critical applications that require provable dependability.
  66:..\Source/tasks.c **** 
  67:..\Source/tasks.c ****     1 tab == 4 spaces!
  68:..\Source/tasks.c **** */
  69:..\Source/tasks.c **** 
  70:..\Source/tasks.c **** /* Standard includes. */
  71:..\Source/tasks.c **** #include <stdlib.h>
  72:..\Source/tasks.c **** #include <string.h>
  73:..\Source/tasks.c **** 
  74:..\Source/tasks.c **** /* Defining MPU_WRAPPERS_INCLUDED_FROM_API_FILE prevents task.h from redefining
  75:..\Source/tasks.c **** all the API functions to use the MPU wrappers.  That should only be done when
  76:..\Source/tasks.c **** task.h is included from an application file. */
  77:..\Source/tasks.c **** #define MPU_WRAPPERS_INCLUDED_FROM_API_FILE
  78:..\Source/tasks.c **** 
  79:..\Source/tasks.c **** /* FreeRTOS includes. */
  80:..\Source/tasks.c **** #include "FreeRTOS.h"
  81:..\Source/tasks.c **** #include "task.h"
  82:..\Source/tasks.c **** #include "timers.h"
  83:..\Source/tasks.c **** #include "StackMacros.h"
  84:..\Source/tasks.c **** 
  85:..\Source/tasks.c **** /* Lint e961 and e750 are suppressed as a MISRA exception justified because the
  86:..\Source/tasks.c **** MPU ports require MPU_WRAPPERS_INCLUDED_FROM_API_FILE to be defined for the
  87:..\Source/tasks.c **** header files above, but not in this file, in order to generate the correct
  88:..\Source/tasks.c **** privileged Vs unprivileged linkage and placement. */
  89:..\Source/tasks.c **** #undef MPU_WRAPPERS_INCLUDED_FROM_API_FILE /*lint !e961 !e750. */
  90:..\Source/tasks.c **** 
  91:..\Source/tasks.c **** /* Set configUSE_STATS_FORMATTING_FUNCTIONS to 2 to include the stats formatting
  92:..\Source/tasks.c **** functions but without including stdio.h here. */
  93:..\Source/tasks.c **** #if ( configUSE_STATS_FORMATTING_FUNCTIONS == 1 )
  94:..\Source/tasks.c **** 	/* At the bottom of this file are two optional functions that can be used
  95:..\Source/tasks.c **** 	to generate human readable text from the raw data generated by the
  96:..\Source/tasks.c **** 	uxTaskGetSystemState() function.  Note the formatting functions are provided
  97:..\Source/tasks.c **** 	for convenience only, and are NOT considered part of the kernel. */
  98:..\Source/tasks.c **** 	#include <stdio.h>
  99:..\Source/tasks.c **** #endif /* configUSE_STATS_FORMATTING_FUNCTIONS == 1 ) */
 100:..\Source/tasks.c **** 
 101:..\Source/tasks.c **** #if( configUSE_PREEMPTION == 0 )
 102:..\Source/tasks.c **** 	/* If the cooperative scheduler is being used then a yield should not be
 103:..\Source/tasks.c **** 	performed just because a higher priority task has been woken. */
 104:..\Source/tasks.c **** 	#define taskYIELD_IF_USING_PREEMPTION()
 105:..\Source/tasks.c **** #else
 106:..\Source/tasks.c **** 	#define taskYIELD_IF_USING_PREEMPTION() portYIELD_WITHIN_API()
 107:..\Source/tasks.c **** #endif
 108:..\Source/tasks.c **** 
 109:..\Source/tasks.c **** /* Values that can be assigned to the ucNotifyState member of the TCB. */
 110:..\Source/tasks.c **** #define taskNOT_WAITING_NOTIFICATION	( ( uint8_t ) 0 )
 111:..\Source/tasks.c **** #define taskWAITING_NOTIFICATION		( ( uint8_t ) 1 )
ARM GAS  C:\Users\bmt\AppData\Local\Temp\ccld84Qq.s 			page 5


 112:..\Source/tasks.c **** #define taskNOTIFICATION_RECEIVED		( ( uint8_t ) 2 )
 113:..\Source/tasks.c **** 
 114:..\Source/tasks.c **** /*
 115:..\Source/tasks.c ****  * The value used to fill the stack of a task when the task is created.  This
 116:..\Source/tasks.c ****  * is used purely for checking the high water mark for tasks.
 117:..\Source/tasks.c ****  */
 118:..\Source/tasks.c **** #define tskSTACK_FILL_BYTE	( 0xa5U )
 119:..\Source/tasks.c **** 
 120:..\Source/tasks.c **** /* Sometimes the FreeRTOSConfig.h settings only allow a task to be created using
 121:..\Source/tasks.c **** dynamically allocated RAM, in which case when any task is deleted it is known
 122:..\Source/tasks.c **** that both the task's stack and TCB need to be freed.  Sometimes the
 123:..\Source/tasks.c **** FreeRTOSConfig.h settings only allow a task to be created using statically
 124:..\Source/tasks.c **** allocated RAM, in which case when any task is deleted it is known that neither
 125:..\Source/tasks.c **** the task's stack or TCB should be freed.  Sometimes the FreeRTOSConfig.h
 126:..\Source/tasks.c **** settings allow a task to be created using either statically or dynamically
 127:..\Source/tasks.c **** allocated RAM, in which case a member of the TCB is used to record whether the
 128:..\Source/tasks.c **** stack and/or TCB were allocated statically or dynamically, so when a task is
 129:..\Source/tasks.c **** deleted the RAM that was allocated dynamically is freed again and no attempt is
 130:..\Source/tasks.c **** made to free the RAM that was allocated statically.
 131:..\Source/tasks.c **** tskSTATIC_AND_DYNAMIC_ALLOCATION_POSSIBLE is only true if it is possible for a
 132:..\Source/tasks.c **** task to be created using either statically or dynamically allocated RAM.  Note
 133:..\Source/tasks.c **** that if portUSING_MPU_WRAPPERS is 1 then a protected task can be created with
 134:..\Source/tasks.c **** a statically allocated stack and a dynamically allocated TCB. */
 135:..\Source/tasks.c **** #define tskSTATIC_AND_DYNAMIC_ALLOCATION_POSSIBLE ( ( ( configSUPPORT_STATIC_ALLOCATION == 1 ) && (
 136:..\Source/tasks.c **** #define tskDYNAMICALLY_ALLOCATED_STACK_AND_TCB 		( ( uint8_t ) 0 )
 137:..\Source/tasks.c **** #define tskSTATICALLY_ALLOCATED_STACK_ONLY 			( ( uint8_t ) 1 )
 138:..\Source/tasks.c **** #define tskSTATICALLY_ALLOCATED_STACK_AND_TCB		( ( uint8_t ) 2 )
 139:..\Source/tasks.c **** 
 140:..\Source/tasks.c **** /*
 141:..\Source/tasks.c ****  * Macros used by vListTask to indicate which state a task is in.
 142:..\Source/tasks.c ****  */
 143:..\Source/tasks.c **** #define tskBLOCKED_CHAR		( 'B' )
 144:..\Source/tasks.c **** #define tskREADY_CHAR		( 'R' )
 145:..\Source/tasks.c **** #define tskDELETED_CHAR		( 'D' )
 146:..\Source/tasks.c **** #define tskSUSPENDED_CHAR	( 'S' )
 147:..\Source/tasks.c **** 
 148:..\Source/tasks.c **** /*
 149:..\Source/tasks.c ****  * Some kernel aware debuggers require the data the debugger needs access to be
 150:..\Source/tasks.c ****  * global, rather than file scope.
 151:..\Source/tasks.c ****  */
 152:..\Source/tasks.c **** #ifdef portREMOVE_STATIC_QUALIFIER
 153:..\Source/tasks.c **** 	#define static
 154:..\Source/tasks.c **** #endif
 155:..\Source/tasks.c **** 
 156:..\Source/tasks.c **** #if ( configUSE_PORT_OPTIMISED_TASK_SELECTION == 0 )
 157:..\Source/tasks.c **** 
 158:..\Source/tasks.c **** 	/* If configUSE_PORT_OPTIMISED_TASK_SELECTION is 0 then task selection is
 159:..\Source/tasks.c **** 	performed in a generic way that is not optimised to any particular
 160:..\Source/tasks.c **** 	microcontroller architecture. */
 161:..\Source/tasks.c **** 
 162:..\Source/tasks.c **** 	/* uxTopReadyPriority holds the priority of the highest priority ready
 163:..\Source/tasks.c **** 	state task. */
 164:..\Source/tasks.c **** 	#define taskRECORD_READY_PRIORITY( uxPriority )														\
 165:..\Source/tasks.c **** 	{																									\
 166:..\Source/tasks.c **** 		if( ( uxPriority ) > uxTopReadyPriority )														\
 167:..\Source/tasks.c **** 		{																								\
 168:..\Source/tasks.c **** 			uxTopReadyPriority = ( uxPriority );														\
ARM GAS  C:\Users\bmt\AppData\Local\Temp\ccld84Qq.s 			page 6


 169:..\Source/tasks.c **** 		}																								\
 170:..\Source/tasks.c **** 	} /* taskRECORD_READY_PRIORITY */
 171:..\Source/tasks.c **** 
 172:..\Source/tasks.c **** 	/*-----------------------------------------------------------*/
 173:..\Source/tasks.c **** 
 174:..\Source/tasks.c **** 	#define taskSELECT_HIGHEST_PRIORITY_TASK()															\
 175:..\Source/tasks.c **** 	{																									\
 176:..\Source/tasks.c **** 	UBaseType_t uxTopPriority = uxTopReadyPriority;														\
 177:..\Source/tasks.c **** 																										\
 178:..\Source/tasks.c **** 		/* Find the highest priority queue that contains ready tasks. */								\
 179:..\Source/tasks.c **** 		while( listLIST_IS_EMPTY( &( pxReadyTasksLists[ uxTopPriority ] ) ) )							\
 180:..\Source/tasks.c **** 		{																								\
 181:..\Source/tasks.c **** 			configASSERT( uxTopPriority );																\
 182:..\Source/tasks.c **** 			--uxTopPriority;																			\
 183:..\Source/tasks.c **** 		}																								\
 184:..\Source/tasks.c **** 																										\
 185:..\Source/tasks.c **** 		/* listGET_OWNER_OF_NEXT_ENTRY indexes through the list, so the tasks of						\
 186:..\Source/tasks.c **** 		the	same priority get an equal share of the processor time. */									\
 187:..\Source/tasks.c **** 		listGET_OWNER_OF_NEXT_ENTRY( pxCurrentTCB, &( pxReadyTasksLists[ uxTopPriority ] ) );			\
 188:..\Source/tasks.c **** 		uxTopReadyPriority = uxTopPriority;																\
 189:..\Source/tasks.c **** 	} /* taskSELECT_HIGHEST_PRIORITY_TASK */
 190:..\Source/tasks.c **** 
 191:..\Source/tasks.c **** 	/*-----------------------------------------------------------*/
 192:..\Source/tasks.c **** 
 193:..\Source/tasks.c **** 	/* Define away taskRESET_READY_PRIORITY() and portRESET_READY_PRIORITY() as
 194:..\Source/tasks.c **** 	they are only required when a port optimised method of task selection is
 195:..\Source/tasks.c **** 	being used. */
 196:..\Source/tasks.c **** 	#define taskRESET_READY_PRIORITY( uxPriority )
 197:..\Source/tasks.c **** 	#define portRESET_READY_PRIORITY( uxPriority, uxTopReadyPriority )
 198:..\Source/tasks.c **** 
 199:..\Source/tasks.c **** #else /* configUSE_PORT_OPTIMISED_TASK_SELECTION */
 200:..\Source/tasks.c **** 
 201:..\Source/tasks.c **** 	/* If configUSE_PORT_OPTIMISED_TASK_SELECTION is 1 then task selection is
 202:..\Source/tasks.c **** 	performed in a way that is tailored to the particular microcontroller
 203:..\Source/tasks.c **** 	architecture being used. */
 204:..\Source/tasks.c **** 
 205:..\Source/tasks.c **** 	/* A port optimised version is provided.  Call the port defined macros. */
 206:..\Source/tasks.c **** 	#define taskRECORD_READY_PRIORITY( uxPriority )	portRECORD_READY_PRIORITY( uxPriority, uxTopReadyP
 207:..\Source/tasks.c **** 
 208:..\Source/tasks.c **** 	/*-----------------------------------------------------------*/
 209:..\Source/tasks.c **** 
 210:..\Source/tasks.c **** 	#define taskSELECT_HIGHEST_PRIORITY_TASK()														\
 211:..\Source/tasks.c **** 	{																								\
 212:..\Source/tasks.c **** 	UBaseType_t uxTopPriority;																		\
 213:..\Source/tasks.c **** 																									\
 214:..\Source/tasks.c **** 		/* Find the highest priority list that contains ready tasks. */								\
 215:..\Source/tasks.c **** 		portGET_HIGHEST_PRIORITY( uxTopPriority, uxTopReadyPriority );								\
 216:..\Source/tasks.c **** 		configASSERT( listCURRENT_LIST_LENGTH( &( pxReadyTasksLists[ uxTopPriority ] ) ) > 0 );		\
 217:..\Source/tasks.c **** 		listGET_OWNER_OF_NEXT_ENTRY( pxCurrentTCB, &( pxReadyTasksLists[ uxTopPriority ] ) );		\
 218:..\Source/tasks.c **** 	} /* taskSELECT_HIGHEST_PRIORITY_TASK() */
 219:..\Source/tasks.c **** 
 220:..\Source/tasks.c **** 	/*-----------------------------------------------------------*/
 221:..\Source/tasks.c **** 
 222:..\Source/tasks.c **** 	/* A port optimised version is provided, call it only if the TCB being reset
 223:..\Source/tasks.c **** 	is being referenced from a ready list.  If it is referenced from a delayed
 224:..\Source/tasks.c **** 	or suspended list then it won't be in a ready list. */
 225:..\Source/tasks.c **** 	#define taskRESET_READY_PRIORITY( uxPriority )														\
ARM GAS  C:\Users\bmt\AppData\Local\Temp\ccld84Qq.s 			page 7


 226:..\Source/tasks.c **** 	{																									\
 227:..\Source/tasks.c **** 		if( listCURRENT_LIST_LENGTH( &( pxReadyTasksLists[ ( uxPriority ) ] ) ) == ( UBaseType_t ) 0 )	\
 228:..\Source/tasks.c **** 		{																								\
 229:..\Source/tasks.c **** 			portRESET_READY_PRIORITY( ( uxPriority ), ( uxTopReadyPriority ) );							\
 230:..\Source/tasks.c **** 		}																								\
 231:..\Source/tasks.c **** 	}
 232:..\Source/tasks.c **** 
 233:..\Source/tasks.c **** #endif /* configUSE_PORT_OPTIMISED_TASK_SELECTION */
 234:..\Source/tasks.c **** 
 235:..\Source/tasks.c **** /*-----------------------------------------------------------*/
 236:..\Source/tasks.c **** 
 237:..\Source/tasks.c **** /* pxDelayedTaskList and pxOverflowDelayedTaskList are switched when the tick
 238:..\Source/tasks.c **** count overflows. */
 239:..\Source/tasks.c **** #define taskSWITCH_DELAYED_LISTS()																	\
 240:..\Source/tasks.c **** {																									\
 241:..\Source/tasks.c **** 	List_t *pxTemp;																					\
 242:..\Source/tasks.c **** 																									\
 243:..\Source/tasks.c **** 	/* The delayed tasks list should be empty when the lists are switched. */						\
 244:..\Source/tasks.c **** 	configASSERT( ( listLIST_IS_EMPTY( pxDelayedTaskList ) ) );										\
 245:..\Source/tasks.c **** 																									\
 246:..\Source/tasks.c **** 	pxTemp = pxDelayedTaskList;																		\
 247:..\Source/tasks.c **** 	pxDelayedTaskList = pxOverflowDelayedTaskList;													\
 248:..\Source/tasks.c **** 	pxOverflowDelayedTaskList = pxTemp;																\
 249:..\Source/tasks.c **** 	xNumOfOverflows++;																				\
 250:..\Source/tasks.c **** 	prvResetNextTaskUnblockTime();																	\
 251:..\Source/tasks.c **** }
 252:..\Source/tasks.c **** 
 253:..\Source/tasks.c **** /*-----------------------------------------------------------*/
 254:..\Source/tasks.c **** 
 255:..\Source/tasks.c **** /*
 256:..\Source/tasks.c ****  * Place the task represented by pxTCB into the appropriate ready list for
 257:..\Source/tasks.c ****  * the task.  It is inserted at the end of the list.
 258:..\Source/tasks.c ****  */
 259:..\Source/tasks.c **** #define prvAddTaskToReadyList( pxTCB )																\
 260:..\Source/tasks.c **** 	traceMOVED_TASK_TO_READY_STATE( pxTCB );														\
 261:..\Source/tasks.c **** 	taskRECORD_READY_PRIORITY( ( pxTCB )->uxPriority );												\
 262:..\Source/tasks.c **** 	vListInsertEnd( &( pxReadyTasksLists[ ( pxTCB )->uxPriority ] ), &( ( pxTCB )->xStateListItem ) );
 263:..\Source/tasks.c **** 	tracePOST_MOVED_TASK_TO_READY_STATE( pxTCB )
 264:..\Source/tasks.c **** /*-----------------------------------------------------------*/
 265:..\Source/tasks.c **** 
 266:..\Source/tasks.c **** /*
 267:..\Source/tasks.c ****  * Several functions take an TaskHandle_t parameter that can optionally be NULL,
 268:..\Source/tasks.c ****  * where NULL is used to indicate that the handle of the currently executing
 269:..\Source/tasks.c ****  * task should be used in place of the parameter.  This macro simply checks to
 270:..\Source/tasks.c ****  * see if the parameter is NULL and returns a pointer to the appropriate TCB.
 271:..\Source/tasks.c ****  */
 272:..\Source/tasks.c **** #define prvGetTCBFromHandle( pxHandle ) ( ( ( pxHandle ) == NULL ) ? ( TCB_t * ) pxCurrentTCB : ( T
 273:..\Source/tasks.c **** 
 274:..\Source/tasks.c **** /* The item value of the event list item is normally used to hold the priority
 275:..\Source/tasks.c **** of the task to which it belongs (coded to allow it to be held in reverse
 276:..\Source/tasks.c **** priority order).  However, it is occasionally borrowed for other purposes.  It
 277:..\Source/tasks.c **** is important its value is not updated due to a task priority change while it is
 278:..\Source/tasks.c **** being used for another purpose.  The following bit definition is used to inform
 279:..\Source/tasks.c **** the scheduler that the value should not be changed - in which case it is the
 280:..\Source/tasks.c **** responsibility of whichever module is using the value to ensure it gets set back
 281:..\Source/tasks.c **** to its original value when it is released. */
 282:..\Source/tasks.c **** #if( configUSE_16_BIT_TICKS == 1 )
ARM GAS  C:\Users\bmt\AppData\Local\Temp\ccld84Qq.s 			page 8


 283:..\Source/tasks.c **** 	#define taskEVENT_LIST_ITEM_VALUE_IN_USE	0x8000U
 284:..\Source/tasks.c **** #else
 285:..\Source/tasks.c **** 	#define taskEVENT_LIST_ITEM_VALUE_IN_USE	0x80000000UL
 286:..\Source/tasks.c **** #endif
 287:..\Source/tasks.c **** 
 288:..\Source/tasks.c **** /*
 289:..\Source/tasks.c ****  * Task control block.  A task control block (TCB) is allocated for each task,
 290:..\Source/tasks.c ****  * and stores task state information, including a pointer to the task's context
 291:..\Source/tasks.c ****  * (the task's run time environment, including register values)
 292:..\Source/tasks.c ****  */
 293:..\Source/tasks.c **** typedef struct tskTaskControlBlock
 294:..\Source/tasks.c **** {
 295:..\Source/tasks.c **** 	volatile StackType_t	*pxTopOfStack;	/*< Points to the location of the last item placed on the task
 296:..\Source/tasks.c **** 
 297:..\Source/tasks.c **** 	#if ( portUSING_MPU_WRAPPERS == 1 )
 298:..\Source/tasks.c **** 		xMPU_SETTINGS	xMPUSettings;		/*< The MPU settings are defined as part of the port layer.  THIS MU
 299:..\Source/tasks.c **** 	#endif
 300:..\Source/tasks.c **** 
 301:..\Source/tasks.c **** 	ListItem_t			xStateListItem;	/*< The list that the state list item of a task is reference from den
 302:..\Source/tasks.c **** 	ListItem_t			xEventListItem;		/*< Used to reference a task from an event list. */
 303:..\Source/tasks.c **** 	UBaseType_t			uxPriority;			/*< The priority of the task.  0 is the lowest priority. */
 304:..\Source/tasks.c **** 	StackType_t			*pxStack;			/*< Points to the start of the stack. */
 305:..\Source/tasks.c **** 	char				pcTaskName[ configMAX_TASK_NAME_LEN ];/*< Descriptive name given to the task when created.
 306:..\Source/tasks.c **** 
 307:..\Source/tasks.c **** 	#if ( portSTACK_GROWTH > 0 )
 308:..\Source/tasks.c **** 		StackType_t		*pxEndOfStack;		/*< Points to the end of the stack on architectures where the stack 
 309:..\Source/tasks.c **** 	#endif
 310:..\Source/tasks.c **** 
 311:..\Source/tasks.c **** 	#if ( portCRITICAL_NESTING_IN_TCB == 1 )
 312:..\Source/tasks.c **** 		UBaseType_t		uxCriticalNesting;	/*< Holds the critical section nesting depth for ports that do no
 313:..\Source/tasks.c **** 	#endif
 314:..\Source/tasks.c **** 
 315:..\Source/tasks.c **** 	#if ( configUSE_TRACE_FACILITY == 1 )
 316:..\Source/tasks.c **** 		UBaseType_t		uxTCBNumber;		/*< Stores a number that increments each time a TCB is created.  It al
 317:..\Source/tasks.c **** 		UBaseType_t		uxTaskNumber;		/*< Stores a number specifically for use by third party trace code. *
 318:..\Source/tasks.c **** 	#endif
 319:..\Source/tasks.c **** 
 320:..\Source/tasks.c **** 	#if ( configUSE_MUTEXES == 1 )
 321:..\Source/tasks.c **** 		UBaseType_t		uxBasePriority;		/*< The priority last assigned to the task - used by the priority i
 322:..\Source/tasks.c **** 		UBaseType_t		uxMutexesHeld;
 323:..\Source/tasks.c **** 	#endif
 324:..\Source/tasks.c **** 
 325:..\Source/tasks.c **** 	#if ( configUSE_APPLICATION_TASK_TAG == 1 )
 326:..\Source/tasks.c **** 		TaskHookFunction_t pxTaskTag;
 327:..\Source/tasks.c **** 	#endif
 328:..\Source/tasks.c **** 
 329:..\Source/tasks.c **** 	#if( configNUM_THREAD_LOCAL_STORAGE_POINTERS > 0 )
 330:..\Source/tasks.c **** 		void *pvThreadLocalStoragePointers[ configNUM_THREAD_LOCAL_STORAGE_POINTERS ];
 331:..\Source/tasks.c **** 	#endif
 332:..\Source/tasks.c **** 
 333:..\Source/tasks.c **** 	#if( configGENERATE_RUN_TIME_STATS == 1 )
 334:..\Source/tasks.c **** 		uint32_t		ulRunTimeCounter;	/*< Stores the amount of time the task has spent in the Running state
 335:..\Source/tasks.c **** 	#endif
 336:..\Source/tasks.c **** 
 337:..\Source/tasks.c **** 	#if ( configUSE_NEWLIB_REENTRANT == 1 )
 338:..\Source/tasks.c **** 		/* Allocate a Newlib reent structure that is specific to this task.
 339:..\Source/tasks.c **** 		Note Newlib support has been included by popular demand, but is not
ARM GAS  C:\Users\bmt\AppData\Local\Temp\ccld84Qq.s 			page 9


 340:..\Source/tasks.c **** 		used by the FreeRTOS maintainers themselves.  FreeRTOS is not
 341:..\Source/tasks.c **** 		responsible for resulting newlib operation.  User must be familiar with
 342:..\Source/tasks.c **** 		newlib and must provide system-wide implementations of the necessary
 343:..\Source/tasks.c **** 		stubs. Be warned that (at the time of writing) the current newlib design
 344:..\Source/tasks.c **** 		implements a system-wide malloc() that must be provided with locks. */
 345:..\Source/tasks.c **** 		struct	_reent xNewLib_reent;
 346:..\Source/tasks.c **** 	#endif
 347:..\Source/tasks.c **** 
 348:..\Source/tasks.c **** 	#if( configUSE_TASK_NOTIFICATIONS == 1 )
 349:..\Source/tasks.c **** 		volatile uint32_t ulNotifiedValue;
 350:..\Source/tasks.c **** 		volatile uint8_t ucNotifyState;
 351:..\Source/tasks.c **** 	#endif
 352:..\Source/tasks.c **** 
 353:..\Source/tasks.c **** 	/* See the comments above the definition of
 354:..\Source/tasks.c **** 	tskSTATIC_AND_DYNAMIC_ALLOCATION_POSSIBLE. */
 355:..\Source/tasks.c **** 	#if( tskSTATIC_AND_DYNAMIC_ALLOCATION_POSSIBLE != 0 )
 356:..\Source/tasks.c **** 		uint8_t	ucStaticallyAllocated; 		/*< Set to pdTRUE if the task is a statically allocated to ensur
 357:..\Source/tasks.c **** 	#endif
 358:..\Source/tasks.c **** 
 359:..\Source/tasks.c **** 	#if( INCLUDE_xTaskAbortDelay == 1 )
 360:..\Source/tasks.c **** 		uint8_t ucDelayAborted;
 361:..\Source/tasks.c **** 	#endif
 362:..\Source/tasks.c **** 
 363:..\Source/tasks.c **** } tskTCB;
 364:..\Source/tasks.c **** 
 365:..\Source/tasks.c **** /* The old tskTCB name is maintained above then typedefed to the new TCB_t name
 366:..\Source/tasks.c **** below to enable the use of older kernel aware debuggers. */
 367:..\Source/tasks.c **** typedef tskTCB TCB_t;
 368:..\Source/tasks.c **** 
 369:..\Source/tasks.c **** /*lint -e956 A manual analysis and inspection has been used to determine which
 370:..\Source/tasks.c **** static variables must be declared volatile. */
 371:..\Source/tasks.c **** 
 372:..\Source/tasks.c **** PRIVILEGED_DATA TCB_t * volatile pxCurrentTCB = NULL;
 373:..\Source/tasks.c **** 
 374:..\Source/tasks.c **** /* Lists for ready and blocked tasks. --------------------*/
 375:..\Source/tasks.c **** PRIVILEGED_DATA static List_t pxReadyTasksLists[ configMAX_PRIORITIES ];/*< Prioritised ready tasks
 376:..\Source/tasks.c **** PRIVILEGED_DATA static List_t xDelayedTaskList1;						/*< Delayed tasks. */
 377:..\Source/tasks.c **** PRIVILEGED_DATA static List_t xDelayedTaskList2;						/*< Delayed tasks (two lists are used - one f
 378:..\Source/tasks.c **** PRIVILEGED_DATA static List_t * volatile pxDelayedTaskList;				/*< Points to the delayed task list 
 379:..\Source/tasks.c **** PRIVILEGED_DATA static List_t * volatile pxOverflowDelayedTaskList;		/*< Points to the delayed task
 380:..\Source/tasks.c **** PRIVILEGED_DATA static List_t xPendingReadyList;						/*< Tasks that have been readied while the sc
 381:..\Source/tasks.c **** 
 382:..\Source/tasks.c **** #if( INCLUDE_vTaskDelete == 1 )
 383:..\Source/tasks.c **** 
 384:..\Source/tasks.c **** 	PRIVILEGED_DATA static List_t xTasksWaitingTermination;				/*< Tasks that have been deleted - but 
 385:..\Source/tasks.c **** 	PRIVILEGED_DATA static volatile UBaseType_t uxDeletedTasksWaitingCleanUp = ( UBaseType_t ) 0U;
 386:..\Source/tasks.c **** 
 387:..\Source/tasks.c **** #endif
 388:..\Source/tasks.c **** 
 389:..\Source/tasks.c **** #if ( INCLUDE_vTaskSuspend == 1 )
 390:..\Source/tasks.c **** 
 391:..\Source/tasks.c **** 	PRIVILEGED_DATA static List_t xSuspendedTaskList;					/*< Tasks that are currently suspended. */
 392:..\Source/tasks.c **** 
 393:..\Source/tasks.c **** #endif
 394:..\Source/tasks.c **** 
 395:..\Source/tasks.c **** /* Other file private variables. --------------------------------*/
 396:..\Source/tasks.c **** PRIVILEGED_DATA static volatile UBaseType_t uxCurrentNumberOfTasks 	= ( UBaseType_t ) 0U;
ARM GAS  C:\Users\bmt\AppData\Local\Temp\ccld84Qq.s 			page 10


 397:..\Source/tasks.c **** PRIVILEGED_DATA static volatile TickType_t xTickCount 				= ( TickType_t ) 0U;
 398:..\Source/tasks.c **** PRIVILEGED_DATA static volatile UBaseType_t uxTopReadyPriority 		= tskIDLE_PRIORITY;
 399:..\Source/tasks.c **** PRIVILEGED_DATA static volatile BaseType_t xSchedulerRunning 		= pdFALSE;
 400:..\Source/tasks.c **** PRIVILEGED_DATA static volatile UBaseType_t uxPendedTicks 			= ( UBaseType_t ) 0U;
 401:..\Source/tasks.c **** PRIVILEGED_DATA static volatile BaseType_t xYieldPending 			= pdFALSE;
 402:..\Source/tasks.c **** PRIVILEGED_DATA static volatile BaseType_t xNumOfOverflows 			= ( BaseType_t ) 0;
 403:..\Source/tasks.c **** PRIVILEGED_DATA static UBaseType_t uxTaskNumber 					= ( UBaseType_t ) 0U;
 404:..\Source/tasks.c **** PRIVILEGED_DATA static volatile TickType_t xNextTaskUnblockTime		= ( TickType_t ) 0U; /* Initialise
 405:..\Source/tasks.c **** PRIVILEGED_DATA static TaskHandle_t xIdleTaskHandle					= NULL;			/*< Holds the handle of the idle 
 406:..\Source/tasks.c **** 
 407:..\Source/tasks.c **** /* Context switches are held pending while the scheduler is suspended.  Also,
 408:..\Source/tasks.c **** interrupts must not manipulate the xStateListItem of a TCB, or any of the
 409:..\Source/tasks.c **** lists the xStateListItem can be referenced from, if the scheduler is suspended.
 410:..\Source/tasks.c **** If an interrupt needs to unblock a task while the scheduler is suspended then it
 411:..\Source/tasks.c **** moves the task's event list item into the xPendingReadyList, ready for the
 412:..\Source/tasks.c **** kernel to move the task from the pending ready list into the real ready list
 413:..\Source/tasks.c **** when the scheduler is unsuspended.  The pending ready list itself can only be
 414:..\Source/tasks.c **** accessed from a critical section. */
 415:..\Source/tasks.c **** PRIVILEGED_DATA static volatile UBaseType_t uxSchedulerSuspended	= ( UBaseType_t ) pdFALSE;
 416:..\Source/tasks.c **** 
 417:..\Source/tasks.c **** #if ( configGENERATE_RUN_TIME_STATS == 1 )
 418:..\Source/tasks.c **** 
 419:..\Source/tasks.c **** 	PRIVILEGED_DATA static uint32_t ulTaskSwitchedInTime = 0UL;	/*< Holds the value of a timer/counter
 420:..\Source/tasks.c **** 	PRIVILEGED_DATA static uint32_t ulTotalRunTime = 0UL;		/*< Holds the total amount of execution tim
 421:..\Source/tasks.c **** 
 422:..\Source/tasks.c **** #endif
 423:..\Source/tasks.c **** 
 424:..\Source/tasks.c **** /*lint +e956 */
 425:..\Source/tasks.c **** 
 426:..\Source/tasks.c **** /*-----------------------------------------------------------*/
 427:..\Source/tasks.c **** 
 428:..\Source/tasks.c **** /* Callback function prototypes. --------------------------*/
 429:..\Source/tasks.c **** #if(  configCHECK_FOR_STACK_OVERFLOW > 0 )
 430:..\Source/tasks.c **** 	extern void vApplicationStackOverflowHook( TaskHandle_t xTask, char *pcTaskName );
 431:..\Source/tasks.c **** #endif
 432:..\Source/tasks.c **** 
 433:..\Source/tasks.c **** #if( configUSE_TICK_HOOK > 0 )
 434:..\Source/tasks.c **** 	extern void vApplicationTickHook( void );
 435:..\Source/tasks.c **** #endif
 436:..\Source/tasks.c **** 
 437:..\Source/tasks.c **** #if( configSUPPORT_STATIC_ALLOCATION == 1 )
 438:..\Source/tasks.c **** 	extern void vApplicationGetIdleTaskMemory( StaticTask_t **ppxIdleTaskTCBBuffer, StackType_t **ppxI
 439:..\Source/tasks.c **** #endif
 440:..\Source/tasks.c **** 
 441:..\Source/tasks.c **** /* File private functions. --------------------------------*/
 442:..\Source/tasks.c **** 
 443:..\Source/tasks.c **** /**
 444:..\Source/tasks.c ****  * Utility task that simply returns pdTRUE if the task referenced by xTask is
 445:..\Source/tasks.c ****  * currently in the Suspended state, or pdFALSE if the task referenced by xTask
 446:..\Source/tasks.c ****  * is in any other state.
 447:..\Source/tasks.c ****  */
 448:..\Source/tasks.c **** #if ( INCLUDE_vTaskSuspend == 1 )
 449:..\Source/tasks.c **** 	static BaseType_t prvTaskIsTaskSuspended( const TaskHandle_t xTask ) PRIVILEGED_FUNCTION;
 450:..\Source/tasks.c **** #endif /* INCLUDE_vTaskSuspend */
 451:..\Source/tasks.c **** 
 452:..\Source/tasks.c **** /*
 453:..\Source/tasks.c ****  * Utility to ready all the lists used by the scheduler.  This is called
ARM GAS  C:\Users\bmt\AppData\Local\Temp\ccld84Qq.s 			page 11


 454:..\Source/tasks.c ****  * automatically upon the creation of the first task.
 455:..\Source/tasks.c ****  */
 456:..\Source/tasks.c **** static void prvInitialiseTaskLists( void ) PRIVILEGED_FUNCTION;
 457:..\Source/tasks.c **** 
 458:..\Source/tasks.c **** /*
 459:..\Source/tasks.c ****  * The idle task, which as all tasks is implemented as a never ending loop.
 460:..\Source/tasks.c ****  * The idle task is automatically created and added to the ready lists upon
 461:..\Source/tasks.c ****  * creation of the first user task.
 462:..\Source/tasks.c ****  *
 463:..\Source/tasks.c ****  * The portTASK_FUNCTION_PROTO() macro is used to allow port/compiler specific
 464:..\Source/tasks.c ****  * language extensions.  The equivalent prototype for this function is:
 465:..\Source/tasks.c ****  *
 466:..\Source/tasks.c ****  * void prvIdleTask( void *pvParameters );
 467:..\Source/tasks.c ****  *
 468:..\Source/tasks.c ****  */
 469:..\Source/tasks.c **** static portTASK_FUNCTION_PROTO( prvIdleTask, pvParameters );
 470:..\Source/tasks.c **** 
 471:..\Source/tasks.c **** /*
 472:..\Source/tasks.c ****  * Utility to free all memory allocated by the scheduler to hold a TCB,
 473:..\Source/tasks.c ****  * including the stack pointed to by the TCB.
 474:..\Source/tasks.c ****  *
 475:..\Source/tasks.c ****  * This does not free memory allocated by the task itself (i.e. memory
 476:..\Source/tasks.c ****  * allocated by calls to pvPortMalloc from within the tasks application code).
 477:..\Source/tasks.c ****  */
 478:..\Source/tasks.c **** #if ( INCLUDE_vTaskDelete == 1 )
 479:..\Source/tasks.c **** 
 480:..\Source/tasks.c **** 	static void prvDeleteTCB( TCB_t *pxTCB ) PRIVILEGED_FUNCTION;
 481:..\Source/tasks.c **** 
 482:..\Source/tasks.c **** #endif
 483:..\Source/tasks.c **** 
 484:..\Source/tasks.c **** /*
 485:..\Source/tasks.c ****  * Used only by the idle task.  This checks to see if anything has been placed
 486:..\Source/tasks.c ****  * in the list of tasks waiting to be deleted.  If so the task is cleaned up
 487:..\Source/tasks.c ****  * and its TCB deleted.
 488:..\Source/tasks.c ****  */
 489:..\Source/tasks.c **** static void prvCheckTasksWaitingTermination( void ) PRIVILEGED_FUNCTION;
 490:..\Source/tasks.c **** 
 491:..\Source/tasks.c **** /*
 492:..\Source/tasks.c ****  * The currently executing task is entering the Blocked state.  Add the task to
 493:..\Source/tasks.c ****  * either the current or the overflow delayed task list.
 494:..\Source/tasks.c ****  */
 495:..\Source/tasks.c **** static void prvAddCurrentTaskToDelayedList( TickType_t xTicksToWait, const BaseType_t xCanBlockInde
 496:..\Source/tasks.c **** 
 497:..\Source/tasks.c **** /*
 498:..\Source/tasks.c ****  * Fills an TaskStatus_t structure with information on each task that is
 499:..\Source/tasks.c ****  * referenced from the pxList list (which may be a ready list, a delayed list,
 500:..\Source/tasks.c ****  * a suspended list, etc.).
 501:..\Source/tasks.c ****  *
 502:..\Source/tasks.c ****  * THIS FUNCTION IS INTENDED FOR DEBUGGING ONLY, AND SHOULD NOT BE CALLED FROM
 503:..\Source/tasks.c ****  * NORMAL APPLICATION CODE.
 504:..\Source/tasks.c ****  */
 505:..\Source/tasks.c **** #if ( configUSE_TRACE_FACILITY == 1 )
 506:..\Source/tasks.c **** 
 507:..\Source/tasks.c **** 	static UBaseType_t prvListTasksWithinSingleList( TaskStatus_t *pxTaskStatusArray, List_t *pxList, 
 508:..\Source/tasks.c **** 
 509:..\Source/tasks.c **** #endif
 510:..\Source/tasks.c **** 
ARM GAS  C:\Users\bmt\AppData\Local\Temp\ccld84Qq.s 			page 12


 511:..\Source/tasks.c **** /*
 512:..\Source/tasks.c ****  * Searches pxList for a task with name pcNameToQuery - returning a handle to
 513:..\Source/tasks.c ****  * the task if it is found, or NULL if the task is not found.
 514:..\Source/tasks.c ****  */
 515:..\Source/tasks.c **** #if ( INCLUDE_xTaskGetHandle == 1 )
 516:..\Source/tasks.c **** 
 517:..\Source/tasks.c **** 	static TCB_t *prvSearchForNameWithinSingleList( List_t *pxList, const char pcNameToQuery[] ) PRIVI
 518:..\Source/tasks.c **** 
 519:..\Source/tasks.c **** #endif
 520:..\Source/tasks.c **** 
 521:..\Source/tasks.c **** /*
 522:..\Source/tasks.c ****  * When a task is created, the stack of the task is filled with a known value.
 523:..\Source/tasks.c ****  * This function determines the 'high water mark' of the task stack by
 524:..\Source/tasks.c ****  * determining how much of the stack remains at the original preset value.
 525:..\Source/tasks.c ****  */
 526:..\Source/tasks.c **** #if ( ( configUSE_TRACE_FACILITY == 1 ) || ( INCLUDE_uxTaskGetStackHighWaterMark == 1 ) )
 527:..\Source/tasks.c **** 
 528:..\Source/tasks.c **** 	static uint16_t prvTaskCheckFreeStackSpace( const uint8_t * pucStackByte ) PRIVILEGED_FUNCTION;
 529:..\Source/tasks.c **** 
 530:..\Source/tasks.c **** #endif
 531:..\Source/tasks.c **** 
 532:..\Source/tasks.c **** /*
 533:..\Source/tasks.c ****  * Return the amount of time, in ticks, that will pass before the kernel will
 534:..\Source/tasks.c ****  * next move a task from the Blocked state to the Running state.
 535:..\Source/tasks.c ****  *
 536:..\Source/tasks.c ****  * This conditional compilation should use inequality to 0, not equality to 1.
 537:..\Source/tasks.c ****  * This is to ensure portSUPPRESS_TICKS_AND_SLEEP() can be called when user
 538:..\Source/tasks.c ****  * defined low power mode implementations require configUSE_TICKLESS_IDLE to be
 539:..\Source/tasks.c ****  * set to a value other than 1.
 540:..\Source/tasks.c ****  */
 541:..\Source/tasks.c **** #if ( configUSE_TICKLESS_IDLE != 0 )
 542:..\Source/tasks.c **** 
 543:..\Source/tasks.c **** 	static TickType_t prvGetExpectedIdleTime( void ) PRIVILEGED_FUNCTION;
 544:..\Source/tasks.c **** 
 545:..\Source/tasks.c **** #endif
 546:..\Source/tasks.c **** 
 547:..\Source/tasks.c **** /*
 548:..\Source/tasks.c ****  * Set xNextTaskUnblockTime to the time at which the next Blocked state task
 549:..\Source/tasks.c ****  * will exit the Blocked state.
 550:..\Source/tasks.c ****  */
 551:..\Source/tasks.c **** static void prvResetNextTaskUnblockTime( void );
 552:..\Source/tasks.c **** 
 553:..\Source/tasks.c **** #if ( ( configUSE_TRACE_FACILITY == 1 ) && ( configUSE_STATS_FORMATTING_FUNCTIONS > 0 ) )
 554:..\Source/tasks.c **** 
 555:..\Source/tasks.c **** 	/*
 556:..\Source/tasks.c **** 	 * Helper function used to pad task names with spaces when printing out
 557:..\Source/tasks.c **** 	 * human readable tables of task information.
 558:..\Source/tasks.c **** 	 */
 559:..\Source/tasks.c **** 	static char *prvWriteNameToBuffer( char *pcBuffer, const char *pcTaskName ) PRIVILEGED_FUNCTION;
 560:..\Source/tasks.c **** 
 561:..\Source/tasks.c **** #endif
 562:..\Source/tasks.c **** 
 563:..\Source/tasks.c **** /*
 564:..\Source/tasks.c ****  * Called after a Task_t structure has been allocated either statically or
 565:..\Source/tasks.c ****  * dynamically to fill in the structure's members.
 566:..\Source/tasks.c ****  */
 567:..\Source/tasks.c **** static void prvInitialiseNewTask( 	TaskFunction_t pxTaskCode,
ARM GAS  C:\Users\bmt\AppData\Local\Temp\ccld84Qq.s 			page 13


 568:..\Source/tasks.c **** 									const char * const pcName,
 569:..\Source/tasks.c **** 									const uint32_t ulStackDepth,
 570:..\Source/tasks.c **** 									void * const pvParameters,
 571:..\Source/tasks.c **** 									UBaseType_t uxPriority,
 572:..\Source/tasks.c **** 									TaskHandle_t * const pxCreatedTask,
 573:..\Source/tasks.c **** 									TCB_t *pxNewTCB,
 574:..\Source/tasks.c **** 									const MemoryRegion_t * const xRegions ) PRIVILEGED_FUNCTION; /*lint !e971 Unqualified char
 575:..\Source/tasks.c **** 
 576:..\Source/tasks.c **** /*
 577:..\Source/tasks.c ****  * Called after a new task has been created and initialised to place the task
 578:..\Source/tasks.c ****  * under the control of the scheduler.
 579:..\Source/tasks.c ****  */
 580:..\Source/tasks.c **** static void prvAddNewTaskToReadyList( TCB_t *pxNewTCB ) PRIVILEGED_FUNCTION;
 581:..\Source/tasks.c **** 
 582:..\Source/tasks.c **** /*-----------------------------------------------------------*/
 583:..\Source/tasks.c **** 
 584:..\Source/tasks.c **** #if( configSUPPORT_STATIC_ALLOCATION == 1 )
 585:..\Source/tasks.c **** 
 586:..\Source/tasks.c **** 	TaskHandle_t xTaskCreateStatic(	TaskFunction_t pxTaskCode,
 587:..\Source/tasks.c **** 									const char * const pcName,
 588:..\Source/tasks.c **** 									const uint32_t ulStackDepth,
 589:..\Source/tasks.c **** 									void * const pvParameters,
 590:..\Source/tasks.c **** 									UBaseType_t uxPriority,
 591:..\Source/tasks.c **** 									StackType_t * const puxStackBuffer,
 592:..\Source/tasks.c **** 									StaticTask_t * const pxTaskBuffer ) /*lint !e971 Unqualified char types are allowed for st
 593:..\Source/tasks.c **** 	{
 594:..\Source/tasks.c **** 	TCB_t *pxNewTCB;
 595:..\Source/tasks.c **** 	TaskHandle_t xReturn;
 596:..\Source/tasks.c **** 
 597:..\Source/tasks.c **** 		configASSERT( puxStackBuffer != NULL );
 598:..\Source/tasks.c **** 		configASSERT( pxTaskBuffer != NULL );
 599:..\Source/tasks.c **** 
 600:..\Source/tasks.c **** 		if( ( pxTaskBuffer != NULL ) && ( puxStackBuffer != NULL ) )
 601:..\Source/tasks.c **** 		{
 602:..\Source/tasks.c **** 			/* The memory used for the task's TCB and stack are passed into this
 603:..\Source/tasks.c **** 			function - use them. */
 604:..\Source/tasks.c **** 			pxNewTCB = ( TCB_t * ) pxTaskBuffer; /*lint !e740 Unusual cast is ok as the structures are desig
 605:..\Source/tasks.c **** 			pxNewTCB->pxStack = ( StackType_t * ) puxStackBuffer;
 606:..\Source/tasks.c **** 
 607:..\Source/tasks.c **** 			#if( tskSTATIC_AND_DYNAMIC_ALLOCATION_POSSIBLE != 0 )
 608:..\Source/tasks.c **** 			{
 609:..\Source/tasks.c **** 				/* Tasks can be created statically or dynamically, so note this
 610:..\Source/tasks.c **** 				task was created statically in case the task is later deleted. */
 611:..\Source/tasks.c **** 				pxNewTCB->ucStaticallyAllocated = tskSTATICALLY_ALLOCATED_STACK_AND_TCB;
 612:..\Source/tasks.c **** 			}
 613:..\Source/tasks.c **** 			#endif /* configSUPPORT_DYNAMIC_ALLOCATION */
 614:..\Source/tasks.c **** 
 615:..\Source/tasks.c **** 			prvInitialiseNewTask( pxTaskCode, pcName, ulStackDepth, pvParameters, uxPriority, &xReturn, pxNe
 616:..\Source/tasks.c **** 			prvAddNewTaskToReadyList( pxNewTCB );
 617:..\Source/tasks.c **** 		}
 618:..\Source/tasks.c **** 		else
 619:..\Source/tasks.c **** 		{
 620:..\Source/tasks.c **** 			xReturn = NULL;
 621:..\Source/tasks.c **** 		}
 622:..\Source/tasks.c **** 
 623:..\Source/tasks.c **** 		return xReturn;
 624:..\Source/tasks.c **** 	}
ARM GAS  C:\Users\bmt\AppData\Local\Temp\ccld84Qq.s 			page 14


 625:..\Source/tasks.c **** 
 626:..\Source/tasks.c **** #endif /* SUPPORT_STATIC_ALLOCATION */
 627:..\Source/tasks.c **** /*-----------------------------------------------------------*/
 628:..\Source/tasks.c **** 
 629:..\Source/tasks.c **** #if( portUSING_MPU_WRAPPERS == 1 )
 630:..\Source/tasks.c **** 
 631:..\Source/tasks.c **** 	BaseType_t xTaskCreateRestricted( const TaskParameters_t * const pxTaskDefinition, TaskHandle_t *p
 632:..\Source/tasks.c **** 	{
 633:..\Source/tasks.c **** 	TCB_t *pxNewTCB;
 634:..\Source/tasks.c **** 	BaseType_t xReturn = errCOULD_NOT_ALLOCATE_REQUIRED_MEMORY;
 635:..\Source/tasks.c **** 
 636:..\Source/tasks.c **** 		configASSERT( pxTaskDefinition->puxStackBuffer );
 637:..\Source/tasks.c **** 
 638:..\Source/tasks.c **** 		if( pxTaskDefinition->puxStackBuffer != NULL )
 639:..\Source/tasks.c **** 		{
 640:..\Source/tasks.c **** 			/* Allocate space for the TCB.  Where the memory comes from depends
 641:..\Source/tasks.c **** 			on the implementation of the port malloc function and whether or
 642:..\Source/tasks.c **** 			not static allocation is being used. */
 643:..\Source/tasks.c **** 			pxNewTCB = ( TCB_t * ) pvPortMalloc( sizeof( TCB_t ) );
 644:..\Source/tasks.c **** 
 645:..\Source/tasks.c **** 			if( pxNewTCB != NULL )
 646:..\Source/tasks.c **** 			{
 647:..\Source/tasks.c **** 				/* Store the stack location in the TCB. */
 648:..\Source/tasks.c **** 				pxNewTCB->pxStack = pxTaskDefinition->puxStackBuffer;
 649:..\Source/tasks.c **** 
 650:..\Source/tasks.c **** 				/* Tasks can be created statically or dynamically, so note
 651:..\Source/tasks.c **** 				this task had a statically allocated stack in case it is
 652:..\Source/tasks.c **** 				later deleted.  The TCB was allocated dynamically. */
 653:..\Source/tasks.c **** 				pxNewTCB->ucStaticallyAllocated = tskSTATICALLY_ALLOCATED_STACK_ONLY;
 654:..\Source/tasks.c **** 
 655:..\Source/tasks.c **** 				prvInitialiseNewTask(	pxTaskDefinition->pvTaskCode,
 656:..\Source/tasks.c **** 										pxTaskDefinition->pcName,
 657:..\Source/tasks.c **** 										( uint32_t ) pxTaskDefinition->usStackDepth,
 658:..\Source/tasks.c **** 										pxTaskDefinition->pvParameters,
 659:..\Source/tasks.c **** 										pxTaskDefinition->uxPriority,
 660:..\Source/tasks.c **** 										pxCreatedTask, pxNewTCB,
 661:..\Source/tasks.c **** 										pxTaskDefinition->xRegions );
 662:..\Source/tasks.c **** 
 663:..\Source/tasks.c **** 				prvAddNewTaskToReadyList( pxNewTCB );
 664:..\Source/tasks.c **** 				xReturn = pdPASS;
 665:..\Source/tasks.c **** 			}
 666:..\Source/tasks.c **** 		}
 667:..\Source/tasks.c **** 
 668:..\Source/tasks.c **** 		return xReturn;
 669:..\Source/tasks.c **** 	}
 670:..\Source/tasks.c **** 
 671:..\Source/tasks.c **** #endif /* portUSING_MPU_WRAPPERS */
 672:..\Source/tasks.c **** /*-----------------------------------------------------------*/
 673:..\Source/tasks.c **** 
 674:..\Source/tasks.c **** #if( configSUPPORT_DYNAMIC_ALLOCATION == 1 )
 675:..\Source/tasks.c **** 
 676:..\Source/tasks.c **** 	BaseType_t xTaskCreate(	TaskFunction_t pxTaskCode,
 677:..\Source/tasks.c **** 							const char * const pcName,
 678:..\Source/tasks.c **** 							const uint16_t usStackDepth,
 679:..\Source/tasks.c **** 							void * const pvParameters,
 680:..\Source/tasks.c **** 							UBaseType_t uxPriority,
 681:..\Source/tasks.c **** 							TaskHandle_t * const pxCreatedTask ) /*lint !e971 Unqualified char types are allowed for str
ARM GAS  C:\Users\bmt\AppData\Local\Temp\ccld84Qq.s 			page 15


 682:..\Source/tasks.c **** 	{
  94              		.loc 1 682 0
  95              		.cfi_startproc
  96              		@ args = 8, pretend = 0, frame = 32
  97              		@ frame_needed = 1, uses_anonymous_args = 0
  98 0000 80B5     		push	{r7, lr}
  99              		.cfi_def_cfa_offset 8
 100              		.cfi_offset 7, -8
 101              		.cfi_offset 14, -4
 102 0002 8CB0     		sub	sp, sp, #48
 103              		.cfi_def_cfa_offset 56
 104 0004 04AF     		add	r7, sp, #16
 105              		.cfi_def_cfa 7, 40
 106 0006 F860     		str	r0, [r7, #12]
 107 0008 B960     		str	r1, [r7, #8]
 108 000a 3B60     		str	r3, [r7]
 109 000c 1346     		mov	r3, r2	@ movhi
 110 000e FB80     		strh	r3, [r7, #6]	@ movhi
 111              	.LBB27:
 683:..\Source/tasks.c **** 	TCB_t *pxNewTCB;
 684:..\Source/tasks.c **** 	BaseType_t xReturn;
 685:..\Source/tasks.c **** 
 686:..\Source/tasks.c **** 		/* If the stack grows down then allocate the stack then the TCB so the stack
 687:..\Source/tasks.c **** 		does not grow into the TCB.  Likewise if the stack grows up then allocate
 688:..\Source/tasks.c **** 		the TCB then the stack. */
 689:..\Source/tasks.c **** 		#if( portSTACK_GROWTH > 0 )
 690:..\Source/tasks.c **** 		{
 691:..\Source/tasks.c **** 			/* Allocate space for the TCB.  Where the memory comes from depends on
 692:..\Source/tasks.c **** 			the implementation of the port malloc function and whether or not static
 693:..\Source/tasks.c **** 			allocation is being used. */
 694:..\Source/tasks.c **** 			pxNewTCB = ( TCB_t * ) pvPortMalloc( sizeof( TCB_t ) );
 695:..\Source/tasks.c **** 
 696:..\Source/tasks.c **** 			if( pxNewTCB != NULL )
 697:..\Source/tasks.c **** 			{
 698:..\Source/tasks.c **** 				/* Allocate space for the stack used by the task being created.
 699:..\Source/tasks.c **** 				The base of the stack memory stored in the TCB so the task can
 700:..\Source/tasks.c **** 				be deleted later if required. */
 701:..\Source/tasks.c **** 				pxNewTCB->pxStack = ( StackType_t * ) pvPortMalloc( ( ( ( size_t ) usStackDepth ) * sizeof( Sta
 702:..\Source/tasks.c **** 
 703:..\Source/tasks.c **** 				if( pxNewTCB->pxStack == NULL )
 704:..\Source/tasks.c **** 				{
 705:..\Source/tasks.c **** 					/* Could not allocate the stack.  Delete the allocated TCB. */
 706:..\Source/tasks.c **** 					vPortFree( pxNewTCB );
 707:..\Source/tasks.c **** 					pxNewTCB = NULL;
 708:..\Source/tasks.c **** 				}
 709:..\Source/tasks.c **** 			}
 710:..\Source/tasks.c **** 		}
 711:..\Source/tasks.c **** 		#else /* portSTACK_GROWTH */
 712:..\Source/tasks.c **** 		{
 713:..\Source/tasks.c **** 		StackType_t *pxStack;
 714:..\Source/tasks.c **** 
 715:..\Source/tasks.c **** 			/* Allocate space for the stack used by the task being created. */
 716:..\Source/tasks.c **** 			pxStack = ( StackType_t * ) pvPortMalloc( ( ( ( size_t ) usStackDepth ) * sizeof( StackType_t ) 
 112              		.loc 1 716 0
 113 0010 FB88     		ldrh	r3, [r7, #6]
 114 0012 9B00     		lsls	r3, r3, #2
 115 0014 1846     		mov	r0, r3
ARM GAS  C:\Users\bmt\AppData\Local\Temp\ccld84Qq.s 			page 16


 116 0016 FFF7FEFF 		bl	pvPortMalloc
 117 001a 7861     		str	r0, [r7, #20]
 717:..\Source/tasks.c **** 
 718:..\Source/tasks.c **** 			if( pxStack != NULL )
 118              		.loc 1 718 0
 119 001c 7B69     		ldr	r3, [r7, #20]
 120 001e 002B     		cmp	r3, #0
 121 0020 0ED0     		beq	.L2
 719:..\Source/tasks.c **** 			{
 720:..\Source/tasks.c **** 				/* Allocate space for the TCB. */
 721:..\Source/tasks.c **** 				pxNewTCB = ( TCB_t * ) pvPortMalloc( sizeof( TCB_t ) ); /*lint !e961 MISRA exception as the cas
 122              		.loc 1 721 0
 123 0022 5020     		movs	r0, #80
 124 0024 FFF7FEFF 		bl	pvPortMalloc
 125 0028 F861     		str	r0, [r7, #28]
 722:..\Source/tasks.c **** 
 723:..\Source/tasks.c **** 				if( pxNewTCB != NULL )
 126              		.loc 1 723 0
 127 002a FB69     		ldr	r3, [r7, #28]
 128 002c 002B     		cmp	r3, #0
 129 002e 03D0     		beq	.L3
 724:..\Source/tasks.c **** 				{
 725:..\Source/tasks.c **** 					/* Store the stack location in the TCB. */
 726:..\Source/tasks.c **** 					pxNewTCB->pxStack = pxStack;
 130              		.loc 1 726 0
 131 0030 FB69     		ldr	r3, [r7, #28]
 132 0032 7A69     		ldr	r2, [r7, #20]
 133 0034 1A63     		str	r2, [r3, #48]
 134 0036 05E0     		b	.L5
 135              	.L3:
 727:..\Source/tasks.c **** 				}
 728:..\Source/tasks.c **** 				else
 729:..\Source/tasks.c **** 				{
 730:..\Source/tasks.c **** 					/* The stack cannot be used as the TCB was not created.  Free
 731:..\Source/tasks.c **** 					it again. */
 732:..\Source/tasks.c **** 					vPortFree( pxStack );
 136              		.loc 1 732 0
 137 0038 7869     		ldr	r0, [r7, #20]
 138 003a FFF7FEFF 		bl	vPortFree
 139 003e 01E0     		b	.L5
 140              	.L2:
 733:..\Source/tasks.c **** 				}
 734:..\Source/tasks.c **** 			}
 735:..\Source/tasks.c **** 			else
 736:..\Source/tasks.c **** 			{
 737:..\Source/tasks.c **** 				pxNewTCB = NULL;
 141              		.loc 1 737 0
 142 0040 0023     		movs	r3, #0
 143 0042 FB61     		str	r3, [r7, #28]
 144              	.L5:
 145              	.LBE27:
 738:..\Source/tasks.c **** 			}
 739:..\Source/tasks.c **** 		}
 740:..\Source/tasks.c **** 		#endif /* portSTACK_GROWTH */
 741:..\Source/tasks.c **** 
 742:..\Source/tasks.c **** 		if( pxNewTCB != NULL )
 146              		.loc 1 742 0
ARM GAS  C:\Users\bmt\AppData\Local\Temp\ccld84Qq.s 			page 17


 147 0044 FB69     		ldr	r3, [r7, #28]
 148 0046 002B     		cmp	r3, #0
 149 0048 13D0     		beq	.L6
 743:..\Source/tasks.c **** 		{
 744:..\Source/tasks.c **** 			#if( tskSTATIC_AND_DYNAMIC_ALLOCATION_POSSIBLE != 0 )
 745:..\Source/tasks.c **** 			{
 746:..\Source/tasks.c **** 				/* Tasks can be created statically or dynamically, so note this
 747:..\Source/tasks.c **** 				task was created dynamically in case it is later deleted. */
 748:..\Source/tasks.c **** 				pxNewTCB->ucStaticallyAllocated = tskDYNAMICALLY_ALLOCATED_STACK_AND_TCB;
 749:..\Source/tasks.c **** 			}
 750:..\Source/tasks.c **** 			#endif /* configSUPPORT_STATIC_ALLOCATION */
 751:..\Source/tasks.c **** 
 752:..\Source/tasks.c **** 			prvInitialiseNewTask( pxTaskCode, pcName, ( uint32_t ) usStackDepth, pvParameters, uxPriority, p
 150              		.loc 1 752 0
 151 004a FA88     		ldrh	r2, [r7, #6]
 152 004c BB6A     		ldr	r3, [r7, #40]
 153 004e 0093     		str	r3, [sp]
 154 0050 FB6A     		ldr	r3, [r7, #44]
 155 0052 0193     		str	r3, [sp, #4]
 156 0054 FB69     		ldr	r3, [r7, #28]
 157 0056 0293     		str	r3, [sp, #8]
 158 0058 0023     		movs	r3, #0
 159 005a 0393     		str	r3, [sp, #12]
 160 005c F868     		ldr	r0, [r7, #12]
 161 005e B968     		ldr	r1, [r7, #8]
 162 0060 3B68     		ldr	r3, [r7]
 163 0062 FFF7FEFF 		bl	prvInitialiseNewTask
 753:..\Source/tasks.c **** 			prvAddNewTaskToReadyList( pxNewTCB );
 164              		.loc 1 753 0
 165 0066 F869     		ldr	r0, [r7, #28]
 166 0068 FFF7FEFF 		bl	prvAddNewTaskToReadyList
 754:..\Source/tasks.c **** 			xReturn = pdPASS;
 167              		.loc 1 754 0
 168 006c 0123     		movs	r3, #1
 169 006e BB61     		str	r3, [r7, #24]
 170 0070 02E0     		b	.L7
 171              	.L6:
 755:..\Source/tasks.c **** 		}
 756:..\Source/tasks.c **** 		else
 757:..\Source/tasks.c **** 		{
 758:..\Source/tasks.c **** 			xReturn = errCOULD_NOT_ALLOCATE_REQUIRED_MEMORY;
 172              		.loc 1 758 0
 173 0072 4FF0FF33 		mov	r3, #-1
 174 0076 BB61     		str	r3, [r7, #24]
 175              	.L7:
 759:..\Source/tasks.c **** 		}
 760:..\Source/tasks.c **** 
 761:..\Source/tasks.c **** 		return xReturn;
 176              		.loc 1 761 0
 177 0078 BB69     		ldr	r3, [r7, #24]
 762:..\Source/tasks.c **** 	}
 178              		.loc 1 762 0
 179 007a 1846     		mov	r0, r3
 180 007c 2037     		adds	r7, r7, #32
 181              		.cfi_def_cfa_offset 8
 182 007e BD46     		mov	sp, r7
 183              		.cfi_def_cfa_register 13
ARM GAS  C:\Users\bmt\AppData\Local\Temp\ccld84Qq.s 			page 18


 184              		@ sp needed
 185 0080 80BD     		pop	{r7, pc}
 186              		.cfi_endproc
 187              	.LFE68:
 188              		.size	xTaskCreate, .-xTaskCreate
 189 0082 00BF     		.section	.text.prvInitialiseNewTask,"ax",%progbits
 190              		.align	2
 191              		.thumb
 192              		.thumb_func
 193              		.type	prvInitialiseNewTask, %function
 194              	prvInitialiseNewTask:
 195              	.LFB69:
 763:..\Source/tasks.c **** 
 764:..\Source/tasks.c **** #endif /* configSUPPORT_DYNAMIC_ALLOCATION */
 765:..\Source/tasks.c **** /*-----------------------------------------------------------*/
 766:..\Source/tasks.c **** 
 767:..\Source/tasks.c **** static void prvInitialiseNewTask( 	TaskFunction_t pxTaskCode,
 768:..\Source/tasks.c **** 									const char * const pcName,
 769:..\Source/tasks.c **** 									const uint32_t ulStackDepth,
 770:..\Source/tasks.c **** 									void * const pvParameters,
 771:..\Source/tasks.c **** 									UBaseType_t uxPriority,
 772:..\Source/tasks.c **** 									TaskHandle_t * const pxCreatedTask,
 773:..\Source/tasks.c **** 									TCB_t *pxNewTCB,
 774:..\Source/tasks.c **** 									const MemoryRegion_t * const xRegions ) /*lint !e971 Unqualified char types are allowed fo
 775:..\Source/tasks.c **** {
 196              		.loc 1 775 0
 197              		.cfi_startproc
 198              		@ args = 16, pretend = 0, frame = 24
 199              		@ frame_needed = 1, uses_anonymous_args = 0
 200 0000 80B5     		push	{r7, lr}
 201              		.cfi_def_cfa_offset 8
 202              		.cfi_offset 7, -8
 203              		.cfi_offset 14, -4
 204 0002 86B0     		sub	sp, sp, #24
 205              		.cfi_def_cfa_offset 32
 206 0004 00AF     		add	r7, sp, #0
 207              		.cfi_def_cfa_register 7
 208 0006 F860     		str	r0, [r7, #12]
 209 0008 B960     		str	r1, [r7, #8]
 210 000a 7A60     		str	r2, [r7, #4]
 211 000c 3B60     		str	r3, [r7]
 776:..\Source/tasks.c **** StackType_t *pxTopOfStack;
 777:..\Source/tasks.c **** UBaseType_t x;
 778:..\Source/tasks.c **** 
 779:..\Source/tasks.c **** 	#if( portUSING_MPU_WRAPPERS == 1 )
 780:..\Source/tasks.c **** 		/* Should the task be created in privileged mode? */
 781:..\Source/tasks.c **** 		BaseType_t xRunPrivileged;
 782:..\Source/tasks.c **** 		if( ( uxPriority & portPRIVILEGE_BIT ) != 0U )
 783:..\Source/tasks.c **** 		{
 784:..\Source/tasks.c **** 			xRunPrivileged = pdTRUE;
 785:..\Source/tasks.c **** 		}
 786:..\Source/tasks.c **** 		else
 787:..\Source/tasks.c **** 		{
 788:..\Source/tasks.c **** 			xRunPrivileged = pdFALSE;
 789:..\Source/tasks.c **** 		}
 790:..\Source/tasks.c **** 		uxPriority &= ~portPRIVILEGE_BIT;
 791:..\Source/tasks.c **** 	#endif /* portUSING_MPU_WRAPPERS == 1 */
ARM GAS  C:\Users\bmt\AppData\Local\Temp\ccld84Qq.s 			page 19


 792:..\Source/tasks.c **** 
 793:..\Source/tasks.c **** 	/* Avoid dependency on memset() if it is not required. */
 794:..\Source/tasks.c **** 	#if( ( configCHECK_FOR_STACK_OVERFLOW > 1 ) || ( configUSE_TRACE_FACILITY == 1 ) || ( INCLUDE_uxTa
 795:..\Source/tasks.c **** 	{
 796:..\Source/tasks.c **** 		/* Fill the stack with a known value to assist debugging. */
 797:..\Source/tasks.c **** 		( void ) memset( pxNewTCB->pxStack, ( int ) tskSTACK_FILL_BYTE, ( size_t ) ulStackDepth * sizeof(
 212              		.loc 1 797 0
 213 000e BB6A     		ldr	r3, [r7, #40]
 214 0010 1A6B     		ldr	r2, [r3, #48]
 215 0012 7B68     		ldr	r3, [r7, #4]
 216 0014 9B00     		lsls	r3, r3, #2
 217 0016 1046     		mov	r0, r2
 218 0018 A521     		movs	r1, #165
 219 001a 1A46     		mov	r2, r3
 220 001c FFF7FEFF 		bl	memset
 798:..\Source/tasks.c **** 	}
 799:..\Source/tasks.c **** 	#endif /* ( ( configCHECK_FOR_STACK_OVERFLOW > 1 ) || ( ( configUSE_TRACE_FACILITY == 1 ) || ( INC
 800:..\Source/tasks.c **** 
 801:..\Source/tasks.c **** 	/* Calculate the top of stack address.  This depends on whether the stack
 802:..\Source/tasks.c **** 	grows from high memory to low (as per the 80x86) or vice versa.
 803:..\Source/tasks.c **** 	portSTACK_GROWTH is used to make the result positive or negative as required
 804:..\Source/tasks.c **** 	by the port. */
 805:..\Source/tasks.c **** 	#if( portSTACK_GROWTH < 0 )
 806:..\Source/tasks.c **** 	{
 807:..\Source/tasks.c **** 		pxTopOfStack = pxNewTCB->pxStack + ( ulStackDepth - ( uint32_t ) 1 );
 221              		.loc 1 807 0
 222 0020 BB6A     		ldr	r3, [r7, #40]
 223 0022 1A6B     		ldr	r2, [r3, #48]
 224 0024 7B68     		ldr	r3, [r7, #4]
 225 0026 03F18043 		add	r3, r3, #1073741824
 226 002a 013B     		subs	r3, r3, #1
 227 002c 9B00     		lsls	r3, r3, #2
 228 002e 1344     		add	r3, r3, r2
 229 0030 3B61     		str	r3, [r7, #16]
 808:..\Source/tasks.c **** 		pxTopOfStack = ( StackType_t * ) ( ( ( portPOINTER_SIZE_TYPE ) pxTopOfStack ) & ( ~( ( portPOINTE
 230              		.loc 1 808 0
 231 0032 3B69     		ldr	r3, [r7, #16]
 232 0034 23F00703 		bic	r3, r3, #7
 233 0038 3B61     		str	r3, [r7, #16]
 809:..\Source/tasks.c **** 
 810:..\Source/tasks.c **** 		/* Check the alignment of the calculated top of stack is correct. */
 811:..\Source/tasks.c **** 		configASSERT( ( ( ( portPOINTER_SIZE_TYPE ) pxTopOfStack & ( portPOINTER_SIZE_TYPE ) portBYTE_ALI
 812:..\Source/tasks.c **** 	}
 813:..\Source/tasks.c **** 	#else /* portSTACK_GROWTH */
 814:..\Source/tasks.c **** 	{
 815:..\Source/tasks.c **** 		pxTopOfStack = pxNewTCB->pxStack;
 816:..\Source/tasks.c **** 
 817:..\Source/tasks.c **** 		/* Check the alignment of the stack buffer is correct. */
 818:..\Source/tasks.c **** 		configASSERT( ( ( ( portPOINTER_SIZE_TYPE ) pxNewTCB->pxStack & ( portPOINTER_SIZE_TYPE ) portBYT
 819:..\Source/tasks.c **** 
 820:..\Source/tasks.c **** 		/* The other extreme of the stack space is required if stack checking is
 821:..\Source/tasks.c **** 		performed. */
 822:..\Source/tasks.c **** 		pxNewTCB->pxEndOfStack = pxNewTCB->pxStack + ( ulStackDepth - ( uint32_t ) 1 );
 823:..\Source/tasks.c **** 	}
 824:..\Source/tasks.c **** 	#endif /* portSTACK_GROWTH */
 825:..\Source/tasks.c **** 
 826:..\Source/tasks.c **** 	/* Store the task name in the TCB. */
ARM GAS  C:\Users\bmt\AppData\Local\Temp\ccld84Qq.s 			page 20


 827:..\Source/tasks.c **** 	for( x = ( UBaseType_t ) 0; x < ( UBaseType_t ) configMAX_TASK_NAME_LEN; x++ )
 234              		.loc 1 827 0
 235 003a 0023     		movs	r3, #0
 236 003c 7B61     		str	r3, [r7, #20]
 237 003e 13E0     		b	.L10
 238              	.L13:
 828:..\Source/tasks.c **** 	{
 829:..\Source/tasks.c **** 		pxNewTCB->pcTaskName[ x ] = pcName[ x ];
 239              		.loc 1 829 0
 240 0040 BA68     		ldr	r2, [r7, #8]
 241 0042 7B69     		ldr	r3, [r7, #20]
 242 0044 1344     		add	r3, r3, r2
 243 0046 1978     		ldrb	r1, [r3]	@ zero_extendqisi2
 244 0048 BA6A     		ldr	r2, [r7, #40]
 245 004a 7B69     		ldr	r3, [r7, #20]
 246 004c 1344     		add	r3, r3, r2
 247 004e 3033     		adds	r3, r3, #48
 248 0050 0A46     		mov	r2, r1
 249 0052 1A71     		strb	r2, [r3, #4]
 830:..\Source/tasks.c **** 
 831:..\Source/tasks.c **** 		/* Don't copy all configMAX_TASK_NAME_LEN if the string is shorter than
 832:..\Source/tasks.c **** 		configMAX_TASK_NAME_LEN characters just in case the memory after the
 833:..\Source/tasks.c **** 		string is not accessible (extremely unlikely). */
 834:..\Source/tasks.c **** 		if( pcName[ x ] == 0x00 )
 250              		.loc 1 834 0
 251 0054 BA68     		ldr	r2, [r7, #8]
 252 0056 7B69     		ldr	r3, [r7, #20]
 253 0058 1344     		add	r3, r3, r2
 254 005a 1B78     		ldrb	r3, [r3]	@ zero_extendqisi2
 255 005c 002B     		cmp	r3, #0
 256 005e 00D1     		bne	.L11
 835:..\Source/tasks.c **** 		{
 836:..\Source/tasks.c **** 			break;
 257              		.loc 1 836 0
 258 0060 05E0     		b	.L12
 259              	.L11:
 827:..\Source/tasks.c **** 	{
 260              		.loc 1 827 0 discriminator 2
 261 0062 7B69     		ldr	r3, [r7, #20]
 262 0064 0133     		adds	r3, r3, #1
 263 0066 7B61     		str	r3, [r7, #20]
 264              	.L10:
 827:..\Source/tasks.c **** 	{
 265              		.loc 1 827 0 is_stmt 0 discriminator 1
 266 0068 7B69     		ldr	r3, [r7, #20]
 267 006a 0B2B     		cmp	r3, #11
 268 006c E8D9     		bls	.L13
 269              	.L12:
 837:..\Source/tasks.c **** 		}
 838:..\Source/tasks.c **** 		else
 839:..\Source/tasks.c **** 		{
 840:..\Source/tasks.c **** 			mtCOVERAGE_TEST_MARKER();
 841:..\Source/tasks.c **** 		}
 842:..\Source/tasks.c **** 	}
 843:..\Source/tasks.c **** 
 844:..\Source/tasks.c **** 	/* Ensure the name string is terminated in the case that the string length
 845:..\Source/tasks.c **** 	was greater or equal to configMAX_TASK_NAME_LEN. */
ARM GAS  C:\Users\bmt\AppData\Local\Temp\ccld84Qq.s 			page 21


 846:..\Source/tasks.c **** 	pxNewTCB->pcTaskName[ configMAX_TASK_NAME_LEN - 1 ] = '\0';
 270              		.loc 1 846 0 is_stmt 1
 271 006e BB6A     		ldr	r3, [r7, #40]
 272 0070 0022     		movs	r2, #0
 273 0072 83F83F20 		strb	r2, [r3, #63]
 847:..\Source/tasks.c **** 
 848:..\Source/tasks.c **** 	/* This is used as an array index so must ensure it's not too large.  First
 849:..\Source/tasks.c **** 	remove the privilege bit if one is present. */
 850:..\Source/tasks.c **** 	if( uxPriority >= ( UBaseType_t ) configMAX_PRIORITIES )
 274              		.loc 1 850 0
 275 0076 3B6A     		ldr	r3, [r7, #32]
 276 0078 042B     		cmp	r3, #4
 277 007a 01D9     		bls	.L14
 851:..\Source/tasks.c **** 	{
 852:..\Source/tasks.c **** 		uxPriority = ( UBaseType_t ) configMAX_PRIORITIES - ( UBaseType_t ) 1U;
 278              		.loc 1 852 0
 279 007c 0423     		movs	r3, #4
 280 007e 3B62     		str	r3, [r7, #32]
 281              	.L14:
 853:..\Source/tasks.c **** 	}
 854:..\Source/tasks.c **** 	else
 855:..\Source/tasks.c **** 	{
 856:..\Source/tasks.c **** 		mtCOVERAGE_TEST_MARKER();
 857:..\Source/tasks.c **** 	}
 858:..\Source/tasks.c **** 
 859:..\Source/tasks.c **** 	pxNewTCB->uxPriority = uxPriority;
 282              		.loc 1 859 0
 283 0080 BB6A     		ldr	r3, [r7, #40]
 284 0082 3A6A     		ldr	r2, [r7, #32]
 285 0084 DA62     		str	r2, [r3, #44]
 860:..\Source/tasks.c **** 	#if ( configUSE_MUTEXES == 1 )
 861:..\Source/tasks.c **** 	{
 862:..\Source/tasks.c **** 		pxNewTCB->uxBasePriority = uxPriority;
 286              		.loc 1 862 0
 287 0086 BB6A     		ldr	r3, [r7, #40]
 288 0088 3A6A     		ldr	r2, [r7, #32]
 289 008a 1A64     		str	r2, [r3, #64]
 863:..\Source/tasks.c **** 		pxNewTCB->uxMutexesHeld = 0;
 290              		.loc 1 863 0
 291 008c BB6A     		ldr	r3, [r7, #40]
 292 008e 0022     		movs	r2, #0
 293 0090 5A64     		str	r2, [r3, #68]
 864:..\Source/tasks.c **** 	}
 865:..\Source/tasks.c **** 	#endif /* configUSE_MUTEXES */
 866:..\Source/tasks.c **** 
 867:..\Source/tasks.c **** 	vListInitialiseItem( &( pxNewTCB->xStateListItem ) );
 294              		.loc 1 867 0
 295 0092 BB6A     		ldr	r3, [r7, #40]
 296 0094 0433     		adds	r3, r3, #4
 297 0096 1846     		mov	r0, r3
 298 0098 FFF7FEFF 		bl	vListInitialiseItem
 868:..\Source/tasks.c **** 	vListInitialiseItem( &( pxNewTCB->xEventListItem ) );
 299              		.loc 1 868 0
 300 009c BB6A     		ldr	r3, [r7, #40]
 301 009e 1833     		adds	r3, r3, #24
 302 00a0 1846     		mov	r0, r3
 303 00a2 FFF7FEFF 		bl	vListInitialiseItem
ARM GAS  C:\Users\bmt\AppData\Local\Temp\ccld84Qq.s 			page 22


 869:..\Source/tasks.c **** 
 870:..\Source/tasks.c **** 	/* Set the pxNewTCB as a link back from the ListItem_t.  This is so we can get
 871:..\Source/tasks.c **** 	back to	the containing TCB from a generic item in a list. */
 872:..\Source/tasks.c **** 	listSET_LIST_ITEM_OWNER( &( pxNewTCB->xStateListItem ), pxNewTCB );
 304              		.loc 1 872 0
 305 00a6 BB6A     		ldr	r3, [r7, #40]
 306 00a8 BA6A     		ldr	r2, [r7, #40]
 307 00aa 1A61     		str	r2, [r3, #16]
 873:..\Source/tasks.c **** 
 874:..\Source/tasks.c **** 	/* Event lists are always in priority order. */
 875:..\Source/tasks.c **** 	listSET_LIST_ITEM_VALUE( &( pxNewTCB->xEventListItem ), ( TickType_t ) configMAX_PRIORITIES - ( Ti
 308              		.loc 1 875 0
 309 00ac 3B6A     		ldr	r3, [r7, #32]
 310 00ae C3F10502 		rsb	r2, r3, #5
 311 00b2 BB6A     		ldr	r3, [r7, #40]
 312 00b4 9A61     		str	r2, [r3, #24]
 876:..\Source/tasks.c **** 	listSET_LIST_ITEM_OWNER( &( pxNewTCB->xEventListItem ), pxNewTCB );
 313              		.loc 1 876 0
 314 00b6 BB6A     		ldr	r3, [r7, #40]
 315 00b8 BA6A     		ldr	r2, [r7, #40]
 316 00ba 5A62     		str	r2, [r3, #36]
 877:..\Source/tasks.c **** 
 878:..\Source/tasks.c **** 	#if ( portCRITICAL_NESTING_IN_TCB == 1 )
 879:..\Source/tasks.c **** 	{
 880:..\Source/tasks.c **** 		pxNewTCB->uxCriticalNesting = ( UBaseType_t ) 0U;
 881:..\Source/tasks.c **** 	}
 882:..\Source/tasks.c **** 	#endif /* portCRITICAL_NESTING_IN_TCB */
 883:..\Source/tasks.c **** 
 884:..\Source/tasks.c **** 	#if ( configUSE_APPLICATION_TASK_TAG == 1 )
 885:..\Source/tasks.c **** 	{
 886:..\Source/tasks.c **** 		pxNewTCB->pxTaskTag = NULL;
 887:..\Source/tasks.c **** 	}
 888:..\Source/tasks.c **** 	#endif /* configUSE_APPLICATION_TASK_TAG */
 889:..\Source/tasks.c **** 
 890:..\Source/tasks.c **** 	#if ( configGENERATE_RUN_TIME_STATS == 1 )
 891:..\Source/tasks.c **** 	{
 892:..\Source/tasks.c **** 		pxNewTCB->ulRunTimeCounter = 0UL;
 893:..\Source/tasks.c **** 	}
 894:..\Source/tasks.c **** 	#endif /* configGENERATE_RUN_TIME_STATS */
 895:..\Source/tasks.c **** 
 896:..\Source/tasks.c **** 	#if ( portUSING_MPU_WRAPPERS == 1 )
 897:..\Source/tasks.c **** 	{
 898:..\Source/tasks.c **** 		vPortStoreTaskMPUSettings( &( pxNewTCB->xMPUSettings ), xRegions, pxNewTCB->pxStack, ulStackDepth
 899:..\Source/tasks.c **** 	}
 900:..\Source/tasks.c **** 	#else
 901:..\Source/tasks.c **** 	{
 902:..\Source/tasks.c **** 		/* Avoid compiler warning about unreferenced parameter. */
 903:..\Source/tasks.c **** 		( void ) xRegions;
 904:..\Source/tasks.c **** 	}
 905:..\Source/tasks.c **** 	#endif
 906:..\Source/tasks.c **** 
 907:..\Source/tasks.c **** 	#if( configNUM_THREAD_LOCAL_STORAGE_POINTERS != 0 )
 908:..\Source/tasks.c **** 	{
 909:..\Source/tasks.c **** 		for( x = 0; x < ( UBaseType_t ) configNUM_THREAD_LOCAL_STORAGE_POINTERS; x++ )
 910:..\Source/tasks.c **** 		{
 911:..\Source/tasks.c **** 			pxNewTCB->pvThreadLocalStoragePointers[ x ] = NULL;
 912:..\Source/tasks.c **** 		}
ARM GAS  C:\Users\bmt\AppData\Local\Temp\ccld84Qq.s 			page 23


 913:..\Source/tasks.c **** 	}
 914:..\Source/tasks.c **** 	#endif
 915:..\Source/tasks.c **** 
 916:..\Source/tasks.c **** 	#if ( configUSE_TASK_NOTIFICATIONS == 1 )
 917:..\Source/tasks.c **** 	{
 918:..\Source/tasks.c **** 		pxNewTCB->ulNotifiedValue = 0;
 317              		.loc 1 918 0
 318 00bc BB6A     		ldr	r3, [r7, #40]
 319 00be 0022     		movs	r2, #0
 320 00c0 9A64     		str	r2, [r3, #72]
 919:..\Source/tasks.c **** 		pxNewTCB->ucNotifyState = taskNOT_WAITING_NOTIFICATION;
 321              		.loc 1 919 0
 322 00c2 BB6A     		ldr	r3, [r7, #40]
 323 00c4 0022     		movs	r2, #0
 324 00c6 83F84C20 		strb	r2, [r3, #76]
 920:..\Source/tasks.c **** 	}
 921:..\Source/tasks.c **** 	#endif
 922:..\Source/tasks.c **** 
 923:..\Source/tasks.c **** 	#if ( configUSE_NEWLIB_REENTRANT == 1 )
 924:..\Source/tasks.c **** 	{
 925:..\Source/tasks.c **** 		/* Initialise this task's Newlib reent structure. */
 926:..\Source/tasks.c **** 		_REENT_INIT_PTR( ( &( pxNewTCB->xNewLib_reent ) ) );
 927:..\Source/tasks.c **** 	}
 928:..\Source/tasks.c **** 	#endif
 929:..\Source/tasks.c **** 
 930:..\Source/tasks.c **** 	#if( INCLUDE_xTaskAbortDelay == 1 )
 931:..\Source/tasks.c **** 	{
 932:..\Source/tasks.c **** 		pxNewTCB->ucDelayAborted = pdFALSE;
 933:..\Source/tasks.c **** 	}
 934:..\Source/tasks.c **** 	#endif
 935:..\Source/tasks.c **** 
 936:..\Source/tasks.c **** 	/* Initialize the TCB stack to look as if the task was already running,
 937:..\Source/tasks.c **** 	but had been interrupted by the scheduler.  The return address is set
 938:..\Source/tasks.c **** 	to the start of the task function. Once the stack has been initialised
 939:..\Source/tasks.c **** 	the	top of stack variable is updated. */
 940:..\Source/tasks.c **** 	#if( portUSING_MPU_WRAPPERS == 1 )
 941:..\Source/tasks.c **** 	{
 942:..\Source/tasks.c **** 		pxNewTCB->pxTopOfStack = pxPortInitialiseStack( pxTopOfStack, pxTaskCode, pvParameters, xRunPrivi
 943:..\Source/tasks.c **** 	}
 944:..\Source/tasks.c **** 	#else /* portUSING_MPU_WRAPPERS */
 945:..\Source/tasks.c **** 	{
 946:..\Source/tasks.c **** 		pxNewTCB->pxTopOfStack = pxPortInitialiseStack( pxTopOfStack, pxTaskCode, pvParameters );
 325              		.loc 1 946 0
 326 00ca 3869     		ldr	r0, [r7, #16]
 327 00cc F968     		ldr	r1, [r7, #12]
 328 00ce 3A68     		ldr	r2, [r7]
 329 00d0 FFF7FEFF 		bl	pxPortInitialiseStack
 330 00d4 0246     		mov	r2, r0
 331 00d6 BB6A     		ldr	r3, [r7, #40]
 332 00d8 1A60     		str	r2, [r3]
 947:..\Source/tasks.c **** 	}
 948:..\Source/tasks.c **** 	#endif /* portUSING_MPU_WRAPPERS */
 949:..\Source/tasks.c **** 
 950:..\Source/tasks.c **** 	if( ( void * ) pxCreatedTask != NULL )
 333              		.loc 1 950 0
 334 00da 7B6A     		ldr	r3, [r7, #36]
 335 00dc 002B     		cmp	r3, #0
ARM GAS  C:\Users\bmt\AppData\Local\Temp\ccld84Qq.s 			page 24


 336 00de 02D0     		beq	.L9
 951:..\Source/tasks.c **** 	{
 952:..\Source/tasks.c **** 		/* Pass the handle out in an anonymous way.  The handle can be used to
 953:..\Source/tasks.c **** 		change the created task's priority, delete the created task, etc.*/
 954:..\Source/tasks.c **** 		*pxCreatedTask = ( TaskHandle_t ) pxNewTCB;
 337              		.loc 1 954 0
 338 00e0 7B6A     		ldr	r3, [r7, #36]
 339 00e2 BA6A     		ldr	r2, [r7, #40]
 340 00e4 1A60     		str	r2, [r3]
 341              	.L9:
 955:..\Source/tasks.c **** 	}
 956:..\Source/tasks.c **** 	else
 957:..\Source/tasks.c **** 	{
 958:..\Source/tasks.c **** 		mtCOVERAGE_TEST_MARKER();
 959:..\Source/tasks.c **** 	}
 960:..\Source/tasks.c **** }
 342              		.loc 1 960 0
 343 00e6 1837     		adds	r7, r7, #24
 344              		.cfi_def_cfa_offset 8
 345 00e8 BD46     		mov	sp, r7
 346              		.cfi_def_cfa_register 13
 347              		@ sp needed
 348 00ea 80BD     		pop	{r7, pc}
 349              		.cfi_endproc
 350              	.LFE69:
 351              		.size	prvInitialiseNewTask, .-prvInitialiseNewTask
 352              		.section	.text.prvAddNewTaskToReadyList,"ax",%progbits
 353              		.align	2
 354              		.thumb
 355              		.thumb_func
 356              		.type	prvAddNewTaskToReadyList, %function
 357              	prvAddNewTaskToReadyList:
 358              	.LFB70:
 961:..\Source/tasks.c **** /*-----------------------------------------------------------*/
 962:..\Source/tasks.c **** 
 963:..\Source/tasks.c **** static void prvAddNewTaskToReadyList( TCB_t *pxNewTCB )
 964:..\Source/tasks.c **** {
 359              		.loc 1 964 0
 360              		.cfi_startproc
 361              		@ args = 0, pretend = 0, frame = 8
 362              		@ frame_needed = 1, uses_anonymous_args = 0
 363 0000 80B5     		push	{r7, lr}
 364              		.cfi_def_cfa_offset 8
 365              		.cfi_offset 7, -8
 366              		.cfi_offset 14, -4
 367 0002 82B0     		sub	sp, sp, #8
 368              		.cfi_def_cfa_offset 16
 369 0004 00AF     		add	r7, sp, #0
 370              		.cfi_def_cfa_register 7
 371 0006 7860     		str	r0, [r7, #4]
 965:..\Source/tasks.c **** 	/* Ensure interrupts don't access the task lists while the lists are being
 966:..\Source/tasks.c **** 	updated. */
 967:..\Source/tasks.c **** 	taskENTER_CRITICAL();
 372              		.loc 1 967 0
 373 0008 FFF7FEFF 		bl	vPortEnterCritical
 968:..\Source/tasks.c **** 	{
 969:..\Source/tasks.c **** 		uxCurrentNumberOfTasks++;
ARM GAS  C:\Users\bmt\AppData\Local\Temp\ccld84Qq.s 			page 25


 374              		.loc 1 969 0
 375 000c 2B4B     		ldr	r3, .L20
 376 000e 1B68     		ldr	r3, [r3]
 377 0010 0133     		adds	r3, r3, #1
 378 0012 2A4A     		ldr	r2, .L20
 379 0014 1360     		str	r3, [r2]
 970:..\Source/tasks.c **** 		if( pxCurrentTCB == NULL )
 380              		.loc 1 970 0
 381 0016 2A4B     		ldr	r3, .L20+4
 382 0018 1B68     		ldr	r3, [r3]
 383 001a 002B     		cmp	r3, #0
 384 001c 09D1     		bne	.L17
 971:..\Source/tasks.c **** 		{
 972:..\Source/tasks.c **** 			/* There are no other tasks, or all the other tasks are in
 973:..\Source/tasks.c **** 			the suspended state - make this the current task. */
 974:..\Source/tasks.c **** 			pxCurrentTCB = pxNewTCB;
 385              		.loc 1 974 0
 386 001e 284A     		ldr	r2, .L20+4
 387 0020 7B68     		ldr	r3, [r7, #4]
 388 0022 1360     		str	r3, [r2]
 975:..\Source/tasks.c **** 
 976:..\Source/tasks.c **** 			if( uxCurrentNumberOfTasks == ( UBaseType_t ) 1 )
 389              		.loc 1 976 0
 390 0024 254B     		ldr	r3, .L20
 391 0026 1B68     		ldr	r3, [r3]
 392 0028 012B     		cmp	r3, #1
 393 002a 10D1     		bne	.L18
 977:..\Source/tasks.c **** 			{
 978:..\Source/tasks.c **** 				/* This is the first task to be created so do the preliminary
 979:..\Source/tasks.c **** 				initialisation required.  We will not recover if this call
 980:..\Source/tasks.c **** 				fails, but we will report the failure. */
 981:..\Source/tasks.c **** 				prvInitialiseTaskLists();
 394              		.loc 1 981 0
 395 002c FFF7FEFF 		bl	prvInitialiseTaskLists
 396 0030 0DE0     		b	.L18
 397              	.L17:
 982:..\Source/tasks.c **** 			}
 983:..\Source/tasks.c **** 			else
 984:..\Source/tasks.c **** 			{
 985:..\Source/tasks.c **** 				mtCOVERAGE_TEST_MARKER();
 986:..\Source/tasks.c **** 			}
 987:..\Source/tasks.c **** 		}
 988:..\Source/tasks.c **** 		else
 989:..\Source/tasks.c **** 		{
 990:..\Source/tasks.c **** 			/* If the scheduler is not already running, make this task the
 991:..\Source/tasks.c **** 			current task if it is the highest priority task to be created
 992:..\Source/tasks.c **** 			so far. */
 993:..\Source/tasks.c **** 			if( xSchedulerRunning == pdFALSE )
 398              		.loc 1 993 0
 399 0032 244B     		ldr	r3, .L20+8
 400 0034 1B68     		ldr	r3, [r3]
 401 0036 002B     		cmp	r3, #0
 402 0038 09D1     		bne	.L18
 994:..\Source/tasks.c **** 			{
 995:..\Source/tasks.c **** 				if( pxCurrentTCB->uxPriority <= pxNewTCB->uxPriority )
 403              		.loc 1 995 0
 404 003a 214B     		ldr	r3, .L20+4
ARM GAS  C:\Users\bmt\AppData\Local\Temp\ccld84Qq.s 			page 26


 405 003c 1B68     		ldr	r3, [r3]
 406 003e DA6A     		ldr	r2, [r3, #44]
 407 0040 7B68     		ldr	r3, [r7, #4]
 408 0042 DB6A     		ldr	r3, [r3, #44]
 409 0044 9A42     		cmp	r2, r3
 410 0046 02D8     		bhi	.L18
 996:..\Source/tasks.c **** 				{
 997:..\Source/tasks.c **** 					pxCurrentTCB = pxNewTCB;
 411              		.loc 1 997 0
 412 0048 1D4A     		ldr	r2, .L20+4
 413 004a 7B68     		ldr	r3, [r7, #4]
 414 004c 1360     		str	r3, [r2]
 415              	.L18:
 998:..\Source/tasks.c **** 				}
 999:..\Source/tasks.c **** 				else
1000:..\Source/tasks.c **** 				{
1001:..\Source/tasks.c **** 					mtCOVERAGE_TEST_MARKER();
1002:..\Source/tasks.c **** 				}
1003:..\Source/tasks.c **** 			}
1004:..\Source/tasks.c **** 			else
1005:..\Source/tasks.c **** 			{
1006:..\Source/tasks.c **** 				mtCOVERAGE_TEST_MARKER();
1007:..\Source/tasks.c **** 			}
1008:..\Source/tasks.c **** 		}
1009:..\Source/tasks.c **** 
1010:..\Source/tasks.c **** 		uxTaskNumber++;
 416              		.loc 1 1010 0
 417 004e 1E4B     		ldr	r3, .L20+12
 418 0050 1B68     		ldr	r3, [r3]
 419 0052 0133     		adds	r3, r3, #1
 420 0054 1C4A     		ldr	r2, .L20+12
 421 0056 1360     		str	r3, [r2]
1011:..\Source/tasks.c **** 
1012:..\Source/tasks.c **** 		#if ( configUSE_TRACE_FACILITY == 1 )
1013:..\Source/tasks.c **** 		{
1014:..\Source/tasks.c **** 			/* Add a counter into the TCB for tracing only. */
1015:..\Source/tasks.c **** 			pxNewTCB->uxTCBNumber = uxTaskNumber;
1016:..\Source/tasks.c **** 		}
1017:..\Source/tasks.c **** 		#endif /* configUSE_TRACE_FACILITY */
1018:..\Source/tasks.c **** 		traceTASK_CREATE( pxNewTCB );
1019:..\Source/tasks.c **** 
1020:..\Source/tasks.c **** 		prvAddTaskToReadyList( pxNewTCB );
 422              		.loc 1 1020 0
 423 0058 7B68     		ldr	r3, [r7, #4]
 424 005a DB6A     		ldr	r3, [r3, #44]
 425 005c 1A46     		mov	r2, r3
 426 005e 0123     		movs	r3, #1
 427 0060 03FA02F2 		lsl	r2, r3, r2
 428 0064 194B     		ldr	r3, .L20+16
 429 0066 1B68     		ldr	r3, [r3]
 430 0068 1343     		orrs	r3, r3, r2
 431 006a 184A     		ldr	r2, .L20+16
 432 006c 1360     		str	r3, [r2]
 433 006e 7B68     		ldr	r3, [r7, #4]
 434 0070 DA6A     		ldr	r2, [r3, #44]
 435 0072 1346     		mov	r3, r2
 436 0074 9B00     		lsls	r3, r3, #2
ARM GAS  C:\Users\bmt\AppData\Local\Temp\ccld84Qq.s 			page 27


 437 0076 1344     		add	r3, r3, r2
 438 0078 9B00     		lsls	r3, r3, #2
 439 007a 154A     		ldr	r2, .L20+20
 440 007c 1A44     		add	r2, r2, r3
 441 007e 7B68     		ldr	r3, [r7, #4]
 442 0080 0433     		adds	r3, r3, #4
 443 0082 1046     		mov	r0, r2
 444 0084 1946     		mov	r1, r3
 445 0086 FFF7FEFF 		bl	vListInsertEnd
1021:..\Source/tasks.c **** 
1022:..\Source/tasks.c **** 		portSETUP_TCB( pxNewTCB );
1023:..\Source/tasks.c **** 	}
1024:..\Source/tasks.c **** 	taskEXIT_CRITICAL();
 446              		.loc 1 1024 0
 447 008a FFF7FEFF 		bl	vPortExitCritical
1025:..\Source/tasks.c **** 
1026:..\Source/tasks.c **** 	if( xSchedulerRunning != pdFALSE )
 448              		.loc 1 1026 0
 449 008e 0D4B     		ldr	r3, .L20+8
 450 0090 1B68     		ldr	r3, [r3]
 451 0092 002B     		cmp	r3, #0
 452 0094 0ED0     		beq	.L16
1027:..\Source/tasks.c **** 	{
1028:..\Source/tasks.c **** 		/* If the created task is of a higher priority than the current task
1029:..\Source/tasks.c **** 		then it should run now. */
1030:..\Source/tasks.c **** 		if( pxCurrentTCB->uxPriority < pxNewTCB->uxPriority )
 453              		.loc 1 1030 0
 454 0096 0A4B     		ldr	r3, .L20+4
 455 0098 1B68     		ldr	r3, [r3]
 456 009a DA6A     		ldr	r2, [r3, #44]
 457 009c 7B68     		ldr	r3, [r7, #4]
 458 009e DB6A     		ldr	r3, [r3, #44]
 459 00a0 9A42     		cmp	r2, r3
 460 00a2 07D2     		bcs	.L16
1031:..\Source/tasks.c **** 		{
1032:..\Source/tasks.c **** 			taskYIELD_IF_USING_PREEMPTION();
 461              		.loc 1 1032 0
 462 00a4 0B4B     		ldr	r3, .L20+24
 463 00a6 4FF08052 		mov	r2, #268435456
 464 00aa 1A60     		str	r2, [r3]
 465              	@ 1032 "..\Source\tasks.c" 1
 466 00ac BFF34F8F 		dsb
 467              	@ 0 "" 2
 468              	@ 1032 "..\Source\tasks.c" 1
 469 00b0 BFF36F8F 		isb
 470              	@ 0 "" 2
 471              		.thumb
 472              	.L16:
1033:..\Source/tasks.c **** 		}
1034:..\Source/tasks.c **** 		else
1035:..\Source/tasks.c **** 		{
1036:..\Source/tasks.c **** 			mtCOVERAGE_TEST_MARKER();
1037:..\Source/tasks.c **** 		}
1038:..\Source/tasks.c **** 	}
1039:..\Source/tasks.c **** 	else
1040:..\Source/tasks.c **** 	{
1041:..\Source/tasks.c **** 		mtCOVERAGE_TEST_MARKER();
ARM GAS  C:\Users\bmt\AppData\Local\Temp\ccld84Qq.s 			page 28


1042:..\Source/tasks.c **** 	}
1043:..\Source/tasks.c **** }
 473              		.loc 1 1043 0
 474 00b4 0837     		adds	r7, r7, #8
 475              		.cfi_def_cfa_offset 8
 476 00b6 BD46     		mov	sp, r7
 477              		.cfi_def_cfa_register 13
 478              		@ sp needed
 479 00b8 80BD     		pop	{r7, pc}
 480              	.L21:
 481 00ba 00BF     		.align	2
 482              	.L20:
 483 00bc D8000000 		.word	uxCurrentNumberOfTasks
 484 00c0 00000000 		.word	pxCurrentTCB
 485 00c4 E4000000 		.word	xSchedulerRunning
 486 00c8 F4000000 		.word	uxTaskNumber
 487 00cc E0000000 		.word	uxTopReadyPriority
 488 00d0 04000000 		.word	pxReadyTasksLists
 489 00d4 04ED00E0 		.word	-536810236
 490              		.cfi_endproc
 491              	.LFE70:
 492              		.size	prvAddNewTaskToReadyList, .-prvAddNewTaskToReadyList
 493              		.section	.text.vTaskDelete,"ax",%progbits
 494              		.align	2
 495              		.global	vTaskDelete
 496              		.thumb
 497              		.thumb_func
 498              		.type	vTaskDelete, %function
 499              	vTaskDelete:
 500              	.LFB71:
1044:..\Source/tasks.c **** /*-----------------------------------------------------------*/
1045:..\Source/tasks.c **** 
1046:..\Source/tasks.c **** #if ( INCLUDE_vTaskDelete == 1 )
1047:..\Source/tasks.c **** 
1048:..\Source/tasks.c **** 	void vTaskDelete( TaskHandle_t xTaskToDelete )
1049:..\Source/tasks.c **** 	{
 501              		.loc 1 1049 0
 502              		.cfi_startproc
 503              		@ args = 0, pretend = 0, frame = 16
 504              		@ frame_needed = 1, uses_anonymous_args = 0
 505 0000 80B5     		push	{r7, lr}
 506              		.cfi_def_cfa_offset 8
 507              		.cfi_offset 7, -8
 508              		.cfi_offset 14, -4
 509 0002 84B0     		sub	sp, sp, #16
 510              		.cfi_def_cfa_offset 24
 511 0004 00AF     		add	r7, sp, #0
 512              		.cfi_def_cfa_register 7
 513 0006 7860     		str	r0, [r7, #4]
1050:..\Source/tasks.c **** 	TCB_t *pxTCB;
1051:..\Source/tasks.c **** 
1052:..\Source/tasks.c **** 		taskENTER_CRITICAL();
 514              		.loc 1 1052 0
 515 0008 FFF7FEFF 		bl	vPortEnterCritical
1053:..\Source/tasks.c **** 		{
1054:..\Source/tasks.c **** 			/* If null is passed in here then it is the calling task that is
1055:..\Source/tasks.c **** 			being deleted. */
ARM GAS  C:\Users\bmt\AppData\Local\Temp\ccld84Qq.s 			page 29


1056:..\Source/tasks.c **** 			pxTCB = prvGetTCBFromHandle( xTaskToDelete );
 516              		.loc 1 1056 0
 517 000c 7B68     		ldr	r3, [r7, #4]
 518 000e 002B     		cmp	r3, #0
 519 0010 02D1     		bne	.L23
 520              		.loc 1 1056 0 is_stmt 0 discriminator 1
 521 0012 314B     		ldr	r3, .L31
 522 0014 1B68     		ldr	r3, [r3]
 523 0016 00E0     		b	.L24
 524              	.L23:
 525              		.loc 1 1056 0 discriminator 2
 526 0018 7B68     		ldr	r3, [r7, #4]
 527              	.L24:
 528              		.loc 1 1056 0 discriminator 4
 529 001a FB60     		str	r3, [r7, #12]
1057:..\Source/tasks.c **** 
1058:..\Source/tasks.c **** 			/* Remove task from the ready list. */
1059:..\Source/tasks.c **** 			if( uxListRemove( &( pxTCB->xStateListItem ) ) == ( UBaseType_t ) 0 )
 530              		.loc 1 1059 0 is_stmt 1 discriminator 4
 531 001c FB68     		ldr	r3, [r7, #12]
 532 001e 0433     		adds	r3, r3, #4
 533 0020 1846     		mov	r0, r3
 534 0022 FFF7FEFF 		bl	uxListRemove
 535 0026 0346     		mov	r3, r0
 536 0028 002B     		cmp	r3, #0
 537 002a 15D1     		bne	.L25
1060:..\Source/tasks.c **** 			{
1061:..\Source/tasks.c **** 				taskRESET_READY_PRIORITY( pxTCB->uxPriority );
 538              		.loc 1 1061 0
 539 002c FB68     		ldr	r3, [r7, #12]
 540 002e DA6A     		ldr	r2, [r3, #44]
 541 0030 2A49     		ldr	r1, .L31+4
 542 0032 1346     		mov	r3, r2
 543 0034 9B00     		lsls	r3, r3, #2
 544 0036 1344     		add	r3, r3, r2
 545 0038 9B00     		lsls	r3, r3, #2
 546 003a 0B44     		add	r3, r3, r1
 547 003c 1B68     		ldr	r3, [r3]
 548 003e 002B     		cmp	r3, #0
 549 0040 0AD1     		bne	.L25
 550              		.loc 1 1061 0 is_stmt 0 discriminator 1
 551 0042 FB68     		ldr	r3, [r7, #12]
 552 0044 DB6A     		ldr	r3, [r3, #44]
 553 0046 1A46     		mov	r2, r3
 554 0048 0123     		movs	r3, #1
 555 004a 9340     		lsls	r3, r3, r2
 556 004c DA43     		mvns	r2, r3
 557 004e 244B     		ldr	r3, .L31+8
 558 0050 1B68     		ldr	r3, [r3]
 559 0052 1340     		ands	r3, r3, r2
 560 0054 224A     		ldr	r2, .L31+8
 561 0056 1360     		str	r3, [r2]
 562              	.L25:
1062:..\Source/tasks.c **** 			}
1063:..\Source/tasks.c **** 			else
1064:..\Source/tasks.c **** 			{
1065:..\Source/tasks.c **** 				mtCOVERAGE_TEST_MARKER();
ARM GAS  C:\Users\bmt\AppData\Local\Temp\ccld84Qq.s 			page 30


1066:..\Source/tasks.c **** 			}
1067:..\Source/tasks.c **** 
1068:..\Source/tasks.c **** 			/* Is the task waiting on an event also? */
1069:..\Source/tasks.c **** 			if( listLIST_ITEM_CONTAINER( &( pxTCB->xEventListItem ) ) != NULL )
 563              		.loc 1 1069 0 is_stmt 1
 564 0058 FB68     		ldr	r3, [r7, #12]
 565 005a 9B6A     		ldr	r3, [r3, #40]
 566 005c 002B     		cmp	r3, #0
 567 005e 04D0     		beq	.L27
1070:..\Source/tasks.c **** 			{
1071:..\Source/tasks.c **** 				( void ) uxListRemove( &( pxTCB->xEventListItem ) );
 568              		.loc 1 1071 0
 569 0060 FB68     		ldr	r3, [r7, #12]
 570 0062 1833     		adds	r3, r3, #24
 571 0064 1846     		mov	r0, r3
 572 0066 FFF7FEFF 		bl	uxListRemove
 573              	.L27:
1072:..\Source/tasks.c **** 			}
1073:..\Source/tasks.c **** 			else
1074:..\Source/tasks.c **** 			{
1075:..\Source/tasks.c **** 				mtCOVERAGE_TEST_MARKER();
1076:..\Source/tasks.c **** 			}
1077:..\Source/tasks.c **** 
1078:..\Source/tasks.c **** 			/* Increment the uxTaskNumber also so kernel aware debuggers can
1079:..\Source/tasks.c **** 			detect that the task lists need re-generating.  This is done before
1080:..\Source/tasks.c **** 			portPRE_TASK_DELETE_HOOK() as in the Windows port that macro will
1081:..\Source/tasks.c **** 			not return. */
1082:..\Source/tasks.c **** 			uxTaskNumber++;
 574              		.loc 1 1082 0
 575 006a 1E4B     		ldr	r3, .L31+12
 576 006c 1B68     		ldr	r3, [r3]
 577 006e 0133     		adds	r3, r3, #1
 578 0070 1C4A     		ldr	r2, .L31+12
 579 0072 1360     		str	r3, [r2]
1083:..\Source/tasks.c **** 
1084:..\Source/tasks.c **** 			if( pxTCB == pxCurrentTCB )
 580              		.loc 1 1084 0
 581 0074 184B     		ldr	r3, .L31
 582 0076 1B68     		ldr	r3, [r3]
 583 0078 FA68     		ldr	r2, [r7, #12]
 584 007a 9A42     		cmp	r2, r3
 585 007c 0BD1     		bne	.L28
1085:..\Source/tasks.c **** 			{
1086:..\Source/tasks.c **** 				/* A task is deleting itself.  This cannot complete within the
1087:..\Source/tasks.c **** 				task itself, as a context switch to another task is required.
1088:..\Source/tasks.c **** 				Place the task in the termination list.  The idle task will
1089:..\Source/tasks.c **** 				check the termination list and free up any memory allocated by
1090:..\Source/tasks.c **** 				the scheduler for the TCB and stack of the deleted task. */
1091:..\Source/tasks.c **** 				vListInsertEnd( &xTasksWaitingTermination, &( pxTCB->xStateListItem ) );
 586              		.loc 1 1091 0
 587 007e FB68     		ldr	r3, [r7, #12]
 588 0080 0433     		adds	r3, r3, #4
 589 0082 1948     		ldr	r0, .L31+16
 590 0084 1946     		mov	r1, r3
 591 0086 FFF7FEFF 		bl	vListInsertEnd
1092:..\Source/tasks.c **** 
1093:..\Source/tasks.c **** 				/* Increment the ucTasksDeleted variable so the idle task knows
ARM GAS  C:\Users\bmt\AppData\Local\Temp\ccld84Qq.s 			page 31


1094:..\Source/tasks.c **** 				there is a task that has been deleted and that it should therefore
1095:..\Source/tasks.c **** 				check the xTasksWaitingTermination list. */
1096:..\Source/tasks.c **** 				++uxDeletedTasksWaitingCleanUp;
 592              		.loc 1 1096 0
 593 008a 184B     		ldr	r3, .L31+20
 594 008c 1B68     		ldr	r3, [r3]
 595 008e 0133     		adds	r3, r3, #1
 596 0090 164A     		ldr	r2, .L31+20
 597 0092 1360     		str	r3, [r2]
 598 0094 09E0     		b	.L29
 599              	.L28:
1097:..\Source/tasks.c **** 
1098:..\Source/tasks.c **** 				/* The pre-delete hook is primarily for the Windows simulator,
1099:..\Source/tasks.c **** 				in which Windows specific clean up operations are performed,
1100:..\Source/tasks.c **** 				after which it is not possible to yield away from this task -
1101:..\Source/tasks.c **** 				hence xYieldPending is used to latch that a context switch is
1102:..\Source/tasks.c **** 				required. */
1103:..\Source/tasks.c **** 				portPRE_TASK_DELETE_HOOK( pxTCB, &xYieldPending );
1104:..\Source/tasks.c **** 			}
1105:..\Source/tasks.c **** 			else
1106:..\Source/tasks.c **** 			{
1107:..\Source/tasks.c **** 				--uxCurrentNumberOfTasks;
 600              		.loc 1 1107 0
 601 0096 164B     		ldr	r3, .L31+24
 602 0098 1B68     		ldr	r3, [r3]
 603 009a 013B     		subs	r3, r3, #1
 604 009c 144A     		ldr	r2, .L31+24
 605 009e 1360     		str	r3, [r2]
1108:..\Source/tasks.c **** 				prvDeleteTCB( pxTCB );
 606              		.loc 1 1108 0
 607 00a0 F868     		ldr	r0, [r7, #12]
 608 00a2 FFF7FEFF 		bl	prvDeleteTCB
1109:..\Source/tasks.c **** 
1110:..\Source/tasks.c **** 				/* Reset the next expected unblock time in case it referred to
1111:..\Source/tasks.c **** 				the task that has just been deleted. */
1112:..\Source/tasks.c **** 				prvResetNextTaskUnblockTime();
 609              		.loc 1 1112 0
 610 00a6 FFF7FEFF 		bl	prvResetNextTaskUnblockTime
 611              	.L29:
1113:..\Source/tasks.c **** 			}
1114:..\Source/tasks.c **** 
1115:..\Source/tasks.c **** 			traceTASK_DELETE( pxTCB );
1116:..\Source/tasks.c **** 		}
1117:..\Source/tasks.c **** 		taskEXIT_CRITICAL();
 612              		.loc 1 1117 0
 613 00aa FFF7FEFF 		bl	vPortExitCritical
1118:..\Source/tasks.c **** 
1119:..\Source/tasks.c **** 		/* Force a reschedule if it is the currently running task that has just
1120:..\Source/tasks.c **** 		been deleted. */
1121:..\Source/tasks.c **** 		if( xSchedulerRunning != pdFALSE )
 614              		.loc 1 1121 0
 615 00ae 114B     		ldr	r3, .L31+28
 616 00b0 1B68     		ldr	r3, [r3]
 617 00b2 002B     		cmp	r3, #0
 618 00b4 0CD0     		beq	.L22
1122:..\Source/tasks.c **** 		{
1123:..\Source/tasks.c **** 			if( pxTCB == pxCurrentTCB )
ARM GAS  C:\Users\bmt\AppData\Local\Temp\ccld84Qq.s 			page 32


 619              		.loc 1 1123 0
 620 00b6 084B     		ldr	r3, .L31
 621 00b8 1B68     		ldr	r3, [r3]
 622 00ba FA68     		ldr	r2, [r7, #12]
 623 00bc 9A42     		cmp	r2, r3
 624 00be 07D1     		bne	.L22
1124:..\Source/tasks.c **** 			{
1125:..\Source/tasks.c **** 				configASSERT( uxSchedulerSuspended == 0 );
1126:..\Source/tasks.c **** 				portYIELD_WITHIN_API();
 625              		.loc 1 1126 0
 626 00c0 0D4B     		ldr	r3, .L31+32
 627 00c2 4FF08052 		mov	r2, #268435456
 628 00c6 1A60     		str	r2, [r3]
 629              	@ 1126 "..\Source\tasks.c" 1
 630 00c8 BFF34F8F 		dsb
 631              	@ 0 "" 2
 632              	@ 1126 "..\Source\tasks.c" 1
 633 00cc BFF36F8F 		isb
 634              	@ 0 "" 2
 635              		.thumb
 636              	.L22:
1127:..\Source/tasks.c **** 			}
1128:..\Source/tasks.c **** 			else
1129:..\Source/tasks.c **** 			{
1130:..\Source/tasks.c **** 				mtCOVERAGE_TEST_MARKER();
1131:..\Source/tasks.c **** 			}
1132:..\Source/tasks.c **** 		}
1133:..\Source/tasks.c **** 	}
 637              		.loc 1 1133 0
 638 00d0 1037     		adds	r7, r7, #16
 639              		.cfi_def_cfa_offset 8
 640 00d2 BD46     		mov	sp, r7
 641              		.cfi_def_cfa_register 13
 642              		@ sp needed
 643 00d4 80BD     		pop	{r7, pc}
 644              	.L32:
 645 00d6 00BF     		.align	2
 646              	.L31:
 647 00d8 00000000 		.word	pxCurrentTCB
 648 00dc 04000000 		.word	pxReadyTasksLists
 649 00e0 E0000000 		.word	uxTopReadyPriority
 650 00e4 F4000000 		.word	uxTaskNumber
 651 00e8 AC000000 		.word	xTasksWaitingTermination
 652 00ec C0000000 		.word	uxDeletedTasksWaitingCleanUp
 653 00f0 D8000000 		.word	uxCurrentNumberOfTasks
 654 00f4 E4000000 		.word	xSchedulerRunning
 655 00f8 04ED00E0 		.word	-536810236
 656              		.cfi_endproc
 657              	.LFE71:
 658              		.size	vTaskDelete, .-vTaskDelete
 659              		.section	.text.vTaskDelayUntil,"ax",%progbits
 660              		.align	2
 661              		.global	vTaskDelayUntil
 662              		.thumb
 663              		.thumb_func
 664              		.type	vTaskDelayUntil, %function
 665              	vTaskDelayUntil:
ARM GAS  C:\Users\bmt\AppData\Local\Temp\ccld84Qq.s 			page 33


 666              	.LFB72:
1134:..\Source/tasks.c **** 
1135:..\Source/tasks.c **** #endif /* INCLUDE_vTaskDelete */
1136:..\Source/tasks.c **** /*-----------------------------------------------------------*/
1137:..\Source/tasks.c **** 
1138:..\Source/tasks.c **** #if ( INCLUDE_vTaskDelayUntil == 1 )
1139:..\Source/tasks.c **** 
1140:..\Source/tasks.c **** 	void vTaskDelayUntil( TickType_t * const pxPreviousWakeTime, const TickType_t xTimeIncrement )
1141:..\Source/tasks.c **** 	{
 667              		.loc 1 1141 0
 668              		.cfi_startproc
 669              		@ args = 0, pretend = 0, frame = 24
 670              		@ frame_needed = 1, uses_anonymous_args = 0
 671 0000 80B5     		push	{r7, lr}
 672              		.cfi_def_cfa_offset 8
 673              		.cfi_offset 7, -8
 674              		.cfi_offset 14, -4
 675 0002 86B0     		sub	sp, sp, #24
 676              		.cfi_def_cfa_offset 32
 677 0004 00AF     		add	r7, sp, #0
 678              		.cfi_def_cfa_register 7
 679 0006 7860     		str	r0, [r7, #4]
 680 0008 3960     		str	r1, [r7]
1142:..\Source/tasks.c **** 	TickType_t xTimeToWake;
1143:..\Source/tasks.c **** 	BaseType_t xAlreadyYielded, xShouldDelay = pdFALSE;
 681              		.loc 1 1143 0
 682 000a 0023     		movs	r3, #0
 683 000c 7B61     		str	r3, [r7, #20]
1144:..\Source/tasks.c **** 
1145:..\Source/tasks.c **** 		configASSERT( pxPreviousWakeTime );
1146:..\Source/tasks.c **** 		configASSERT( ( xTimeIncrement > 0U ) );
1147:..\Source/tasks.c **** 		configASSERT( uxSchedulerSuspended == 0 );
1148:..\Source/tasks.c **** 
1149:..\Source/tasks.c **** 		vTaskSuspendAll();
 684              		.loc 1 1149 0
 685 000e FFF7FEFF 		bl	vTaskSuspendAll
 686              	.LBB28:
1150:..\Source/tasks.c **** 		{
1151:..\Source/tasks.c **** 			/* Minor optimisation.  The tick count cannot change in this
1152:..\Source/tasks.c **** 			block. */
1153:..\Source/tasks.c **** 			const TickType_t xConstTickCount = xTickCount;
 687              		.loc 1 1153 0
 688 0012 214B     		ldr	r3, .L39
 689 0014 1B68     		ldr	r3, [r3]
 690 0016 3B61     		str	r3, [r7, #16]
1154:..\Source/tasks.c **** 
1155:..\Source/tasks.c **** 			/* Generate the tick time at which the task wants to wake. */
1156:..\Source/tasks.c **** 			xTimeToWake = *pxPreviousWakeTime + xTimeIncrement;
 691              		.loc 1 1156 0
 692 0018 7B68     		ldr	r3, [r7, #4]
 693 001a 1A68     		ldr	r2, [r3]
 694 001c 3B68     		ldr	r3, [r7]
 695 001e 1344     		add	r3, r3, r2
 696 0020 FB60     		str	r3, [r7, #12]
1157:..\Source/tasks.c **** 
1158:..\Source/tasks.c **** 			if( xConstTickCount < *pxPreviousWakeTime )
 697              		.loc 1 1158 0
ARM GAS  C:\Users\bmt\AppData\Local\Temp\ccld84Qq.s 			page 34


 698 0022 7B68     		ldr	r3, [r7, #4]
 699 0024 1A68     		ldr	r2, [r3]
 700 0026 3B69     		ldr	r3, [r7, #16]
 701 0028 9A42     		cmp	r2, r3
 702 002a 0BD9     		bls	.L34
1159:..\Source/tasks.c **** 			{
1160:..\Source/tasks.c **** 				/* The tick count has overflowed since this function was
1161:..\Source/tasks.c **** 				lasted called.  In this case the only time we should ever
1162:..\Source/tasks.c **** 				actually delay is if the wake time has also	overflowed,
1163:..\Source/tasks.c **** 				and the wake time is greater than the tick time.  When this
1164:..\Source/tasks.c **** 				is the case it is as if neither time had overflowed. */
1165:..\Source/tasks.c **** 				if( ( xTimeToWake < *pxPreviousWakeTime ) && ( xTimeToWake > xConstTickCount ) )
 703              		.loc 1 1165 0
 704 002c 7B68     		ldr	r3, [r7, #4]
 705 002e 1A68     		ldr	r2, [r3]
 706 0030 FB68     		ldr	r3, [r7, #12]
 707 0032 9A42     		cmp	r2, r3
 708 0034 11D9     		bls	.L35
 709              		.loc 1 1165 0 is_stmt 0 discriminator 1
 710 0036 FA68     		ldr	r2, [r7, #12]
 711 0038 3B69     		ldr	r3, [r7, #16]
 712 003a 9A42     		cmp	r2, r3
 713 003c 0DD9     		bls	.L35
1166:..\Source/tasks.c **** 				{
1167:..\Source/tasks.c **** 					xShouldDelay = pdTRUE;
 714              		.loc 1 1167 0 is_stmt 1
 715 003e 0123     		movs	r3, #1
 716 0040 7B61     		str	r3, [r7, #20]
 717 0042 0AE0     		b	.L35
 718              	.L34:
1168:..\Source/tasks.c **** 				}
1169:..\Source/tasks.c **** 				else
1170:..\Source/tasks.c **** 				{
1171:..\Source/tasks.c **** 					mtCOVERAGE_TEST_MARKER();
1172:..\Source/tasks.c **** 				}
1173:..\Source/tasks.c **** 			}
1174:..\Source/tasks.c **** 			else
1175:..\Source/tasks.c **** 			{
1176:..\Source/tasks.c **** 				/* The tick time has not overflowed.  In this case we will
1177:..\Source/tasks.c **** 				delay if either the wake time has overflowed, and/or the
1178:..\Source/tasks.c **** 				tick time is less than the wake time. */
1179:..\Source/tasks.c **** 				if( ( xTimeToWake < *pxPreviousWakeTime ) || ( xTimeToWake > xConstTickCount ) )
 719              		.loc 1 1179 0
 720 0044 7B68     		ldr	r3, [r7, #4]
 721 0046 1A68     		ldr	r2, [r3]
 722 0048 FB68     		ldr	r3, [r7, #12]
 723 004a 9A42     		cmp	r2, r3
 724 004c 03D8     		bhi	.L36
 725              		.loc 1 1179 0 is_stmt 0 discriminator 1
 726 004e FA68     		ldr	r2, [r7, #12]
 727 0050 3B69     		ldr	r3, [r7, #16]
 728 0052 9A42     		cmp	r2, r3
 729 0054 01D9     		bls	.L35
 730              	.L36:
1180:..\Source/tasks.c **** 				{
1181:..\Source/tasks.c **** 					xShouldDelay = pdTRUE;
 731              		.loc 1 1181 0 is_stmt 1
ARM GAS  C:\Users\bmt\AppData\Local\Temp\ccld84Qq.s 			page 35


 732 0056 0123     		movs	r3, #1
 733 0058 7B61     		str	r3, [r7, #20]
 734              	.L35:
1182:..\Source/tasks.c **** 				}
1183:..\Source/tasks.c **** 				else
1184:..\Source/tasks.c **** 				{
1185:..\Source/tasks.c **** 					mtCOVERAGE_TEST_MARKER();
1186:..\Source/tasks.c **** 				}
1187:..\Source/tasks.c **** 			}
1188:..\Source/tasks.c **** 
1189:..\Source/tasks.c **** 			/* Update the wake time ready for the next call. */
1190:..\Source/tasks.c **** 			*pxPreviousWakeTime = xTimeToWake;
 735              		.loc 1 1190 0
 736 005a 7B68     		ldr	r3, [r7, #4]
 737 005c FA68     		ldr	r2, [r7, #12]
 738 005e 1A60     		str	r2, [r3]
1191:..\Source/tasks.c **** 
1192:..\Source/tasks.c **** 			if( xShouldDelay != pdFALSE )
 739              		.loc 1 1192 0
 740 0060 7B69     		ldr	r3, [r7, #20]
 741 0062 002B     		cmp	r3, #0
 742 0064 06D0     		beq	.L37
1193:..\Source/tasks.c **** 			{
1194:..\Source/tasks.c **** 				traceTASK_DELAY_UNTIL( xTimeToWake );
1195:..\Source/tasks.c **** 
1196:..\Source/tasks.c **** 				/* prvAddCurrentTaskToDelayedList() needs the block time, not
1197:..\Source/tasks.c **** 				the time to wake, so subtract the current tick count. */
1198:..\Source/tasks.c **** 				prvAddCurrentTaskToDelayedList( xTimeToWake - xConstTickCount, pdFALSE );
 743              		.loc 1 1198 0
 744 0066 FA68     		ldr	r2, [r7, #12]
 745 0068 3B69     		ldr	r3, [r7, #16]
 746 006a D31A     		subs	r3, r2, r3
 747 006c 1846     		mov	r0, r3
 748 006e 0021     		movs	r1, #0
 749 0070 FFF7FEFF 		bl	prvAddCurrentTaskToDelayedList
 750              	.L37:
 751              	.LBE28:
1199:..\Source/tasks.c **** 			}
1200:..\Source/tasks.c **** 			else
1201:..\Source/tasks.c **** 			{
1202:..\Source/tasks.c **** 				mtCOVERAGE_TEST_MARKER();
1203:..\Source/tasks.c **** 			}
1204:..\Source/tasks.c **** 		}
1205:..\Source/tasks.c **** 		xAlreadyYielded = xTaskResumeAll();
 752              		.loc 1 1205 0
 753 0074 FFF7FEFF 		bl	xTaskResumeAll
 754 0078 B860     		str	r0, [r7, #8]
1206:..\Source/tasks.c **** 
1207:..\Source/tasks.c **** 		/* Force a reschedule if xTaskResumeAll has not already done so, we may
1208:..\Source/tasks.c **** 		have put ourselves to sleep. */
1209:..\Source/tasks.c **** 		if( xAlreadyYielded == pdFALSE )
 755              		.loc 1 1209 0
 756 007a BB68     		ldr	r3, [r7, #8]
 757 007c 002B     		cmp	r3, #0
 758 007e 07D1     		bne	.L33
1210:..\Source/tasks.c **** 		{
1211:..\Source/tasks.c **** 			portYIELD_WITHIN_API();
ARM GAS  C:\Users\bmt\AppData\Local\Temp\ccld84Qq.s 			page 36


 759              		.loc 1 1211 0
 760 0080 064B     		ldr	r3, .L39+4
 761 0082 4FF08052 		mov	r2, #268435456
 762 0086 1A60     		str	r2, [r3]
 763              	@ 1211 "..\Source\tasks.c" 1
 764 0088 BFF34F8F 		dsb
 765              	@ 0 "" 2
 766              	@ 1211 "..\Source\tasks.c" 1
 767 008c BFF36F8F 		isb
 768              	@ 0 "" 2
 769              		.thumb
 770              	.L33:
1212:..\Source/tasks.c **** 		}
1213:..\Source/tasks.c **** 		else
1214:..\Source/tasks.c **** 		{
1215:..\Source/tasks.c **** 			mtCOVERAGE_TEST_MARKER();
1216:..\Source/tasks.c **** 		}
1217:..\Source/tasks.c **** 	}
 771              		.loc 1 1217 0
 772 0090 1837     		adds	r7, r7, #24
 773              		.cfi_def_cfa_offset 8
 774 0092 BD46     		mov	sp, r7
 775              		.cfi_def_cfa_register 13
 776              		@ sp needed
 777 0094 80BD     		pop	{r7, pc}
 778              	.L40:
 779 0096 00BF     		.align	2
 780              	.L39:
 781 0098 DC000000 		.word	xTickCount
 782 009c 04ED00E0 		.word	-536810236
 783              		.cfi_endproc
 784              	.LFE72:
 785              		.size	vTaskDelayUntil, .-vTaskDelayUntil
 786              		.section	.text.vTaskDelay,"ax",%progbits
 787              		.align	2
 788              		.global	vTaskDelay
 789              		.thumb
 790              		.thumb_func
 791              		.type	vTaskDelay, %function
 792              	vTaskDelay:
 793              	.LFB73:
1218:..\Source/tasks.c **** 
1219:..\Source/tasks.c **** #endif /* INCLUDE_vTaskDelayUntil */
1220:..\Source/tasks.c **** /*-----------------------------------------------------------*/
1221:..\Source/tasks.c **** 
1222:..\Source/tasks.c **** #if ( INCLUDE_vTaskDelay == 1 )
1223:..\Source/tasks.c **** 
1224:..\Source/tasks.c **** 	void vTaskDelay( const TickType_t xTicksToDelay )
1225:..\Source/tasks.c **** 	{
 794              		.loc 1 1225 0
 795              		.cfi_startproc
 796              		@ args = 0, pretend = 0, frame = 16
 797              		@ frame_needed = 1, uses_anonymous_args = 0
 798 0000 80B5     		push	{r7, lr}
 799              		.cfi_def_cfa_offset 8
 800              		.cfi_offset 7, -8
 801              		.cfi_offset 14, -4
ARM GAS  C:\Users\bmt\AppData\Local\Temp\ccld84Qq.s 			page 37


 802 0002 84B0     		sub	sp, sp, #16
 803              		.cfi_def_cfa_offset 24
 804 0004 00AF     		add	r7, sp, #0
 805              		.cfi_def_cfa_register 7
 806 0006 7860     		str	r0, [r7, #4]
1226:..\Source/tasks.c **** 	BaseType_t xAlreadyYielded = pdFALSE;
 807              		.loc 1 1226 0
 808 0008 0023     		movs	r3, #0
 809 000a FB60     		str	r3, [r7, #12]
1227:..\Source/tasks.c **** 
1228:..\Source/tasks.c **** 		/* A delay time of zero just forces a reschedule. */
1229:..\Source/tasks.c **** 		if( xTicksToDelay > ( TickType_t ) 0U )
 810              		.loc 1 1229 0
 811 000c 7B68     		ldr	r3, [r7, #4]
 812 000e 002B     		cmp	r3, #0
 813 0010 08D0     		beq	.L42
1230:..\Source/tasks.c **** 		{
1231:..\Source/tasks.c **** 			configASSERT( uxSchedulerSuspended == 0 );
1232:..\Source/tasks.c **** 			vTaskSuspendAll();
 814              		.loc 1 1232 0
 815 0012 FFF7FEFF 		bl	vTaskSuspendAll
1233:..\Source/tasks.c **** 			{
1234:..\Source/tasks.c **** 				traceTASK_DELAY();
1235:..\Source/tasks.c **** 
1236:..\Source/tasks.c **** 				/* A task that is removed from the event list while the
1237:..\Source/tasks.c **** 				scheduler is suspended will not get placed in the ready
1238:..\Source/tasks.c **** 				list or removed from the blocked list until the scheduler
1239:..\Source/tasks.c **** 				is resumed.
1240:..\Source/tasks.c **** 
1241:..\Source/tasks.c **** 				This task cannot be in an event list as it is the currently
1242:..\Source/tasks.c **** 				executing task. */
1243:..\Source/tasks.c **** 				prvAddCurrentTaskToDelayedList( xTicksToDelay, pdFALSE );
 816              		.loc 1 1243 0
 817 0016 7868     		ldr	r0, [r7, #4]
 818 0018 0021     		movs	r1, #0
 819 001a FFF7FEFF 		bl	prvAddCurrentTaskToDelayedList
1244:..\Source/tasks.c **** 			}
1245:..\Source/tasks.c **** 			xAlreadyYielded = xTaskResumeAll();
 820              		.loc 1 1245 0
 821 001e FFF7FEFF 		bl	xTaskResumeAll
 822 0022 F860     		str	r0, [r7, #12]
 823              	.L42:
1246:..\Source/tasks.c **** 		}
1247:..\Source/tasks.c **** 		else
1248:..\Source/tasks.c **** 		{
1249:..\Source/tasks.c **** 			mtCOVERAGE_TEST_MARKER();
1250:..\Source/tasks.c **** 		}
1251:..\Source/tasks.c **** 
1252:..\Source/tasks.c **** 		/* Force a reschedule if xTaskResumeAll has not already done so, we may
1253:..\Source/tasks.c **** 		have put ourselves to sleep. */
1254:..\Source/tasks.c **** 		if( xAlreadyYielded == pdFALSE )
 824              		.loc 1 1254 0
 825 0024 FB68     		ldr	r3, [r7, #12]
 826 0026 002B     		cmp	r3, #0
 827 0028 07D1     		bne	.L41
1255:..\Source/tasks.c **** 		{
1256:..\Source/tasks.c **** 			portYIELD_WITHIN_API();
ARM GAS  C:\Users\bmt\AppData\Local\Temp\ccld84Qq.s 			page 38


 828              		.loc 1 1256 0
 829 002a 054B     		ldr	r3, .L44
 830 002c 4FF08052 		mov	r2, #268435456
 831 0030 1A60     		str	r2, [r3]
 832              	@ 1256 "..\Source\tasks.c" 1
 833 0032 BFF34F8F 		dsb
 834              	@ 0 "" 2
 835              	@ 1256 "..\Source\tasks.c" 1
 836 0036 BFF36F8F 		isb
 837              	@ 0 "" 2
 838              		.thumb
 839              	.L41:
1257:..\Source/tasks.c **** 		}
1258:..\Source/tasks.c **** 		else
1259:..\Source/tasks.c **** 		{
1260:..\Source/tasks.c **** 			mtCOVERAGE_TEST_MARKER();
1261:..\Source/tasks.c **** 		}
1262:..\Source/tasks.c **** 	}
 840              		.loc 1 1262 0
 841 003a 1037     		adds	r7, r7, #16
 842              		.cfi_def_cfa_offset 8
 843 003c BD46     		mov	sp, r7
 844              		.cfi_def_cfa_register 13
 845              		@ sp needed
 846 003e 80BD     		pop	{r7, pc}
 847              	.L45:
 848              		.align	2
 849              	.L44:
 850 0040 04ED00E0 		.word	-536810236
 851              		.cfi_endproc
 852              	.LFE73:
 853              		.size	vTaskDelay, .-vTaskDelay
 854              		.section	.text.eTaskGetState,"ax",%progbits
 855              		.align	2
 856              		.global	eTaskGetState
 857              		.thumb
 858              		.thumb_func
 859              		.type	eTaskGetState, %function
 860              	eTaskGetState:
 861              	.LFB74:
1263:..\Source/tasks.c **** 
1264:..\Source/tasks.c **** #endif /* INCLUDE_vTaskDelay */
1265:..\Source/tasks.c **** /*-----------------------------------------------------------*/
1266:..\Source/tasks.c **** 
1267:..\Source/tasks.c **** #if( ( INCLUDE_eTaskGetState == 1 ) || ( configUSE_TRACE_FACILITY == 1 ) )
1268:..\Source/tasks.c **** 
1269:..\Source/tasks.c **** 	eTaskState eTaskGetState( TaskHandle_t xTask )
1270:..\Source/tasks.c **** 	{
 862              		.loc 1 1270 0
 863              		.cfi_startproc
 864              		@ args = 0, pretend = 0, frame = 24
 865              		@ frame_needed = 1, uses_anonymous_args = 0
 866 0000 80B5     		push	{r7, lr}
 867              		.cfi_def_cfa_offset 8
 868              		.cfi_offset 7, -8
 869              		.cfi_offset 14, -4
 870 0002 86B0     		sub	sp, sp, #24
ARM GAS  C:\Users\bmt\AppData\Local\Temp\ccld84Qq.s 			page 39


 871              		.cfi_def_cfa_offset 32
 872 0004 00AF     		add	r7, sp, #0
 873              		.cfi_def_cfa_register 7
 874 0006 7860     		str	r0, [r7, #4]
1271:..\Source/tasks.c **** 	eTaskState eReturn;
1272:..\Source/tasks.c **** 	List_t *pxStateList;
1273:..\Source/tasks.c **** 	const TCB_t * const pxTCB = ( TCB_t * ) xTask;
 875              		.loc 1 1273 0
 876 0008 7B68     		ldr	r3, [r7, #4]
 877 000a 3B61     		str	r3, [r7, #16]
1274:..\Source/tasks.c **** 
1275:..\Source/tasks.c **** 		configASSERT( pxTCB );
1276:..\Source/tasks.c **** 
1277:..\Source/tasks.c **** 		if( pxTCB == pxCurrentTCB )
 878              		.loc 1 1277 0
 879 000c 1D4B     		ldr	r3, .L57
 880 000e 1B68     		ldr	r3, [r3]
 881 0010 3A69     		ldr	r2, [r7, #16]
 882 0012 9A42     		cmp	r2, r3
 883 0014 02D1     		bne	.L47
1278:..\Source/tasks.c **** 		{
1279:..\Source/tasks.c **** 			/* The task calling this function is querying its own state. */
1280:..\Source/tasks.c **** 			eReturn = eRunning;
 884              		.loc 1 1280 0
 885 0016 0023     		movs	r3, #0
 886 0018 FB75     		strb	r3, [r7, #23]
 887 001a 2DE0     		b	.L48
 888              	.L47:
1281:..\Source/tasks.c **** 		}
1282:..\Source/tasks.c **** 		else
1283:..\Source/tasks.c **** 		{
1284:..\Source/tasks.c **** 			taskENTER_CRITICAL();
 889              		.loc 1 1284 0
 890 001c FFF7FEFF 		bl	vPortEnterCritical
1285:..\Source/tasks.c **** 			{
1286:..\Source/tasks.c **** 				pxStateList = ( List_t * ) listLIST_ITEM_CONTAINER( &( pxTCB->xStateListItem ) );
 891              		.loc 1 1286 0
 892 0020 3B69     		ldr	r3, [r7, #16]
 893 0022 5B69     		ldr	r3, [r3, #20]
 894 0024 FB60     		str	r3, [r7, #12]
1287:..\Source/tasks.c **** 			}
1288:..\Source/tasks.c **** 			taskEXIT_CRITICAL();
 895              		.loc 1 1288 0
 896 0026 FFF7FEFF 		bl	vPortExitCritical
1289:..\Source/tasks.c **** 
1290:..\Source/tasks.c **** 			if( ( pxStateList == pxDelayedTaskList ) || ( pxStateList == pxOverflowDelayedTaskList ) )
 897              		.loc 1 1290 0
 898 002a 174B     		ldr	r3, .L57+4
 899 002c 1B68     		ldr	r3, [r3]
 900 002e FA68     		ldr	r2, [r7, #12]
 901 0030 9A42     		cmp	r2, r3
 902 0032 04D0     		beq	.L49
 903              		.loc 1 1290 0 is_stmt 0 discriminator 1
 904 0034 154B     		ldr	r3, .L57+8
 905 0036 1B68     		ldr	r3, [r3]
 906 0038 FA68     		ldr	r2, [r7, #12]
 907 003a 9A42     		cmp	r2, r3
ARM GAS  C:\Users\bmt\AppData\Local\Temp\ccld84Qq.s 			page 40


 908 003c 02D1     		bne	.L50
 909              	.L49:
1291:..\Source/tasks.c **** 			{
1292:..\Source/tasks.c **** 				/* The task being queried is referenced from one of the Blocked
1293:..\Source/tasks.c **** 				lists. */
1294:..\Source/tasks.c **** 				eReturn = eBlocked;
 910              		.loc 1 1294 0 is_stmt 1
 911 003e 0223     		movs	r3, #2
 912 0040 FB75     		strb	r3, [r7, #23]
 913 0042 19E0     		b	.L48
 914              	.L50:
1295:..\Source/tasks.c **** 			}
1296:..\Source/tasks.c **** 
1297:..\Source/tasks.c **** 			#if ( INCLUDE_vTaskSuspend == 1 )
1298:..\Source/tasks.c **** 				else if( pxStateList == &xSuspendedTaskList )
 915              		.loc 1 1298 0
 916 0044 FB68     		ldr	r3, [r7, #12]
 917 0046 124A     		ldr	r2, .L57+12
 918 0048 9342     		cmp	r3, r2
 919 004a 09D1     		bne	.L51
1299:..\Source/tasks.c **** 				{
1300:..\Source/tasks.c **** 					/* The task being queried is referenced from the suspended
1301:..\Source/tasks.c **** 					list.  Is it genuinely suspended or is it block
1302:..\Source/tasks.c **** 					indefinitely? */
1303:..\Source/tasks.c **** 					if( listLIST_ITEM_CONTAINER( &( pxTCB->xEventListItem ) ) == NULL )
 920              		.loc 1 1303 0
 921 004c 3B69     		ldr	r3, [r7, #16]
 922 004e 9B6A     		ldr	r3, [r3, #40]
 923 0050 002B     		cmp	r3, #0
 924 0052 02D1     		bne	.L52
1304:..\Source/tasks.c **** 					{
1305:..\Source/tasks.c **** 						eReturn = eSuspended;
 925              		.loc 1 1305 0
 926 0054 0323     		movs	r3, #3
 927 0056 FB75     		strb	r3, [r7, #23]
 928 0058 0EE0     		b	.L48
 929              	.L52:
1306:..\Source/tasks.c **** 					}
1307:..\Source/tasks.c **** 					else
1308:..\Source/tasks.c **** 					{
1309:..\Source/tasks.c **** 						eReturn = eBlocked;
 930              		.loc 1 1309 0
 931 005a 0223     		movs	r3, #2
 932 005c FB75     		strb	r3, [r7, #23]
 933 005e 0BE0     		b	.L48
 934              	.L51:
1310:..\Source/tasks.c **** 					}
1311:..\Source/tasks.c **** 				}
1312:..\Source/tasks.c **** 			#endif
1313:..\Source/tasks.c **** 
1314:..\Source/tasks.c **** 			#if ( INCLUDE_vTaskDelete == 1 )
1315:..\Source/tasks.c **** 				else if( ( pxStateList == &xTasksWaitingTermination ) || ( pxStateList == NULL ) )
 935              		.loc 1 1315 0
 936 0060 FB68     		ldr	r3, [r7, #12]
 937 0062 0C4A     		ldr	r2, .L57+16
 938 0064 9342     		cmp	r3, r2
 939 0066 02D0     		beq	.L54
ARM GAS  C:\Users\bmt\AppData\Local\Temp\ccld84Qq.s 			page 41


 940              		.loc 1 1315 0 is_stmt 0 discriminator 1
 941 0068 FB68     		ldr	r3, [r7, #12]
 942 006a 002B     		cmp	r3, #0
 943 006c 02D1     		bne	.L55
 944              	.L54:
1316:..\Source/tasks.c **** 				{
1317:..\Source/tasks.c **** 					/* The task being queried is referenced from the deleted
1318:..\Source/tasks.c **** 					tasks list, or it is not referenced from any lists at
1319:..\Source/tasks.c **** 					all. */
1320:..\Source/tasks.c **** 					eReturn = eDeleted;
 945              		.loc 1 1320 0 is_stmt 1
 946 006e 0423     		movs	r3, #4
 947 0070 FB75     		strb	r3, [r7, #23]
 948 0072 01E0     		b	.L48
 949              	.L55:
1321:..\Source/tasks.c **** 				}
1322:..\Source/tasks.c **** 			#endif
1323:..\Source/tasks.c **** 
1324:..\Source/tasks.c **** 			else /*lint !e525 Negative indentation is intended to make use of pre-processor clearer. */
1325:..\Source/tasks.c **** 			{
1326:..\Source/tasks.c **** 				/* If the task is not in any other state, it must be in the
1327:..\Source/tasks.c **** 				Ready (including pending ready) state. */
1328:..\Source/tasks.c **** 				eReturn = eReady;
 950              		.loc 1 1328 0
 951 0074 0123     		movs	r3, #1
 952 0076 FB75     		strb	r3, [r7, #23]
 953              	.L48:
1329:..\Source/tasks.c **** 			}
1330:..\Source/tasks.c **** 		}
1331:..\Source/tasks.c **** 
1332:..\Source/tasks.c **** 		return eReturn;
 954              		.loc 1 1332 0
 955 0078 FB7D     		ldrb	r3, [r7, #23]	@ zero_extendqisi2
1333:..\Source/tasks.c **** 	} /*lint !e818 xTask cannot be a pointer to const because it is a typedef. */
 956              		.loc 1 1333 0
 957 007a 1846     		mov	r0, r3
 958 007c 1837     		adds	r7, r7, #24
 959              		.cfi_def_cfa_offset 8
 960 007e BD46     		mov	sp, r7
 961              		.cfi_def_cfa_register 13
 962              		@ sp needed
 963 0080 80BD     		pop	{r7, pc}
 964              	.L58:
 965 0082 00BF     		.align	2
 966              	.L57:
 967 0084 00000000 		.word	pxCurrentTCB
 968 0088 90000000 		.word	pxDelayedTaskList
 969 008c 94000000 		.word	pxOverflowDelayedTaskList
 970 0090 C4000000 		.word	xSuspendedTaskList
 971 0094 AC000000 		.word	xTasksWaitingTermination
 972              		.cfi_endproc
 973              	.LFE74:
 974              		.size	eTaskGetState, .-eTaskGetState
 975              		.section	.text.uxTaskPriorityGet,"ax",%progbits
 976              		.align	2
 977              		.global	uxTaskPriorityGet
 978              		.thumb
ARM GAS  C:\Users\bmt\AppData\Local\Temp\ccld84Qq.s 			page 42


 979              		.thumb_func
 980              		.type	uxTaskPriorityGet, %function
 981              	uxTaskPriorityGet:
 982              	.LFB75:
1334:..\Source/tasks.c **** 
1335:..\Source/tasks.c **** #endif /* INCLUDE_eTaskGetState */
1336:..\Source/tasks.c **** /*-----------------------------------------------------------*/
1337:..\Source/tasks.c **** 
1338:..\Source/tasks.c **** #if ( INCLUDE_uxTaskPriorityGet == 1 )
1339:..\Source/tasks.c **** 
1340:..\Source/tasks.c **** 	UBaseType_t uxTaskPriorityGet( TaskHandle_t xTask )
1341:..\Source/tasks.c **** 	{
 983              		.loc 1 1341 0
 984              		.cfi_startproc
 985              		@ args = 0, pretend = 0, frame = 16
 986              		@ frame_needed = 1, uses_anonymous_args = 0
 987 0000 80B5     		push	{r7, lr}
 988              		.cfi_def_cfa_offset 8
 989              		.cfi_offset 7, -8
 990              		.cfi_offset 14, -4
 991 0002 84B0     		sub	sp, sp, #16
 992              		.cfi_def_cfa_offset 24
 993 0004 00AF     		add	r7, sp, #0
 994              		.cfi_def_cfa_register 7
 995 0006 7860     		str	r0, [r7, #4]
1342:..\Source/tasks.c **** 	TCB_t *pxTCB;
1343:..\Source/tasks.c **** 	UBaseType_t uxReturn;
1344:..\Source/tasks.c **** 
1345:..\Source/tasks.c **** 		taskENTER_CRITICAL();
 996              		.loc 1 1345 0
 997 0008 FFF7FEFF 		bl	vPortEnterCritical
1346:..\Source/tasks.c **** 		{
1347:..\Source/tasks.c **** 			/* If null is passed in here then it is the priority of the that
1348:..\Source/tasks.c **** 			called uxTaskPriorityGet() that is being queried. */
1349:..\Source/tasks.c **** 			pxTCB = prvGetTCBFromHandle( xTask );
 998              		.loc 1 1349 0
 999 000c 7B68     		ldr	r3, [r7, #4]
 1000 000e 002B     		cmp	r3, #0
 1001 0010 02D1     		bne	.L60
 1002              		.loc 1 1349 0 is_stmt 0 discriminator 1
 1003 0012 074B     		ldr	r3, .L63
 1004 0014 1B68     		ldr	r3, [r3]
 1005 0016 00E0     		b	.L61
 1006              	.L60:
 1007              		.loc 1 1349 0 discriminator 2
 1008 0018 7B68     		ldr	r3, [r7, #4]
 1009              	.L61:
 1010              		.loc 1 1349 0 discriminator 4
 1011 001a FB60     		str	r3, [r7, #12]
1350:..\Source/tasks.c **** 			uxReturn = pxTCB->uxPriority;
 1012              		.loc 1 1350 0 is_stmt 1 discriminator 4
 1013 001c FB68     		ldr	r3, [r7, #12]
 1014 001e DB6A     		ldr	r3, [r3, #44]
 1015 0020 BB60     		str	r3, [r7, #8]
1351:..\Source/tasks.c **** 		}
1352:..\Source/tasks.c **** 		taskEXIT_CRITICAL();
 1016              		.loc 1 1352 0 discriminator 4
ARM GAS  C:\Users\bmt\AppData\Local\Temp\ccld84Qq.s 			page 43


 1017 0022 FFF7FEFF 		bl	vPortExitCritical
1353:..\Source/tasks.c **** 
1354:..\Source/tasks.c **** 		return uxReturn;
 1018              		.loc 1 1354 0 discriminator 4
 1019 0026 BB68     		ldr	r3, [r7, #8]
1355:..\Source/tasks.c **** 	}
 1020              		.loc 1 1355 0 discriminator 4
 1021 0028 1846     		mov	r0, r3
 1022 002a 1037     		adds	r7, r7, #16
 1023              		.cfi_def_cfa_offset 8
 1024 002c BD46     		mov	sp, r7
 1025              		.cfi_def_cfa_register 13
 1026              		@ sp needed
 1027 002e 80BD     		pop	{r7, pc}
 1028              	.L64:
 1029              		.align	2
 1030              	.L63:
 1031 0030 00000000 		.word	pxCurrentTCB
 1032              		.cfi_endproc
 1033              	.LFE75:
 1034              		.size	uxTaskPriorityGet, .-uxTaskPriorityGet
 1035              		.section	.text.uxTaskPriorityGetFromISR,"ax",%progbits
 1036              		.align	2
 1037              		.global	uxTaskPriorityGetFromISR
 1038              		.thumb
 1039              		.thumb_func
 1040              		.type	uxTaskPriorityGetFromISR, %function
 1041              	uxTaskPriorityGetFromISR:
 1042              	.LFB76:
1356:..\Source/tasks.c **** 
1357:..\Source/tasks.c **** #endif /* INCLUDE_uxTaskPriorityGet */
1358:..\Source/tasks.c **** /*-----------------------------------------------------------*/
1359:..\Source/tasks.c **** 
1360:..\Source/tasks.c **** #if ( INCLUDE_uxTaskPriorityGet == 1 )
1361:..\Source/tasks.c **** 
1362:..\Source/tasks.c **** 	UBaseType_t uxTaskPriorityGetFromISR( TaskHandle_t xTask )
1363:..\Source/tasks.c **** 	{
 1043              		.loc 1 1363 0
 1044              		.cfi_startproc
 1045              		@ args = 0, pretend = 0, frame = 32
 1046              		@ frame_needed = 1, uses_anonymous_args = 0
 1047              		@ link register save eliminated.
 1048 0000 80B4     		push	{r7}
 1049              		.cfi_def_cfa_offset 4
 1050              		.cfi_offset 7, -4
 1051 0002 89B0     		sub	sp, sp, #36
 1052              		.cfi_def_cfa_offset 40
 1053 0004 00AF     		add	r7, sp, #0
 1054              		.cfi_def_cfa_register 7
 1055 0006 7860     		str	r0, [r7, #4]
 1056              	.LBB29:
 1057              	.LBB30:
 1058              		.file 2 "..\\Source\\portable\\GCC\\ARM_CM3/portmacro.h"
   1:..\Source\portable\GCC\ARM_CM3/portmacro.h **** /*
   2:..\Source\portable\GCC\ARM_CM3/portmacro.h ****     FreeRTOS V9.0.0 - Copyright (C) 2016 Real Time Engineers Ltd.
   3:..\Source\portable\GCC\ARM_CM3/portmacro.h ****     All rights reserved
   4:..\Source\portable\GCC\ARM_CM3/portmacro.h **** 
ARM GAS  C:\Users\bmt\AppData\Local\Temp\ccld84Qq.s 			page 44


   5:..\Source\portable\GCC\ARM_CM3/portmacro.h ****     VISIT http://www.FreeRTOS.org TO ENSURE YOU ARE USING THE LATEST VERSION.
   6:..\Source\portable\GCC\ARM_CM3/portmacro.h **** 
   7:..\Source\portable\GCC\ARM_CM3/portmacro.h ****     This file is part of the FreeRTOS distribution.
   8:..\Source\portable\GCC\ARM_CM3/portmacro.h **** 
   9:..\Source\portable\GCC\ARM_CM3/portmacro.h ****     FreeRTOS is free software; you can redistribute it and/or modify it under
  10:..\Source\portable\GCC\ARM_CM3/portmacro.h ****     the terms of the GNU General Public License (version 2) as published by the
  11:..\Source\portable\GCC\ARM_CM3/portmacro.h ****     Free Software Foundation >>>> AND MODIFIED BY <<<< the FreeRTOS exception.
  12:..\Source\portable\GCC\ARM_CM3/portmacro.h **** 
  13:..\Source\portable\GCC\ARM_CM3/portmacro.h ****     ***************************************************************************
  14:..\Source\portable\GCC\ARM_CM3/portmacro.h ****     >>!   NOTE: The modification to the GPL is included to allow you to     !<<
  15:..\Source\portable\GCC\ARM_CM3/portmacro.h ****     >>!   distribute a combined work that includes FreeRTOS without being   !<<
  16:..\Source\portable\GCC\ARM_CM3/portmacro.h ****     >>!   obliged to provide the source code for proprietary components     !<<
  17:..\Source\portable\GCC\ARM_CM3/portmacro.h ****     >>!   outside of the FreeRTOS kernel.                                   !<<
  18:..\Source\portable\GCC\ARM_CM3/portmacro.h ****     ***************************************************************************
  19:..\Source\portable\GCC\ARM_CM3/portmacro.h **** 
  20:..\Source\portable\GCC\ARM_CM3/portmacro.h ****     FreeRTOS is distributed in the hope that it will be useful, but WITHOUT ANY
  21:..\Source\portable\GCC\ARM_CM3/portmacro.h ****     WARRANTY; without even the implied warranty of MERCHANTABILITY or FITNESS
  22:..\Source\portable\GCC\ARM_CM3/portmacro.h ****     FOR A PARTICULAR PURPOSE.  Full license text is available on the following
  23:..\Source\portable\GCC\ARM_CM3/portmacro.h ****     link: http://www.freertos.org/a00114.html
  24:..\Source\portable\GCC\ARM_CM3/portmacro.h **** 
  25:..\Source\portable\GCC\ARM_CM3/portmacro.h ****     ***************************************************************************
  26:..\Source\portable\GCC\ARM_CM3/portmacro.h ****      *                                                                       *
  27:..\Source\portable\GCC\ARM_CM3/portmacro.h ****      *    FreeRTOS provides completely free yet professionally developed,    *
  28:..\Source\portable\GCC\ARM_CM3/portmacro.h ****      *    robust, strictly quality controlled, supported, and cross          *
  29:..\Source\portable\GCC\ARM_CM3/portmacro.h ****      *    platform software that is more than just the market leader, it     *
  30:..\Source\portable\GCC\ARM_CM3/portmacro.h ****      *    is the industry's de facto standard.                               *
  31:..\Source\portable\GCC\ARM_CM3/portmacro.h ****      *                                                                       *
  32:..\Source\portable\GCC\ARM_CM3/portmacro.h ****      *    Help yourself get started quickly while simultaneously helping     *
  33:..\Source\portable\GCC\ARM_CM3/portmacro.h ****      *    to support the FreeRTOS project by purchasing a FreeRTOS           *
  34:..\Source\portable\GCC\ARM_CM3/portmacro.h ****      *    tutorial book, reference manual, or both:                          *
  35:..\Source\portable\GCC\ARM_CM3/portmacro.h ****      *    http://www.FreeRTOS.org/Documentation                              *
  36:..\Source\portable\GCC\ARM_CM3/portmacro.h ****      *                                                                       *
  37:..\Source\portable\GCC\ARM_CM3/portmacro.h ****     ***************************************************************************
  38:..\Source\portable\GCC\ARM_CM3/portmacro.h **** 
  39:..\Source\portable\GCC\ARM_CM3/portmacro.h ****     http://www.FreeRTOS.org/FAQHelp.html - Having a problem?  Start by reading
  40:..\Source\portable\GCC\ARM_CM3/portmacro.h ****     the FAQ page "My application does not run, what could be wrong?".  Have you
  41:..\Source\portable\GCC\ARM_CM3/portmacro.h ****     defined configASSERT()?
  42:..\Source\portable\GCC\ARM_CM3/portmacro.h **** 
  43:..\Source\portable\GCC\ARM_CM3/portmacro.h ****     http://www.FreeRTOS.org/support - In return for receiving this top quality
  44:..\Source\portable\GCC\ARM_CM3/portmacro.h ****     embedded software for free we request you assist our global community by
  45:..\Source\portable\GCC\ARM_CM3/portmacro.h ****     participating in the support forum.
  46:..\Source\portable\GCC\ARM_CM3/portmacro.h **** 
  47:..\Source\portable\GCC\ARM_CM3/portmacro.h ****     http://www.FreeRTOS.org/training - Investing in training allows your team to
  48:..\Source\portable\GCC\ARM_CM3/portmacro.h ****     be as productive as possible as early as possible.  Now you can receive
  49:..\Source\portable\GCC\ARM_CM3/portmacro.h ****     FreeRTOS training directly from Richard Barry, CEO of Real Time Engineers
  50:..\Source\portable\GCC\ARM_CM3/portmacro.h ****     Ltd, and the world's leading authority on the world's leading RTOS.
  51:..\Source\portable\GCC\ARM_CM3/portmacro.h **** 
  52:..\Source\portable\GCC\ARM_CM3/portmacro.h ****     http://www.FreeRTOS.org/plus - A selection of FreeRTOS ecosystem products,
  53:..\Source\portable\GCC\ARM_CM3/portmacro.h ****     including FreeRTOS+Trace - an indispensable productivity tool, a DOS
  54:..\Source\portable\GCC\ARM_CM3/portmacro.h ****     compatible FAT file system, and our tiny thread aware UDP/IP stack.
  55:..\Source\portable\GCC\ARM_CM3/portmacro.h **** 
  56:..\Source\portable\GCC\ARM_CM3/portmacro.h ****     http://www.FreeRTOS.org/labs - Where new FreeRTOS products go to incubate.
  57:..\Source\portable\GCC\ARM_CM3/portmacro.h ****     Come and try FreeRTOS+TCP, our new open source TCP/IP stack for FreeRTOS.
  58:..\Source\portable\GCC\ARM_CM3/portmacro.h **** 
  59:..\Source\portable\GCC\ARM_CM3/portmacro.h ****     http://www.OpenRTOS.com - Real Time Engineers ltd. license FreeRTOS to High
  60:..\Source\portable\GCC\ARM_CM3/portmacro.h ****     Integrity Systems ltd. to sell under the OpenRTOS brand.  Low cost OpenRTOS
  61:..\Source\portable\GCC\ARM_CM3/portmacro.h ****     licenses offer ticketed support, indemnification and commercial middleware.
ARM GAS  C:\Users\bmt\AppData\Local\Temp\ccld84Qq.s 			page 45


  62:..\Source\portable\GCC\ARM_CM3/portmacro.h **** 
  63:..\Source\portable\GCC\ARM_CM3/portmacro.h ****     http://www.SafeRTOS.com - High Integrity Systems also provide a safety
  64:..\Source\portable\GCC\ARM_CM3/portmacro.h ****     engineered and independently SIL3 certified version for use in safety and
  65:..\Source\portable\GCC\ARM_CM3/portmacro.h ****     mission critical applications that require provable dependability.
  66:..\Source\portable\GCC\ARM_CM3/portmacro.h **** 
  67:..\Source\portable\GCC\ARM_CM3/portmacro.h ****     1 tab == 4 spaces!
  68:..\Source\portable\GCC\ARM_CM3/portmacro.h **** */
  69:..\Source\portable\GCC\ARM_CM3/portmacro.h **** 
  70:..\Source\portable\GCC\ARM_CM3/portmacro.h **** 
  71:..\Source\portable\GCC\ARM_CM3/portmacro.h **** #ifndef PORTMACRO_H
  72:..\Source\portable\GCC\ARM_CM3/portmacro.h **** #define PORTMACRO_H
  73:..\Source\portable\GCC\ARM_CM3/portmacro.h **** 
  74:..\Source\portable\GCC\ARM_CM3/portmacro.h **** #ifdef __cplusplus
  75:..\Source\portable\GCC\ARM_CM3/portmacro.h **** extern "C" {
  76:..\Source\portable\GCC\ARM_CM3/portmacro.h **** #endif
  77:..\Source\portable\GCC\ARM_CM3/portmacro.h **** 
  78:..\Source\portable\GCC\ARM_CM3/portmacro.h **** /*-----------------------------------------------------------
  79:..\Source\portable\GCC\ARM_CM3/portmacro.h ****  * Port specific definitions.
  80:..\Source\portable\GCC\ARM_CM3/portmacro.h ****  *
  81:..\Source\portable\GCC\ARM_CM3/portmacro.h ****  * The settings in this file configure FreeRTOS correctly for the
  82:..\Source\portable\GCC\ARM_CM3/portmacro.h ****  * given hardware and compiler.
  83:..\Source\portable\GCC\ARM_CM3/portmacro.h ****  *
  84:..\Source\portable\GCC\ARM_CM3/portmacro.h ****  * These settings should not be altered.
  85:..\Source\portable\GCC\ARM_CM3/portmacro.h ****  *-----------------------------------------------------------
  86:..\Source\portable\GCC\ARM_CM3/portmacro.h ****  */
  87:..\Source\portable\GCC\ARM_CM3/portmacro.h **** 
  88:..\Source\portable\GCC\ARM_CM3/portmacro.h **** /* Type definitions. */
  89:..\Source\portable\GCC\ARM_CM3/portmacro.h **** #define portCHAR		char
  90:..\Source\portable\GCC\ARM_CM3/portmacro.h **** #define portFLOAT		float
  91:..\Source\portable\GCC\ARM_CM3/portmacro.h **** #define portDOUBLE		double
  92:..\Source\portable\GCC\ARM_CM3/portmacro.h **** #define portLONG		long
  93:..\Source\portable\GCC\ARM_CM3/portmacro.h **** #define portSHORT		short
  94:..\Source\portable\GCC\ARM_CM3/portmacro.h **** #define portSTACK_TYPE	uint32_t
  95:..\Source\portable\GCC\ARM_CM3/portmacro.h **** #define portBASE_TYPE	long
  96:..\Source\portable\GCC\ARM_CM3/portmacro.h **** 
  97:..\Source\portable\GCC\ARM_CM3/portmacro.h **** typedef portSTACK_TYPE StackType_t;
  98:..\Source\portable\GCC\ARM_CM3/portmacro.h **** typedef long BaseType_t;
  99:..\Source\portable\GCC\ARM_CM3/portmacro.h **** typedef unsigned long UBaseType_t;
 100:..\Source\portable\GCC\ARM_CM3/portmacro.h **** 
 101:..\Source\portable\GCC\ARM_CM3/portmacro.h **** #if( configUSE_16_BIT_TICKS == 1 )
 102:..\Source\portable\GCC\ARM_CM3/portmacro.h **** 	typedef uint16_t TickType_t;
 103:..\Source\portable\GCC\ARM_CM3/portmacro.h **** 	#define portMAX_DELAY ( TickType_t ) 0xffff
 104:..\Source\portable\GCC\ARM_CM3/portmacro.h **** #else
 105:..\Source\portable\GCC\ARM_CM3/portmacro.h **** 	typedef uint32_t TickType_t;
 106:..\Source\portable\GCC\ARM_CM3/portmacro.h **** 	#define portMAX_DELAY ( TickType_t ) 0xffffffffUL
 107:..\Source\portable\GCC\ARM_CM3/portmacro.h **** 
 108:..\Source\portable\GCC\ARM_CM3/portmacro.h **** 	/* 32-bit tick type on a 32-bit architecture, so reads of the tick count do
 109:..\Source\portable\GCC\ARM_CM3/portmacro.h **** 	not need to be guarded with a critical section. */
 110:..\Source\portable\GCC\ARM_CM3/portmacro.h **** 	#define portTICK_TYPE_IS_ATOMIC 1
 111:..\Source\portable\GCC\ARM_CM3/portmacro.h **** #endif
 112:..\Source\portable\GCC\ARM_CM3/portmacro.h **** /*-----------------------------------------------------------*/
 113:..\Source\portable\GCC\ARM_CM3/portmacro.h **** 
 114:..\Source\portable\GCC\ARM_CM3/portmacro.h **** /* Architecture specifics. */
 115:..\Source\portable\GCC\ARM_CM3/portmacro.h **** #define portSTACK_GROWTH			( -1 )
 116:..\Source\portable\GCC\ARM_CM3/portmacro.h **** #define portTICK_PERIOD_MS			( ( TickType_t ) 1000 / configTICK_RATE_HZ )
 117:..\Source\portable\GCC\ARM_CM3/portmacro.h **** #define portBYTE_ALIGNMENT			8
 118:..\Source\portable\GCC\ARM_CM3/portmacro.h **** /*-----------------------------------------------------------*/
ARM GAS  C:\Users\bmt\AppData\Local\Temp\ccld84Qq.s 			page 46


 119:..\Source\portable\GCC\ARM_CM3/portmacro.h **** 
 120:..\Source\portable\GCC\ARM_CM3/portmacro.h **** /* Scheduler utilities. */
 121:..\Source\portable\GCC\ARM_CM3/portmacro.h **** #define portYIELD() 															\
 122:..\Source\portable\GCC\ARM_CM3/portmacro.h **** {																				\
 123:..\Source\portable\GCC\ARM_CM3/portmacro.h **** 	/* Set a PendSV to request a context switch. */								\
 124:..\Source\portable\GCC\ARM_CM3/portmacro.h **** 	portNVIC_INT_CTRL_REG = portNVIC_PENDSVSET_BIT;								\
 125:..\Source\portable\GCC\ARM_CM3/portmacro.h **** 																				\
 126:..\Source\portable\GCC\ARM_CM3/portmacro.h **** 	/* Barriers are normally not required but do ensure the code is completely	\
 127:..\Source\portable\GCC\ARM_CM3/portmacro.h **** 	within the specified behaviour for the architecture. */						\
 128:..\Source\portable\GCC\ARM_CM3/portmacro.h **** 	__asm volatile( "dsb" );													\
 129:..\Source\portable\GCC\ARM_CM3/portmacro.h **** 	__asm volatile( "isb" );													\
 130:..\Source\portable\GCC\ARM_CM3/portmacro.h **** }
 131:..\Source\portable\GCC\ARM_CM3/portmacro.h **** 
 132:..\Source\portable\GCC\ARM_CM3/portmacro.h **** #define portNVIC_INT_CTRL_REG		( * ( ( volatile uint32_t * ) 0xe000ed04 ) )
 133:..\Source\portable\GCC\ARM_CM3/portmacro.h **** #define portNVIC_PENDSVSET_BIT		( 1UL << 28UL )
 134:..\Source\portable\GCC\ARM_CM3/portmacro.h **** #define portEND_SWITCHING_ISR( xSwitchRequired ) if( xSwitchRequired != pdFALSE ) portYIELD()
 135:..\Source\portable\GCC\ARM_CM3/portmacro.h **** #define portYIELD_FROM_ISR( x ) portEND_SWITCHING_ISR( x )
 136:..\Source\portable\GCC\ARM_CM3/portmacro.h **** /*-----------------------------------------------------------*/
 137:..\Source\portable\GCC\ARM_CM3/portmacro.h **** 
 138:..\Source\portable\GCC\ARM_CM3/portmacro.h **** /* Critical section management. */
 139:..\Source\portable\GCC\ARM_CM3/portmacro.h **** extern void vPortEnterCritical( void );
 140:..\Source\portable\GCC\ARM_CM3/portmacro.h **** extern void vPortExitCritical( void );
 141:..\Source\portable\GCC\ARM_CM3/portmacro.h **** #define portSET_INTERRUPT_MASK_FROM_ISR()		ulPortRaiseBASEPRI()
 142:..\Source\portable\GCC\ARM_CM3/portmacro.h **** #define portCLEAR_INTERRUPT_MASK_FROM_ISR(x)	vPortSetBASEPRI(x)
 143:..\Source\portable\GCC\ARM_CM3/portmacro.h **** #define portDISABLE_INTERRUPTS()				vPortRaiseBASEPRI()
 144:..\Source\portable\GCC\ARM_CM3/portmacro.h **** #define portENABLE_INTERRUPTS()					vPortSetBASEPRI(0)
 145:..\Source\portable\GCC\ARM_CM3/portmacro.h **** #define portENTER_CRITICAL()					vPortEnterCritical()
 146:..\Source\portable\GCC\ARM_CM3/portmacro.h **** #define portEXIT_CRITICAL()						vPortExitCritical()
 147:..\Source\portable\GCC\ARM_CM3/portmacro.h **** 
 148:..\Source\portable\GCC\ARM_CM3/portmacro.h **** /*-----------------------------------------------------------*/
 149:..\Source\portable\GCC\ARM_CM3/portmacro.h **** 
 150:..\Source\portable\GCC\ARM_CM3/portmacro.h **** /* Task function macros as described on the FreeRTOS.org WEB site.  These are
 151:..\Source\portable\GCC\ARM_CM3/portmacro.h **** not necessary for to use this port.  They are defined so the common demo files
 152:..\Source\portable\GCC\ARM_CM3/portmacro.h **** (which build with all the ports) will build. */
 153:..\Source\portable\GCC\ARM_CM3/portmacro.h **** #define portTASK_FUNCTION_PROTO( vFunction, pvParameters ) void vFunction( void *pvParameters )
 154:..\Source\portable\GCC\ARM_CM3/portmacro.h **** #define portTASK_FUNCTION( vFunction, pvParameters ) void vFunction( void *pvParameters )
 155:..\Source\portable\GCC\ARM_CM3/portmacro.h **** /*-----------------------------------------------------------*/
 156:..\Source\portable\GCC\ARM_CM3/portmacro.h **** 
 157:..\Source\portable\GCC\ARM_CM3/portmacro.h **** /* Tickless idle/low power functionality. */
 158:..\Source\portable\GCC\ARM_CM3/portmacro.h **** #ifndef portSUPPRESS_TICKS_AND_SLEEP
 159:..\Source\portable\GCC\ARM_CM3/portmacro.h **** 	extern void vPortSuppressTicksAndSleep( TickType_t xExpectedIdleTime );
 160:..\Source\portable\GCC\ARM_CM3/portmacro.h **** 	#define portSUPPRESS_TICKS_AND_SLEEP( xExpectedIdleTime ) vPortSuppressTicksAndSleep( xExpectedIdl
 161:..\Source\portable\GCC\ARM_CM3/portmacro.h **** #endif
 162:..\Source\portable\GCC\ARM_CM3/portmacro.h **** /*-----------------------------------------------------------*/
 163:..\Source\portable\GCC\ARM_CM3/portmacro.h **** 
 164:..\Source\portable\GCC\ARM_CM3/portmacro.h **** /* Architecture specific optimisations. */
 165:..\Source\portable\GCC\ARM_CM3/portmacro.h **** #ifndef configUSE_PORT_OPTIMISED_TASK_SELECTION
 166:..\Source\portable\GCC\ARM_CM3/portmacro.h **** 	#define configUSE_PORT_OPTIMISED_TASK_SELECTION 1
 167:..\Source\portable\GCC\ARM_CM3/portmacro.h **** #endif
 168:..\Source\portable\GCC\ARM_CM3/portmacro.h **** 
 169:..\Source\portable\GCC\ARM_CM3/portmacro.h **** #if configUSE_PORT_OPTIMISED_TASK_SELECTION == 1
 170:..\Source\portable\GCC\ARM_CM3/portmacro.h **** 
 171:..\Source\portable\GCC\ARM_CM3/portmacro.h **** 	/* Generic helper function. */
 172:..\Source\portable\GCC\ARM_CM3/portmacro.h **** 	__attribute__( ( always_inline ) ) static inline uint8_t ucPortCountLeadingZeros( uint32_t ulBitma
 173:..\Source\portable\GCC\ARM_CM3/portmacro.h **** 	{
 174:..\Source\portable\GCC\ARM_CM3/portmacro.h **** 	uint8_t ucReturn;
 175:..\Source\portable\GCC\ARM_CM3/portmacro.h **** 
ARM GAS  C:\Users\bmt\AppData\Local\Temp\ccld84Qq.s 			page 47


 176:..\Source\portable\GCC\ARM_CM3/portmacro.h **** 		__asm volatile ( "clz %0, %1" : "=r" ( ucReturn ) : "r" ( ulBitmap ) );
 177:..\Source\portable\GCC\ARM_CM3/portmacro.h **** 		return ucReturn;
 178:..\Source\portable\GCC\ARM_CM3/portmacro.h **** 	}
 179:..\Source\portable\GCC\ARM_CM3/portmacro.h **** 
 180:..\Source\portable\GCC\ARM_CM3/portmacro.h **** 	/* Check the configuration. */
 181:..\Source\portable\GCC\ARM_CM3/portmacro.h **** 	#if( configMAX_PRIORITIES > 32 )
 182:..\Source\portable\GCC\ARM_CM3/portmacro.h **** 		#error configUSE_PORT_OPTIMISED_TASK_SELECTION can only be set to 1 when configMAX_PRIORITIES is 
 183:..\Source\portable\GCC\ARM_CM3/portmacro.h **** 	#endif
 184:..\Source\portable\GCC\ARM_CM3/portmacro.h **** 
 185:..\Source\portable\GCC\ARM_CM3/portmacro.h **** 	/* Store/clear the ready priorities in a bit map. */
 186:..\Source\portable\GCC\ARM_CM3/portmacro.h **** 	#define portRECORD_READY_PRIORITY( uxPriority, uxReadyPriorities ) ( uxReadyPriorities ) |= ( 1UL 
 187:..\Source\portable\GCC\ARM_CM3/portmacro.h **** 	#define portRESET_READY_PRIORITY( uxPriority, uxReadyPriorities ) ( uxReadyPriorities ) &= ~( 1UL 
 188:..\Source\portable\GCC\ARM_CM3/portmacro.h **** 
 189:..\Source\portable\GCC\ARM_CM3/portmacro.h **** 	/*-----------------------------------------------------------*/
 190:..\Source\portable\GCC\ARM_CM3/portmacro.h **** 
 191:..\Source\portable\GCC\ARM_CM3/portmacro.h **** 	#define portGET_HIGHEST_PRIORITY( uxTopPriority, uxReadyPriorities ) uxTopPriority = ( 31UL - ( ui
 192:..\Source\portable\GCC\ARM_CM3/portmacro.h **** 
 193:..\Source\portable\GCC\ARM_CM3/portmacro.h **** #endif /* configUSE_PORT_OPTIMISED_TASK_SELECTION */
 194:..\Source\portable\GCC\ARM_CM3/portmacro.h **** 
 195:..\Source\portable\GCC\ARM_CM3/portmacro.h **** /*-----------------------------------------------------------*/
 196:..\Source\portable\GCC\ARM_CM3/portmacro.h **** 
 197:..\Source\portable\GCC\ARM_CM3/portmacro.h **** #ifdef configASSERT
 198:..\Source\portable\GCC\ARM_CM3/portmacro.h **** 	void vPortValidateInterruptPriority( void );
 199:..\Source\portable\GCC\ARM_CM3/portmacro.h **** 	#define portASSERT_IF_INTERRUPT_PRIORITY_INVALID() 	vPortValidateInterruptPriority()
 200:..\Source\portable\GCC\ARM_CM3/portmacro.h **** #endif
 201:..\Source\portable\GCC\ARM_CM3/portmacro.h **** 
 202:..\Source\portable\GCC\ARM_CM3/portmacro.h **** /* portNOP() is not required by this port. */
 203:..\Source\portable\GCC\ARM_CM3/portmacro.h **** #define portNOP()
 204:..\Source\portable\GCC\ARM_CM3/portmacro.h **** 
 205:..\Source\portable\GCC\ARM_CM3/portmacro.h **** #define portINLINE	__inline
 206:..\Source\portable\GCC\ARM_CM3/portmacro.h **** 
 207:..\Source\portable\GCC\ARM_CM3/portmacro.h **** #ifndef portFORCE_INLINE
 208:..\Source\portable\GCC\ARM_CM3/portmacro.h **** 	#define portFORCE_INLINE inline __attribute__(( always_inline))
 209:..\Source\portable\GCC\ARM_CM3/portmacro.h **** #endif
 210:..\Source\portable\GCC\ARM_CM3/portmacro.h **** 
 211:..\Source\portable\GCC\ARM_CM3/portmacro.h **** portFORCE_INLINE static BaseType_t xPortIsInsideInterrupt( void )
 212:..\Source\portable\GCC\ARM_CM3/portmacro.h **** {
 213:..\Source\portable\GCC\ARM_CM3/portmacro.h **** uint32_t ulCurrentInterrupt;
 214:..\Source\portable\GCC\ARM_CM3/portmacro.h **** BaseType_t xReturn;
 215:..\Source\portable\GCC\ARM_CM3/portmacro.h **** 
 216:..\Source\portable\GCC\ARM_CM3/portmacro.h **** 	/* Obtain the number of the currently executing interrupt. */
 217:..\Source\portable\GCC\ARM_CM3/portmacro.h **** 	__asm volatile( "mrs %0, ipsr" : "=r"( ulCurrentInterrupt ) );
 218:..\Source\portable\GCC\ARM_CM3/portmacro.h **** 
 219:..\Source\portable\GCC\ARM_CM3/portmacro.h **** 	if( ulCurrentInterrupt == 0 )
 220:..\Source\portable\GCC\ARM_CM3/portmacro.h **** 	{
 221:..\Source\portable\GCC\ARM_CM3/portmacro.h **** 		xReturn = pdFALSE;
 222:..\Source\portable\GCC\ARM_CM3/portmacro.h **** 	}
 223:..\Source\portable\GCC\ARM_CM3/portmacro.h **** 	else
 224:..\Source\portable\GCC\ARM_CM3/portmacro.h **** 	{
 225:..\Source\portable\GCC\ARM_CM3/portmacro.h **** 		xReturn = pdTRUE;
 226:..\Source\portable\GCC\ARM_CM3/portmacro.h **** 	}
 227:..\Source\portable\GCC\ARM_CM3/portmacro.h **** 
 228:..\Source\portable\GCC\ARM_CM3/portmacro.h **** 	return xReturn;
 229:..\Source\portable\GCC\ARM_CM3/portmacro.h **** }
 230:..\Source\portable\GCC\ARM_CM3/portmacro.h **** 
 231:..\Source\portable\GCC\ARM_CM3/portmacro.h **** /*-----------------------------------------------------------*/
 232:..\Source\portable\GCC\ARM_CM3/portmacro.h **** 
ARM GAS  C:\Users\bmt\AppData\Local\Temp\ccld84Qq.s 			page 48


 233:..\Source\portable\GCC\ARM_CM3/portmacro.h **** portFORCE_INLINE static void vPortRaiseBASEPRI( void )
 234:..\Source\portable\GCC\ARM_CM3/portmacro.h **** {
 235:..\Source\portable\GCC\ARM_CM3/portmacro.h **** uint32_t ulNewBASEPRI;
 236:..\Source\portable\GCC\ARM_CM3/portmacro.h **** 
 237:..\Source\portable\GCC\ARM_CM3/portmacro.h **** 	__asm volatile
 238:..\Source\portable\GCC\ARM_CM3/portmacro.h **** 	(
 239:..\Source\portable\GCC\ARM_CM3/portmacro.h **** 		"	mov %0, %1												\n"	\
 240:..\Source\portable\GCC\ARM_CM3/portmacro.h **** 		"	msr basepri, %0											\n" \
 241:..\Source\portable\GCC\ARM_CM3/portmacro.h **** 		"	isb														\n" \
 242:..\Source\portable\GCC\ARM_CM3/portmacro.h **** 		"	dsb														\n" \
 243:..\Source\portable\GCC\ARM_CM3/portmacro.h **** 		:"=r" (ulNewBASEPRI) : "i" ( configMAX_SYSCALL_INTERRUPT_PRIORITY )
 244:..\Source\portable\GCC\ARM_CM3/portmacro.h **** 	);
 245:..\Source\portable\GCC\ARM_CM3/portmacro.h **** }
 246:..\Source\portable\GCC\ARM_CM3/portmacro.h **** 
 247:..\Source\portable\GCC\ARM_CM3/portmacro.h **** /*-----------------------------------------------------------*/
 248:..\Source\portable\GCC\ARM_CM3/portmacro.h **** 
 249:..\Source\portable\GCC\ARM_CM3/portmacro.h **** portFORCE_INLINE static uint32_t ulPortRaiseBASEPRI( void )
 250:..\Source\portable\GCC\ARM_CM3/portmacro.h **** {
 251:..\Source\portable\GCC\ARM_CM3/portmacro.h **** uint32_t ulOriginalBASEPRI, ulNewBASEPRI;
 252:..\Source\portable\GCC\ARM_CM3/portmacro.h **** 
 253:..\Source\portable\GCC\ARM_CM3/portmacro.h **** 	__asm volatile
 1059              		.loc 2 253 0
 1060              	@ 253 "..\Source\portable\GCC\ARM_CM3/portmacro.h" 1
 1061 0008 EFF31182 			mrs r2, basepri											
 1062 000c 4FF0A003 		mov r3, #160												
 1063 0010 83F31188 		msr basepri, r3											
 1064 0014 BFF36F8F 		isb														
 1065 0018 BFF34F8F 		dsb														
 1066              	
 1067              	@ 0 "" 2
 1068              		.thumb
 1069 001c 3A61     		str	r2, [r7, #16]
 1070 001e FB60     		str	r3, [r7, #12]
 254:..\Source\portable\GCC\ARM_CM3/portmacro.h **** 	(
 255:..\Source\portable\GCC\ARM_CM3/portmacro.h **** 		"	mrs %0, basepri											\n" \
 256:..\Source\portable\GCC\ARM_CM3/portmacro.h **** 		"	mov %1, %2												\n"	\
 257:..\Source\portable\GCC\ARM_CM3/portmacro.h **** 		"	msr basepri, %1											\n" \
 258:..\Source\portable\GCC\ARM_CM3/portmacro.h **** 		"	isb														\n" \
 259:..\Source\portable\GCC\ARM_CM3/portmacro.h **** 		"	dsb														\n" \
 260:..\Source\portable\GCC\ARM_CM3/portmacro.h **** 		:"=r" (ulOriginalBASEPRI), "=r" (ulNewBASEPRI) : "i" ( configMAX_SYSCALL_INTERRUPT_PRIORITY )
 261:..\Source\portable\GCC\ARM_CM3/portmacro.h **** 	);
 262:..\Source\portable\GCC\ARM_CM3/portmacro.h **** 
 263:..\Source\portable\GCC\ARM_CM3/portmacro.h **** 	/* This return will not be reached but is necessary to prevent compiler
 264:..\Source\portable\GCC\ARM_CM3/portmacro.h **** 	warnings. */
 265:..\Source\portable\GCC\ARM_CM3/portmacro.h **** 	return ulOriginalBASEPRI;
 1071              		.loc 2 265 0
 1072 0020 3B69     		ldr	r3, [r7, #16]
 1073              	.LBE30:
 1074              	.LBE29:
1364:..\Source/tasks.c **** 	TCB_t *pxTCB;
1365:..\Source/tasks.c **** 	UBaseType_t uxReturn, uxSavedInterruptState;
1366:..\Source/tasks.c **** 
1367:..\Source/tasks.c **** 		/* RTOS ports that support interrupt nesting have the concept of a
1368:..\Source/tasks.c **** 		maximum	system call (or maximum API call) interrupt priority.
1369:..\Source/tasks.c **** 		Interrupts that are	above the maximum system call priority are keep
1370:..\Source/tasks.c **** 		permanently enabled, even when the RTOS kernel is in a critical section,
1371:..\Source/tasks.c **** 		but cannot make any calls to FreeRTOS API functions.  If configASSERT()
ARM GAS  C:\Users\bmt\AppData\Local\Temp\ccld84Qq.s 			page 49


1372:..\Source/tasks.c **** 		is defined in FreeRTOSConfig.h then
1373:..\Source/tasks.c **** 		portASSERT_IF_INTERRUPT_PRIORITY_INVALID() will result in an assertion
1374:..\Source/tasks.c **** 		failure if a FreeRTOS API function is called from an interrupt that has
1375:..\Source/tasks.c **** 		been assigned a priority above the configured maximum system call
1376:..\Source/tasks.c **** 		priority.  Only FreeRTOS functions that end in FromISR can be called
1377:..\Source/tasks.c **** 		from interrupts	that have been assigned a priority at or (logically)
1378:..\Source/tasks.c **** 		below the maximum system call interrupt priority.  FreeRTOS maintains a
1379:..\Source/tasks.c **** 		separate interrupt safe API to ensure interrupt entry is as fast and as
1380:..\Source/tasks.c **** 		simple as possible.  More information (albeit Cortex-M specific) is
1381:..\Source/tasks.c **** 		provided on the following link:
1382:..\Source/tasks.c **** 		http://www.freertos.org/RTOS-Cortex-M3-M4.html */
1383:..\Source/tasks.c **** 		portASSERT_IF_INTERRUPT_PRIORITY_INVALID();
1384:..\Source/tasks.c **** 
1385:..\Source/tasks.c **** 		uxSavedInterruptState = portSET_INTERRUPT_MASK_FROM_ISR();
 1075              		.loc 1 1385 0
 1076 0022 FB61     		str	r3, [r7, #28]
1386:..\Source/tasks.c **** 		{
1387:..\Source/tasks.c **** 			/* If null is passed in here then it is the priority of the calling
1388:..\Source/tasks.c **** 			task that is being queried. */
1389:..\Source/tasks.c **** 			pxTCB = prvGetTCBFromHandle( xTask );
 1077              		.loc 1 1389 0
 1078 0024 7B68     		ldr	r3, [r7, #4]
 1079 0026 002B     		cmp	r3, #0
 1080 0028 02D1     		bne	.L67
 1081              		.loc 1 1389 0 is_stmt 0 discriminator 1
 1082 002a 0A4B     		ldr	r3, .L70
 1083 002c 1B68     		ldr	r3, [r3]
 1084 002e 00E0     		b	.L68
 1085              	.L67:
 1086              		.loc 1 1389 0 discriminator 2
 1087 0030 7B68     		ldr	r3, [r7, #4]
 1088              	.L68:
 1089              		.loc 1 1389 0 discriminator 4
 1090 0032 BB61     		str	r3, [r7, #24]
1390:..\Source/tasks.c **** 			uxReturn = pxTCB->uxPriority;
 1091              		.loc 1 1390 0 is_stmt 1 discriminator 4
 1092 0034 BB69     		ldr	r3, [r7, #24]
 1093 0036 DB6A     		ldr	r3, [r3, #44]
 1094 0038 7B61     		str	r3, [r7, #20]
 1095 003a FB69     		ldr	r3, [r7, #28]
 1096 003c BB60     		str	r3, [r7, #8]
 1097              	.LBB31:
 1098              	.LBB32:
 266:..\Source\portable\GCC\ARM_CM3/portmacro.h **** }
 267:..\Source\portable\GCC\ARM_CM3/portmacro.h **** /*-----------------------------------------------------------*/
 268:..\Source\portable\GCC\ARM_CM3/portmacro.h **** 
 269:..\Source\portable\GCC\ARM_CM3/portmacro.h **** portFORCE_INLINE static void vPortSetBASEPRI( uint32_t ulNewMaskValue )
 270:..\Source\portable\GCC\ARM_CM3/portmacro.h **** {
 271:..\Source\portable\GCC\ARM_CM3/portmacro.h **** 	__asm volatile
 1099              		.loc 2 271 0 discriminator 4
 1100 003e BB68     		ldr	r3, [r7, #8]
 1101              	@ 271 "..\Source\portable\GCC\ARM_CM3/portmacro.h" 1
 1102 0040 83F31188 			msr basepri, r3	
 1103              	@ 0 "" 2
 1104              		.thumb
 1105              	.LBE32:
 1106              	.LBE31:
ARM GAS  C:\Users\bmt\AppData\Local\Temp\ccld84Qq.s 			page 50


1391:..\Source/tasks.c **** 		}
1392:..\Source/tasks.c **** 		portCLEAR_INTERRUPT_MASK_FROM_ISR( uxSavedInterruptState );
1393:..\Source/tasks.c **** 
1394:..\Source/tasks.c **** 		return uxReturn;
 1107              		.loc 1 1394 0 discriminator 4
 1108 0044 7B69     		ldr	r3, [r7, #20]
1395:..\Source/tasks.c **** 	}
 1109              		.loc 1 1395 0 discriminator 4
 1110 0046 1846     		mov	r0, r3
 1111 0048 2437     		adds	r7, r7, #36
 1112              		.cfi_def_cfa_offset 4
 1113 004a BD46     		mov	sp, r7
 1114              		.cfi_def_cfa_register 13
 1115              		@ sp needed
 1116 004c 5DF8047B 		ldr	r7, [sp], #4
 1117              		.cfi_restore 7
 1118              		.cfi_def_cfa_offset 0
 1119 0050 7047     		bx	lr
 1120              	.L71:
 1121 0052 00BF     		.align	2
 1122              	.L70:
 1123 0054 00000000 		.word	pxCurrentTCB
 1124              		.cfi_endproc
 1125              	.LFE76:
 1126              		.size	uxTaskPriorityGetFromISR, .-uxTaskPriorityGetFromISR
 1127              		.section	.text.vTaskPrioritySet,"ax",%progbits
 1128              		.align	2
 1129              		.global	vTaskPrioritySet
 1130              		.thumb
 1131              		.thumb_func
 1132              		.type	vTaskPrioritySet, %function
 1133              	vTaskPrioritySet:
 1134              	.LFB77:
1396:..\Source/tasks.c **** 
1397:..\Source/tasks.c **** #endif /* INCLUDE_uxTaskPriorityGet */
1398:..\Source/tasks.c **** /*-----------------------------------------------------------*/
1399:..\Source/tasks.c **** 
1400:..\Source/tasks.c **** #if ( INCLUDE_vTaskPrioritySet == 1 )
1401:..\Source/tasks.c **** 
1402:..\Source/tasks.c **** 	void vTaskPrioritySet( TaskHandle_t xTask, UBaseType_t uxNewPriority )
1403:..\Source/tasks.c **** 	{
 1135              		.loc 1 1403 0
 1136              		.cfi_startproc
 1137              		@ args = 0, pretend = 0, frame = 24
 1138              		@ frame_needed = 1, uses_anonymous_args = 0
 1139 0000 80B5     		push	{r7, lr}
 1140              		.cfi_def_cfa_offset 8
 1141              		.cfi_offset 7, -8
 1142              		.cfi_offset 14, -4
 1143 0002 86B0     		sub	sp, sp, #24
 1144              		.cfi_def_cfa_offset 32
 1145 0004 00AF     		add	r7, sp, #0
 1146              		.cfi_def_cfa_register 7
 1147 0006 7860     		str	r0, [r7, #4]
 1148 0008 3960     		str	r1, [r7]
1404:..\Source/tasks.c **** 	TCB_t *pxTCB;
1405:..\Source/tasks.c **** 	UBaseType_t uxCurrentBasePriority, uxPriorityUsedOnEntry;
ARM GAS  C:\Users\bmt\AppData\Local\Temp\ccld84Qq.s 			page 51


1406:..\Source/tasks.c **** 	BaseType_t xYieldRequired = pdFALSE;
 1149              		.loc 1 1406 0
 1150 000a 0023     		movs	r3, #0
 1151 000c 7B61     		str	r3, [r7, #20]
1407:..\Source/tasks.c **** 
1408:..\Source/tasks.c **** 		configASSERT( ( uxNewPriority < configMAX_PRIORITIES ) );
1409:..\Source/tasks.c **** 
1410:..\Source/tasks.c **** 		/* Ensure the new priority is valid. */
1411:..\Source/tasks.c **** 		if( uxNewPriority >= ( UBaseType_t ) configMAX_PRIORITIES )
 1152              		.loc 1 1411 0
 1153 000e 3B68     		ldr	r3, [r7]
 1154 0010 042B     		cmp	r3, #4
 1155 0012 01D9     		bls	.L73
1412:..\Source/tasks.c **** 		{
1413:..\Source/tasks.c **** 			uxNewPriority = ( UBaseType_t ) configMAX_PRIORITIES - ( UBaseType_t ) 1U;
 1156              		.loc 1 1413 0
 1157 0014 0423     		movs	r3, #4
 1158 0016 3B60     		str	r3, [r7]
 1159              	.L73:
1414:..\Source/tasks.c **** 		}
1415:..\Source/tasks.c **** 		else
1416:..\Source/tasks.c **** 		{
1417:..\Source/tasks.c **** 			mtCOVERAGE_TEST_MARKER();
1418:..\Source/tasks.c **** 		}
1419:..\Source/tasks.c **** 
1420:..\Source/tasks.c **** 		taskENTER_CRITICAL();
 1160              		.loc 1 1420 0
 1161 0018 FFF7FEFF 		bl	vPortEnterCritical
1421:..\Source/tasks.c **** 		{
1422:..\Source/tasks.c **** 			/* If null is passed in here then it is the priority of the calling
1423:..\Source/tasks.c **** 			task that is being changed. */
1424:..\Source/tasks.c **** 			pxTCB = prvGetTCBFromHandle( xTask );
 1162              		.loc 1 1424 0
 1163 001c 7B68     		ldr	r3, [r7, #4]
 1164 001e 002B     		cmp	r3, #0
 1165 0020 02D1     		bne	.L74
 1166              		.loc 1 1424 0 is_stmt 0 discriminator 1
 1167 0022 444B     		ldr	r3, .L85
 1168 0024 1B68     		ldr	r3, [r3]
 1169 0026 00E0     		b	.L75
 1170              	.L74:
 1171              		.loc 1 1424 0 discriminator 2
 1172 0028 7B68     		ldr	r3, [r7, #4]
 1173              	.L75:
 1174              		.loc 1 1424 0 discriminator 4
 1175 002a 3B61     		str	r3, [r7, #16]
1425:..\Source/tasks.c **** 
1426:..\Source/tasks.c **** 			traceTASK_PRIORITY_SET( pxTCB, uxNewPriority );
1427:..\Source/tasks.c **** 
1428:..\Source/tasks.c **** 			#if ( configUSE_MUTEXES == 1 )
1429:..\Source/tasks.c **** 			{
1430:..\Source/tasks.c **** 				uxCurrentBasePriority = pxTCB->uxBasePriority;
 1176              		.loc 1 1430 0 is_stmt 1 discriminator 4
 1177 002c 3B69     		ldr	r3, [r7, #16]
 1178 002e 1B6C     		ldr	r3, [r3, #64]
 1179 0030 FB60     		str	r3, [r7, #12]
1431:..\Source/tasks.c **** 			}
ARM GAS  C:\Users\bmt\AppData\Local\Temp\ccld84Qq.s 			page 52


1432:..\Source/tasks.c **** 			#else
1433:..\Source/tasks.c **** 			{
1434:..\Source/tasks.c **** 				uxCurrentBasePriority = pxTCB->uxPriority;
1435:..\Source/tasks.c **** 			}
1436:..\Source/tasks.c **** 			#endif
1437:..\Source/tasks.c **** 
1438:..\Source/tasks.c **** 			if( uxCurrentBasePriority != uxNewPriority )
 1180              		.loc 1 1438 0 discriminator 4
 1181 0032 FA68     		ldr	r2, [r7, #12]
 1182 0034 3B68     		ldr	r3, [r7]
 1183 0036 9A42     		cmp	r2, r3
 1184 0038 76D0     		beq	.L76
1439:..\Source/tasks.c **** 			{
1440:..\Source/tasks.c **** 				/* The priority change may have readied a task of higher
1441:..\Source/tasks.c **** 				priority than the calling task. */
1442:..\Source/tasks.c **** 				if( uxNewPriority > uxCurrentBasePriority )
 1185              		.loc 1 1442 0
 1186 003a 3A68     		ldr	r2, [r7]
 1187 003c FB68     		ldr	r3, [r7, #12]
 1188 003e 9A42     		cmp	r2, r3
 1189 0040 0DD9     		bls	.L77
1443:..\Source/tasks.c **** 				{
1444:..\Source/tasks.c **** 					if( pxTCB != pxCurrentTCB )
 1190              		.loc 1 1444 0
 1191 0042 3C4B     		ldr	r3, .L85
 1192 0044 1B68     		ldr	r3, [r3]
 1193 0046 3A69     		ldr	r2, [r7, #16]
 1194 0048 9A42     		cmp	r2, r3
 1195 004a 0FD0     		beq	.L78
1445:..\Source/tasks.c **** 					{
1446:..\Source/tasks.c **** 						/* The priority of a task other than the currently
1447:..\Source/tasks.c **** 						running task is being raised.  Is the priority being
1448:..\Source/tasks.c **** 						raised above that of the running task? */
1449:..\Source/tasks.c **** 						if( uxNewPriority >= pxCurrentTCB->uxPriority )
 1196              		.loc 1 1449 0
 1197 004c 394B     		ldr	r3, .L85
 1198 004e 1B68     		ldr	r3, [r3]
 1199 0050 DA6A     		ldr	r2, [r3, #44]
 1200 0052 3B68     		ldr	r3, [r7]
 1201 0054 9A42     		cmp	r2, r3
 1202 0056 09D8     		bhi	.L78
1450:..\Source/tasks.c **** 						{
1451:..\Source/tasks.c **** 							xYieldRequired = pdTRUE;
 1203              		.loc 1 1451 0
 1204 0058 0123     		movs	r3, #1
 1205 005a 7B61     		str	r3, [r7, #20]
 1206 005c 06E0     		b	.L78
 1207              	.L77:
1452:..\Source/tasks.c **** 						}
1453:..\Source/tasks.c **** 						else
1454:..\Source/tasks.c **** 						{
1455:..\Source/tasks.c **** 							mtCOVERAGE_TEST_MARKER();
1456:..\Source/tasks.c **** 						}
1457:..\Source/tasks.c **** 					}
1458:..\Source/tasks.c **** 					else
1459:..\Source/tasks.c **** 					{
1460:..\Source/tasks.c **** 						/* The priority of the running task is being raised,
ARM GAS  C:\Users\bmt\AppData\Local\Temp\ccld84Qq.s 			page 53


1461:..\Source/tasks.c **** 						but the running task must already be the highest
1462:..\Source/tasks.c **** 						priority task able to run so no yield is required. */
1463:..\Source/tasks.c **** 					}
1464:..\Source/tasks.c **** 				}
1465:..\Source/tasks.c **** 				else if( pxTCB == pxCurrentTCB )
 1208              		.loc 1 1465 0
 1209 005e 354B     		ldr	r3, .L85
 1210 0060 1B68     		ldr	r3, [r3]
 1211 0062 3A69     		ldr	r2, [r7, #16]
 1212 0064 9A42     		cmp	r2, r3
 1213 0066 01D1     		bne	.L78
1466:..\Source/tasks.c **** 				{
1467:..\Source/tasks.c **** 					/* Setting the priority of the running task down means
1468:..\Source/tasks.c **** 					there may now be another task of higher priority that
1469:..\Source/tasks.c **** 					is ready to execute. */
1470:..\Source/tasks.c **** 					xYieldRequired = pdTRUE;
 1214              		.loc 1 1470 0
 1215 0068 0123     		movs	r3, #1
 1216 006a 7B61     		str	r3, [r7, #20]
 1217              	.L78:
1471:..\Source/tasks.c **** 				}
1472:..\Source/tasks.c **** 				else
1473:..\Source/tasks.c **** 				{
1474:..\Source/tasks.c **** 					/* Setting the priority of any other task down does not
1475:..\Source/tasks.c **** 					require a yield as the running task must be above the
1476:..\Source/tasks.c **** 					new priority of the task being modified. */
1477:..\Source/tasks.c **** 				}
1478:..\Source/tasks.c **** 
1479:..\Source/tasks.c **** 				/* Remember the ready list the task might be referenced from
1480:..\Source/tasks.c **** 				before its uxPriority member is changed so the
1481:..\Source/tasks.c **** 				taskRESET_READY_PRIORITY() macro can function correctly. */
1482:..\Source/tasks.c **** 				uxPriorityUsedOnEntry = pxTCB->uxPriority;
 1218              		.loc 1 1482 0
 1219 006c 3B69     		ldr	r3, [r7, #16]
 1220 006e DB6A     		ldr	r3, [r3, #44]
 1221 0070 BB60     		str	r3, [r7, #8]
1483:..\Source/tasks.c **** 
1484:..\Source/tasks.c **** 				#if ( configUSE_MUTEXES == 1 )
1485:..\Source/tasks.c **** 				{
1486:..\Source/tasks.c **** 					/* Only change the priority being used if the task is not
1487:..\Source/tasks.c **** 					currently using an inherited priority. */
1488:..\Source/tasks.c **** 					if( pxTCB->uxBasePriority == pxTCB->uxPriority )
 1222              		.loc 1 1488 0
 1223 0072 3B69     		ldr	r3, [r7, #16]
 1224 0074 1A6C     		ldr	r2, [r3, #64]
 1225 0076 3B69     		ldr	r3, [r7, #16]
 1226 0078 DB6A     		ldr	r3, [r3, #44]
 1227 007a 9A42     		cmp	r2, r3
 1228 007c 02D1     		bne	.L79
1489:..\Source/tasks.c **** 					{
1490:..\Source/tasks.c **** 						pxTCB->uxPriority = uxNewPriority;
 1229              		.loc 1 1490 0
 1230 007e 3B69     		ldr	r3, [r7, #16]
 1231 0080 3A68     		ldr	r2, [r7]
 1232 0082 DA62     		str	r2, [r3, #44]
 1233              	.L79:
1491:..\Source/tasks.c **** 					}
ARM GAS  C:\Users\bmt\AppData\Local\Temp\ccld84Qq.s 			page 54


1492:..\Source/tasks.c **** 					else
1493:..\Source/tasks.c **** 					{
1494:..\Source/tasks.c **** 						mtCOVERAGE_TEST_MARKER();
1495:..\Source/tasks.c **** 					}
1496:..\Source/tasks.c **** 
1497:..\Source/tasks.c **** 					/* The base priority gets set whatever. */
1498:..\Source/tasks.c **** 					pxTCB->uxBasePriority = uxNewPriority;
 1234              		.loc 1 1498 0
 1235 0084 3B69     		ldr	r3, [r7, #16]
 1236 0086 3A68     		ldr	r2, [r7]
 1237 0088 1A64     		str	r2, [r3, #64]
1499:..\Source/tasks.c **** 				}
1500:..\Source/tasks.c **** 				#else
1501:..\Source/tasks.c **** 				{
1502:..\Source/tasks.c **** 					pxTCB->uxPriority = uxNewPriority;
1503:..\Source/tasks.c **** 				}
1504:..\Source/tasks.c **** 				#endif
1505:..\Source/tasks.c **** 
1506:..\Source/tasks.c **** 				/* Only reset the event list item value if the value is not
1507:..\Source/tasks.c **** 				being used for anything else. */
1508:..\Source/tasks.c **** 				if( ( listGET_LIST_ITEM_VALUE( &( pxTCB->xEventListItem ) ) & taskEVENT_LIST_ITEM_VALUE_IN_USE 
 1238              		.loc 1 1508 0
 1239 008a 3B69     		ldr	r3, [r7, #16]
 1240 008c 9B69     		ldr	r3, [r3, #24]
 1241 008e 002B     		cmp	r3, #0
 1242 0090 04DB     		blt	.L80
1509:..\Source/tasks.c **** 				{
1510:..\Source/tasks.c **** 					listSET_LIST_ITEM_VALUE( &( pxTCB->xEventListItem ), ( ( TickType_t ) configMAX_PRIORITIES - (
 1243              		.loc 1 1510 0
 1244 0092 3B68     		ldr	r3, [r7]
 1245 0094 C3F10502 		rsb	r2, r3, #5
 1246 0098 3B69     		ldr	r3, [r7, #16]
 1247 009a 9A61     		str	r2, [r3, #24]
 1248              	.L80:
1511:..\Source/tasks.c **** 				}
1512:..\Source/tasks.c **** 				else
1513:..\Source/tasks.c **** 				{
1514:..\Source/tasks.c **** 					mtCOVERAGE_TEST_MARKER();
1515:..\Source/tasks.c **** 				}
1516:..\Source/tasks.c **** 
1517:..\Source/tasks.c **** 				/* If the task is in the blocked or suspended list we need do
1518:..\Source/tasks.c **** 				nothing more than change it's priority variable. However, if
1519:..\Source/tasks.c **** 				the task is in a ready list it needs to be removed and placed
1520:..\Source/tasks.c **** 				in the list appropriate to its new priority. */
1521:..\Source/tasks.c **** 				if( listIS_CONTAINED_WITHIN( &( pxReadyTasksLists[ uxPriorityUsedOnEntry ] ), &( pxTCB->xStateL
 1249              		.loc 1 1521 0
 1250 009c 3B69     		ldr	r3, [r7, #16]
 1251 009e 5969     		ldr	r1, [r3, #20]
 1252 00a0 BA68     		ldr	r2, [r7, #8]
 1253 00a2 1346     		mov	r3, r2
 1254 00a4 9B00     		lsls	r3, r3, #2
 1255 00a6 1344     		add	r3, r3, r2
 1256 00a8 9B00     		lsls	r3, r3, #2
 1257 00aa 234A     		ldr	r2, .L85+4
 1258 00ac 1344     		add	r3, r3, r2
 1259 00ae 9942     		cmp	r1, r3
 1260 00b0 01D1     		bne	.L81
ARM GAS  C:\Users\bmt\AppData\Local\Temp\ccld84Qq.s 			page 55


 1261              		.loc 1 1521 0 is_stmt 0 discriminator 1
 1262 00b2 0123     		movs	r3, #1
 1263 00b4 00E0     		b	.L82
 1264              	.L81:
 1265              		.loc 1 1521 0 discriminator 2
 1266 00b6 0023     		movs	r3, #0
 1267              	.L82:
 1268              		.loc 1 1521 0 discriminator 4
 1269 00b8 002B     		cmp	r3, #0
 1270 00ba 2AD0     		beq	.L83
1522:..\Source/tasks.c **** 				{
1523:..\Source/tasks.c **** 					/* The task is currently in its ready list - remove before adding
1524:..\Source/tasks.c **** 					it to it's new ready list.  As we are in a critical section we
1525:..\Source/tasks.c **** 					can do this even if the scheduler is suspended. */
1526:..\Source/tasks.c **** 					if( uxListRemove( &( pxTCB->xStateListItem ) ) == ( UBaseType_t ) 0 )
 1271              		.loc 1 1526 0 is_stmt 1
 1272 00bc 3B69     		ldr	r3, [r7, #16]
 1273 00be 0433     		adds	r3, r3, #4
 1274 00c0 1846     		mov	r0, r3
 1275 00c2 FFF7FEFF 		bl	uxListRemove
 1276 00c6 0346     		mov	r3, r0
 1277 00c8 002B     		cmp	r3, #0
 1278 00ca 09D1     		bne	.L84
1527:..\Source/tasks.c **** 					{
1528:..\Source/tasks.c **** 						/* It is known that the task is in its ready list so
1529:..\Source/tasks.c **** 						there is no need to check again and the port level
1530:..\Source/tasks.c **** 						reset macro can be called directly. */
1531:..\Source/tasks.c **** 						portRESET_READY_PRIORITY( uxPriorityUsedOnEntry, uxTopReadyPriority );
 1279              		.loc 1 1531 0
 1280 00cc BB68     		ldr	r3, [r7, #8]
 1281 00ce 0122     		movs	r2, #1
 1282 00d0 02FA03F3 		lsl	r3, r2, r3
 1283 00d4 DA43     		mvns	r2, r3
 1284 00d6 194B     		ldr	r3, .L85+8
 1285 00d8 1B68     		ldr	r3, [r3]
 1286 00da 1340     		ands	r3, r3, r2
 1287 00dc 174A     		ldr	r2, .L85+8
 1288 00de 1360     		str	r3, [r2]
 1289              	.L84:
1532:..\Source/tasks.c **** 					}
1533:..\Source/tasks.c **** 					else
1534:..\Source/tasks.c **** 					{
1535:..\Source/tasks.c **** 						mtCOVERAGE_TEST_MARKER();
1536:..\Source/tasks.c **** 					}
1537:..\Source/tasks.c **** 					prvAddTaskToReadyList( pxTCB );
 1290              		.loc 1 1537 0
 1291 00e0 3B69     		ldr	r3, [r7, #16]
 1292 00e2 DB6A     		ldr	r3, [r3, #44]
 1293 00e4 1A46     		mov	r2, r3
 1294 00e6 0123     		movs	r3, #1
 1295 00e8 03FA02F2 		lsl	r2, r3, r2
 1296 00ec 134B     		ldr	r3, .L85+8
 1297 00ee 1B68     		ldr	r3, [r3]
 1298 00f0 1343     		orrs	r3, r3, r2
 1299 00f2 124A     		ldr	r2, .L85+8
 1300 00f4 1360     		str	r3, [r2]
 1301 00f6 3B69     		ldr	r3, [r7, #16]
ARM GAS  C:\Users\bmt\AppData\Local\Temp\ccld84Qq.s 			page 56


 1302 00f8 DA6A     		ldr	r2, [r3, #44]
 1303 00fa 1346     		mov	r3, r2
 1304 00fc 9B00     		lsls	r3, r3, #2
 1305 00fe 1344     		add	r3, r3, r2
 1306 0100 9B00     		lsls	r3, r3, #2
 1307 0102 0D4A     		ldr	r2, .L85+4
 1308 0104 1A44     		add	r2, r2, r3
 1309 0106 3B69     		ldr	r3, [r7, #16]
 1310 0108 0433     		adds	r3, r3, #4
 1311 010a 1046     		mov	r0, r2
 1312 010c 1946     		mov	r1, r3
 1313 010e FFF7FEFF 		bl	vListInsertEnd
 1314              	.L83:
1538:..\Source/tasks.c **** 				}
1539:..\Source/tasks.c **** 				else
1540:..\Source/tasks.c **** 				{
1541:..\Source/tasks.c **** 					mtCOVERAGE_TEST_MARKER();
1542:..\Source/tasks.c **** 				}
1543:..\Source/tasks.c **** 
1544:..\Source/tasks.c **** 				if( xYieldRequired != pdFALSE )
 1315              		.loc 1 1544 0
 1316 0112 7B69     		ldr	r3, [r7, #20]
 1317 0114 002B     		cmp	r3, #0
 1318 0116 07D0     		beq	.L76
1545:..\Source/tasks.c **** 				{
1546:..\Source/tasks.c **** 					taskYIELD_IF_USING_PREEMPTION();
 1319              		.loc 1 1546 0
 1320 0118 094B     		ldr	r3, .L85+12
 1321 011a 4FF08052 		mov	r2, #268435456
 1322 011e 1A60     		str	r2, [r3]
 1323              	@ 1546 "..\Source\tasks.c" 1
 1324 0120 BFF34F8F 		dsb
 1325              	@ 0 "" 2
 1326              	@ 1546 "..\Source\tasks.c" 1
 1327 0124 BFF36F8F 		isb
 1328              	@ 0 "" 2
 1329              		.thumb
 1330              	.L76:
1547:..\Source/tasks.c **** 				}
1548:..\Source/tasks.c **** 				else
1549:..\Source/tasks.c **** 				{
1550:..\Source/tasks.c **** 					mtCOVERAGE_TEST_MARKER();
1551:..\Source/tasks.c **** 				}
1552:..\Source/tasks.c **** 
1553:..\Source/tasks.c **** 				/* Remove compiler warning about unused variables when the port
1554:..\Source/tasks.c **** 				optimised task selection is not being used. */
1555:..\Source/tasks.c **** 				( void ) uxPriorityUsedOnEntry;
1556:..\Source/tasks.c **** 			}
1557:..\Source/tasks.c **** 		}
1558:..\Source/tasks.c **** 		taskEXIT_CRITICAL();
 1331              		.loc 1 1558 0
 1332 0128 FFF7FEFF 		bl	vPortExitCritical
1559:..\Source/tasks.c **** 	}
 1333              		.loc 1 1559 0
 1334 012c 1837     		adds	r7, r7, #24
 1335              		.cfi_def_cfa_offset 8
 1336 012e BD46     		mov	sp, r7
ARM GAS  C:\Users\bmt\AppData\Local\Temp\ccld84Qq.s 			page 57


 1337              		.cfi_def_cfa_register 13
 1338              		@ sp needed
 1339 0130 80BD     		pop	{r7, pc}
 1340              	.L86:
 1341 0132 00BF     		.align	2
 1342              	.L85:
 1343 0134 00000000 		.word	pxCurrentTCB
 1344 0138 04000000 		.word	pxReadyTasksLists
 1345 013c E0000000 		.word	uxTopReadyPriority
 1346 0140 04ED00E0 		.word	-536810236
 1347              		.cfi_endproc
 1348              	.LFE77:
 1349              		.size	vTaskPrioritySet, .-vTaskPrioritySet
 1350              		.section	.text.vTaskSuspend,"ax",%progbits
 1351              		.align	2
 1352              		.global	vTaskSuspend
 1353              		.thumb
 1354              		.thumb_func
 1355              		.type	vTaskSuspend, %function
 1356              	vTaskSuspend:
 1357              	.LFB78:
1560:..\Source/tasks.c **** 
1561:..\Source/tasks.c **** #endif /* INCLUDE_vTaskPrioritySet */
1562:..\Source/tasks.c **** /*-----------------------------------------------------------*/
1563:..\Source/tasks.c **** 
1564:..\Source/tasks.c **** #if ( INCLUDE_vTaskSuspend == 1 )
1565:..\Source/tasks.c **** 
1566:..\Source/tasks.c **** 	void vTaskSuspend( TaskHandle_t xTaskToSuspend )
1567:..\Source/tasks.c **** 	{
 1358              		.loc 1 1567 0
 1359              		.cfi_startproc
 1360              		@ args = 0, pretend = 0, frame = 16
 1361              		@ frame_needed = 1, uses_anonymous_args = 0
 1362 0000 80B5     		push	{r7, lr}
 1363              		.cfi_def_cfa_offset 8
 1364              		.cfi_offset 7, -8
 1365              		.cfi_offset 14, -4
 1366 0002 84B0     		sub	sp, sp, #16
 1367              		.cfi_def_cfa_offset 24
 1368 0004 00AF     		add	r7, sp, #0
 1369              		.cfi_def_cfa_register 7
 1370 0006 7860     		str	r0, [r7, #4]
1568:..\Source/tasks.c **** 	TCB_t *pxTCB;
1569:..\Source/tasks.c **** 
1570:..\Source/tasks.c **** 		taskENTER_CRITICAL();
 1371              		.loc 1 1570 0
 1372 0008 FFF7FEFF 		bl	vPortEnterCritical
1571:..\Source/tasks.c **** 		{
1572:..\Source/tasks.c **** 			/* If null is passed in here then it is the running task that is
1573:..\Source/tasks.c **** 			being suspended. */
1574:..\Source/tasks.c **** 			pxTCB = prvGetTCBFromHandle( xTaskToSuspend );
 1373              		.loc 1 1574 0
 1374 000c 7B68     		ldr	r3, [r7, #4]
 1375 000e 002B     		cmp	r3, #0
 1376 0010 02D1     		bne	.L88
 1377              		.loc 1 1574 0 is_stmt 0 discriminator 1
 1378 0012 2F4B     		ldr	r3, .L98
ARM GAS  C:\Users\bmt\AppData\Local\Temp\ccld84Qq.s 			page 58


 1379 0014 1B68     		ldr	r3, [r3]
 1380 0016 00E0     		b	.L89
 1381              	.L88:
 1382              		.loc 1 1574 0 discriminator 2
 1383 0018 7B68     		ldr	r3, [r7, #4]
 1384              	.L89:
 1385              		.loc 1 1574 0 discriminator 4
 1386 001a FB60     		str	r3, [r7, #12]
1575:..\Source/tasks.c **** 
1576:..\Source/tasks.c **** 			traceTASK_SUSPEND( pxTCB );
1577:..\Source/tasks.c **** 
1578:..\Source/tasks.c **** 			/* Remove task from the ready/delayed list and place in the
1579:..\Source/tasks.c **** 			suspended list. */
1580:..\Source/tasks.c **** 			if( uxListRemove( &( pxTCB->xStateListItem ) ) == ( UBaseType_t ) 0 )
 1387              		.loc 1 1580 0 is_stmt 1 discriminator 4
 1388 001c FB68     		ldr	r3, [r7, #12]
 1389 001e 0433     		adds	r3, r3, #4
 1390 0020 1846     		mov	r0, r3
 1391 0022 FFF7FEFF 		bl	uxListRemove
 1392 0026 0346     		mov	r3, r0
 1393 0028 002B     		cmp	r3, #0
 1394 002a 15D1     		bne	.L90
1581:..\Source/tasks.c **** 			{
1582:..\Source/tasks.c **** 				taskRESET_READY_PRIORITY( pxTCB->uxPriority );
 1395              		.loc 1 1582 0
 1396 002c FB68     		ldr	r3, [r7, #12]
 1397 002e DA6A     		ldr	r2, [r3, #44]
 1398 0030 2849     		ldr	r1, .L98+4
 1399 0032 1346     		mov	r3, r2
 1400 0034 9B00     		lsls	r3, r3, #2
 1401 0036 1344     		add	r3, r3, r2
 1402 0038 9B00     		lsls	r3, r3, #2
 1403 003a 0B44     		add	r3, r3, r1
 1404 003c 1B68     		ldr	r3, [r3]
 1405 003e 002B     		cmp	r3, #0
 1406 0040 0AD1     		bne	.L90
 1407              		.loc 1 1582 0 is_stmt 0 discriminator 1
 1408 0042 FB68     		ldr	r3, [r7, #12]
 1409 0044 DB6A     		ldr	r3, [r3, #44]
 1410 0046 1A46     		mov	r2, r3
 1411 0048 0123     		movs	r3, #1
 1412 004a 9340     		lsls	r3, r3, r2
 1413 004c DA43     		mvns	r2, r3
 1414 004e 224B     		ldr	r3, .L98+8
 1415 0050 1B68     		ldr	r3, [r3]
 1416 0052 1340     		ands	r3, r3, r2
 1417 0054 204A     		ldr	r2, .L98+8
 1418 0056 1360     		str	r3, [r2]
 1419              	.L90:
1583:..\Source/tasks.c **** 			}
1584:..\Source/tasks.c **** 			else
1585:..\Source/tasks.c **** 			{
1586:..\Source/tasks.c **** 				mtCOVERAGE_TEST_MARKER();
1587:..\Source/tasks.c **** 			}
1588:..\Source/tasks.c **** 
1589:..\Source/tasks.c **** 			/* Is the task waiting on an event also? */
1590:..\Source/tasks.c **** 			if( listLIST_ITEM_CONTAINER( &( pxTCB->xEventListItem ) ) != NULL )
ARM GAS  C:\Users\bmt\AppData\Local\Temp\ccld84Qq.s 			page 59


 1420              		.loc 1 1590 0 is_stmt 1
 1421 0058 FB68     		ldr	r3, [r7, #12]
 1422 005a 9B6A     		ldr	r3, [r3, #40]
 1423 005c 002B     		cmp	r3, #0
 1424 005e 04D0     		beq	.L92
1591:..\Source/tasks.c **** 			{
1592:..\Source/tasks.c **** 				( void ) uxListRemove( &( pxTCB->xEventListItem ) );
 1425              		.loc 1 1592 0
 1426 0060 FB68     		ldr	r3, [r7, #12]
 1427 0062 1833     		adds	r3, r3, #24
 1428 0064 1846     		mov	r0, r3
 1429 0066 FFF7FEFF 		bl	uxListRemove
 1430              	.L92:
1593:..\Source/tasks.c **** 			}
1594:..\Source/tasks.c **** 			else
1595:..\Source/tasks.c **** 			{
1596:..\Source/tasks.c **** 				mtCOVERAGE_TEST_MARKER();
1597:..\Source/tasks.c **** 			}
1598:..\Source/tasks.c **** 
1599:..\Source/tasks.c **** 			vListInsertEnd( &xSuspendedTaskList, &( pxTCB->xStateListItem ) );
 1431              		.loc 1 1599 0
 1432 006a FB68     		ldr	r3, [r7, #12]
 1433 006c 0433     		adds	r3, r3, #4
 1434 006e 1B48     		ldr	r0, .L98+12
 1435 0070 1946     		mov	r1, r3
 1436 0072 FFF7FEFF 		bl	vListInsertEnd
1600:..\Source/tasks.c **** 		}
1601:..\Source/tasks.c **** 		taskEXIT_CRITICAL();
 1437              		.loc 1 1601 0
 1438 0076 FFF7FEFF 		bl	vPortExitCritical
1602:..\Source/tasks.c **** 
1603:..\Source/tasks.c **** 		if( xSchedulerRunning != pdFALSE )
 1439              		.loc 1 1603 0
 1440 007a 194B     		ldr	r3, .L98+16
 1441 007c 1B68     		ldr	r3, [r3]
 1442 007e 002B     		cmp	r3, #0
 1443 0080 05D0     		beq	.L93
1604:..\Source/tasks.c **** 		{
1605:..\Source/tasks.c **** 			/* Reset the next expected unblock time in case it referred to the
1606:..\Source/tasks.c **** 			task that is now in the Suspended state. */
1607:..\Source/tasks.c **** 			taskENTER_CRITICAL();
 1444              		.loc 1 1607 0
 1445 0082 FFF7FEFF 		bl	vPortEnterCritical
1608:..\Source/tasks.c **** 			{
1609:..\Source/tasks.c **** 				prvResetNextTaskUnblockTime();
 1446              		.loc 1 1609 0
 1447 0086 FFF7FEFF 		bl	prvResetNextTaskUnblockTime
1610:..\Source/tasks.c **** 			}
1611:..\Source/tasks.c **** 			taskEXIT_CRITICAL();
 1448              		.loc 1 1611 0
 1449 008a FFF7FEFF 		bl	vPortExitCritical
 1450              	.L93:
1612:..\Source/tasks.c **** 		}
1613:..\Source/tasks.c **** 		else
1614:..\Source/tasks.c **** 		{
1615:..\Source/tasks.c **** 			mtCOVERAGE_TEST_MARKER();
1616:..\Source/tasks.c **** 		}
ARM GAS  C:\Users\bmt\AppData\Local\Temp\ccld84Qq.s 			page 60


1617:..\Source/tasks.c **** 
1618:..\Source/tasks.c **** 		if( pxTCB == pxCurrentTCB )
 1451              		.loc 1 1618 0
 1452 008e 104B     		ldr	r3, .L98
 1453 0090 1B68     		ldr	r3, [r3]
 1454 0092 FA68     		ldr	r2, [r7, #12]
 1455 0094 9A42     		cmp	r2, r3
 1456 0096 18D1     		bne	.L87
1619:..\Source/tasks.c **** 		{
1620:..\Source/tasks.c **** 			if( xSchedulerRunning != pdFALSE )
 1457              		.loc 1 1620 0
 1458 0098 114B     		ldr	r3, .L98+16
 1459 009a 1B68     		ldr	r3, [r3]
 1460 009c 002B     		cmp	r3, #0
 1461 009e 08D0     		beq	.L95
1621:..\Source/tasks.c **** 			{
1622:..\Source/tasks.c **** 				/* The current task has just been suspended. */
1623:..\Source/tasks.c **** 				configASSERT( uxSchedulerSuspended == 0 );
1624:..\Source/tasks.c **** 				portYIELD_WITHIN_API();
 1462              		.loc 1 1624 0
 1463 00a0 104B     		ldr	r3, .L98+20
 1464 00a2 4FF08052 		mov	r2, #268435456
 1465 00a6 1A60     		str	r2, [r3]
 1466              	@ 1624 "..\Source\tasks.c" 1
 1467 00a8 BFF34F8F 		dsb
 1468              	@ 0 "" 2
 1469              	@ 1624 "..\Source\tasks.c" 1
 1470 00ac BFF36F8F 		isb
 1471              	@ 0 "" 2
 1472              		.thumb
 1473 00b0 0BE0     		b	.L87
 1474              	.L95:
1625:..\Source/tasks.c **** 			}
1626:..\Source/tasks.c **** 			else
1627:..\Source/tasks.c **** 			{
1628:..\Source/tasks.c **** 				/* The scheduler is not running, but the task that was pointed
1629:..\Source/tasks.c **** 				to by pxCurrentTCB has just been suspended and pxCurrentTCB
1630:..\Source/tasks.c **** 				must be adjusted to point to a different task. */
1631:..\Source/tasks.c **** 				if( listCURRENT_LIST_LENGTH( &xSuspendedTaskList ) == uxCurrentNumberOfTasks )
 1475              		.loc 1 1631 0
 1476 00b2 0A4B     		ldr	r3, .L98+12
 1477 00b4 1A68     		ldr	r2, [r3]
 1478 00b6 0C4B     		ldr	r3, .L98+24
 1479 00b8 1B68     		ldr	r3, [r3]
 1480 00ba 9A42     		cmp	r2, r3
 1481 00bc 03D1     		bne	.L97
1632:..\Source/tasks.c **** 				{
1633:..\Source/tasks.c **** 					/* No other tasks are ready, so set pxCurrentTCB back to
1634:..\Source/tasks.c **** 					NULL so when the next task is created pxCurrentTCB will
1635:..\Source/tasks.c **** 					be set to point to it no matter what its relative priority
1636:..\Source/tasks.c **** 					is. */
1637:..\Source/tasks.c **** 					pxCurrentTCB = NULL;
 1482              		.loc 1 1637 0
 1483 00be 044B     		ldr	r3, .L98
 1484 00c0 0022     		movs	r2, #0
 1485 00c2 1A60     		str	r2, [r3]
 1486 00c4 01E0     		b	.L87
ARM GAS  C:\Users\bmt\AppData\Local\Temp\ccld84Qq.s 			page 61


 1487              	.L97:
1638:..\Source/tasks.c **** 				}
1639:..\Source/tasks.c **** 				else
1640:..\Source/tasks.c **** 				{
1641:..\Source/tasks.c **** 					vTaskSwitchContext();
 1488              		.loc 1 1641 0
 1489 00c6 FFF7FEFF 		bl	vTaskSwitchContext
 1490              	.L87:
1642:..\Source/tasks.c **** 				}
1643:..\Source/tasks.c **** 			}
1644:..\Source/tasks.c **** 		}
1645:..\Source/tasks.c **** 		else
1646:..\Source/tasks.c **** 		{
1647:..\Source/tasks.c **** 			mtCOVERAGE_TEST_MARKER();
1648:..\Source/tasks.c **** 		}
1649:..\Source/tasks.c **** 	}
 1491              		.loc 1 1649 0
 1492 00ca 1037     		adds	r7, r7, #16
 1493              		.cfi_def_cfa_offset 8
 1494 00cc BD46     		mov	sp, r7
 1495              		.cfi_def_cfa_register 13
 1496              		@ sp needed
 1497 00ce 80BD     		pop	{r7, pc}
 1498              	.L99:
 1499              		.align	2
 1500              	.L98:
 1501 00d0 00000000 		.word	pxCurrentTCB
 1502 00d4 04000000 		.word	pxReadyTasksLists
 1503 00d8 E0000000 		.word	uxTopReadyPriority
 1504 00dc C4000000 		.word	xSuspendedTaskList
 1505 00e0 E4000000 		.word	xSchedulerRunning
 1506 00e4 04ED00E0 		.word	-536810236
 1507 00e8 D8000000 		.word	uxCurrentNumberOfTasks
 1508              		.cfi_endproc
 1509              	.LFE78:
 1510              		.size	vTaskSuspend, .-vTaskSuspend
 1511              		.section	.text.prvTaskIsTaskSuspended,"ax",%progbits
 1512              		.align	2
 1513              		.thumb
 1514              		.thumb_func
 1515              		.type	prvTaskIsTaskSuspended, %function
 1516              	prvTaskIsTaskSuspended:
 1517              	.LFB79:
1650:..\Source/tasks.c **** 
1651:..\Source/tasks.c **** #endif /* INCLUDE_vTaskSuspend */
1652:..\Source/tasks.c **** /*-----------------------------------------------------------*/
1653:..\Source/tasks.c **** 
1654:..\Source/tasks.c **** #if ( INCLUDE_vTaskSuspend == 1 )
1655:..\Source/tasks.c **** 
1656:..\Source/tasks.c **** 	static BaseType_t prvTaskIsTaskSuspended( const TaskHandle_t xTask )
1657:..\Source/tasks.c **** 	{
 1518              		.loc 1 1657 0
 1519              		.cfi_startproc
 1520              		@ args = 0, pretend = 0, frame = 16
 1521              		@ frame_needed = 1, uses_anonymous_args = 0
 1522              		@ link register save eliminated.
 1523 0000 80B4     		push	{r7}
ARM GAS  C:\Users\bmt\AppData\Local\Temp\ccld84Qq.s 			page 62


 1524              		.cfi_def_cfa_offset 4
 1525              		.cfi_offset 7, -4
 1526 0002 85B0     		sub	sp, sp, #20
 1527              		.cfi_def_cfa_offset 24
 1528 0004 00AF     		add	r7, sp, #0
 1529              		.cfi_def_cfa_register 7
 1530 0006 7860     		str	r0, [r7, #4]
1658:..\Source/tasks.c **** 	BaseType_t xReturn = pdFALSE;
 1531              		.loc 1 1658 0
 1532 0008 0023     		movs	r3, #0
 1533 000a FB60     		str	r3, [r7, #12]
1659:..\Source/tasks.c **** 	const TCB_t * const pxTCB = ( TCB_t * ) xTask;
 1534              		.loc 1 1659 0
 1535 000c 7B68     		ldr	r3, [r7, #4]
 1536 000e BB60     		str	r3, [r7, #8]
1660:..\Source/tasks.c **** 
1661:..\Source/tasks.c **** 		/* Accesses xPendingReadyList so must be called from a critical
1662:..\Source/tasks.c **** 		section. */
1663:..\Source/tasks.c **** 
1664:..\Source/tasks.c **** 		/* It does not make sense to check if the calling task is suspended. */
1665:..\Source/tasks.c **** 		configASSERT( xTask );
1666:..\Source/tasks.c **** 
1667:..\Source/tasks.c **** 		/* Is the task being resumed actually in the suspended list? */
1668:..\Source/tasks.c **** 		if( listIS_CONTAINED_WITHIN( &xSuspendedTaskList, &( pxTCB->xStateListItem ) ) != pdFALSE )
 1537              		.loc 1 1668 0
 1538 0010 BB68     		ldr	r3, [r7, #8]
 1539 0012 5B69     		ldr	r3, [r3, #20]
 1540 0014 0F4A     		ldr	r2, .L107
 1541 0016 9342     		cmp	r3, r2
 1542 0018 01D1     		bne	.L101
 1543              		.loc 1 1668 0 is_stmt 0 discriminator 1
 1544 001a 0123     		movs	r3, #1
 1545 001c 00E0     		b	.L102
 1546              	.L101:
 1547              		.loc 1 1668 0 discriminator 2
 1548 001e 0023     		movs	r3, #0
 1549              	.L102:
 1550              		.loc 1 1668 0 discriminator 4
 1551 0020 002B     		cmp	r3, #0
 1552 0022 0FD0     		beq	.L103
1669:..\Source/tasks.c **** 		{
1670:..\Source/tasks.c **** 			/* Has the task already been resumed from within an ISR? */
1671:..\Source/tasks.c **** 			if( listIS_CONTAINED_WITHIN( &xPendingReadyList, &( pxTCB->xEventListItem ) ) == pdFALSE )
 1553              		.loc 1 1671 0 is_stmt 1
 1554 0024 BB68     		ldr	r3, [r7, #8]
 1555 0026 9B6A     		ldr	r3, [r3, #40]
 1556 0028 0B4A     		ldr	r2, .L107+4
 1557 002a 9342     		cmp	r3, r2
 1558 002c 0AD0     		beq	.L103
1672:..\Source/tasks.c **** 			{
1673:..\Source/tasks.c **** 				/* Is it in the suspended list because it is in the	Suspended
1674:..\Source/tasks.c **** 				state, or because is is blocked with no timeout? */
1675:..\Source/tasks.c **** 				if( listIS_CONTAINED_WITHIN( NULL, &( pxTCB->xEventListItem ) ) != pdFALSE )
 1559              		.loc 1 1675 0
 1560 002e BB68     		ldr	r3, [r7, #8]
 1561 0030 9B6A     		ldr	r3, [r3, #40]
 1562 0032 002B     		cmp	r3, #0
ARM GAS  C:\Users\bmt\AppData\Local\Temp\ccld84Qq.s 			page 63


 1563 0034 01D1     		bne	.L104
 1564              		.loc 1 1675 0 is_stmt 0 discriminator 1
 1565 0036 0123     		movs	r3, #1
 1566 0038 00E0     		b	.L105
 1567              	.L104:
 1568              		.loc 1 1675 0 discriminator 2
 1569 003a 0023     		movs	r3, #0
 1570              	.L105:
 1571              		.loc 1 1675 0 discriminator 4
 1572 003c 002B     		cmp	r3, #0
 1573 003e 01D0     		beq	.L103
1676:..\Source/tasks.c **** 				{
1677:..\Source/tasks.c **** 					xReturn = pdTRUE;
 1574              		.loc 1 1677 0 is_stmt 1
 1575 0040 0123     		movs	r3, #1
 1576 0042 FB60     		str	r3, [r7, #12]
 1577              	.L103:
1678:..\Source/tasks.c **** 				}
1679:..\Source/tasks.c **** 				else
1680:..\Source/tasks.c **** 				{
1681:..\Source/tasks.c **** 					mtCOVERAGE_TEST_MARKER();
1682:..\Source/tasks.c **** 				}
1683:..\Source/tasks.c **** 			}
1684:..\Source/tasks.c **** 			else
1685:..\Source/tasks.c **** 			{
1686:..\Source/tasks.c **** 				mtCOVERAGE_TEST_MARKER();
1687:..\Source/tasks.c **** 			}
1688:..\Source/tasks.c **** 		}
1689:..\Source/tasks.c **** 		else
1690:..\Source/tasks.c **** 		{
1691:..\Source/tasks.c **** 			mtCOVERAGE_TEST_MARKER();
1692:..\Source/tasks.c **** 		}
1693:..\Source/tasks.c **** 
1694:..\Source/tasks.c **** 		return xReturn;
 1578              		.loc 1 1694 0
 1579 0044 FB68     		ldr	r3, [r7, #12]
1695:..\Source/tasks.c **** 	} /*lint !e818 xTask cannot be a pointer to const because it is a typedef. */
 1580              		.loc 1 1695 0
 1581 0046 1846     		mov	r0, r3
 1582 0048 1437     		adds	r7, r7, #20
 1583              		.cfi_def_cfa_offset 4
 1584 004a BD46     		mov	sp, r7
 1585              		.cfi_def_cfa_register 13
 1586              		@ sp needed
 1587 004c 5DF8047B 		ldr	r7, [sp], #4
 1588              		.cfi_restore 7
 1589              		.cfi_def_cfa_offset 0
 1590 0050 7047     		bx	lr
 1591              	.L108:
 1592 0052 00BF     		.align	2
 1593              	.L107:
 1594 0054 C4000000 		.word	xSuspendedTaskList
 1595 0058 98000000 		.word	xPendingReadyList
 1596              		.cfi_endproc
 1597              	.LFE79:
 1598              		.size	prvTaskIsTaskSuspended, .-prvTaskIsTaskSuspended
 1599              		.section	.text.vTaskResume,"ax",%progbits
ARM GAS  C:\Users\bmt\AppData\Local\Temp\ccld84Qq.s 			page 64


 1600              		.align	2
 1601              		.global	vTaskResume
 1602              		.thumb
 1603              		.thumb_func
 1604              		.type	vTaskResume, %function
 1605              	vTaskResume:
 1606              	.LFB80:
1696:..\Source/tasks.c **** 
1697:..\Source/tasks.c **** #endif /* INCLUDE_vTaskSuspend */
1698:..\Source/tasks.c **** /*-----------------------------------------------------------*/
1699:..\Source/tasks.c **** 
1700:..\Source/tasks.c **** #if ( INCLUDE_vTaskSuspend == 1 )
1701:..\Source/tasks.c **** 
1702:..\Source/tasks.c **** 	void vTaskResume( TaskHandle_t xTaskToResume )
1703:..\Source/tasks.c **** 	{
 1607              		.loc 1 1703 0
 1608              		.cfi_startproc
 1609              		@ args = 0, pretend = 0, frame = 16
 1610              		@ frame_needed = 1, uses_anonymous_args = 0
 1611 0000 80B5     		push	{r7, lr}
 1612              		.cfi_def_cfa_offset 8
 1613              		.cfi_offset 7, -8
 1614              		.cfi_offset 14, -4
 1615 0002 84B0     		sub	sp, sp, #16
 1616              		.cfi_def_cfa_offset 24
 1617 0004 00AF     		add	r7, sp, #0
 1618              		.cfi_def_cfa_register 7
 1619 0006 7860     		str	r0, [r7, #4]
1704:..\Source/tasks.c **** 	TCB_t * const pxTCB = ( TCB_t * ) xTaskToResume;
 1620              		.loc 1 1704 0
 1621 0008 7B68     		ldr	r3, [r7, #4]
 1622 000a FB60     		str	r3, [r7, #12]
1705:..\Source/tasks.c **** 
1706:..\Source/tasks.c **** 		/* It does not make sense to resume the calling task. */
1707:..\Source/tasks.c **** 		configASSERT( xTaskToResume );
1708:..\Source/tasks.c **** 
1709:..\Source/tasks.c **** 		/* The parameter cannot be NULL as it is impossible to resume the
1710:..\Source/tasks.c **** 		currently executing task. */
1711:..\Source/tasks.c **** 		if( ( pxTCB != NULL ) && ( pxTCB != pxCurrentTCB ) )
 1623              		.loc 1 1711 0
 1624 000c FB68     		ldr	r3, [r7, #12]
 1625 000e 002B     		cmp	r3, #0
 1626 0010 3BD0     		beq	.L109
 1627              		.loc 1 1711 0 is_stmt 0 discriminator 1
 1628 0012 1F4B     		ldr	r3, .L112
 1629 0014 1B68     		ldr	r3, [r3]
 1630 0016 FA68     		ldr	r2, [r7, #12]
 1631 0018 9A42     		cmp	r2, r3
 1632 001a 36D0     		beq	.L109
1712:..\Source/tasks.c **** 		{
1713:..\Source/tasks.c **** 			taskENTER_CRITICAL();
 1633              		.loc 1 1713 0 is_stmt 1
 1634 001c FFF7FEFF 		bl	vPortEnterCritical
1714:..\Source/tasks.c **** 			{
1715:..\Source/tasks.c **** 				if( prvTaskIsTaskSuspended( pxTCB ) != pdFALSE )
 1635              		.loc 1 1715 0
 1636 0020 F868     		ldr	r0, [r7, #12]
ARM GAS  C:\Users\bmt\AppData\Local\Temp\ccld84Qq.s 			page 65


 1637 0022 FFF7FEFF 		bl	prvTaskIsTaskSuspended
 1638 0026 0346     		mov	r3, r0
 1639 0028 002B     		cmp	r3, #0
 1640 002a 2CD0     		beq	.L111
1716:..\Source/tasks.c **** 				{
1717:..\Source/tasks.c **** 					traceTASK_RESUME( pxTCB );
1718:..\Source/tasks.c **** 
1719:..\Source/tasks.c **** 					/* As we are in a critical section we can access the ready
1720:..\Source/tasks.c **** 					lists even if the scheduler is suspended. */
1721:..\Source/tasks.c **** 					( void ) uxListRemove(  &( pxTCB->xStateListItem ) );
 1641              		.loc 1 1721 0
 1642 002c FB68     		ldr	r3, [r7, #12]
 1643 002e 0433     		adds	r3, r3, #4
 1644 0030 1846     		mov	r0, r3
 1645 0032 FFF7FEFF 		bl	uxListRemove
1722:..\Source/tasks.c **** 					prvAddTaskToReadyList( pxTCB );
 1646              		.loc 1 1722 0
 1647 0036 FB68     		ldr	r3, [r7, #12]
 1648 0038 DB6A     		ldr	r3, [r3, #44]
 1649 003a 1A46     		mov	r2, r3
 1650 003c 0123     		movs	r3, #1
 1651 003e 03FA02F2 		lsl	r2, r3, r2
 1652 0042 144B     		ldr	r3, .L112+4
 1653 0044 1B68     		ldr	r3, [r3]
 1654 0046 1343     		orrs	r3, r3, r2
 1655 0048 124A     		ldr	r2, .L112+4
 1656 004a 1360     		str	r3, [r2]
 1657 004c FB68     		ldr	r3, [r7, #12]
 1658 004e DA6A     		ldr	r2, [r3, #44]
 1659 0050 1346     		mov	r3, r2
 1660 0052 9B00     		lsls	r3, r3, #2
 1661 0054 1344     		add	r3, r3, r2
 1662 0056 9B00     		lsls	r3, r3, #2
 1663 0058 0F4A     		ldr	r2, .L112+8
 1664 005a 1A44     		add	r2, r2, r3
 1665 005c FB68     		ldr	r3, [r7, #12]
 1666 005e 0433     		adds	r3, r3, #4
 1667 0060 1046     		mov	r0, r2
 1668 0062 1946     		mov	r1, r3
 1669 0064 FFF7FEFF 		bl	vListInsertEnd
1723:..\Source/tasks.c **** 
1724:..\Source/tasks.c **** 					/* We may have just resumed a higher priority task. */
1725:..\Source/tasks.c **** 					if( pxTCB->uxPriority >= pxCurrentTCB->uxPriority )
 1670              		.loc 1 1725 0
 1671 0068 FB68     		ldr	r3, [r7, #12]
 1672 006a DA6A     		ldr	r2, [r3, #44]
 1673 006c 084B     		ldr	r3, .L112
 1674 006e 1B68     		ldr	r3, [r3]
 1675 0070 DB6A     		ldr	r3, [r3, #44]
 1676 0072 9A42     		cmp	r2, r3
 1677 0074 07D3     		bcc	.L111
1726:..\Source/tasks.c **** 					{
1727:..\Source/tasks.c **** 						/* This yield may not cause the task just resumed to run,
1728:..\Source/tasks.c **** 						but will leave the lists in the correct state for the
1729:..\Source/tasks.c **** 						next yield. */
1730:..\Source/tasks.c **** 						taskYIELD_IF_USING_PREEMPTION();
 1678              		.loc 1 1730 0
ARM GAS  C:\Users\bmt\AppData\Local\Temp\ccld84Qq.s 			page 66


 1679 0076 094B     		ldr	r3, .L112+12
 1680 0078 4FF08052 		mov	r2, #268435456
 1681 007c 1A60     		str	r2, [r3]
 1682              	@ 1730 "..\Source\tasks.c" 1
 1683 007e BFF34F8F 		dsb
 1684              	@ 0 "" 2
 1685              	@ 1730 "..\Source\tasks.c" 1
 1686 0082 BFF36F8F 		isb
 1687              	@ 0 "" 2
 1688              		.thumb
 1689              	.L111:
1731:..\Source/tasks.c **** 					}
1732:..\Source/tasks.c **** 					else
1733:..\Source/tasks.c **** 					{
1734:..\Source/tasks.c **** 						mtCOVERAGE_TEST_MARKER();
1735:..\Source/tasks.c **** 					}
1736:..\Source/tasks.c **** 				}
1737:..\Source/tasks.c **** 				else
1738:..\Source/tasks.c **** 				{
1739:..\Source/tasks.c **** 					mtCOVERAGE_TEST_MARKER();
1740:..\Source/tasks.c **** 				}
1741:..\Source/tasks.c **** 			}
1742:..\Source/tasks.c **** 			taskEXIT_CRITICAL();
 1690              		.loc 1 1742 0
 1691 0086 FFF7FEFF 		bl	vPortExitCritical
 1692              	.L109:
1743:..\Source/tasks.c **** 		}
1744:..\Source/tasks.c **** 		else
1745:..\Source/tasks.c **** 		{
1746:..\Source/tasks.c **** 			mtCOVERAGE_TEST_MARKER();
1747:..\Source/tasks.c **** 		}
1748:..\Source/tasks.c **** 	}
 1693              		.loc 1 1748 0
 1694 008a 1037     		adds	r7, r7, #16
 1695              		.cfi_def_cfa_offset 8
 1696 008c BD46     		mov	sp, r7
 1697              		.cfi_def_cfa_register 13
 1698              		@ sp needed
 1699 008e 80BD     		pop	{r7, pc}
 1700              	.L113:
 1701              		.align	2
 1702              	.L112:
 1703 0090 00000000 		.word	pxCurrentTCB
 1704 0094 E0000000 		.word	uxTopReadyPriority
 1705 0098 04000000 		.word	pxReadyTasksLists
 1706 009c 04ED00E0 		.word	-536810236
 1707              		.cfi_endproc
 1708              	.LFE80:
 1709              		.size	vTaskResume, .-vTaskResume
 1710              		.section	.text.xTaskResumeFromISR,"ax",%progbits
 1711              		.align	2
 1712              		.global	xTaskResumeFromISR
 1713              		.thumb
 1714              		.thumb_func
 1715              		.type	xTaskResumeFromISR, %function
 1716              	xTaskResumeFromISR:
 1717              	.LFB81:
ARM GAS  C:\Users\bmt\AppData\Local\Temp\ccld84Qq.s 			page 67


1749:..\Source/tasks.c **** 
1750:..\Source/tasks.c **** #endif /* INCLUDE_vTaskSuspend */
1751:..\Source/tasks.c **** 
1752:..\Source/tasks.c **** /*-----------------------------------------------------------*/
1753:..\Source/tasks.c **** 
1754:..\Source/tasks.c **** #if ( ( INCLUDE_xTaskResumeFromISR == 1 ) && ( INCLUDE_vTaskSuspend == 1 ) )
1755:..\Source/tasks.c **** 
1756:..\Source/tasks.c **** 	BaseType_t xTaskResumeFromISR( TaskHandle_t xTaskToResume )
1757:..\Source/tasks.c **** 	{
 1718              		.loc 1 1757 0
 1719              		.cfi_startproc
 1720              		@ args = 0, pretend = 0, frame = 32
 1721              		@ frame_needed = 1, uses_anonymous_args = 0
 1722 0000 80B5     		push	{r7, lr}
 1723              		.cfi_def_cfa_offset 8
 1724              		.cfi_offset 7, -8
 1725              		.cfi_offset 14, -4
 1726 0002 88B0     		sub	sp, sp, #32
 1727              		.cfi_def_cfa_offset 40
 1728 0004 00AF     		add	r7, sp, #0
 1729              		.cfi_def_cfa_register 7
 1730 0006 7860     		str	r0, [r7, #4]
1758:..\Source/tasks.c **** 	BaseType_t xYieldRequired = pdFALSE;
 1731              		.loc 1 1758 0
 1732 0008 0023     		movs	r3, #0
 1733 000a FB61     		str	r3, [r7, #28]
1759:..\Source/tasks.c **** 	TCB_t * const pxTCB = ( TCB_t * ) xTaskToResume;
 1734              		.loc 1 1759 0
 1735 000c 7B68     		ldr	r3, [r7, #4]
 1736 000e BB61     		str	r3, [r7, #24]
 1737              	.LBB33:
 1738              	.LBB34:
 253:..\Source\portable\GCC\ARM_CM3/portmacro.h **** 	(
 1739              		.loc 2 253 0
 1740              	@ 253 "..\Source\portable\GCC\ARM_CM3/portmacro.h" 1
 1741 0010 EFF31182 			mrs r2, basepri											
 1742 0014 4FF0A003 		mov r3, #160												
 1743 0018 83F31188 		msr basepri, r3											
 1744 001c BFF36F8F 		isb														
 1745 0020 BFF34F8F 		dsb														
 1746              	
 1747              	@ 0 "" 2
 1748              		.thumb
 1749 0024 3A61     		str	r2, [r7, #16]
 1750 0026 FB60     		str	r3, [r7, #12]
 265:..\Source\portable\GCC\ARM_CM3/portmacro.h **** }
 1751              		.loc 2 265 0
 1752 0028 3B69     		ldr	r3, [r7, #16]
 1753              	.LBE34:
 1754              	.LBE33:
1760:..\Source/tasks.c **** 	UBaseType_t uxSavedInterruptStatus;
1761:..\Source/tasks.c **** 
1762:..\Source/tasks.c **** 		configASSERT( xTaskToResume );
1763:..\Source/tasks.c **** 
1764:..\Source/tasks.c **** 		/* RTOS ports that support interrupt nesting have the concept of a
1765:..\Source/tasks.c **** 		maximum	system call (or maximum API call) interrupt priority.
1766:..\Source/tasks.c **** 		Interrupts that are	above the maximum system call priority are keep
ARM GAS  C:\Users\bmt\AppData\Local\Temp\ccld84Qq.s 			page 68


1767:..\Source/tasks.c **** 		permanently enabled, even when the RTOS kernel is in a critical section,
1768:..\Source/tasks.c **** 		but cannot make any calls to FreeRTOS API functions.  If configASSERT()
1769:..\Source/tasks.c **** 		is defined in FreeRTOSConfig.h then
1770:..\Source/tasks.c **** 		portASSERT_IF_INTERRUPT_PRIORITY_INVALID() will result in an assertion
1771:..\Source/tasks.c **** 		failure if a FreeRTOS API function is called from an interrupt that has
1772:..\Source/tasks.c **** 		been assigned a priority above the configured maximum system call
1773:..\Source/tasks.c **** 		priority.  Only FreeRTOS functions that end in FromISR can be called
1774:..\Source/tasks.c **** 		from interrupts	that have been assigned a priority at or (logically)
1775:..\Source/tasks.c **** 		below the maximum system call interrupt priority.  FreeRTOS maintains a
1776:..\Source/tasks.c **** 		separate interrupt safe API to ensure interrupt entry is as fast and as
1777:..\Source/tasks.c **** 		simple as possible.  More information (albeit Cortex-M specific) is
1778:..\Source/tasks.c **** 		provided on the following link:
1779:..\Source/tasks.c **** 		http://www.freertos.org/RTOS-Cortex-M3-M4.html */
1780:..\Source/tasks.c **** 		portASSERT_IF_INTERRUPT_PRIORITY_INVALID();
1781:..\Source/tasks.c **** 
1782:..\Source/tasks.c **** 		uxSavedInterruptStatus = portSET_INTERRUPT_MASK_FROM_ISR();
 1755              		.loc 1 1782 0
 1756 002a 7B61     		str	r3, [r7, #20]
1783:..\Source/tasks.c **** 		{
1784:..\Source/tasks.c **** 			if( prvTaskIsTaskSuspended( pxTCB ) != pdFALSE )
 1757              		.loc 1 1784 0
 1758 002c B869     		ldr	r0, [r7, #24]
 1759 002e FFF7FEFF 		bl	prvTaskIsTaskSuspended
 1760 0032 0346     		mov	r3, r0
 1761 0034 002B     		cmp	r3, #0
 1762 0036 31D0     		beq	.L116
1785:..\Source/tasks.c **** 			{
1786:..\Source/tasks.c **** 				traceTASK_RESUME_FROM_ISR( pxTCB );
1787:..\Source/tasks.c **** 
1788:..\Source/tasks.c **** 				/* Check the ready lists can be accessed. */
1789:..\Source/tasks.c **** 				if( uxSchedulerSuspended == ( UBaseType_t ) pdFALSE )
 1763              		.loc 1 1789 0
 1764 0038 1D4B     		ldr	r3, .L121
 1765 003a 1B68     		ldr	r3, [r3]
 1766 003c 002B     		cmp	r3, #0
 1767 003e 27D1     		bne	.L117
1790:..\Source/tasks.c **** 				{
1791:..\Source/tasks.c **** 					/* Ready lists can be accessed so move the task from the
1792:..\Source/tasks.c **** 					suspended list to the ready list directly. */
1793:..\Source/tasks.c **** 					if( pxTCB->uxPriority >= pxCurrentTCB->uxPriority )
 1768              		.loc 1 1793 0
 1769 0040 BB69     		ldr	r3, [r7, #24]
 1770 0042 DA6A     		ldr	r2, [r3, #44]
 1771 0044 1B4B     		ldr	r3, .L121+4
 1772 0046 1B68     		ldr	r3, [r3]
 1773 0048 DB6A     		ldr	r3, [r3, #44]
 1774 004a 9A42     		cmp	r2, r3
 1775 004c 01D3     		bcc	.L118
1794:..\Source/tasks.c **** 					{
1795:..\Source/tasks.c **** 						xYieldRequired = pdTRUE;
 1776              		.loc 1 1795 0
 1777 004e 0123     		movs	r3, #1
 1778 0050 FB61     		str	r3, [r7, #28]
 1779              	.L118:
1796:..\Source/tasks.c **** 					}
1797:..\Source/tasks.c **** 					else
1798:..\Source/tasks.c **** 					{
ARM GAS  C:\Users\bmt\AppData\Local\Temp\ccld84Qq.s 			page 69


1799:..\Source/tasks.c **** 						mtCOVERAGE_TEST_MARKER();
1800:..\Source/tasks.c **** 					}
1801:..\Source/tasks.c **** 
1802:..\Source/tasks.c **** 					( void ) uxListRemove( &( pxTCB->xStateListItem ) );
 1780              		.loc 1 1802 0
 1781 0052 BB69     		ldr	r3, [r7, #24]
 1782 0054 0433     		adds	r3, r3, #4
 1783 0056 1846     		mov	r0, r3
 1784 0058 FFF7FEFF 		bl	uxListRemove
1803:..\Source/tasks.c **** 					prvAddTaskToReadyList( pxTCB );
 1785              		.loc 1 1803 0
 1786 005c BB69     		ldr	r3, [r7, #24]
 1787 005e DB6A     		ldr	r3, [r3, #44]
 1788 0060 1A46     		mov	r2, r3
 1789 0062 0123     		movs	r3, #1
 1790 0064 03FA02F2 		lsl	r2, r3, r2
 1791 0068 134B     		ldr	r3, .L121+8
 1792 006a 1B68     		ldr	r3, [r3]
 1793 006c 1343     		orrs	r3, r3, r2
 1794 006e 124A     		ldr	r2, .L121+8
 1795 0070 1360     		str	r3, [r2]
 1796 0072 BB69     		ldr	r3, [r7, #24]
 1797 0074 DA6A     		ldr	r2, [r3, #44]
 1798 0076 1346     		mov	r3, r2
 1799 0078 9B00     		lsls	r3, r3, #2
 1800 007a 1344     		add	r3, r3, r2
 1801 007c 9B00     		lsls	r3, r3, #2
 1802 007e 0F4A     		ldr	r2, .L121+12
 1803 0080 1A44     		add	r2, r2, r3
 1804 0082 BB69     		ldr	r3, [r7, #24]
 1805 0084 0433     		adds	r3, r3, #4
 1806 0086 1046     		mov	r0, r2
 1807 0088 1946     		mov	r1, r3
 1808 008a FFF7FEFF 		bl	vListInsertEnd
 1809 008e 05E0     		b	.L116
 1810              	.L117:
1804:..\Source/tasks.c **** 				}
1805:..\Source/tasks.c **** 				else
1806:..\Source/tasks.c **** 				{
1807:..\Source/tasks.c **** 					/* The delayed or ready lists cannot be accessed so the task
1808:..\Source/tasks.c **** 					is held in the pending ready list until the scheduler is
1809:..\Source/tasks.c **** 					unsuspended. */
1810:..\Source/tasks.c **** 					vListInsertEnd( &( xPendingReadyList ), &( pxTCB->xEventListItem ) );
 1811              		.loc 1 1810 0
 1812 0090 BB69     		ldr	r3, [r7, #24]
 1813 0092 1833     		adds	r3, r3, #24
 1814 0094 0A48     		ldr	r0, .L121+16
 1815 0096 1946     		mov	r1, r3
 1816 0098 FFF7FEFF 		bl	vListInsertEnd
 1817              	.L116:
 1818 009c 7B69     		ldr	r3, [r7, #20]
 1819 009e BB60     		str	r3, [r7, #8]
 1820              	.LBB35:
 1821              	.LBB36:
 1822              		.loc 2 271 0
 1823 00a0 BB68     		ldr	r3, [r7, #8]
 1824              	@ 271 "..\Source\portable\GCC\ARM_CM3/portmacro.h" 1
ARM GAS  C:\Users\bmt\AppData\Local\Temp\ccld84Qq.s 			page 70


 1825 00a2 83F31188 			msr basepri, r3	
 1826              	@ 0 "" 2
 1827              		.thumb
 1828              	.LBE36:
 1829              	.LBE35:
1811:..\Source/tasks.c **** 				}
1812:..\Source/tasks.c **** 			}
1813:..\Source/tasks.c **** 			else
1814:..\Source/tasks.c **** 			{
1815:..\Source/tasks.c **** 				mtCOVERAGE_TEST_MARKER();
1816:..\Source/tasks.c **** 			}
1817:..\Source/tasks.c **** 		}
1818:..\Source/tasks.c **** 		portCLEAR_INTERRUPT_MASK_FROM_ISR( uxSavedInterruptStatus );
1819:..\Source/tasks.c **** 
1820:..\Source/tasks.c **** 		return xYieldRequired;
 1830              		.loc 1 1820 0
 1831 00a6 FB69     		ldr	r3, [r7, #28]
1821:..\Source/tasks.c **** 	}
 1832              		.loc 1 1821 0
 1833 00a8 1846     		mov	r0, r3
 1834 00aa 2037     		adds	r7, r7, #32
 1835              		.cfi_def_cfa_offset 8
 1836 00ac BD46     		mov	sp, r7
 1837              		.cfi_def_cfa_register 13
 1838              		@ sp needed
 1839 00ae 80BD     		pop	{r7, pc}
 1840              	.L122:
 1841              		.align	2
 1842              	.L121:
 1843 00b0 00010000 		.word	uxSchedulerSuspended
 1844 00b4 00000000 		.word	pxCurrentTCB
 1845 00b8 E0000000 		.word	uxTopReadyPriority
 1846 00bc 04000000 		.word	pxReadyTasksLists
 1847 00c0 98000000 		.word	xPendingReadyList
 1848              		.cfi_endproc
 1849              	.LFE81:
 1850              		.size	xTaskResumeFromISR, .-xTaskResumeFromISR
 1851              		.section	.rodata
 1852              		.align	2
 1853              	.LC0:
 1854 0000 49444C45 		.ascii	"IDLE\000"
 1854      00
 1855 0005 000000   		.section	.text.vTaskStartScheduler,"ax",%progbits
 1856              		.align	2
 1857              		.global	vTaskStartScheduler
 1858              		.thumb
 1859              		.thumb_func
 1860              		.type	vTaskStartScheduler, %function
 1861              	vTaskStartScheduler:
 1862              	.LFB82:
1822:..\Source/tasks.c **** 
1823:..\Source/tasks.c **** #endif /* ( ( INCLUDE_xTaskResumeFromISR == 1 ) && ( INCLUDE_vTaskSuspend == 1 ) ) */
1824:..\Source/tasks.c **** /*-----------------------------------------------------------*/
1825:..\Source/tasks.c **** 
1826:..\Source/tasks.c **** void vTaskStartScheduler( void )
1827:..\Source/tasks.c **** {
 1863              		.loc 1 1827 0
ARM GAS  C:\Users\bmt\AppData\Local\Temp\ccld84Qq.s 			page 71


 1864              		.cfi_startproc
 1865              		@ args = 0, pretend = 0, frame = 8
 1866              		@ frame_needed = 1, uses_anonymous_args = 0
 1867 0000 80B5     		push	{r7, lr}
 1868              		.cfi_def_cfa_offset 8
 1869              		.cfi_offset 7, -8
 1870              		.cfi_offset 14, -4
 1871 0002 84B0     		sub	sp, sp, #16
 1872              		.cfi_def_cfa_offset 24
 1873 0004 02AF     		add	r7, sp, #8
 1874              		.cfi_def_cfa 7, 16
1828:..\Source/tasks.c **** BaseType_t xReturn;
1829:..\Source/tasks.c **** 
1830:..\Source/tasks.c **** 	/* Add the idle task at the lowest priority. */
1831:..\Source/tasks.c **** 	#if( configSUPPORT_STATIC_ALLOCATION == 1 )
1832:..\Source/tasks.c **** 	{
1833:..\Source/tasks.c **** 		StaticTask_t *pxIdleTaskTCBBuffer = NULL;
1834:..\Source/tasks.c **** 		StackType_t *pxIdleTaskStackBuffer = NULL;
1835:..\Source/tasks.c **** 		uint32_t ulIdleTaskStackSize;
1836:..\Source/tasks.c **** 
1837:..\Source/tasks.c **** 		/* The Idle task is created using user provided RAM - obtain the
1838:..\Source/tasks.c **** 		address of the RAM then create the idle task. */
1839:..\Source/tasks.c **** 		vApplicationGetIdleTaskMemory( &pxIdleTaskTCBBuffer, &pxIdleTaskStackBuffer, &ulIdleTaskStackSize
1840:..\Source/tasks.c **** 		xIdleTaskHandle = xTaskCreateStatic(	prvIdleTask,
1841:..\Source/tasks.c **** 												"IDLE",
1842:..\Source/tasks.c **** 												ulIdleTaskStackSize,
1843:..\Source/tasks.c **** 												( void * ) NULL,
1844:..\Source/tasks.c **** 												( tskIDLE_PRIORITY | portPRIVILEGE_BIT ),
1845:..\Source/tasks.c **** 												pxIdleTaskStackBuffer,
1846:..\Source/tasks.c **** 												pxIdleTaskTCBBuffer ); /*lint !e961 MISRA exception, justified as it is not a redundant
1847:..\Source/tasks.c **** 
1848:..\Source/tasks.c **** 		if( xIdleTaskHandle != NULL )
1849:..\Source/tasks.c **** 		{
1850:..\Source/tasks.c **** 			xReturn = pdPASS;
1851:..\Source/tasks.c **** 		}
1852:..\Source/tasks.c **** 		else
1853:..\Source/tasks.c **** 		{
1854:..\Source/tasks.c **** 			xReturn = pdFAIL;
1855:..\Source/tasks.c **** 		}
1856:..\Source/tasks.c **** 	}
1857:..\Source/tasks.c **** 	#else
1858:..\Source/tasks.c **** 	{
1859:..\Source/tasks.c **** 		/* The Idle task is being created using dynamically allocated RAM. */
1860:..\Source/tasks.c **** 		xReturn = xTaskCreate(	prvIdleTask,
 1875              		.loc 1 1860 0
 1876 0006 0023     		movs	r3, #0
 1877 0008 0093     		str	r3, [sp]
 1878 000a 124B     		ldr	r3, .L125
 1879 000c 0193     		str	r3, [sp, #4]
 1880 000e 1248     		ldr	r0, .L125+4
 1881 0010 1249     		ldr	r1, .L125+8
 1882 0012 6422     		movs	r2, #100
 1883 0014 0023     		movs	r3, #0
 1884 0016 FFF7FEFF 		bl	xTaskCreate
 1885 001a 7860     		str	r0, [r7, #4]
1861:..\Source/tasks.c **** 								"IDLE", configMINIMAL_STACK_SIZE,
1862:..\Source/tasks.c **** 								( void * ) NULL,
ARM GAS  C:\Users\bmt\AppData\Local\Temp\ccld84Qq.s 			page 72


1863:..\Source/tasks.c **** 								( tskIDLE_PRIORITY | portPRIVILEGE_BIT ),
1864:..\Source/tasks.c **** 								&xIdleTaskHandle ); /*lint !e961 MISRA exception, justified as it is not a redundant explic
1865:..\Source/tasks.c **** 	}
1866:..\Source/tasks.c **** 	#endif /* configSUPPORT_STATIC_ALLOCATION */
1867:..\Source/tasks.c **** 
1868:..\Source/tasks.c **** 	#if ( configUSE_TIMERS == 1 )
1869:..\Source/tasks.c **** 	{
1870:..\Source/tasks.c **** 		if( xReturn == pdPASS )
1871:..\Source/tasks.c **** 		{
1872:..\Source/tasks.c **** 			xReturn = xTimerCreateTimerTask();
1873:..\Source/tasks.c **** 		}
1874:..\Source/tasks.c **** 		else
1875:..\Source/tasks.c **** 		{
1876:..\Source/tasks.c **** 			mtCOVERAGE_TEST_MARKER();
1877:..\Source/tasks.c **** 		}
1878:..\Source/tasks.c **** 	}
1879:..\Source/tasks.c **** 	#endif /* configUSE_TIMERS */
1880:..\Source/tasks.c **** 
1881:..\Source/tasks.c **** 	if( xReturn == pdPASS )
 1886              		.loc 1 1881 0
 1887 001c 7B68     		ldr	r3, [r7, #4]
 1888 001e 012B     		cmp	r3, #1
 1889 0020 14D1     		bne	.L123
 1890              	.LBB37:
 1891              	.LBB38:
 237:..\Source\portable\GCC\ARM_CM3/portmacro.h **** 	(
 1892              		.loc 2 237 0
 1893              	@ 237 "..\Source\portable\GCC\ARM_CM3/portmacro.h" 1
 1894 0022 4FF0A003 			mov r3, #160												
 1895 0026 83F31188 		msr basepri, r3											
 1896 002a BFF36F8F 		isb														
 1897 002e BFF34F8F 		dsb														
 1898              	
 1899              	@ 0 "" 2
 1900              		.thumb
 1901 0032 3B60     		str	r3, [r7]
 1902              	.LBE38:
 1903              	.LBE37:
1882:..\Source/tasks.c **** 	{
1883:..\Source/tasks.c **** 		/* Interrupts are turned off here, to ensure a tick does not occur
1884:..\Source/tasks.c **** 		before or during the call to xPortStartScheduler().  The stacks of
1885:..\Source/tasks.c **** 		the created tasks contain a status word with interrupts switched on
1886:..\Source/tasks.c **** 		so interrupts will automatically get re-enabled when the first task
1887:..\Source/tasks.c **** 		starts to run. */
1888:..\Source/tasks.c **** 		portDISABLE_INTERRUPTS();
1889:..\Source/tasks.c **** 
1890:..\Source/tasks.c **** 		#if ( configUSE_NEWLIB_REENTRANT == 1 )
1891:..\Source/tasks.c **** 		{
1892:..\Source/tasks.c **** 			/* Switch Newlib's _impure_ptr variable to point to the _reent
1893:..\Source/tasks.c **** 			structure specific to the task that will run first. */
1894:..\Source/tasks.c **** 			_impure_ptr = &( pxCurrentTCB->xNewLib_reent );
1895:..\Source/tasks.c **** 		}
1896:..\Source/tasks.c **** 		#endif /* configUSE_NEWLIB_REENTRANT */
1897:..\Source/tasks.c **** 
1898:..\Source/tasks.c **** 		xNextTaskUnblockTime = portMAX_DELAY;
 1904              		.loc 1 1898 0
 1905 0034 0A4B     		ldr	r3, .L125+12
ARM GAS  C:\Users\bmt\AppData\Local\Temp\ccld84Qq.s 			page 73


 1906 0036 4FF0FF32 		mov	r2, #-1
 1907 003a 1A60     		str	r2, [r3]
1899:..\Source/tasks.c **** 		xSchedulerRunning = pdTRUE;
 1908              		.loc 1 1899 0
 1909 003c 094B     		ldr	r3, .L125+16
 1910 003e 0122     		movs	r2, #1
 1911 0040 1A60     		str	r2, [r3]
1900:..\Source/tasks.c **** 		xTickCount = ( TickType_t ) 0U;
 1912              		.loc 1 1900 0
 1913 0042 094B     		ldr	r3, .L125+20
 1914 0044 0022     		movs	r2, #0
 1915 0046 1A60     		str	r2, [r3]
1901:..\Source/tasks.c **** 
1902:..\Source/tasks.c **** 		/* If configGENERATE_RUN_TIME_STATS is defined then the following
1903:..\Source/tasks.c **** 		macro must be defined to configure the timer/counter used to generate
1904:..\Source/tasks.c **** 		the run time counter time base. */
1905:..\Source/tasks.c **** 		portCONFIGURE_TIMER_FOR_RUN_TIME_STATS();
1906:..\Source/tasks.c **** 
1907:..\Source/tasks.c **** 		/* Setting up the timer tick is hardware specific and thus in the
1908:..\Source/tasks.c **** 		portable interface. */
1909:..\Source/tasks.c **** 		if( xPortStartScheduler() != pdFALSE )
 1916              		.loc 1 1909 0
 1917 0048 FFF7FEFF 		bl	xPortStartScheduler
 1918              	.L123:
1910:..\Source/tasks.c **** 		{
1911:..\Source/tasks.c **** 			/* Should not reach here as if the scheduler is running the
1912:..\Source/tasks.c **** 			function will not return. */
1913:..\Source/tasks.c **** 		}
1914:..\Source/tasks.c **** 		else
1915:..\Source/tasks.c **** 		{
1916:..\Source/tasks.c **** 			/* Should only reach here if a task calls xTaskEndScheduler(). */
1917:..\Source/tasks.c **** 		}
1918:..\Source/tasks.c **** 	}
1919:..\Source/tasks.c **** 	else
1920:..\Source/tasks.c **** 	{
1921:..\Source/tasks.c **** 		/* This line will only be reached if the kernel could not be started,
1922:..\Source/tasks.c **** 		because there was not enough FreeRTOS heap to create the idle task
1923:..\Source/tasks.c **** 		or the timer task. */
1924:..\Source/tasks.c **** 		configASSERT( xReturn != errCOULD_NOT_ALLOCATE_REQUIRED_MEMORY );
1925:..\Source/tasks.c **** 	}
1926:..\Source/tasks.c **** 
1927:..\Source/tasks.c **** 	/* Prevent compiler warnings if INCLUDE_xTaskGetIdleTaskHandle is set to 0,
1928:..\Source/tasks.c **** 	meaning xIdleTaskHandle is not used anywhere else. */
1929:..\Source/tasks.c **** 	( void ) xIdleTaskHandle;
1930:..\Source/tasks.c **** }
 1919              		.loc 1 1930 0
 1920 004c 0837     		adds	r7, r7, #8
 1921              		.cfi_def_cfa_offset 8
 1922 004e BD46     		mov	sp, r7
 1923              		.cfi_def_cfa_register 13
 1924              		@ sp needed
 1925 0050 80BD     		pop	{r7, pc}
 1926              	.L126:
 1927 0052 00BF     		.align	2
 1928              	.L125:
 1929 0054 FC000000 		.word	xIdleTaskHandle
 1930 0058 00000000 		.word	prvIdleTask
ARM GAS  C:\Users\bmt\AppData\Local\Temp\ccld84Qq.s 			page 74


 1931 005c 00000000 		.word	.LC0
 1932 0060 F8000000 		.word	xNextTaskUnblockTime
 1933 0064 E4000000 		.word	xSchedulerRunning
 1934 0068 DC000000 		.word	xTickCount
 1935              		.cfi_endproc
 1936              	.LFE82:
 1937              		.size	vTaskStartScheduler, .-vTaskStartScheduler
 1938              		.section	.text.vTaskEndScheduler,"ax",%progbits
 1939              		.align	2
 1940              		.global	vTaskEndScheduler
 1941              		.thumb
 1942              		.thumb_func
 1943              		.type	vTaskEndScheduler, %function
 1944              	vTaskEndScheduler:
 1945              	.LFB83:
1931:..\Source/tasks.c **** /*-----------------------------------------------------------*/
1932:..\Source/tasks.c **** 
1933:..\Source/tasks.c **** void vTaskEndScheduler( void )
1934:..\Source/tasks.c **** {
 1946              		.loc 1 1934 0
 1947              		.cfi_startproc
 1948              		@ args = 0, pretend = 0, frame = 8
 1949              		@ frame_needed = 1, uses_anonymous_args = 0
 1950 0000 80B5     		push	{r7, lr}
 1951              		.cfi_def_cfa_offset 8
 1952              		.cfi_offset 7, -8
 1953              		.cfi_offset 14, -4
 1954 0002 82B0     		sub	sp, sp, #8
 1955              		.cfi_def_cfa_offset 16
 1956 0004 00AF     		add	r7, sp, #0
 1957              		.cfi_def_cfa_register 7
 1958              	.LBB39:
 1959              	.LBB40:
 237:..\Source\portable\GCC\ARM_CM3/portmacro.h **** 	(
 1960              		.loc 2 237 0
 1961              	@ 237 "..\Source\portable\GCC\ARM_CM3/portmacro.h" 1
 1962 0006 4FF0A003 			mov r3, #160												
 1963 000a 83F31188 		msr basepri, r3											
 1964 000e BFF36F8F 		isb														
 1965 0012 BFF34F8F 		dsb														
 1966              	
 1967              	@ 0 "" 2
 1968              		.thumb
 1969 0016 7B60     		str	r3, [r7, #4]
 1970              	.LBE40:
 1971              	.LBE39:
1935:..\Source/tasks.c **** 	/* Stop the scheduler interrupts and call the portable scheduler end
1936:..\Source/tasks.c **** 	routine so the original ISRs can be restored if necessary.  The port
1937:..\Source/tasks.c **** 	layer must ensure interrupts enable	bit is left in the correct state. */
1938:..\Source/tasks.c **** 	portDISABLE_INTERRUPTS();
1939:..\Source/tasks.c **** 	xSchedulerRunning = pdFALSE;
 1972              		.loc 1 1939 0
 1973 0018 034B     		ldr	r3, .L128
 1974 001a 0022     		movs	r2, #0
 1975 001c 1A60     		str	r2, [r3]
1940:..\Source/tasks.c **** 	vPortEndScheduler();
 1976              		.loc 1 1940 0
ARM GAS  C:\Users\bmt\AppData\Local\Temp\ccld84Qq.s 			page 75


 1977 001e FFF7FEFF 		bl	vPortEndScheduler
1941:..\Source/tasks.c **** }
 1978              		.loc 1 1941 0
 1979 0022 0837     		adds	r7, r7, #8
 1980              		.cfi_def_cfa_offset 8
 1981 0024 BD46     		mov	sp, r7
 1982              		.cfi_def_cfa_register 13
 1983              		@ sp needed
 1984 0026 80BD     		pop	{r7, pc}
 1985              	.L129:
 1986              		.align	2
 1987              	.L128:
 1988 0028 E4000000 		.word	xSchedulerRunning
 1989              		.cfi_endproc
 1990              	.LFE83:
 1991              		.size	vTaskEndScheduler, .-vTaskEndScheduler
 1992              		.section	.text.vTaskSuspendAll,"ax",%progbits
 1993              		.align	2
 1994              		.global	vTaskSuspendAll
 1995              		.thumb
 1996              		.thumb_func
 1997              		.type	vTaskSuspendAll, %function
 1998              	vTaskSuspendAll:
 1999              	.LFB84:
1942:..\Source/tasks.c **** /*----------------------------------------------------------*/
1943:..\Source/tasks.c **** 
1944:..\Source/tasks.c **** void vTaskSuspendAll( void )
1945:..\Source/tasks.c **** {
 2000              		.loc 1 1945 0
 2001              		.cfi_startproc
 2002              		@ args = 0, pretend = 0, frame = 0
 2003              		@ frame_needed = 1, uses_anonymous_args = 0
 2004              		@ link register save eliminated.
 2005 0000 80B4     		push	{r7}
 2006              		.cfi_def_cfa_offset 4
 2007              		.cfi_offset 7, -4
 2008 0002 00AF     		add	r7, sp, #0
 2009              		.cfi_def_cfa_register 7
1946:..\Source/tasks.c **** 	/* A critical section is not required as the variable is of type
1947:..\Source/tasks.c **** 	BaseType_t.  Please read Richard Barry's reply in the following link to a
1948:..\Source/tasks.c **** 	post in the FreeRTOS support forum before reporting this as a bug! -
1949:..\Source/tasks.c **** 	http://goo.gl/wu4acr */
1950:..\Source/tasks.c **** 	++uxSchedulerSuspended;
 2010              		.loc 1 1950 0
 2011 0004 044B     		ldr	r3, .L131
 2012 0006 1B68     		ldr	r3, [r3]
 2013 0008 0133     		adds	r3, r3, #1
 2014 000a 034A     		ldr	r2, .L131
 2015 000c 1360     		str	r3, [r2]
1951:..\Source/tasks.c **** }
 2016              		.loc 1 1951 0
 2017 000e BD46     		mov	sp, r7
 2018              		.cfi_def_cfa_register 13
 2019              		@ sp needed
 2020 0010 5DF8047B 		ldr	r7, [sp], #4
 2021              		.cfi_restore 7
 2022              		.cfi_def_cfa_offset 0
ARM GAS  C:\Users\bmt\AppData\Local\Temp\ccld84Qq.s 			page 76


 2023 0014 7047     		bx	lr
 2024              	.L132:
 2025 0016 00BF     		.align	2
 2026              	.L131:
 2027 0018 00010000 		.word	uxSchedulerSuspended
 2028              		.cfi_endproc
 2029              	.LFE84:
 2030              		.size	vTaskSuspendAll, .-vTaskSuspendAll
 2031              		.section	.text.xTaskResumeAll,"ax",%progbits
 2032              		.align	2
 2033              		.global	xTaskResumeAll
 2034              		.thumb
 2035              		.thumb_func
 2036              		.type	xTaskResumeAll, %function
 2037              	xTaskResumeAll:
 2038              	.LFB85:
1952:..\Source/tasks.c **** /*----------------------------------------------------------*/
1953:..\Source/tasks.c **** 
1954:..\Source/tasks.c **** #if ( configUSE_TICKLESS_IDLE != 0 )
1955:..\Source/tasks.c **** 
1956:..\Source/tasks.c **** 	static TickType_t prvGetExpectedIdleTime( void )
1957:..\Source/tasks.c **** 	{
1958:..\Source/tasks.c **** 	TickType_t xReturn;
1959:..\Source/tasks.c **** 	UBaseType_t uxHigherPriorityReadyTasks = pdFALSE;
1960:..\Source/tasks.c **** 
1961:..\Source/tasks.c **** 		/* uxHigherPriorityReadyTasks takes care of the case where
1962:..\Source/tasks.c **** 		configUSE_PREEMPTION is 0, so there may be tasks above the idle priority
1963:..\Source/tasks.c **** 		task that are in the Ready state, even though the idle task is
1964:..\Source/tasks.c **** 		running. */
1965:..\Source/tasks.c **** 		#if( configUSE_PORT_OPTIMISED_TASK_SELECTION == 0 )
1966:..\Source/tasks.c **** 		{
1967:..\Source/tasks.c **** 			if( uxTopReadyPriority > tskIDLE_PRIORITY )
1968:..\Source/tasks.c **** 			{
1969:..\Source/tasks.c **** 				uxHigherPriorityReadyTasks = pdTRUE;
1970:..\Source/tasks.c **** 			}
1971:..\Source/tasks.c **** 		}
1972:..\Source/tasks.c **** 		#else
1973:..\Source/tasks.c **** 		{
1974:..\Source/tasks.c **** 			const UBaseType_t uxLeastSignificantBit = ( UBaseType_t ) 0x01;
1975:..\Source/tasks.c **** 
1976:..\Source/tasks.c **** 			/* When port optimised task selection is used the uxTopReadyPriority
1977:..\Source/tasks.c **** 			variable is used as a bit map.  If bits other than the least
1978:..\Source/tasks.c **** 			significant bit are set then there are tasks that have a priority
1979:..\Source/tasks.c **** 			above the idle priority that are in the Ready state.  This takes
1980:..\Source/tasks.c **** 			care of the case where the co-operative scheduler is in use. */
1981:..\Source/tasks.c **** 			if( uxTopReadyPriority > uxLeastSignificantBit )
1982:..\Source/tasks.c **** 			{
1983:..\Source/tasks.c **** 				uxHigherPriorityReadyTasks = pdTRUE;
1984:..\Source/tasks.c **** 			}
1985:..\Source/tasks.c **** 		}
1986:..\Source/tasks.c **** 		#endif
1987:..\Source/tasks.c **** 
1988:..\Source/tasks.c **** 		if( pxCurrentTCB->uxPriority > tskIDLE_PRIORITY )
1989:..\Source/tasks.c **** 		{
1990:..\Source/tasks.c **** 			xReturn = 0;
1991:..\Source/tasks.c **** 		}
1992:..\Source/tasks.c **** 		else if( listCURRENT_LIST_LENGTH( &( pxReadyTasksLists[ tskIDLE_PRIORITY ] ) ) > 1 )
ARM GAS  C:\Users\bmt\AppData\Local\Temp\ccld84Qq.s 			page 77


1993:..\Source/tasks.c **** 		{
1994:..\Source/tasks.c **** 			/* There are other idle priority tasks in the ready state.  If
1995:..\Source/tasks.c **** 			time slicing is used then the very next tick interrupt must be
1996:..\Source/tasks.c **** 			processed. */
1997:..\Source/tasks.c **** 			xReturn = 0;
1998:..\Source/tasks.c **** 		}
1999:..\Source/tasks.c **** 		else if( uxHigherPriorityReadyTasks != pdFALSE )
2000:..\Source/tasks.c **** 		{
2001:..\Source/tasks.c **** 			/* There are tasks in the Ready state that have a priority above the
2002:..\Source/tasks.c **** 			idle priority.  This path can only be reached if
2003:..\Source/tasks.c **** 			configUSE_PREEMPTION is 0. */
2004:..\Source/tasks.c **** 			xReturn = 0;
2005:..\Source/tasks.c **** 		}
2006:..\Source/tasks.c **** 		else
2007:..\Source/tasks.c **** 		{
2008:..\Source/tasks.c **** 			xReturn = xNextTaskUnblockTime - xTickCount;
2009:..\Source/tasks.c **** 		}
2010:..\Source/tasks.c **** 
2011:..\Source/tasks.c **** 		return xReturn;
2012:..\Source/tasks.c **** 	}
2013:..\Source/tasks.c **** 
2014:..\Source/tasks.c **** #endif /* configUSE_TICKLESS_IDLE */
2015:..\Source/tasks.c **** /*----------------------------------------------------------*/
2016:..\Source/tasks.c **** 
2017:..\Source/tasks.c **** BaseType_t xTaskResumeAll( void )
2018:..\Source/tasks.c **** {
 2039              		.loc 1 2018 0
 2040              		.cfi_startproc
 2041              		@ args = 0, pretend = 0, frame = 16
 2042              		@ frame_needed = 1, uses_anonymous_args = 0
 2043 0000 80B5     		push	{r7, lr}
 2044              		.cfi_def_cfa_offset 8
 2045              		.cfi_offset 7, -8
 2046              		.cfi_offset 14, -4
 2047 0002 84B0     		sub	sp, sp, #16
 2048              		.cfi_def_cfa_offset 24
 2049 0004 00AF     		add	r7, sp, #0
 2050              		.cfi_def_cfa_register 7
2019:..\Source/tasks.c **** TCB_t *pxTCB = NULL;
 2051              		.loc 1 2019 0
 2052 0006 0023     		movs	r3, #0
 2053 0008 FB60     		str	r3, [r7, #12]
2020:..\Source/tasks.c **** BaseType_t xAlreadyYielded = pdFALSE;
 2054              		.loc 1 2020 0
 2055 000a 0023     		movs	r3, #0
 2056 000c BB60     		str	r3, [r7, #8]
2021:..\Source/tasks.c **** 
2022:..\Source/tasks.c **** 	/* If uxSchedulerSuspended is zero then this function does not match a
2023:..\Source/tasks.c **** 	previous call to vTaskSuspendAll(). */
2024:..\Source/tasks.c **** 	configASSERT( uxSchedulerSuspended );
2025:..\Source/tasks.c **** 
2026:..\Source/tasks.c **** 	/* It is possible that an ISR caused a task to be removed from an event
2027:..\Source/tasks.c **** 	list while the scheduler was suspended.  If this was the case then the
2028:..\Source/tasks.c **** 	removed task will have been added to the xPendingReadyList.  Once the
2029:..\Source/tasks.c **** 	scheduler has been resumed it is safe to move all the pending ready
2030:..\Source/tasks.c **** 	tasks from this list into their appropriate ready list. */
2031:..\Source/tasks.c **** 	taskENTER_CRITICAL();
ARM GAS  C:\Users\bmt\AppData\Local\Temp\ccld84Qq.s 			page 78


 2057              		.loc 1 2031 0
 2058 000e FFF7FEFF 		bl	vPortEnterCritical
2032:..\Source/tasks.c **** 	{
2033:..\Source/tasks.c **** 		--uxSchedulerSuspended;
 2059              		.loc 1 2033 0
 2060 0012 3A4B     		ldr	r3, .L142
 2061 0014 1B68     		ldr	r3, [r3]
 2062 0016 013B     		subs	r3, r3, #1
 2063 0018 384A     		ldr	r2, .L142
 2064 001a 1360     		str	r3, [r2]
2034:..\Source/tasks.c **** 
2035:..\Source/tasks.c **** 		if( uxSchedulerSuspended == ( UBaseType_t ) pdFALSE )
 2065              		.loc 1 2035 0
 2066 001c 374B     		ldr	r3, .L142
 2067 001e 1B68     		ldr	r3, [r3]
 2068 0020 002B     		cmp	r3, #0
 2069 0022 63D1     		bne	.L134
2036:..\Source/tasks.c **** 		{
2037:..\Source/tasks.c **** 			if( uxCurrentNumberOfTasks > ( UBaseType_t ) 0U )
 2070              		.loc 1 2037 0
 2071 0024 364B     		ldr	r3, .L142+4
 2072 0026 1B68     		ldr	r3, [r3]
 2073 0028 002B     		cmp	r3, #0
 2074 002a 5FD0     		beq	.L134
2038:..\Source/tasks.c **** 			{
2039:..\Source/tasks.c **** 				/* Move any readied tasks from the pending list into the
2040:..\Source/tasks.c **** 				appropriate ready list. */
2041:..\Source/tasks.c **** 				while( listLIST_IS_EMPTY( &xPendingReadyList ) == pdFALSE )
 2075              		.loc 1 2041 0
 2076 002c 30E0     		b	.L135
 2077              	.L136:
2042:..\Source/tasks.c **** 				{
2043:..\Source/tasks.c **** 					pxTCB = ( TCB_t * ) listGET_OWNER_OF_HEAD_ENTRY( ( &xPendingReadyList ) );
 2078              		.loc 1 2043 0
 2079 002e 354B     		ldr	r3, .L142+8
 2080 0030 DB68     		ldr	r3, [r3, #12]
 2081 0032 DB68     		ldr	r3, [r3, #12]
 2082 0034 FB60     		str	r3, [r7, #12]
2044:..\Source/tasks.c **** 					( void ) uxListRemove( &( pxTCB->xEventListItem ) );
 2083              		.loc 1 2044 0
 2084 0036 FB68     		ldr	r3, [r7, #12]
 2085 0038 1833     		adds	r3, r3, #24
 2086 003a 1846     		mov	r0, r3
 2087 003c FFF7FEFF 		bl	uxListRemove
2045:..\Source/tasks.c **** 					( void ) uxListRemove( &( pxTCB->xStateListItem ) );
 2088              		.loc 1 2045 0
 2089 0040 FB68     		ldr	r3, [r7, #12]
 2090 0042 0433     		adds	r3, r3, #4
 2091 0044 1846     		mov	r0, r3
 2092 0046 FFF7FEFF 		bl	uxListRemove
2046:..\Source/tasks.c **** 					prvAddTaskToReadyList( pxTCB );
 2093              		.loc 1 2046 0
 2094 004a FB68     		ldr	r3, [r7, #12]
 2095 004c DB6A     		ldr	r3, [r3, #44]
 2096 004e 1A46     		mov	r2, r3
 2097 0050 0123     		movs	r3, #1
 2098 0052 03FA02F2 		lsl	r2, r3, r2
ARM GAS  C:\Users\bmt\AppData\Local\Temp\ccld84Qq.s 			page 79


 2099 0056 2C4B     		ldr	r3, .L142+12
 2100 0058 1B68     		ldr	r3, [r3]
 2101 005a 1343     		orrs	r3, r3, r2
 2102 005c 2A4A     		ldr	r2, .L142+12
 2103 005e 1360     		str	r3, [r2]
 2104 0060 FB68     		ldr	r3, [r7, #12]
 2105 0062 DA6A     		ldr	r2, [r3, #44]
 2106 0064 1346     		mov	r3, r2
 2107 0066 9B00     		lsls	r3, r3, #2
 2108 0068 1344     		add	r3, r3, r2
 2109 006a 9B00     		lsls	r3, r3, #2
 2110 006c 274A     		ldr	r2, .L142+16
 2111 006e 1A44     		add	r2, r2, r3
 2112 0070 FB68     		ldr	r3, [r7, #12]
 2113 0072 0433     		adds	r3, r3, #4
 2114 0074 1046     		mov	r0, r2
 2115 0076 1946     		mov	r1, r3
 2116 0078 FFF7FEFF 		bl	vListInsertEnd
2047:..\Source/tasks.c **** 
2048:..\Source/tasks.c **** 					/* If the moved task has a priority higher than the current
2049:..\Source/tasks.c **** 					task then a yield must be performed. */
2050:..\Source/tasks.c **** 					if( pxTCB->uxPriority >= pxCurrentTCB->uxPriority )
 2117              		.loc 1 2050 0
 2118 007c FB68     		ldr	r3, [r7, #12]
 2119 007e DA6A     		ldr	r2, [r3, #44]
 2120 0080 234B     		ldr	r3, .L142+20
 2121 0082 1B68     		ldr	r3, [r3]
 2122 0084 DB6A     		ldr	r3, [r3, #44]
 2123 0086 9A42     		cmp	r2, r3
 2124 0088 02D3     		bcc	.L135
2051:..\Source/tasks.c **** 					{
2052:..\Source/tasks.c **** 						xYieldPending = pdTRUE;
 2125              		.loc 1 2052 0
 2126 008a 224B     		ldr	r3, .L142+24
 2127 008c 0122     		movs	r2, #1
 2128 008e 1A60     		str	r2, [r3]
 2129              	.L135:
2041:..\Source/tasks.c **** 				{
 2130              		.loc 1 2041 0
 2131 0090 1C4B     		ldr	r3, .L142+8
 2132 0092 1B68     		ldr	r3, [r3]
 2133 0094 002B     		cmp	r3, #0
 2134 0096 CAD1     		bne	.L136
2053:..\Source/tasks.c **** 					}
2054:..\Source/tasks.c **** 					else
2055:..\Source/tasks.c **** 					{
2056:..\Source/tasks.c **** 						mtCOVERAGE_TEST_MARKER();
2057:..\Source/tasks.c **** 					}
2058:..\Source/tasks.c **** 				}
2059:..\Source/tasks.c **** 
2060:..\Source/tasks.c **** 				if( pxTCB != NULL )
 2135              		.loc 1 2060 0
 2136 0098 FB68     		ldr	r3, [r7, #12]
 2137 009a 002B     		cmp	r3, #0
 2138 009c 01D0     		beq	.L137
2061:..\Source/tasks.c **** 				{
2062:..\Source/tasks.c **** 					/* A task was unblocked while the scheduler was suspended,
ARM GAS  C:\Users\bmt\AppData\Local\Temp\ccld84Qq.s 			page 80


2063:..\Source/tasks.c **** 					which may have prevented the next unblock time from being
2064:..\Source/tasks.c **** 					re-calculated, in which case re-calculate it now.  Mainly
2065:..\Source/tasks.c **** 					important for low power tickless implementations, where
2066:..\Source/tasks.c **** 					this can prevent an unnecessary exit from low power
2067:..\Source/tasks.c **** 					state. */
2068:..\Source/tasks.c **** 					prvResetNextTaskUnblockTime();
 2139              		.loc 1 2068 0
 2140 009e FFF7FEFF 		bl	prvResetNextTaskUnblockTime
 2141              	.L137:
 2142              	.LBB41:
2069:..\Source/tasks.c **** 				}
2070:..\Source/tasks.c **** 
2071:..\Source/tasks.c **** 				/* If any ticks occurred while the scheduler was suspended then
2072:..\Source/tasks.c **** 				they should be processed now.  This ensures the tick count does
2073:..\Source/tasks.c **** 				not	slip, and that any delayed tasks are resumed at the correct
2074:..\Source/tasks.c **** 				time. */
2075:..\Source/tasks.c **** 				{
2076:..\Source/tasks.c **** 					UBaseType_t uxPendedCounts = uxPendedTicks; /* Non-volatile copy. */
 2143              		.loc 1 2076 0
 2144 00a2 1D4B     		ldr	r3, .L142+28
 2145 00a4 1B68     		ldr	r3, [r3]
 2146 00a6 7B60     		str	r3, [r7, #4]
2077:..\Source/tasks.c **** 
2078:..\Source/tasks.c **** 					if( uxPendedCounts > ( UBaseType_t ) 0U )
 2147              		.loc 1 2078 0
 2148 00a8 7B68     		ldr	r3, [r7, #4]
 2149 00aa 002B     		cmp	r3, #0
 2150 00ac 10D0     		beq	.L138
 2151              	.L140:
2079:..\Source/tasks.c **** 					{
2080:..\Source/tasks.c **** 						do
2081:..\Source/tasks.c **** 						{
2082:..\Source/tasks.c **** 							if( xTaskIncrementTick() != pdFALSE )
 2152              		.loc 1 2082 0
 2153 00ae FFF7FEFF 		bl	xTaskIncrementTick
 2154 00b2 0346     		mov	r3, r0
 2155 00b4 002B     		cmp	r3, #0
 2156 00b6 02D0     		beq	.L139
2083:..\Source/tasks.c **** 							{
2084:..\Source/tasks.c **** 								xYieldPending = pdTRUE;
 2157              		.loc 1 2084 0
 2158 00b8 164B     		ldr	r3, .L142+24
 2159 00ba 0122     		movs	r2, #1
 2160 00bc 1A60     		str	r2, [r3]
 2161              	.L139:
2085:..\Source/tasks.c **** 							}
2086:..\Source/tasks.c **** 							else
2087:..\Source/tasks.c **** 							{
2088:..\Source/tasks.c **** 								mtCOVERAGE_TEST_MARKER();
2089:..\Source/tasks.c **** 							}
2090:..\Source/tasks.c **** 							--uxPendedCounts;
 2162              		.loc 1 2090 0
 2163 00be 7B68     		ldr	r3, [r7, #4]
 2164 00c0 013B     		subs	r3, r3, #1
 2165 00c2 7B60     		str	r3, [r7, #4]
2091:..\Source/tasks.c **** 						} while( uxPendedCounts > ( UBaseType_t ) 0U );
 2166              		.loc 1 2091 0
ARM GAS  C:\Users\bmt\AppData\Local\Temp\ccld84Qq.s 			page 81


 2167 00c4 7B68     		ldr	r3, [r7, #4]
 2168 00c6 002B     		cmp	r3, #0
 2169 00c8 F1D1     		bne	.L140
2092:..\Source/tasks.c **** 
2093:..\Source/tasks.c **** 						uxPendedTicks = 0;
 2170              		.loc 1 2093 0
 2171 00ca 134B     		ldr	r3, .L142+28
 2172 00cc 0022     		movs	r2, #0
 2173 00ce 1A60     		str	r2, [r3]
 2174              	.L138:
 2175              	.LBE41:
2094:..\Source/tasks.c **** 					}
2095:..\Source/tasks.c **** 					else
2096:..\Source/tasks.c **** 					{
2097:..\Source/tasks.c **** 						mtCOVERAGE_TEST_MARKER();
2098:..\Source/tasks.c **** 					}
2099:..\Source/tasks.c **** 				}
2100:..\Source/tasks.c **** 
2101:..\Source/tasks.c **** 				if( xYieldPending != pdFALSE )
 2176              		.loc 1 2101 0
 2177 00d0 104B     		ldr	r3, .L142+24
 2178 00d2 1B68     		ldr	r3, [r3]
 2179 00d4 002B     		cmp	r3, #0
 2180 00d6 09D0     		beq	.L134
2102:..\Source/tasks.c **** 				{
2103:..\Source/tasks.c **** 					#if( configUSE_PREEMPTION != 0 )
2104:..\Source/tasks.c **** 					{
2105:..\Source/tasks.c **** 						xAlreadyYielded = pdTRUE;
 2181              		.loc 1 2105 0
 2182 00d8 0123     		movs	r3, #1
 2183 00da BB60     		str	r3, [r7, #8]
2106:..\Source/tasks.c **** 					}
2107:..\Source/tasks.c **** 					#endif
2108:..\Source/tasks.c **** 					taskYIELD_IF_USING_PREEMPTION();
 2184              		.loc 1 2108 0
 2185 00dc 0F4B     		ldr	r3, .L142+32
 2186 00de 4FF08052 		mov	r2, #268435456
 2187 00e2 1A60     		str	r2, [r3]
 2188              	@ 2108 "..\Source\tasks.c" 1
 2189 00e4 BFF34F8F 		dsb
 2190              	@ 0 "" 2
 2191              	@ 2108 "..\Source\tasks.c" 1
 2192 00e8 BFF36F8F 		isb
 2193              	@ 0 "" 2
 2194              		.thumb
 2195              	.L134:
2109:..\Source/tasks.c **** 				}
2110:..\Source/tasks.c **** 				else
2111:..\Source/tasks.c **** 				{
2112:..\Source/tasks.c **** 					mtCOVERAGE_TEST_MARKER();
2113:..\Source/tasks.c **** 				}
2114:..\Source/tasks.c **** 			}
2115:..\Source/tasks.c **** 		}
2116:..\Source/tasks.c **** 		else
2117:..\Source/tasks.c **** 		{
2118:..\Source/tasks.c **** 			mtCOVERAGE_TEST_MARKER();
2119:..\Source/tasks.c **** 		}
ARM GAS  C:\Users\bmt\AppData\Local\Temp\ccld84Qq.s 			page 82


2120:..\Source/tasks.c **** 	}
2121:..\Source/tasks.c **** 	taskEXIT_CRITICAL();
 2196              		.loc 1 2121 0
 2197 00ec FFF7FEFF 		bl	vPortExitCritical
2122:..\Source/tasks.c **** 
2123:..\Source/tasks.c **** 	return xAlreadyYielded;
 2198              		.loc 1 2123 0
 2199 00f0 BB68     		ldr	r3, [r7, #8]
2124:..\Source/tasks.c **** }
 2200              		.loc 1 2124 0
 2201 00f2 1846     		mov	r0, r3
 2202 00f4 1037     		adds	r7, r7, #16
 2203              		.cfi_def_cfa_offset 8
 2204 00f6 BD46     		mov	sp, r7
 2205              		.cfi_def_cfa_register 13
 2206              		@ sp needed
 2207 00f8 80BD     		pop	{r7, pc}
 2208              	.L143:
 2209 00fa 00BF     		.align	2
 2210              	.L142:
 2211 00fc 00010000 		.word	uxSchedulerSuspended
 2212 0100 D8000000 		.word	uxCurrentNumberOfTasks
 2213 0104 98000000 		.word	xPendingReadyList
 2214 0108 E0000000 		.word	uxTopReadyPriority
 2215 010c 04000000 		.word	pxReadyTasksLists
 2216 0110 00000000 		.word	pxCurrentTCB
 2217 0114 EC000000 		.word	xYieldPending
 2218 0118 E8000000 		.word	uxPendedTicks
 2219 011c 04ED00E0 		.word	-536810236
 2220              		.cfi_endproc
 2221              	.LFE85:
 2222              		.size	xTaskResumeAll, .-xTaskResumeAll
 2223              		.section	.text.xTaskGetTickCount,"ax",%progbits
 2224              		.align	2
 2225              		.global	xTaskGetTickCount
 2226              		.thumb
 2227              		.thumb_func
 2228              		.type	xTaskGetTickCount, %function
 2229              	xTaskGetTickCount:
 2230              	.LFB86:
2125:..\Source/tasks.c **** /*-----------------------------------------------------------*/
2126:..\Source/tasks.c **** 
2127:..\Source/tasks.c **** TickType_t xTaskGetTickCount( void )
2128:..\Source/tasks.c **** {
 2231              		.loc 1 2128 0
 2232              		.cfi_startproc
 2233              		@ args = 0, pretend = 0, frame = 8
 2234              		@ frame_needed = 1, uses_anonymous_args = 0
 2235              		@ link register save eliminated.
 2236 0000 80B4     		push	{r7}
 2237              		.cfi_def_cfa_offset 4
 2238              		.cfi_offset 7, -4
 2239 0002 83B0     		sub	sp, sp, #12
 2240              		.cfi_def_cfa_offset 16
 2241 0004 00AF     		add	r7, sp, #0
 2242              		.cfi_def_cfa_register 7
2129:..\Source/tasks.c **** TickType_t xTicks;
ARM GAS  C:\Users\bmt\AppData\Local\Temp\ccld84Qq.s 			page 83


2130:..\Source/tasks.c **** 
2131:..\Source/tasks.c **** 	/* Critical section required if running on a 16 bit processor. */
2132:..\Source/tasks.c **** 	portTICK_TYPE_ENTER_CRITICAL();
2133:..\Source/tasks.c **** 	{
2134:..\Source/tasks.c **** 		xTicks = xTickCount;
 2243              		.loc 1 2134 0
 2244 0006 054B     		ldr	r3, .L146
 2245 0008 1B68     		ldr	r3, [r3]
 2246 000a 7B60     		str	r3, [r7, #4]
2135:..\Source/tasks.c **** 	}
2136:..\Source/tasks.c **** 	portTICK_TYPE_EXIT_CRITICAL();
2137:..\Source/tasks.c **** 
2138:..\Source/tasks.c **** 	return xTicks;
 2247              		.loc 1 2138 0
 2248 000c 7B68     		ldr	r3, [r7, #4]
2139:..\Source/tasks.c **** }
 2249              		.loc 1 2139 0
 2250 000e 1846     		mov	r0, r3
 2251 0010 0C37     		adds	r7, r7, #12
 2252              		.cfi_def_cfa_offset 4
 2253 0012 BD46     		mov	sp, r7
 2254              		.cfi_def_cfa_register 13
 2255              		@ sp needed
 2256 0014 5DF8047B 		ldr	r7, [sp], #4
 2257              		.cfi_restore 7
 2258              		.cfi_def_cfa_offset 0
 2259 0018 7047     		bx	lr
 2260              	.L147:
 2261 001a 00BF     		.align	2
 2262              	.L146:
 2263 001c DC000000 		.word	xTickCount
 2264              		.cfi_endproc
 2265              	.LFE86:
 2266              		.size	xTaskGetTickCount, .-xTaskGetTickCount
 2267              		.section	.text.xTaskGetTickCountFromISR,"ax",%progbits
 2268              		.align	2
 2269              		.global	xTaskGetTickCountFromISR
 2270              		.thumb
 2271              		.thumb_func
 2272              		.type	xTaskGetTickCountFromISR, %function
 2273              	xTaskGetTickCountFromISR:
 2274              	.LFB87:
2140:..\Source/tasks.c **** /*-----------------------------------------------------------*/
2141:..\Source/tasks.c **** 
2142:..\Source/tasks.c **** TickType_t xTaskGetTickCountFromISR( void )
2143:..\Source/tasks.c **** {
 2275              		.loc 1 2143 0
 2276              		.cfi_startproc
 2277              		@ args = 0, pretend = 0, frame = 8
 2278              		@ frame_needed = 1, uses_anonymous_args = 0
 2279              		@ link register save eliminated.
 2280 0000 80B4     		push	{r7}
 2281              		.cfi_def_cfa_offset 4
 2282              		.cfi_offset 7, -4
 2283 0002 83B0     		sub	sp, sp, #12
 2284              		.cfi_def_cfa_offset 16
 2285 0004 00AF     		add	r7, sp, #0
ARM GAS  C:\Users\bmt\AppData\Local\Temp\ccld84Qq.s 			page 84


 2286              		.cfi_def_cfa_register 7
2144:..\Source/tasks.c **** TickType_t xReturn;
2145:..\Source/tasks.c **** UBaseType_t uxSavedInterruptStatus;
2146:..\Source/tasks.c **** 
2147:..\Source/tasks.c **** 	/* RTOS ports that support interrupt nesting have the concept of a maximum
2148:..\Source/tasks.c **** 	system call (or maximum API call) interrupt priority.  Interrupts that are
2149:..\Source/tasks.c **** 	above the maximum system call priority are kept permanently enabled, even
2150:..\Source/tasks.c **** 	when the RTOS kernel is in a critical section, but cannot make any calls to
2151:..\Source/tasks.c **** 	FreeRTOS API functions.  If configASSERT() is defined in FreeRTOSConfig.h
2152:..\Source/tasks.c **** 	then portASSERT_IF_INTERRUPT_PRIORITY_INVALID() will result in an assertion
2153:..\Source/tasks.c **** 	failure if a FreeRTOS API function is called from an interrupt that has been
2154:..\Source/tasks.c **** 	assigned a priority above the configured maximum system call priority.
2155:..\Source/tasks.c **** 	Only FreeRTOS functions that end in FromISR can be called from interrupts
2156:..\Source/tasks.c **** 	that have been assigned a priority at or (logically) below the maximum
2157:..\Source/tasks.c **** 	system call	interrupt priority.  FreeRTOS maintains a separate interrupt
2158:..\Source/tasks.c **** 	safe API to ensure interrupt entry is as fast and as simple as possible.
2159:..\Source/tasks.c **** 	More information (albeit Cortex-M specific) is provided on the following
2160:..\Source/tasks.c **** 	link: http://www.freertos.org/RTOS-Cortex-M3-M4.html */
2161:..\Source/tasks.c **** 	portASSERT_IF_INTERRUPT_PRIORITY_INVALID();
2162:..\Source/tasks.c **** 
2163:..\Source/tasks.c **** 	uxSavedInterruptStatus = portTICK_TYPE_SET_INTERRUPT_MASK_FROM_ISR();
 2287              		.loc 1 2163 0
 2288 0006 0023     		movs	r3, #0
 2289 0008 7B60     		str	r3, [r7, #4]
2164:..\Source/tasks.c **** 	{
2165:..\Source/tasks.c **** 		xReturn = xTickCount;
 2290              		.loc 1 2165 0
 2291 000a 054B     		ldr	r3, .L150
 2292 000c 1B68     		ldr	r3, [r3]
 2293 000e 3B60     		str	r3, [r7]
2166:..\Source/tasks.c **** 	}
2167:..\Source/tasks.c **** 	portTICK_TYPE_CLEAR_INTERRUPT_MASK_FROM_ISR( uxSavedInterruptStatus );
2168:..\Source/tasks.c **** 
2169:..\Source/tasks.c **** 	return xReturn;
 2294              		.loc 1 2169 0
 2295 0010 3B68     		ldr	r3, [r7]
2170:..\Source/tasks.c **** }
 2296              		.loc 1 2170 0
 2297 0012 1846     		mov	r0, r3
 2298 0014 0C37     		adds	r7, r7, #12
 2299              		.cfi_def_cfa_offset 4
 2300 0016 BD46     		mov	sp, r7
 2301              		.cfi_def_cfa_register 13
 2302              		@ sp needed
 2303 0018 5DF8047B 		ldr	r7, [sp], #4
 2304              		.cfi_restore 7
 2305              		.cfi_def_cfa_offset 0
 2306 001c 7047     		bx	lr
 2307              	.L151:
 2308 001e 00BF     		.align	2
 2309              	.L150:
 2310 0020 DC000000 		.word	xTickCount
 2311              		.cfi_endproc
 2312              	.LFE87:
 2313              		.size	xTaskGetTickCountFromISR, .-xTaskGetTickCountFromISR
 2314              		.section	.text.uxTaskGetNumberOfTasks,"ax",%progbits
 2315              		.align	2
ARM GAS  C:\Users\bmt\AppData\Local\Temp\ccld84Qq.s 			page 85


 2316              		.global	uxTaskGetNumberOfTasks
 2317              		.thumb
 2318              		.thumb_func
 2319              		.type	uxTaskGetNumberOfTasks, %function
 2320              	uxTaskGetNumberOfTasks:
 2321              	.LFB88:
