ARM GAS  C:\Users\bmt\AppData\Local\Temp\cc8p0V7T.s 			page 1


   1              		.syntax unified
   2              		.cpu cortex-m3
   3              		.fpu softvfp
   4              		.eabi_attribute 20, 1
   5              		.eabi_attribute 21, 1
   6              		.eabi_attribute 23, 3
   7              		.eabi_attribute 24, 1
   8              		.eabi_attribute 25, 1
   9              		.eabi_attribute 26, 1
  10              		.eabi_attribute 30, 6
  11              		.eabi_attribute 34, 1
  12              		.eabi_attribute 18, 4
  13              		.thumb
  14              		.file	"TimerTest.c"
  15              		.text
  16              	.Ltext0:
  17              		.cfi_sections	.debug_frame
  18              		.global	usMaxJitter
  19              		.bss
  20              		.align	1
  21              		.type	usMaxJitter, %object
  22              		.size	usMaxJitter, 2
  23              	usMaxJitter:
  24 0000 0000     		.space	2
  25              		.section	.text.vSetupTimerTest,"ax",%progbits
  26              		.align	2
  27              		.global	vSetupTimerTest
  28              		.thumb
  29              		.thumb_func
  30              		.type	vSetupTimerTest, %function
  31              	vSetupTimerTest:
  32              	.LFB68:
  33              		.file 1 "TimerTest.c"
   1:TimerTest.c   **** /*
   2:TimerTest.c   ****     FreeRTOS V9.0.0 - Copyright (C) 2016 Real Time Engineers Ltd.
   3:TimerTest.c   ****     All rights reserved
   4:TimerTest.c   **** 
   5:TimerTest.c   ****     VISIT http://www.FreeRTOS.org TO ENSURE YOU ARE USING THE LATEST VERSION.
   6:TimerTest.c   **** 
   7:TimerTest.c   ****     This file is part of the FreeRTOS distribution.
   8:TimerTest.c   **** 
   9:TimerTest.c   ****     FreeRTOS is free software; you can redistribute it and/or modify it under
  10:TimerTest.c   ****     the terms of the GNU General Public License (version 2) as published by the
  11:TimerTest.c   ****     Free Software Foundation >>>> AND MODIFIED BY <<<< the FreeRTOS exception.
  12:TimerTest.c   **** 
  13:TimerTest.c   ****     ***************************************************************************
  14:TimerTest.c   ****     >>!   NOTE: The modification to the GPL is included to allow you to     !<<
  15:TimerTest.c   ****     >>!   distribute a combined work that includes FreeRTOS without being   !<<
  16:TimerTest.c   ****     >>!   obliged to provide the source code for proprietary components     !<<
  17:TimerTest.c   ****     >>!   outside of the FreeRTOS kernel.                                   !<<
  18:TimerTest.c   ****     ***************************************************************************
  19:TimerTest.c   **** 
  20:TimerTest.c   ****     FreeRTOS is distributed in the hope that it will be useful, but WITHOUT ANY
  21:TimerTest.c   ****     WARRANTY; without even the implied warranty of MERCHANTABILITY or FITNESS
  22:TimerTest.c   ****     FOR A PARTICULAR PURPOSE.  Full license text is available on the following
  23:TimerTest.c   ****     link: http://www.freertos.org/a00114.html
  24:TimerTest.c   **** 
ARM GAS  C:\Users\bmt\AppData\Local\Temp\cc8p0V7T.s 			page 2


  25:TimerTest.c   ****     ***************************************************************************
  26:TimerTest.c   ****      *                                                                       *
  27:TimerTest.c   ****      *    FreeRTOS provides completely free yet professionally developed,    *
  28:TimerTest.c   ****      *    robust, strictly quality controlled, supported, and cross          *
  29:TimerTest.c   ****      *    platform software that is more than just the market leader, it     *
  30:TimerTest.c   ****      *    is the industry's de facto standard.                               *
  31:TimerTest.c   ****      *                                                                       *
  32:TimerTest.c   ****      *    Help yourself get started quickly while simultaneously helping     *
  33:TimerTest.c   ****      *    to support the FreeRTOS project by purchasing a FreeRTOS           *
  34:TimerTest.c   ****      *    tutorial book, reference manual, or both:                          *
  35:TimerTest.c   ****      *    http://www.FreeRTOS.org/Documentation                              *
  36:TimerTest.c   ****      *                                                                       *
  37:TimerTest.c   ****     ***************************************************************************
  38:TimerTest.c   **** 
  39:TimerTest.c   ****     http://www.FreeRTOS.org/FAQHelp.html - Having a problem?  Start by reading
  40:TimerTest.c   ****     the FAQ page "My application does not run, what could be wrong?".  Have you
  41:TimerTest.c   ****     defined configASSERT()?
  42:TimerTest.c   **** 
  43:TimerTest.c   ****     http://www.FreeRTOS.org/support - In return for receiving this top quality
  44:TimerTest.c   ****     embedded software for free we request you assist our global community by
  45:TimerTest.c   ****     participating in the support forum.
  46:TimerTest.c   **** 
  47:TimerTest.c   ****     http://www.FreeRTOS.org/training - Investing in training allows your team to
  48:TimerTest.c   ****     be as productive as possible as early as possible.  Now you can receive
  49:TimerTest.c   ****     FreeRTOS training directly from Richard Barry, CEO of Real Time Engineers
  50:TimerTest.c   ****     Ltd, and the world's leading authority on the world's leading RTOS.
  51:TimerTest.c   **** 
  52:TimerTest.c   ****     http://www.FreeRTOS.org/plus - A selection of FreeRTOS ecosystem products,
  53:TimerTest.c   ****     including FreeRTOS+Trace - an indispensable productivity tool, a DOS
  54:TimerTest.c   ****     compatible FAT file system, and our tiny thread aware UDP/IP stack.
  55:TimerTest.c   **** 
  56:TimerTest.c   ****     http://www.FreeRTOS.org/labs - Where new FreeRTOS products go to incubate.
  57:TimerTest.c   ****     Come and try FreeRTOS+TCP, our new open source TCP/IP stack for FreeRTOS.
  58:TimerTest.c   **** 
  59:TimerTest.c   ****     http://www.OpenRTOS.com - Real Time Engineers ltd. license FreeRTOS to High
  60:TimerTest.c   ****     Integrity Systems ltd. to sell under the OpenRTOS brand.  Low cost OpenRTOS
  61:TimerTest.c   ****     licenses offer ticketed support, indemnification and commercial middleware.
  62:TimerTest.c   **** 
  63:TimerTest.c   ****     http://www.SafeRTOS.com - High Integrity Systems also provide a safety
  64:TimerTest.c   ****     engineered and independently SIL3 certified version for use in safety and
  65:TimerTest.c   ****     mission critical applications that require provable dependability.
  66:TimerTest.c   **** 
  67:TimerTest.c   ****     1 tab == 4 spaces!
  68:TimerTest.c   **** */
  69:TimerTest.c   **** 
  70:TimerTest.c   **** /* High speed timer test as described in main.c. */
  71:TimerTest.c   **** #include <device.h>
  72:TimerTest.c   **** 
  73:TimerTest.c   **** /* Scheduler includes. */
  74:TimerTest.c   **** #include "FreeRTOS.h"
  75:TimerTest.c   **** 
  76:TimerTest.c   **** /* The set frequency of the interrupt.  Deviations from this are measured as
  77:TimerTest.c   **** the jitter. */
  78:TimerTest.c   **** #define timerINTERRUPT_FREQUENCY		( ( unsigned short ) 20000 )
  79:TimerTest.c   **** 
  80:TimerTest.c   **** /* The expected time between each of the timer interrupts - if the jitter was
  81:TimerTest.c   **** zero. */
ARM GAS  C:\Users\bmt\AppData\Local\Temp\cc8p0V7T.s 			page 3


  82:TimerTest.c   **** #define timerEXPECTED_DIFFERENCE_VALUE	( configCPU_CLOCK_HZ / timerINTERRUPT_FREQUENCY )
  83:TimerTest.c   **** 
  84:TimerTest.c   **** /* The number of interrupts to pass before we start looking at the jitter. */
  85:TimerTest.c   **** #define timerSETTLE_TIME			5
  86:TimerTest.c   **** /*---------------------------------------------------------------------------*/
  87:TimerTest.c   **** 
  88:TimerTest.c   **** /*
  89:TimerTest.c   ****  * Configures the two timers used to perform the test.
  90:TimerTest.c   ****  */
  91:TimerTest.c   **** void vSetupTimerTest( void );
  92:TimerTest.c   **** 
  93:TimerTest.c   **** /* Interrupt handler in which the jitter is measured. */
  94:TimerTest.c   **** CY_ISR_PROTO(vTimer20KHzISR);
  95:TimerTest.c   **** 
  96:TimerTest.c   **** /* Stores the value of the maximum recorded jitter between interrupts. */
  97:TimerTest.c   **** volatile unsigned short usMaxJitter = 0;
  98:TimerTest.c   **** /*---------------------------------------------------------------------------*/
  99:TimerTest.c   **** 
 100:TimerTest.c   **** void vSetupTimerTest( void )
 101:TimerTest.c   **** {
  34              		.loc 1 101 0
  35              		.cfi_startproc
  36              		@ args = 0, pretend = 0, frame = 0
  37              		@ frame_needed = 1, uses_anonymous_args = 0
  38 0000 80B5     		push	{r7, lr}
  39              		.cfi_def_cfa_offset 8
  40              		.cfi_offset 7, -8
  41              		.cfi_offset 14, -4
  42 0002 00AF     		add	r7, sp, #0
  43              		.cfi_def_cfa_register 7
 102:TimerTest.c   **** 	/* Install the ISR. */
 103:TimerTest.c   **** 	isrTimer_20KHz_TC_StartEx(vTimer20KHzISR);
  44              		.loc 1 103 0
  45 0004 0148     		ldr	r0, .L2
  46 0006 FFF7FEFF 		bl	isrTimer_20KHz_TC_StartEx
 104:TimerTest.c   **** }
  47              		.loc 1 104 0
  48 000a 80BD     		pop	{r7, pc}
  49              	.L3:
  50              		.align	2
  51              	.L2:
  52 000c 00000000 		.word	vTimer20KHzISR
  53              		.cfi_endproc
  54              	.LFE68:
  55              		.size	vSetupTimerTest, .-vSetupTimerTest
  56              		.section	.text.vTimer20KHzISR,"ax",%progbits
  57              		.align	2
  58              		.global	vTimer20KHzISR
  59              		.thumb
  60              		.thumb_func
  61              		.type	vTimer20KHzISR, %function
  62              	vTimer20KHzISR:
  63              	.LFB69:
 105:TimerTest.c   **** /*---------------------------------------------------------------------------*/
 106:TimerTest.c   **** 
 107:TimerTest.c   **** CY_ISR(vTimer20KHzISR)
 108:TimerTest.c   **** {
ARM GAS  C:\Users\bmt\AppData\Local\Temp\cc8p0V7T.s 			page 4


  64              		.loc 1 108 0
  65              		.cfi_startproc
  66              		@ args = 0, pretend = 0, frame = 8
  67              		@ frame_needed = 1, uses_anonymous_args = 0
  68 0000 80B5     		push	{r7, lr}
  69              		.cfi_def_cfa_offset 8
  70              		.cfi_offset 7, -8
  71              		.cfi_offset 14, -4
  72 0002 82B0     		sub	sp, sp, #8
  73              		.cfi_def_cfa_offset 16
  74 0004 00AF     		add	r7, sp, #0
  75              		.cfi_def_cfa_register 7
 109:TimerTest.c   **** static unsigned short usLastCount = 0, usSettleCount = 0, usMaxDifference = 0;
 110:TimerTest.c   **** unsigned short usThisCount, usDifference;
 111:TimerTest.c   **** 
 112:TimerTest.c   **** 	/* Capture the free running timer value as we enter the interrupt. */
 113:TimerTest.c   **** 	usThisCount = Timer_48MHz_ReadCounter();
  76              		.loc 1 113 0
  77 0006 FFF7FEFF 		bl	Timer_48MHz_ReadCounter
  78 000a 0346     		mov	r3, r0
  79 000c FB80     		strh	r3, [r7, #6]	@ movhi
 114:TimerTest.c   **** 		
 115:TimerTest.c   **** 	if( usSettleCount >= timerSETTLE_TIME )
  80              		.loc 1 115 0
  81 000e 124B     		ldr	r3, .L8
  82 0010 1B88     		ldrh	r3, [r3]
  83 0012 042B     		cmp	r3, #4
  84 0014 14D9     		bls	.L5
 116:TimerTest.c   **** 	{
 117:TimerTest.c   **** 		/* What is the difference between the timer value in this interrupt
 118:TimerTest.c   **** 		and the value from the last interrupt. Timer counts down. */
 119:TimerTest.c   **** 		usDifference = usLastCount + ~usThisCount + 1;
  85              		.loc 1 119 0
  86 0016 114B     		ldr	r3, .L8+4
  87 0018 1A88     		ldrh	r2, [r3]
  88 001a FB88     		ldrh	r3, [r7, #6]	@ movhi
  89 001c D31A     		subs	r3, r2, r3
  90 001e BB80     		strh	r3, [r7, #4]	@ movhi
 120:TimerTest.c   **** 
 121:TimerTest.c   **** 		/* Store the difference in the timer values if it is larger than the
 122:TimerTest.c   **** 		currently stored largest value.  The difference over and above the
 123:TimerTest.c   **** 		expected difference will give the 'jitter' in the processing of these
 124:TimerTest.c   **** 		interrupts. */
 125:TimerTest.c   **** 		if( usDifference > usMaxDifference )
  91              		.loc 1 125 0
  92 0020 0F4B     		ldr	r3, .L8+8
  93 0022 1B88     		ldrh	r3, [r3]
  94 0024 BA88     		ldrh	r2, [r7, #4]
  95 0026 9A42     		cmp	r2, r3
  96 0028 10D9     		bls	.L7
 126:TimerTest.c   **** 		{
 127:TimerTest.c   **** 			usMaxDifference = usDifference;
  97              		.loc 1 127 0
  98 002a 0D4A     		ldr	r2, .L8+8
  99 002c BB88     		ldrh	r3, [r7, #4]	@ movhi
 100 002e 1380     		strh	r3, [r2]	@ movhi
 128:TimerTest.c   **** 			
ARM GAS  C:\Users\bmt\AppData\Local\Temp\cc8p0V7T.s 			page 5


 129:TimerTest.c   **** 			/* Calculate the Jitter based on the difference we expect. */
 130:TimerTest.c   **** 			usMaxJitter = usMaxDifference - timerEXPECTED_DIFFERENCE_VALUE;
 101              		.loc 1 130 0
 102 0030 0B4B     		ldr	r3, .L8+8
 103 0032 1B88     		ldrh	r3, [r3]
 104 0034 A3F51663 		sub	r3, r3, #2400
 105 0038 9AB2     		uxth	r2, r3
 106 003a 0A4B     		ldr	r3, .L8+12
 107 003c 1A80     		strh	r2, [r3]	@ movhi
 108 003e 05E0     		b	.L7
 109              	.L5:
 131:TimerTest.c   **** 		}
 132:TimerTest.c   **** 	}
 133:TimerTest.c   **** 	else
 134:TimerTest.c   **** 	{
 135:TimerTest.c   **** 		/* Don't bother storing any values for the first couple of
 136:TimerTest.c   **** 		interrupts. */
 137:TimerTest.c   **** 		usSettleCount++;
 110              		.loc 1 137 0
 111 0040 054B     		ldr	r3, .L8
 112 0042 1B88     		ldrh	r3, [r3]
 113 0044 0133     		adds	r3, r3, #1
 114 0046 9AB2     		uxth	r2, r3
 115 0048 034B     		ldr	r3, .L8
 116 004a 1A80     		strh	r2, [r3]	@ movhi
 117              	.L7:
 138:TimerTest.c   **** 	}
 139:TimerTest.c   **** 
 140:TimerTest.c   **** 	/* Remember what the timer value was this time through, so we can calculate
 141:TimerTest.c   **** 	the difference the next time through. */
 142:TimerTest.c   **** 	usLastCount = usThisCount;
 118              		.loc 1 142 0
 119 004c 034A     		ldr	r2, .L8+4
 120 004e FB88     		ldrh	r3, [r7, #6]	@ movhi
 121 0050 1380     		strh	r3, [r2]	@ movhi
 143:TimerTest.c   **** }
 122              		.loc 1 143 0
 123 0052 0837     		adds	r7, r7, #8
 124              		.cfi_def_cfa_offset 8
 125 0054 BD46     		mov	sp, r7
 126              		.cfi_def_cfa_register 13
 127              		@ sp needed
 128 0056 80BD     		pop	{r7, pc}
 129              	.L9:
 130              		.align	2
 131              	.L8:
 132 0058 02000000 		.word	usSettleCount.6302
 133 005c 04000000 		.word	usLastCount.6301
 134 0060 06000000 		.word	usMaxDifference.6303
 135 0064 00000000 		.word	usMaxJitter
 136              		.cfi_endproc
 137              	.LFE69:
 138              		.size	vTimer20KHzISR, .-vTimer20KHzISR
 139              		.bss
 140              		.align	1
 141              	usSettleCount.6302:
 142 0002 0000     		.space	2
ARM GAS  C:\Users\bmt\AppData\Local\Temp\cc8p0V7T.s 			page 6


 143              		.align	1
 144              	usLastCount.6301:
 145 0004 0000     		.space	2
 146              		.align	1
 147              	usMaxDifference.6303:
 148 0006 0000     		.space	2
 149              		.text
 150              	.Letext0:
 151              		.file 2 "c:\\program files (x86)\\cypress\\psoc creator\\4.0\\psoc creator\\import\\gnu\\arm\\4.9.
 152              		.file 3 "c:\\program files (x86)\\cypress\\psoc creator\\4.0\\psoc creator\\import\\gnu\\arm\\4.9.
 153              		.file 4 "Generated_Source\\PSoC5/core_cm3.h"