ARM GAS  C:\Users\bmt\AppData\Local\Temp\cctdXMto.s 			page 1


   1              		.syntax unified
   2              		.cpu cortex-m3
   3              		.fpu softvfp
   4              		.eabi_attribute 20, 1
   5              		.eabi_attribute 21, 1
   6              		.eabi_attribute 23, 3
   7              		.eabi_attribute 24, 1
   8              		.eabi_attribute 25, 1
   9              		.eabi_attribute 26, 1
  10              		.eabi_attribute 30, 6
  11              		.eabi_attribute 34, 1
  12              		.eabi_attribute 18, 4
  13              		.thumb
  14              		.file	"Timer_48MHz.c"
  15              		.text
  16              	.Ltext0:
  17              		.cfi_sections	.debug_frame
  18              		.global	Timer_48MHz_initVar
  19              		.bss
  20              		.type	Timer_48MHz_initVar, %object
  21              		.size	Timer_48MHz_initVar, 1
  22              	Timer_48MHz_initVar:
  23 0000 00       		.space	1
  24              		.section	.text.Timer_48MHz_Init,"ax",%progbits
  25              		.align	2
  26              		.global	Timer_48MHz_Init
  27              		.thumb
  28              		.thumb_func
  29              		.type	Timer_48MHz_Init, %function
  30              	Timer_48MHz_Init:
  31              	.LFB0:
  32              		.file 1 "Generated_Source\\PSoC5\\Timer_48MHz.c"
   1:Generated_Source\PSoC5/Timer_48MHz.c **** /*******************************************************************************
   2:Generated_Source\PSoC5/Timer_48MHz.c **** * File Name: Timer_48MHz.c
   3:Generated_Source\PSoC5/Timer_48MHz.c **** * Version 2.70
   4:Generated_Source\PSoC5/Timer_48MHz.c **** *
   5:Generated_Source\PSoC5/Timer_48MHz.c **** * Description:
   6:Generated_Source\PSoC5/Timer_48MHz.c **** *  The Timer component consists of a 8, 16, 24 or 32-bit timer with
   7:Generated_Source\PSoC5/Timer_48MHz.c **** *  a selectable period between 2 and 2^Width - 1.  The timer may free run
   8:Generated_Source\PSoC5/Timer_48MHz.c **** *  or be used as a capture timer as well.  The capture can be initiated
   9:Generated_Source\PSoC5/Timer_48MHz.c **** *  by a positive or negative edge signal as well as via software.
  10:Generated_Source\PSoC5/Timer_48MHz.c **** *  A trigger input can be programmed to enable the timer on rising edge
  11:Generated_Source\PSoC5/Timer_48MHz.c **** *  falling edge, either edge or continous run.
  12:Generated_Source\PSoC5/Timer_48MHz.c **** *  Interrupts may be generated due to a terminal count condition
  13:Generated_Source\PSoC5/Timer_48MHz.c **** *  or a capture event.
  14:Generated_Source\PSoC5/Timer_48MHz.c **** *
  15:Generated_Source\PSoC5/Timer_48MHz.c **** * Note:
  16:Generated_Source\PSoC5/Timer_48MHz.c **** *
  17:Generated_Source\PSoC5/Timer_48MHz.c **** ********************************************************************************
  18:Generated_Source\PSoC5/Timer_48MHz.c **** * Copyright 2008-2014, Cypress Semiconductor Corporation.  All rights reserved.
  19:Generated_Source\PSoC5/Timer_48MHz.c **** * You may use this file only in accordance with the license, terms, conditions,
  20:Generated_Source\PSoC5/Timer_48MHz.c **** * disclaimers, and limitations in the end user license agreement accompanying
  21:Generated_Source\PSoC5/Timer_48MHz.c **** * the software package with which this file was provided.
  22:Generated_Source\PSoC5/Timer_48MHz.c **** ********************************************************************************/
  23:Generated_Source\PSoC5/Timer_48MHz.c **** 
  24:Generated_Source\PSoC5/Timer_48MHz.c **** #include "Timer_48MHz.h"
  25:Generated_Source\PSoC5/Timer_48MHz.c **** 
ARM GAS  C:\Users\bmt\AppData\Local\Temp\cctdXMto.s 			page 2


  26:Generated_Source\PSoC5/Timer_48MHz.c **** uint8 Timer_48MHz_initVar = 0u;
  27:Generated_Source\PSoC5/Timer_48MHz.c **** 
  28:Generated_Source\PSoC5/Timer_48MHz.c **** 
  29:Generated_Source\PSoC5/Timer_48MHz.c **** /*******************************************************************************
  30:Generated_Source\PSoC5/Timer_48MHz.c **** * Function Name: Timer_48MHz_Init
  31:Generated_Source\PSoC5/Timer_48MHz.c **** ********************************************************************************
  32:Generated_Source\PSoC5/Timer_48MHz.c **** *
  33:Generated_Source\PSoC5/Timer_48MHz.c **** * Summary:
  34:Generated_Source\PSoC5/Timer_48MHz.c **** *  Initialize to the schematic state
  35:Generated_Source\PSoC5/Timer_48MHz.c **** *
  36:Generated_Source\PSoC5/Timer_48MHz.c **** * Parameters:
  37:Generated_Source\PSoC5/Timer_48MHz.c **** *  void
  38:Generated_Source\PSoC5/Timer_48MHz.c **** *
  39:Generated_Source\PSoC5/Timer_48MHz.c **** * Return:
  40:Generated_Source\PSoC5/Timer_48MHz.c **** *  void
  41:Generated_Source\PSoC5/Timer_48MHz.c **** *
  42:Generated_Source\PSoC5/Timer_48MHz.c **** *******************************************************************************/
  43:Generated_Source\PSoC5/Timer_48MHz.c **** void Timer_48MHz_Init(void) 
  44:Generated_Source\PSoC5/Timer_48MHz.c **** {
  33              		.loc 1 44 0
  34              		.cfi_startproc
  35              		@ args = 0, pretend = 0, frame = 0
  36              		@ frame_needed = 1, uses_anonymous_args = 0
  37 0000 80B5     		push	{r7, lr}
  38              		.cfi_def_cfa_offset 8
  39              		.cfi_offset 7, -8
  40              		.cfi_offset 14, -4
  41 0002 00AF     		add	r7, sp, #0
  42              		.cfi_def_cfa_register 7
  45:Generated_Source\PSoC5/Timer_48MHz.c ****     #if(!Timer_48MHz_UsingFixedFunction)
  46:Generated_Source\PSoC5/Timer_48MHz.c ****             /* Interrupt State Backup for Critical Region*/
  47:Generated_Source\PSoC5/Timer_48MHz.c ****             uint8 Timer_48MHz_interruptState;
  48:Generated_Source\PSoC5/Timer_48MHz.c ****     #endif /* Interrupt state back up for Fixed Function only */
  49:Generated_Source\PSoC5/Timer_48MHz.c **** 
  50:Generated_Source\PSoC5/Timer_48MHz.c ****     #if (Timer_48MHz_UsingFixedFunction)
  51:Generated_Source\PSoC5/Timer_48MHz.c ****         /* Clear all bits but the enable bit (if it's already set) for Timer operation */
  52:Generated_Source\PSoC5/Timer_48MHz.c ****         Timer_48MHz_CONTROL &= Timer_48MHz_CTRL_ENABLE;
  43              		.loc 1 52 0
  44 0004 214A     		ldr	r2, .L2
  45 0006 214B     		ldr	r3, .L2
  46 0008 1B78     		ldrb	r3, [r3]
  47 000a DBB2     		uxtb	r3, r3
  48 000c 03F00103 		and	r3, r3, #1
  49 0010 DBB2     		uxtb	r3, r3
  50 0012 1370     		strb	r3, [r2]
  53:Generated_Source\PSoC5/Timer_48MHz.c **** 
  54:Generated_Source\PSoC5/Timer_48MHz.c ****         /* Clear the mode bits for continuous run mode */
  55:Generated_Source\PSoC5/Timer_48MHz.c ****         #if (CY_PSOC5A)
  56:Generated_Source\PSoC5/Timer_48MHz.c ****             Timer_48MHz_CONTROL2 &= ((uint8)(~Timer_48MHz_CTRL_MODE_MASK));
  57:Generated_Source\PSoC5/Timer_48MHz.c ****         #endif /* Clear bits in CONTROL2 only in PSOC5A */
  58:Generated_Source\PSoC5/Timer_48MHz.c **** 
  59:Generated_Source\PSoC5/Timer_48MHz.c ****         #if (CY_PSOC3 || CY_PSOC5LP)
  60:Generated_Source\PSoC5/Timer_48MHz.c ****             Timer_48MHz_CONTROL3 &= ((uint8)(~Timer_48MHz_CTRL_MODE_MASK));
  51              		.loc 1 60 0
  52 0014 1E4A     		ldr	r2, .L2+4
  53 0016 1E4B     		ldr	r3, .L2+4
  54 0018 1B78     		ldrb	r3, [r3]
ARM GAS  C:\Users\bmt\AppData\Local\Temp\cctdXMto.s 			page 3


  55 001a DBB2     		uxtb	r3, r3
  56 001c 23F00303 		bic	r3, r3, #3
  57 0020 DBB2     		uxtb	r3, r3
  58 0022 1370     		strb	r3, [r2]
  61:Generated_Source\PSoC5/Timer_48MHz.c ****         #endif /* CONTROL3 register exists only in PSoC3 OR PSoC5LP */
  62:Generated_Source\PSoC5/Timer_48MHz.c **** 
  63:Generated_Source\PSoC5/Timer_48MHz.c ****         /* Check if One Shot mode is enabled i.e. RunMode !=0*/
  64:Generated_Source\PSoC5/Timer_48MHz.c ****         #if (Timer_48MHz_RunModeUsed != 0x0u)
  65:Generated_Source\PSoC5/Timer_48MHz.c ****             /* Set 3rd bit of Control register to enable one shot mode */
  66:Generated_Source\PSoC5/Timer_48MHz.c ****             Timer_48MHz_CONTROL |= 0x04u;
  67:Generated_Source\PSoC5/Timer_48MHz.c ****         #endif /* One Shot enabled only when RunModeUsed is not Continuous*/
  68:Generated_Source\PSoC5/Timer_48MHz.c **** 
  69:Generated_Source\PSoC5/Timer_48MHz.c ****         #if (Timer_48MHz_RunModeUsed == 2)
  70:Generated_Source\PSoC5/Timer_48MHz.c ****             #if (CY_PSOC5A)
  71:Generated_Source\PSoC5/Timer_48MHz.c ****                 /* Set last 2 bits of control2 register if one shot(halt on
  72:Generated_Source\PSoC5/Timer_48MHz.c ****                 interrupt) is enabled*/
  73:Generated_Source\PSoC5/Timer_48MHz.c ****                 Timer_48MHz_CONTROL2 |= 0x03u;
  74:Generated_Source\PSoC5/Timer_48MHz.c ****             #endif /* Set One-Shot Halt on Interrupt bit in CONTROL2 for PSoC5A */
  75:Generated_Source\PSoC5/Timer_48MHz.c **** 
  76:Generated_Source\PSoC5/Timer_48MHz.c ****             #if (CY_PSOC3 || CY_PSOC5LP)
  77:Generated_Source\PSoC5/Timer_48MHz.c ****                 /* Set last 2 bits of control3 register if one shot(halt on
  78:Generated_Source\PSoC5/Timer_48MHz.c ****                 interrupt) is enabled*/
  79:Generated_Source\PSoC5/Timer_48MHz.c ****                 Timer_48MHz_CONTROL3 |= 0x03u;
  80:Generated_Source\PSoC5/Timer_48MHz.c ****             #endif /* Set One-Shot Halt on Interrupt bit in CONTROL3 for PSoC3 or PSoC5LP */
  81:Generated_Source\PSoC5/Timer_48MHz.c **** 
  82:Generated_Source\PSoC5/Timer_48MHz.c ****         #endif /* Remove section if One Shot Halt on Interrupt is not enabled */
  83:Generated_Source\PSoC5/Timer_48MHz.c **** 
  84:Generated_Source\PSoC5/Timer_48MHz.c ****         #if (Timer_48MHz_UsingHWEnable != 0)
  85:Generated_Source\PSoC5/Timer_48MHz.c ****             #if (CY_PSOC5A)
  86:Generated_Source\PSoC5/Timer_48MHz.c ****                 /* Set the default Run Mode of the Timer to Continuous */
  87:Generated_Source\PSoC5/Timer_48MHz.c ****                 Timer_48MHz_CONTROL2 |= Timer_48MHz_CTRL_MODE_PULSEWIDTH;
  88:Generated_Source\PSoC5/Timer_48MHz.c ****             #endif /* Set Continuous Run Mode in CONTROL2 for PSoC5A */
  89:Generated_Source\PSoC5/Timer_48MHz.c **** 
  90:Generated_Source\PSoC5/Timer_48MHz.c ****             #if (CY_PSOC3 || CY_PSOC5LP)
  91:Generated_Source\PSoC5/Timer_48MHz.c ****                 /* Clear and Set ROD and COD bits of CFG2 register */
  92:Generated_Source\PSoC5/Timer_48MHz.c ****                 Timer_48MHz_CONTROL3 &= ((uint8)(~Timer_48MHz_CTRL_RCOD_MASK));
  93:Generated_Source\PSoC5/Timer_48MHz.c ****                 Timer_48MHz_CONTROL3 |= Timer_48MHz_CTRL_RCOD;
  94:Generated_Source\PSoC5/Timer_48MHz.c **** 
  95:Generated_Source\PSoC5/Timer_48MHz.c ****                 /* Clear and Enable the HW enable bit in CFG2 register */
  96:Generated_Source\PSoC5/Timer_48MHz.c ****                 Timer_48MHz_CONTROL3 &= ((uint8)(~Timer_48MHz_CTRL_ENBL_MASK));
  97:Generated_Source\PSoC5/Timer_48MHz.c ****                 Timer_48MHz_CONTROL3 |= Timer_48MHz_CTRL_ENBL;
  98:Generated_Source\PSoC5/Timer_48MHz.c **** 
  99:Generated_Source\PSoC5/Timer_48MHz.c ****                 /* Set the default Run Mode of the Timer to Continuous */
 100:Generated_Source\PSoC5/Timer_48MHz.c ****                 Timer_48MHz_CONTROL3 |= Timer_48MHz_CTRL_MODE_CONTINUOUS;
 101:Generated_Source\PSoC5/Timer_48MHz.c ****             #endif /* Set Continuous Run Mode in CONTROL3 for PSoC3ES3 or PSoC5A */
 102:Generated_Source\PSoC5/Timer_48MHz.c **** 
 103:Generated_Source\PSoC5/Timer_48MHz.c ****         #endif /* Configure Run Mode with hardware enable */
 104:Generated_Source\PSoC5/Timer_48MHz.c **** 
 105:Generated_Source\PSoC5/Timer_48MHz.c ****         /* Clear and Set SYNCTC and SYNCCMP bits of RT1 register */
 106:Generated_Source\PSoC5/Timer_48MHz.c ****         Timer_48MHz_RT1 &= ((uint8)(~Timer_48MHz_RT1_MASK));
  59              		.loc 1 106 0
  60 0024 1B4A     		ldr	r2, .L2+8
  61 0026 1B4B     		ldr	r3, .L2+8
  62 0028 1B78     		ldrb	r3, [r3]
  63 002a DBB2     		uxtb	r3, r3
  64 002c 23F03003 		bic	r3, r3, #48
  65 0030 DBB2     		uxtb	r3, r3
ARM GAS  C:\Users\bmt\AppData\Local\Temp\cctdXMto.s 			page 4


  66 0032 1370     		strb	r3, [r2]
 107:Generated_Source\PSoC5/Timer_48MHz.c ****         Timer_48MHz_RT1 |= Timer_48MHz_SYNC;
  67              		.loc 1 107 0
  68 0034 174A     		ldr	r2, .L2+8
  69 0036 174B     		ldr	r3, .L2+8
  70 0038 1B78     		ldrb	r3, [r3]
  71 003a DBB2     		uxtb	r3, r3
  72 003c 43F03003 		orr	r3, r3, #48
  73 0040 DBB2     		uxtb	r3, r3
  74 0042 1370     		strb	r3, [r2]
 108:Generated_Source\PSoC5/Timer_48MHz.c **** 
 109:Generated_Source\PSoC5/Timer_48MHz.c ****         /*Enable DSI Sync all all inputs of the Timer*/
 110:Generated_Source\PSoC5/Timer_48MHz.c ****         Timer_48MHz_RT1 &= ((uint8)(~Timer_48MHz_SYNCDSI_MASK));
  75              		.loc 1 110 0
  76 0044 134A     		ldr	r2, .L2+8
  77 0046 134B     		ldr	r3, .L2+8
  78 0048 1B78     		ldrb	r3, [r3]
  79 004a DBB2     		uxtb	r3, r3
  80 004c 23F00F03 		bic	r3, r3, #15
  81 0050 DBB2     		uxtb	r3, r3
  82 0052 1370     		strb	r3, [r2]
 111:Generated_Source\PSoC5/Timer_48MHz.c ****         Timer_48MHz_RT1 |= Timer_48MHz_SYNCDSI_EN;
  83              		.loc 1 111 0
  84 0054 0F4A     		ldr	r2, .L2+8
  85 0056 0F4B     		ldr	r3, .L2+8
  86 0058 1B78     		ldrb	r3, [r3]
  87 005a DBB2     		uxtb	r3, r3
  88 005c 43F00F03 		orr	r3, r3, #15
  89 0060 DBB2     		uxtb	r3, r3
  90 0062 1370     		strb	r3, [r2]
 112:Generated_Source\PSoC5/Timer_48MHz.c **** 
 113:Generated_Source\PSoC5/Timer_48MHz.c ****         /* Set the IRQ to use the status register interrupts */
 114:Generated_Source\PSoC5/Timer_48MHz.c ****         Timer_48MHz_CONTROL2 |= Timer_48MHz_CTRL2_IRQ_SEL;
  91              		.loc 1 114 0
  92 0064 0C4A     		ldr	r2, .L2+12
  93 0066 0C4B     		ldr	r3, .L2+12
  94 0068 1B78     		ldrb	r3, [r3]
  95 006a DBB2     		uxtb	r3, r3
  96 006c 43F00103 		orr	r3, r3, #1
  97 0070 DBB2     		uxtb	r3, r3
  98 0072 1370     		strb	r3, [r2]
 115:Generated_Source\PSoC5/Timer_48MHz.c ****     #endif /* Configuring registers of fixed function implementation */
 116:Generated_Source\PSoC5/Timer_48MHz.c **** 
 117:Generated_Source\PSoC5/Timer_48MHz.c ****     /* Set Initial values from Configuration */
 118:Generated_Source\PSoC5/Timer_48MHz.c ****     Timer_48MHz_WritePeriod(Timer_48MHz_INIT_PERIOD);
  99              		.loc 1 118 0
 100 0074 4FF6FF70 		movw	r0, #65535
 101 0078 FFF7FEFF 		bl	Timer_48MHz_WritePeriod
 119:Generated_Source\PSoC5/Timer_48MHz.c ****     Timer_48MHz_WriteCounter(Timer_48MHz_INIT_PERIOD);
 102              		.loc 1 119 0
 103 007c 4FF6FF70 		movw	r0, #65535
 104 0080 FFF7FEFF 		bl	Timer_48MHz_WriteCounter
 120:Generated_Source\PSoC5/Timer_48MHz.c **** 
 121:Generated_Source\PSoC5/Timer_48MHz.c ****     #if (Timer_48MHz_UsingHWCaptureCounter)/* Capture counter is enabled */
 122:Generated_Source\PSoC5/Timer_48MHz.c ****         Timer_48MHz_CAPTURE_COUNT_CTRL |= Timer_48MHz_CNTR_ENABLE;
 123:Generated_Source\PSoC5/Timer_48MHz.c ****         Timer_48MHz_SetCaptureCount(Timer_48MHz_INIT_CAPTURE_COUNT);
 124:Generated_Source\PSoC5/Timer_48MHz.c ****     #endif /* Configure capture counter value */
ARM GAS  C:\Users\bmt\AppData\Local\Temp\cctdXMto.s 			page 5


 125:Generated_Source\PSoC5/Timer_48MHz.c **** 
 126:Generated_Source\PSoC5/Timer_48MHz.c ****     #if (!Timer_48MHz_UsingFixedFunction)
 127:Generated_Source\PSoC5/Timer_48MHz.c ****         #if (Timer_48MHz_SoftwareCaptureMode)
 128:Generated_Source\PSoC5/Timer_48MHz.c ****             Timer_48MHz_SetCaptureMode(Timer_48MHz_INIT_CAPTURE_MODE);
 129:Generated_Source\PSoC5/Timer_48MHz.c ****         #endif /* Set Capture Mode for UDB implementation if capture mode is software controlled */
 130:Generated_Source\PSoC5/Timer_48MHz.c **** 
 131:Generated_Source\PSoC5/Timer_48MHz.c ****         #if (Timer_48MHz_SoftwareTriggerMode)
 132:Generated_Source\PSoC5/Timer_48MHz.c ****             #if (!Timer_48MHz_UDB_CONTROL_REG_REMOVED)
 133:Generated_Source\PSoC5/Timer_48MHz.c ****                 if (0u == (Timer_48MHz_CONTROL & Timer_48MHz__B_TIMER__TM_SOFTWARE))
 134:Generated_Source\PSoC5/Timer_48MHz.c ****                 {
 135:Generated_Source\PSoC5/Timer_48MHz.c ****                     Timer_48MHz_SetTriggerMode(Timer_48MHz_INIT_TRIGGER_MODE);
 136:Generated_Source\PSoC5/Timer_48MHz.c ****                 }
 137:Generated_Source\PSoC5/Timer_48MHz.c ****             #endif /* (!Timer_48MHz_UDB_CONTROL_REG_REMOVED) */
 138:Generated_Source\PSoC5/Timer_48MHz.c ****         #endif /* Set trigger mode for UDB Implementation if trigger mode is software controlled */
 139:Generated_Source\PSoC5/Timer_48MHz.c **** 
 140:Generated_Source\PSoC5/Timer_48MHz.c ****         /* CyEnterCriticalRegion and CyExitCriticalRegion are used to mark following region critica
 141:Generated_Source\PSoC5/Timer_48MHz.c ****         /* Enter Critical Region*/
 142:Generated_Source\PSoC5/Timer_48MHz.c ****         Timer_48MHz_interruptState = CyEnterCriticalSection();
 143:Generated_Source\PSoC5/Timer_48MHz.c **** 
 144:Generated_Source\PSoC5/Timer_48MHz.c ****         /* Use the interrupt output of the status register for IRQ output */
 145:Generated_Source\PSoC5/Timer_48MHz.c ****         Timer_48MHz_STATUS_AUX_CTRL |= Timer_48MHz_STATUS_ACTL_INT_EN_MASK;
 146:Generated_Source\PSoC5/Timer_48MHz.c **** 
 147:Generated_Source\PSoC5/Timer_48MHz.c ****         /* Exit Critical Region*/
 148:Generated_Source\PSoC5/Timer_48MHz.c ****         CyExitCriticalSection(Timer_48MHz_interruptState);
 149:Generated_Source\PSoC5/Timer_48MHz.c **** 
 150:Generated_Source\PSoC5/Timer_48MHz.c ****         #if (Timer_48MHz_EnableTriggerMode)
 151:Generated_Source\PSoC5/Timer_48MHz.c ****             Timer_48MHz_EnableTrigger();
 152:Generated_Source\PSoC5/Timer_48MHz.c ****         #endif /* Set Trigger enable bit for UDB implementation in the control register*/
 153:Generated_Source\PSoC5/Timer_48MHz.c **** 		
 154:Generated_Source\PSoC5/Timer_48MHz.c **** 		
 155:Generated_Source\PSoC5/Timer_48MHz.c ****         #if (Timer_48MHz_InterruptOnCaptureCount && !Timer_48MHz_UDB_CONTROL_REG_REMOVED)
 156:Generated_Source\PSoC5/Timer_48MHz.c ****             Timer_48MHz_SetInterruptCount(Timer_48MHz_INIT_INT_CAPTURE_COUNT);
 157:Generated_Source\PSoC5/Timer_48MHz.c ****         #endif /* Set interrupt count in UDB implementation if interrupt count feature is checked.*
 158:Generated_Source\PSoC5/Timer_48MHz.c **** 
 159:Generated_Source\PSoC5/Timer_48MHz.c ****         Timer_48MHz_ClearFIFO();
 160:Generated_Source\PSoC5/Timer_48MHz.c ****     #endif /* Configure additional features of UDB implementation */
 161:Generated_Source\PSoC5/Timer_48MHz.c **** 
 162:Generated_Source\PSoC5/Timer_48MHz.c ****     Timer_48MHz_SetInterruptMode(Timer_48MHz_INIT_INTERRUPT_MODE);
 105              		.loc 1 162 0
 106 0084 0020     		movs	r0, #0
 107 0086 FFF7FEFF 		bl	Timer_48MHz_SetInterruptMode
 163:Generated_Source\PSoC5/Timer_48MHz.c **** }
 108              		.loc 1 163 0
 109 008a 80BD     		pop	{r7, pc}
 110              	.L3:
 111              		.align	2
 112              	.L2:
 113 008c 0C4F0040 		.word	1073762060
 114 0090 0E4F0040 		.word	1073762062
 115 0094 174F0040 		.word	1073762071
 116 0098 0D4F0040 		.word	1073762061
 117              		.cfi_endproc
 118              	.LFE0:
 119              		.size	Timer_48MHz_Init, .-Timer_48MHz_Init
 120              		.section	.text.Timer_48MHz_Enable,"ax",%progbits
 121              		.align	2
 122              		.global	Timer_48MHz_Enable
ARM GAS  C:\Users\bmt\AppData\Local\Temp\cctdXMto.s 			page 6


 123              		.thumb
 124              		.thumb_func
 125              		.type	Timer_48MHz_Enable, %function
 126              	Timer_48MHz_Enable:
 127              	.LFB1:
 164:Generated_Source\PSoC5/Timer_48MHz.c **** 
 165:Generated_Source\PSoC5/Timer_48MHz.c **** 
 166:Generated_Source\PSoC5/Timer_48MHz.c **** /*******************************************************************************
 167:Generated_Source\PSoC5/Timer_48MHz.c **** * Function Name: Timer_48MHz_Enable
 168:Generated_Source\PSoC5/Timer_48MHz.c **** ********************************************************************************
 169:Generated_Source\PSoC5/Timer_48MHz.c **** *
 170:Generated_Source\PSoC5/Timer_48MHz.c **** * Summary:
 171:Generated_Source\PSoC5/Timer_48MHz.c **** *  Enable the Timer
 172:Generated_Source\PSoC5/Timer_48MHz.c **** *
 173:Generated_Source\PSoC5/Timer_48MHz.c **** * Parameters:
 174:Generated_Source\PSoC5/Timer_48MHz.c **** *  void
 175:Generated_Source\PSoC5/Timer_48MHz.c **** *
 176:Generated_Source\PSoC5/Timer_48MHz.c **** * Return:
 177:Generated_Source\PSoC5/Timer_48MHz.c **** *  void
 178:Generated_Source\PSoC5/Timer_48MHz.c **** *
 179:Generated_Source\PSoC5/Timer_48MHz.c **** *******************************************************************************/
 180:Generated_Source\PSoC5/Timer_48MHz.c **** void Timer_48MHz_Enable(void) 
 181:Generated_Source\PSoC5/Timer_48MHz.c **** {
 128              		.loc 1 181 0
 129              		.cfi_startproc
 130              		@ args = 0, pretend = 0, frame = 0
 131              		@ frame_needed = 1, uses_anonymous_args = 0
 132              		@ link register save eliminated.
 133 0000 80B4     		push	{r7}
 134              		.cfi_def_cfa_offset 4
 135              		.cfi_offset 7, -4
 136 0002 00AF     		add	r7, sp, #0
 137              		.cfi_def_cfa_register 7
 182:Generated_Source\PSoC5/Timer_48MHz.c ****     /* Globally Enable the Fixed Function Block chosen */
 183:Generated_Source\PSoC5/Timer_48MHz.c ****     #if (Timer_48MHz_UsingFixedFunction)
 184:Generated_Source\PSoC5/Timer_48MHz.c ****         Timer_48MHz_GLOBAL_ENABLE |= Timer_48MHz_BLOCK_EN_MASK;
 138              		.loc 1 184 0
 139 0004 0D4A     		ldr	r2, .L5
 140 0006 0D4B     		ldr	r3, .L5
 141 0008 1B78     		ldrb	r3, [r3]
 142 000a DBB2     		uxtb	r3, r3
 143 000c 43F00203 		orr	r3, r3, #2
 144 0010 DBB2     		uxtb	r3, r3
 145 0012 1370     		strb	r3, [r2]
 185:Generated_Source\PSoC5/Timer_48MHz.c ****         Timer_48MHz_GLOBAL_STBY_ENABLE |= Timer_48MHz_BLOCK_STBY_EN_MASK;
 146              		.loc 1 185 0
 147 0014 0A4A     		ldr	r2, .L5+4
 148 0016 0A4B     		ldr	r3, .L5+4
 149 0018 1B78     		ldrb	r3, [r3]
 150 001a DBB2     		uxtb	r3, r3
 151 001c 43F00203 		orr	r3, r3, #2
 152 0020 DBB2     		uxtb	r3, r3
 153 0022 1370     		strb	r3, [r2]
 186:Generated_Source\PSoC5/Timer_48MHz.c ****     #endif /* Set Enable bit for enabling Fixed function timer*/
 187:Generated_Source\PSoC5/Timer_48MHz.c **** 
 188:Generated_Source\PSoC5/Timer_48MHz.c ****     /* Remove assignment if control register is removed */
 189:Generated_Source\PSoC5/Timer_48MHz.c ****     #if (!Timer_48MHz_UDB_CONTROL_REG_REMOVED || Timer_48MHz_UsingFixedFunction)
ARM GAS  C:\Users\bmt\AppData\Local\Temp\cctdXMto.s 			page 7


 190:Generated_Source\PSoC5/Timer_48MHz.c ****         Timer_48MHz_CONTROL |= Timer_48MHz_CTRL_ENABLE;
 154              		.loc 1 190 0
 155 0024 074A     		ldr	r2, .L5+8
 156 0026 074B     		ldr	r3, .L5+8
 157 0028 1B78     		ldrb	r3, [r3]
 158 002a DBB2     		uxtb	r3, r3
 159 002c 43F00103 		orr	r3, r3, #1
 160 0030 DBB2     		uxtb	r3, r3
 161 0032 1370     		strb	r3, [r2]
 191:Generated_Source\PSoC5/Timer_48MHz.c ****     #endif /* Remove assignment if control register is removed */
 192:Generated_Source\PSoC5/Timer_48MHz.c **** }
 162              		.loc 1 192 0
 163 0034 BD46     		mov	sp, r7
 164              		.cfi_def_cfa_register 13
 165              		@ sp needed
 166 0036 5DF8047B 		ldr	r7, [sp], #4
 167              		.cfi_restore 7
 168              		.cfi_def_cfa_offset 0
 169 003a 7047     		bx	lr
 170              	.L6:
 171              		.align	2
 172              	.L5:
 173 003c A3430040 		.word	1073759139
 174 0040 B3430040 		.word	1073759155
 175 0044 0C4F0040 		.word	1073762060
 176              		.cfi_endproc
 177              	.LFE1:
 178              		.size	Timer_48MHz_Enable, .-Timer_48MHz_Enable
 179              		.section	.text.Timer_48MHz_Start,"ax",%progbits
 180              		.align	2
 181              		.global	Timer_48MHz_Start
 182              		.thumb
 183              		.thumb_func
 184              		.type	Timer_48MHz_Start, %function
 185              	Timer_48MHz_Start:
 186              	.LFB2:
 193:Generated_Source\PSoC5/Timer_48MHz.c **** 
 194:Generated_Source\PSoC5/Timer_48MHz.c **** 
 195:Generated_Source\PSoC5/Timer_48MHz.c **** /*******************************************************************************
 196:Generated_Source\PSoC5/Timer_48MHz.c **** * Function Name: Timer_48MHz_Start
 197:Generated_Source\PSoC5/Timer_48MHz.c **** ********************************************************************************
 198:Generated_Source\PSoC5/Timer_48MHz.c **** *
 199:Generated_Source\PSoC5/Timer_48MHz.c **** * Summary:
 200:Generated_Source\PSoC5/Timer_48MHz.c **** *  The start function initializes the timer with the default values, the
 201:Generated_Source\PSoC5/Timer_48MHz.c **** *  enables the timerto begin counting.  It does not enable interrupts,
 202:Generated_Source\PSoC5/Timer_48MHz.c **** *  the EnableInt command should be called if interrupt generation is required.
 203:Generated_Source\PSoC5/Timer_48MHz.c **** *
 204:Generated_Source\PSoC5/Timer_48MHz.c **** * Parameters:
 205:Generated_Source\PSoC5/Timer_48MHz.c **** *  void
 206:Generated_Source\PSoC5/Timer_48MHz.c **** *
 207:Generated_Source\PSoC5/Timer_48MHz.c **** * Return:
 208:Generated_Source\PSoC5/Timer_48MHz.c **** *  void
 209:Generated_Source\PSoC5/Timer_48MHz.c **** *
 210:Generated_Source\PSoC5/Timer_48MHz.c **** * Global variables:
 211:Generated_Source\PSoC5/Timer_48MHz.c **** *  Timer_48MHz_initVar: Is modified when this function is called for the
 212:Generated_Source\PSoC5/Timer_48MHz.c **** *   first time. Is used to ensure that initialization happens only once.
 213:Generated_Source\PSoC5/Timer_48MHz.c **** *
ARM GAS  C:\Users\bmt\AppData\Local\Temp\cctdXMto.s 			page 8


 214:Generated_Source\PSoC5/Timer_48MHz.c **** *******************************************************************************/
 215:Generated_Source\PSoC5/Timer_48MHz.c **** void Timer_48MHz_Start(void) 
 216:Generated_Source\PSoC5/Timer_48MHz.c **** {
 187              		.loc 1 216 0
 188              		.cfi_startproc
 189              		@ args = 0, pretend = 0, frame = 0
 190              		@ frame_needed = 1, uses_anonymous_args = 0
 191 0000 80B5     		push	{r7, lr}
 192              		.cfi_def_cfa_offset 8
 193              		.cfi_offset 7, -8
 194              		.cfi_offset 14, -4
 195 0002 00AF     		add	r7, sp, #0
 196              		.cfi_def_cfa_register 7
 217:Generated_Source\PSoC5/Timer_48MHz.c ****     if(Timer_48MHz_initVar == 0u)
 197              		.loc 1 217 0
 198 0004 054B     		ldr	r3, .L9
 199 0006 1B78     		ldrb	r3, [r3]	@ zero_extendqisi2
 200 0008 002B     		cmp	r3, #0
 201 000a 04D1     		bne	.L8
 218:Generated_Source\PSoC5/Timer_48MHz.c ****     {
 219:Generated_Source\PSoC5/Timer_48MHz.c ****         Timer_48MHz_Init();
 202              		.loc 1 219 0
 203 000c FFF7FEFF 		bl	Timer_48MHz_Init
 220:Generated_Source\PSoC5/Timer_48MHz.c **** 
 221:Generated_Source\PSoC5/Timer_48MHz.c ****         Timer_48MHz_initVar = 1u;   /* Clear this bit for Initialization */
 204              		.loc 1 221 0
 205 0010 024B     		ldr	r3, .L9
 206 0012 0122     		movs	r2, #1
 207 0014 1A70     		strb	r2, [r3]
 208              	.L8:
 222:Generated_Source\PSoC5/Timer_48MHz.c ****     }
 223:Generated_Source\PSoC5/Timer_48MHz.c **** 
 224:Generated_Source\PSoC5/Timer_48MHz.c ****     /* Enable the Timer */
 225:Generated_Source\PSoC5/Timer_48MHz.c ****     Timer_48MHz_Enable();
 209              		.loc 1 225 0
 210 0016 FFF7FEFF 		bl	Timer_48MHz_Enable
 226:Generated_Source\PSoC5/Timer_48MHz.c **** }
 211              		.loc 1 226 0
 212 001a 80BD     		pop	{r7, pc}
 213              	.L10:
 214              		.align	2
 215              	.L9:
 216 001c 00000000 		.word	Timer_48MHz_initVar
 217              		.cfi_endproc
 218              	.LFE2:
 219              		.size	Timer_48MHz_Start, .-Timer_48MHz_Start
 220              		.section	.text.Timer_48MHz_Stop,"ax",%progbits
 221              		.align	2
 222              		.global	Timer_48MHz_Stop
 223              		.thumb
 224              		.thumb_func
 225              		.type	Timer_48MHz_Stop, %function
 226              	Timer_48MHz_Stop:
 227              	.LFB3:
 227:Generated_Source\PSoC5/Timer_48MHz.c **** 
 228:Generated_Source\PSoC5/Timer_48MHz.c **** 
 229:Generated_Source\PSoC5/Timer_48MHz.c **** /*******************************************************************************
ARM GAS  C:\Users\bmt\AppData\Local\Temp\cctdXMto.s 			page 9


 230:Generated_Source\PSoC5/Timer_48MHz.c **** * Function Name: Timer_48MHz_Stop
 231:Generated_Source\PSoC5/Timer_48MHz.c **** ********************************************************************************
 232:Generated_Source\PSoC5/Timer_48MHz.c **** *
 233:Generated_Source\PSoC5/Timer_48MHz.c **** * Summary:
 234:Generated_Source\PSoC5/Timer_48MHz.c **** *  The stop function halts the timer, but does not change any modes or disable
 235:Generated_Source\PSoC5/Timer_48MHz.c **** *  interrupts.
 236:Generated_Source\PSoC5/Timer_48MHz.c **** *
 237:Generated_Source\PSoC5/Timer_48MHz.c **** * Parameters:
 238:Generated_Source\PSoC5/Timer_48MHz.c **** *  void
 239:Generated_Source\PSoC5/Timer_48MHz.c **** *
 240:Generated_Source\PSoC5/Timer_48MHz.c **** * Return:
 241:Generated_Source\PSoC5/Timer_48MHz.c **** *  void
 242:Generated_Source\PSoC5/Timer_48MHz.c **** *
 243:Generated_Source\PSoC5/Timer_48MHz.c **** * Side Effects: If the Enable mode is set to Hardware only then this function
 244:Generated_Source\PSoC5/Timer_48MHz.c **** *               has no effect on the operation of the timer.
 245:Generated_Source\PSoC5/Timer_48MHz.c **** *
 246:Generated_Source\PSoC5/Timer_48MHz.c **** *******************************************************************************/
 247:Generated_Source\PSoC5/Timer_48MHz.c **** void Timer_48MHz_Stop(void) 
 248:Generated_Source\PSoC5/Timer_48MHz.c **** {
 228              		.loc 1 248 0
 229              		.cfi_startproc
 230              		@ args = 0, pretend = 0, frame = 0
 231              		@ frame_needed = 1, uses_anonymous_args = 0
 232              		@ link register save eliminated.
 233 0000 80B4     		push	{r7}
 234              		.cfi_def_cfa_offset 4
 235              		.cfi_offset 7, -4
 236 0002 00AF     		add	r7, sp, #0
 237              		.cfi_def_cfa_register 7
 249:Generated_Source\PSoC5/Timer_48MHz.c ****     /* Disable Timer */
 250:Generated_Source\PSoC5/Timer_48MHz.c ****     #if(!Timer_48MHz_UDB_CONTROL_REG_REMOVED || Timer_48MHz_UsingFixedFunction)
 251:Generated_Source\PSoC5/Timer_48MHz.c ****         Timer_48MHz_CONTROL &= ((uint8)(~Timer_48MHz_CTRL_ENABLE));
 238              		.loc 1 251 0
 239 0004 0D4A     		ldr	r2, .L12
 240 0006 0D4B     		ldr	r3, .L12
 241 0008 1B78     		ldrb	r3, [r3]
 242 000a DBB2     		uxtb	r3, r3
 243 000c 23F00103 		bic	r3, r3, #1
 244 0010 DBB2     		uxtb	r3, r3
 245 0012 1370     		strb	r3, [r2]
 252:Generated_Source\PSoC5/Timer_48MHz.c ****     #endif /* Remove assignment if control register is removed */
 253:Generated_Source\PSoC5/Timer_48MHz.c **** 
 254:Generated_Source\PSoC5/Timer_48MHz.c ****     /* Globally disable the Fixed Function Block chosen */
 255:Generated_Source\PSoC5/Timer_48MHz.c ****     #if (Timer_48MHz_UsingFixedFunction)
 256:Generated_Source\PSoC5/Timer_48MHz.c ****         Timer_48MHz_GLOBAL_ENABLE &= ((uint8)(~Timer_48MHz_BLOCK_EN_MASK));
 246              		.loc 1 256 0
 247 0014 0A4A     		ldr	r2, .L12+4
 248 0016 0A4B     		ldr	r3, .L12+4
 249 0018 1B78     		ldrb	r3, [r3]
 250 001a DBB2     		uxtb	r3, r3
 251 001c 23F00203 		bic	r3, r3, #2
 252 0020 DBB2     		uxtb	r3, r3
 253 0022 1370     		strb	r3, [r2]
 257:Generated_Source\PSoC5/Timer_48MHz.c ****         Timer_48MHz_GLOBAL_STBY_ENABLE &= ((uint8)(~Timer_48MHz_BLOCK_STBY_EN_MASK));
 254              		.loc 1 257 0
 255 0024 074A     		ldr	r2, .L12+8
 256 0026 074B     		ldr	r3, .L12+8
ARM GAS  C:\Users\bmt\AppData\Local\Temp\cctdXMto.s 			page 10


 257 0028 1B78     		ldrb	r3, [r3]
 258 002a DBB2     		uxtb	r3, r3
 259 002c 23F00203 		bic	r3, r3, #2
 260 0030 DBB2     		uxtb	r3, r3
 261 0032 1370     		strb	r3, [r2]
 258:Generated_Source\PSoC5/Timer_48MHz.c ****     #endif /* Disable global enable for the Timer Fixed function block to stop the Timer*/
 259:Generated_Source\PSoC5/Timer_48MHz.c **** }
 262              		.loc 1 259 0
 263 0034 BD46     		mov	sp, r7
 264              		.cfi_def_cfa_register 13
 265              		@ sp needed
 266 0036 5DF8047B 		ldr	r7, [sp], #4
 267              		.cfi_restore 7
 268              		.cfi_def_cfa_offset 0
 269 003a 7047     		bx	lr
 270              	.L13:
 271              		.align	2
 272              	.L12:
 273 003c 0C4F0040 		.word	1073762060
 274 0040 A3430040 		.word	1073759139
 275 0044 B3430040 		.word	1073759155
 276              		.cfi_endproc
 277              	.LFE3:
 278              		.size	Timer_48MHz_Stop, .-Timer_48MHz_Stop
 279              		.section	.text.Timer_48MHz_SetInterruptMode,"ax",%progbits
 280              		.align	2
 281              		.global	Timer_48MHz_SetInterruptMode
 282              		.thumb
 283              		.thumb_func
 284              		.type	Timer_48MHz_SetInterruptMode, %function
 285              	Timer_48MHz_SetInterruptMode:
 286              	.LFB4:
 260:Generated_Source\PSoC5/Timer_48MHz.c **** 
 261:Generated_Source\PSoC5/Timer_48MHz.c **** 
 262:Generated_Source\PSoC5/Timer_48MHz.c **** /*******************************************************************************
 263:Generated_Source\PSoC5/Timer_48MHz.c **** * Function Name: Timer_48MHz_SetInterruptMode
 264:Generated_Source\PSoC5/Timer_48MHz.c **** ********************************************************************************
 265:Generated_Source\PSoC5/Timer_48MHz.c **** *
 266:Generated_Source\PSoC5/Timer_48MHz.c **** * Summary:
 267:Generated_Source\PSoC5/Timer_48MHz.c **** *  This function selects which of the interrupt inputs may cause an interrupt.
 268:Generated_Source\PSoC5/Timer_48MHz.c **** *  The twosources are caputure and terminal.  One, both or neither may
 269:Generated_Source\PSoC5/Timer_48MHz.c **** *  be selected.
 270:Generated_Source\PSoC5/Timer_48MHz.c **** *
 271:Generated_Source\PSoC5/Timer_48MHz.c **** * Parameters:
 272:Generated_Source\PSoC5/Timer_48MHz.c **** *  interruptMode:   This parameter is used to enable interrups on either/or
 273:Generated_Source\PSoC5/Timer_48MHz.c **** *                   terminal count or capture.
 274:Generated_Source\PSoC5/Timer_48MHz.c **** *
 275:Generated_Source\PSoC5/Timer_48MHz.c **** * Return:
 276:Generated_Source\PSoC5/Timer_48MHz.c **** *  void
 277:Generated_Source\PSoC5/Timer_48MHz.c **** *
 278:Generated_Source\PSoC5/Timer_48MHz.c **** *******************************************************************************/
 279:Generated_Source\PSoC5/Timer_48MHz.c **** void Timer_48MHz_SetInterruptMode(uint8 interruptMode) 
 280:Generated_Source\PSoC5/Timer_48MHz.c **** {
 287              		.loc 1 280 0
 288              		.cfi_startproc
 289              		@ args = 0, pretend = 0, frame = 8
 290              		@ frame_needed = 1, uses_anonymous_args = 0
ARM GAS  C:\Users\bmt\AppData\Local\Temp\cctdXMto.s 			page 11


 291              		@ link register save eliminated.
 292 0000 80B4     		push	{r7}
 293              		.cfi_def_cfa_offset 4
 294              		.cfi_offset 7, -4
 295 0002 83B0     		sub	sp, sp, #12
 296              		.cfi_def_cfa_offset 16
 297 0004 00AF     		add	r7, sp, #0
 298              		.cfi_def_cfa_register 7
 299 0006 0346     		mov	r3, r0
 300 0008 FB71     		strb	r3, [r7, #7]
 281:Generated_Source\PSoC5/Timer_48MHz.c ****     Timer_48MHz_STATUS_MASK = interruptMode;
 301              		.loc 1 281 0
 302 000a 044A     		ldr	r2, .L15
 303 000c FB79     		ldrb	r3, [r7, #7]
 304 000e 1370     		strb	r3, [r2]
 282:Generated_Source\PSoC5/Timer_48MHz.c **** }
 305              		.loc 1 282 0
 306 0010 0C37     		adds	r7, r7, #12
 307              		.cfi_def_cfa_offset 4
 308 0012 BD46     		mov	sp, r7
 309              		.cfi_def_cfa_register 13
 310              		@ sp needed
 311 0014 5DF8047B 		ldr	r7, [sp], #4
 312              		.cfi_restore 7
 313              		.cfi_def_cfa_offset 0
 314 0018 7047     		bx	lr
 315              	.L16:
 316 001a 00BF     		.align	2
 317              	.L15:
 318 001c 0F4F0040 		.word	1073762063
 319              		.cfi_endproc
 320              	.LFE4:
 321              		.size	Timer_48MHz_SetInterruptMode, .-Timer_48MHz_SetInterruptMode
 322              		.section	.text.Timer_48MHz_SoftwareCapture,"ax",%progbits
 323              		.align	2
 324              		.global	Timer_48MHz_SoftwareCapture
 325              		.thumb
 326              		.thumb_func
 327              		.type	Timer_48MHz_SoftwareCapture, %function
 328              	Timer_48MHz_SoftwareCapture:
 329              	.LFB5:
 283:Generated_Source\PSoC5/Timer_48MHz.c **** 
 284:Generated_Source\PSoC5/Timer_48MHz.c **** 
 285:Generated_Source\PSoC5/Timer_48MHz.c **** /*******************************************************************************
 286:Generated_Source\PSoC5/Timer_48MHz.c **** * Function Name: Timer_48MHz_SoftwareCapture
 287:Generated_Source\PSoC5/Timer_48MHz.c **** ********************************************************************************
 288:Generated_Source\PSoC5/Timer_48MHz.c **** *
 289:Generated_Source\PSoC5/Timer_48MHz.c **** * Summary:
 290:Generated_Source\PSoC5/Timer_48MHz.c **** *  This function forces a capture independent of the capture signal.
 291:Generated_Source\PSoC5/Timer_48MHz.c **** *
 292:Generated_Source\PSoC5/Timer_48MHz.c **** * Parameters:
 293:Generated_Source\PSoC5/Timer_48MHz.c **** *  void
 294:Generated_Source\PSoC5/Timer_48MHz.c **** *
 295:Generated_Source\PSoC5/Timer_48MHz.c **** * Return:
 296:Generated_Source\PSoC5/Timer_48MHz.c **** *  void
 297:Generated_Source\PSoC5/Timer_48MHz.c **** *
 298:Generated_Source\PSoC5/Timer_48MHz.c **** * Side Effects:
ARM GAS  C:\Users\bmt\AppData\Local\Temp\cctdXMto.s 			page 12


 299:Generated_Source\PSoC5/Timer_48MHz.c **** *  An existing hardware capture could be overwritten.
 300:Generated_Source\PSoC5/Timer_48MHz.c **** *
 301:Generated_Source\PSoC5/Timer_48MHz.c **** *******************************************************************************/
 302:Generated_Source\PSoC5/Timer_48MHz.c **** void Timer_48MHz_SoftwareCapture(void) 
 303:Generated_Source\PSoC5/Timer_48MHz.c **** {
 330              		.loc 1 303 0
 331              		.cfi_startproc
 332              		@ args = 0, pretend = 0, frame = 0
 333              		@ frame_needed = 1, uses_anonymous_args = 0
 334              		@ link register save eliminated.
 335 0000 80B4     		push	{r7}
 336              		.cfi_def_cfa_offset 4
 337              		.cfi_offset 7, -4
 338 0002 00AF     		add	r7, sp, #0
 339              		.cfi_def_cfa_register 7
 304:Generated_Source\PSoC5/Timer_48MHz.c ****     /* Generate a software capture by reading the counter register */
 305:Generated_Source\PSoC5/Timer_48MHz.c ****     #if(Timer_48MHz_UsingFixedFunction)
 306:Generated_Source\PSoC5/Timer_48MHz.c ****         (void)CY_GET_REG16(Timer_48MHz_COUNTER_LSB_PTR);
 340              		.loc 1 306 0
 341 0004 024B     		ldr	r3, .L18
 342 0006 1B88     		ldrh	r3, [r3]	@ movhi
 307:Generated_Source\PSoC5/Timer_48MHz.c ****     #else
 308:Generated_Source\PSoC5/Timer_48MHz.c ****         (void)CY_GET_REG8(Timer_48MHz_COUNTER_LSB_PTR_8BIT);
 309:Generated_Source\PSoC5/Timer_48MHz.c ****     #endif/* (Timer_48MHz_UsingFixedFunction) */
 310:Generated_Source\PSoC5/Timer_48MHz.c ****     /* Capture Data is now in the FIFO */
 311:Generated_Source\PSoC5/Timer_48MHz.c **** }
 343              		.loc 1 311 0
 344 0008 BD46     		mov	sp, r7
 345              		.cfi_def_cfa_register 13
 346              		@ sp needed
 347 000a 5DF8047B 		ldr	r7, [sp], #4
 348              		.cfi_restore 7
 349              		.cfi_def_cfa_offset 0
 350 000e 7047     		bx	lr
 351              	.L19:
 352              		.align	2
 353              	.L18:
 354 0010 124F0040 		.word	1073762066
 355              		.cfi_endproc
 356              	.LFE5:
 357              		.size	Timer_48MHz_SoftwareCapture, .-Timer_48MHz_SoftwareCapture
 358              		.section	.text.Timer_48MHz_ReadStatusRegister,"ax",%progbits
 359              		.align	2
 360              		.global	Timer_48MHz_ReadStatusRegister
 361              		.thumb
 362              		.thumb_func
 363              		.type	Timer_48MHz_ReadStatusRegister, %function
 364              	Timer_48MHz_ReadStatusRegister:
 365              	.LFB6:
 312:Generated_Source\PSoC5/Timer_48MHz.c **** 
 313:Generated_Source\PSoC5/Timer_48MHz.c **** 
 314:Generated_Source\PSoC5/Timer_48MHz.c **** /*******************************************************************************
 315:Generated_Source\PSoC5/Timer_48MHz.c **** * Function Name: Timer_48MHz_ReadStatusRegister
 316:Generated_Source\PSoC5/Timer_48MHz.c **** ********************************************************************************
 317:Generated_Source\PSoC5/Timer_48MHz.c **** *
 318:Generated_Source\PSoC5/Timer_48MHz.c **** * Summary:
 319:Generated_Source\PSoC5/Timer_48MHz.c **** *  Reads the status register and returns it's state. This function should use
ARM GAS  C:\Users\bmt\AppData\Local\Temp\cctdXMto.s 			page 13


 320:Generated_Source\PSoC5/Timer_48MHz.c **** *  defined types for the bit-field information as the bits in this register may
 321:Generated_Source\PSoC5/Timer_48MHz.c **** *  be permuteable.
 322:Generated_Source\PSoC5/Timer_48MHz.c **** *
 323:Generated_Source\PSoC5/Timer_48MHz.c **** * Parameters:
 324:Generated_Source\PSoC5/Timer_48MHz.c **** *  void
 325:Generated_Source\PSoC5/Timer_48MHz.c **** *
 326:Generated_Source\PSoC5/Timer_48MHz.c **** * Return:
 327:Generated_Source\PSoC5/Timer_48MHz.c **** *  The contents of the status register
 328:Generated_Source\PSoC5/Timer_48MHz.c **** *
 329:Generated_Source\PSoC5/Timer_48MHz.c **** * Side Effects:
 330:Generated_Source\PSoC5/Timer_48MHz.c **** *  Status register bits may be clear on read.
 331:Generated_Source\PSoC5/Timer_48MHz.c **** *
 332:Generated_Source\PSoC5/Timer_48MHz.c **** *******************************************************************************/
 333:Generated_Source\PSoC5/Timer_48MHz.c **** uint8   Timer_48MHz_ReadStatusRegister(void) 
 334:Generated_Source\PSoC5/Timer_48MHz.c **** {
 366              		.loc 1 334 0
 367              		.cfi_startproc
 368              		@ args = 0, pretend = 0, frame = 0
 369              		@ frame_needed = 1, uses_anonymous_args = 0
 370              		@ link register save eliminated.
 371 0000 80B4     		push	{r7}
 372              		.cfi_def_cfa_offset 4
 373              		.cfi_offset 7, -4
 374 0002 00AF     		add	r7, sp, #0
 375              		.cfi_def_cfa_register 7
 335:Generated_Source\PSoC5/Timer_48MHz.c ****     return (Timer_48MHz_STATUS);
 376              		.loc 1 335 0
 377 0004 034B     		ldr	r3, .L22
 378 0006 1B78     		ldrb	r3, [r3]
 379 0008 DBB2     		uxtb	r3, r3
 336:Generated_Source\PSoC5/Timer_48MHz.c **** }
 380              		.loc 1 336 0
 381 000a 1846     		mov	r0, r3
 382 000c BD46     		mov	sp, r7
 383              		.cfi_def_cfa_register 13
 384              		@ sp needed
 385 000e 5DF8047B 		ldr	r7, [sp], #4
 386              		.cfi_restore 7
 387              		.cfi_def_cfa_offset 0
 388 0012 7047     		bx	lr
 389              	.L23:
 390              		.align	2
 391              	.L22:
 392 0014 0F4F0040 		.word	1073762063
 393              		.cfi_endproc
 394              	.LFE6:
 395              		.size	Timer_48MHz_ReadStatusRegister, .-Timer_48MHz_ReadStatusRegister
 396              		.section	.text.Timer_48MHz_ReadControlRegister,"ax",%progbits
 397              		.align	2
 398              		.global	Timer_48MHz_ReadControlRegister
 399              		.thumb
 400              		.thumb_func
 401              		.type	Timer_48MHz_ReadControlRegister, %function
 402              	Timer_48MHz_ReadControlRegister:
 403              	.LFB7:
 337:Generated_Source\PSoC5/Timer_48MHz.c **** 
 338:Generated_Source\PSoC5/Timer_48MHz.c **** 
ARM GAS  C:\Users\bmt\AppData\Local\Temp\cctdXMto.s 			page 14


 339:Generated_Source\PSoC5/Timer_48MHz.c **** #if (!Timer_48MHz_UDB_CONTROL_REG_REMOVED) /* Remove API if control register is unused */
 340:Generated_Source\PSoC5/Timer_48MHz.c **** 
 341:Generated_Source\PSoC5/Timer_48MHz.c **** 
 342:Generated_Source\PSoC5/Timer_48MHz.c **** /*******************************************************************************
 343:Generated_Source\PSoC5/Timer_48MHz.c **** * Function Name: Timer_48MHz_ReadControlRegister
 344:Generated_Source\PSoC5/Timer_48MHz.c **** ********************************************************************************
 345:Generated_Source\PSoC5/Timer_48MHz.c **** *
 346:Generated_Source\PSoC5/Timer_48MHz.c **** * Summary:
 347:Generated_Source\PSoC5/Timer_48MHz.c **** *  Reads the control register and returns it's value.
 348:Generated_Source\PSoC5/Timer_48MHz.c **** *
 349:Generated_Source\PSoC5/Timer_48MHz.c **** * Parameters:
 350:Generated_Source\PSoC5/Timer_48MHz.c **** *  void
 351:Generated_Source\PSoC5/Timer_48MHz.c **** *
 352:Generated_Source\PSoC5/Timer_48MHz.c **** * Return:
 353:Generated_Source\PSoC5/Timer_48MHz.c **** *  The contents of the control register
 354:Generated_Source\PSoC5/Timer_48MHz.c **** *
 355:Generated_Source\PSoC5/Timer_48MHz.c **** *******************************************************************************/
 356:Generated_Source\PSoC5/Timer_48MHz.c **** uint8 Timer_48MHz_ReadControlRegister(void) 
 357:Generated_Source\PSoC5/Timer_48MHz.c **** {
 404              		.loc 1 357 0
 405              		.cfi_startproc
 406              		@ args = 0, pretend = 0, frame = 0
 407              		@ frame_needed = 1, uses_anonymous_args = 0
 408              		@ link register save eliminated.
 409 0000 80B4     		push	{r7}
 410              		.cfi_def_cfa_offset 4
 411              		.cfi_offset 7, -4
 412 0002 00AF     		add	r7, sp, #0
 413              		.cfi_def_cfa_register 7
 358:Generated_Source\PSoC5/Timer_48MHz.c ****     #if (!Timer_48MHz_UDB_CONTROL_REG_REMOVED) 
 359:Generated_Source\PSoC5/Timer_48MHz.c ****         return ((uint8)Timer_48MHz_CONTROL);
 414              		.loc 1 359 0
 415 0004 034B     		ldr	r3, .L26
 416 0006 1B78     		ldrb	r3, [r3]
 417 0008 DBB2     		uxtb	r3, r3
 360:Generated_Source\PSoC5/Timer_48MHz.c ****     #else
 361:Generated_Source\PSoC5/Timer_48MHz.c ****         return (0);
 362:Generated_Source\PSoC5/Timer_48MHz.c ****     #endif /* (!Timer_48MHz_UDB_CONTROL_REG_REMOVED) */
 363:Generated_Source\PSoC5/Timer_48MHz.c **** }
 418              		.loc 1 363 0
 419 000a 1846     		mov	r0, r3
 420 000c BD46     		mov	sp, r7
 421              		.cfi_def_cfa_register 13
 422              		@ sp needed
 423 000e 5DF8047B 		ldr	r7, [sp], #4
 424              		.cfi_restore 7
 425              		.cfi_def_cfa_offset 0
 426 0012 7047     		bx	lr
 427              	.L27:
 428              		.align	2
 429              	.L26:
 430 0014 0C4F0040 		.word	1073762060
 431              		.cfi_endproc
 432              	.LFE7:
 433              		.size	Timer_48MHz_ReadControlRegister, .-Timer_48MHz_ReadControlRegister
 434              		.section	.text.Timer_48MHz_WriteControlRegister,"ax",%progbits
 435              		.align	2
ARM GAS  C:\Users\bmt\AppData\Local\Temp\cctdXMto.s 			page 15


 436              		.global	Timer_48MHz_WriteControlRegister
 437              		.thumb
 438              		.thumb_func
 439              		.type	Timer_48MHz_WriteControlRegister, %function
 440              	Timer_48MHz_WriteControlRegister:
 441              	.LFB8:
 364:Generated_Source\PSoC5/Timer_48MHz.c **** 
 365:Generated_Source\PSoC5/Timer_48MHz.c **** 
 366:Generated_Source\PSoC5/Timer_48MHz.c **** /*******************************************************************************
 367:Generated_Source\PSoC5/Timer_48MHz.c **** * Function Name: Timer_48MHz_WriteControlRegister
 368:Generated_Source\PSoC5/Timer_48MHz.c **** ********************************************************************************
 369:Generated_Source\PSoC5/Timer_48MHz.c **** *
 370:Generated_Source\PSoC5/Timer_48MHz.c **** * Summary:
 371:Generated_Source\PSoC5/Timer_48MHz.c **** *  Sets the bit-field of the control register.
 372:Generated_Source\PSoC5/Timer_48MHz.c **** *
 373:Generated_Source\PSoC5/Timer_48MHz.c **** * Parameters:
 374:Generated_Source\PSoC5/Timer_48MHz.c **** *  control: The contents of the control register
 375:Generated_Source\PSoC5/Timer_48MHz.c **** *
 376:Generated_Source\PSoC5/Timer_48MHz.c **** * Return:
 377:Generated_Source\PSoC5/Timer_48MHz.c **** *
 378:Generated_Source\PSoC5/Timer_48MHz.c **** *******************************************************************************/
 379:Generated_Source\PSoC5/Timer_48MHz.c **** void Timer_48MHz_WriteControlRegister(uint8 control) 
 380:Generated_Source\PSoC5/Timer_48MHz.c **** {
 442              		.loc 1 380 0
 443              		.cfi_startproc
 444              		@ args = 0, pretend = 0, frame = 8
 445              		@ frame_needed = 1, uses_anonymous_args = 0
 446              		@ link register save eliminated.
 447 0000 80B4     		push	{r7}
 448              		.cfi_def_cfa_offset 4
 449              		.cfi_offset 7, -4
 450 0002 83B0     		sub	sp, sp, #12
 451              		.cfi_def_cfa_offset 16
 452 0004 00AF     		add	r7, sp, #0
 453              		.cfi_def_cfa_register 7
 454 0006 0346     		mov	r3, r0
 455 0008 FB71     		strb	r3, [r7, #7]
 381:Generated_Source\PSoC5/Timer_48MHz.c ****     #if (!Timer_48MHz_UDB_CONTROL_REG_REMOVED) 
 382:Generated_Source\PSoC5/Timer_48MHz.c ****         Timer_48MHz_CONTROL = control;
 456              		.loc 1 382 0
 457 000a 044A     		ldr	r2, .L29
 458 000c FB79     		ldrb	r3, [r7, #7]
 459 000e 1370     		strb	r3, [r2]
 383:Generated_Source\PSoC5/Timer_48MHz.c ****     #else
 384:Generated_Source\PSoC5/Timer_48MHz.c ****         control = 0u;
 385:Generated_Source\PSoC5/Timer_48MHz.c ****     #endif /* (!Timer_48MHz_UDB_CONTROL_REG_REMOVED) */
 386:Generated_Source\PSoC5/Timer_48MHz.c **** }
 460              		.loc 1 386 0
 461 0010 0C37     		adds	r7, r7, #12
 462              		.cfi_def_cfa_offset 4
 463 0012 BD46     		mov	sp, r7
 464              		.cfi_def_cfa_register 13
 465              		@ sp needed
 466 0014 5DF8047B 		ldr	r7, [sp], #4
 467              		.cfi_restore 7
 468              		.cfi_def_cfa_offset 0
 469 0018 7047     		bx	lr
ARM GAS  C:\Users\bmt\AppData\Local\Temp\cctdXMto.s 			page 16


 470              	.L30:
 471 001a 00BF     		.align	2
 472              	.L29:
 473 001c 0C4F0040 		.word	1073762060
 474              		.cfi_endproc
 475              	.LFE8:
 476              		.size	Timer_48MHz_WriteControlRegister, .-Timer_48MHz_WriteControlRegister
 477              		.section	.text.Timer_48MHz_ReadPeriod,"ax",%progbits
 478              		.align	2
 479              		.global	Timer_48MHz_ReadPeriod
 480              		.thumb
 481              		.thumb_func
 482              		.type	Timer_48MHz_ReadPeriod, %function
 483              	Timer_48MHz_ReadPeriod:
 484              	.LFB9:
 387:Generated_Source\PSoC5/Timer_48MHz.c **** 
 388:Generated_Source\PSoC5/Timer_48MHz.c **** #endif /* Remove API if control register is unused */
 389:Generated_Source\PSoC5/Timer_48MHz.c **** 
 390:Generated_Source\PSoC5/Timer_48MHz.c **** 
 391:Generated_Source\PSoC5/Timer_48MHz.c **** /*******************************************************************************
 392:Generated_Source\PSoC5/Timer_48MHz.c **** * Function Name: Timer_48MHz_ReadPeriod
 393:Generated_Source\PSoC5/Timer_48MHz.c **** ********************************************************************************
 394:Generated_Source\PSoC5/Timer_48MHz.c **** *
 395:Generated_Source\PSoC5/Timer_48MHz.c **** * Summary:
 396:Generated_Source\PSoC5/Timer_48MHz.c **** *  This function returns the current value of the Period.
 397:Generated_Source\PSoC5/Timer_48MHz.c **** *
 398:Generated_Source\PSoC5/Timer_48MHz.c **** * Parameters:
 399:Generated_Source\PSoC5/Timer_48MHz.c **** *  void
 400:Generated_Source\PSoC5/Timer_48MHz.c **** *
 401:Generated_Source\PSoC5/Timer_48MHz.c **** * Return:
 402:Generated_Source\PSoC5/Timer_48MHz.c **** *  The present value of the counter.
 403:Generated_Source\PSoC5/Timer_48MHz.c **** *
 404:Generated_Source\PSoC5/Timer_48MHz.c **** *******************************************************************************/
 405:Generated_Source\PSoC5/Timer_48MHz.c **** uint16 Timer_48MHz_ReadPeriod(void) 
 406:Generated_Source\PSoC5/Timer_48MHz.c **** {
 485              		.loc 1 406 0
 486              		.cfi_startproc
 487              		@ args = 0, pretend = 0, frame = 0
 488              		@ frame_needed = 1, uses_anonymous_args = 0
 489              		@ link register save eliminated.
 490 0000 80B4     		push	{r7}
 491              		.cfi_def_cfa_offset 4
 492              		.cfi_offset 7, -4
 493 0002 00AF     		add	r7, sp, #0
 494              		.cfi_def_cfa_register 7
 407:Generated_Source\PSoC5/Timer_48MHz.c ****    #if(Timer_48MHz_UsingFixedFunction)
 408:Generated_Source\PSoC5/Timer_48MHz.c ****        return ((uint16)CY_GET_REG16(Timer_48MHz_PERIOD_LSB_PTR));
 495              		.loc 1 408 0
 496 0004 034B     		ldr	r3, .L33
 497 0006 1B88     		ldrh	r3, [r3]	@ movhi
 498 0008 9BB2     		uxth	r3, r3
 409:Generated_Source\PSoC5/Timer_48MHz.c ****    #else
 410:Generated_Source\PSoC5/Timer_48MHz.c ****        return (CY_GET_REG16(Timer_48MHz_PERIOD_LSB_PTR));
 411:Generated_Source\PSoC5/Timer_48MHz.c ****    #endif /* (Timer_48MHz_UsingFixedFunction) */
 412:Generated_Source\PSoC5/Timer_48MHz.c **** }
 499              		.loc 1 412 0
 500 000a 1846     		mov	r0, r3
ARM GAS  C:\Users\bmt\AppData\Local\Temp\cctdXMto.s 			page 17


 501 000c BD46     		mov	sp, r7
 502              		.cfi_def_cfa_register 13
 503              		@ sp needed
 504 000e 5DF8047B 		ldr	r7, [sp], #4
 505              		.cfi_restore 7
 506              		.cfi_def_cfa_offset 0
 507 0012 7047     		bx	lr
 508              	.L34:
 509              		.align	2
 510              	.L33:
 511 0014 104F0040 		.word	1073762064
 512              		.cfi_endproc
 513              	.LFE9:
 514              		.size	Timer_48MHz_ReadPeriod, .-Timer_48MHz_ReadPeriod
 515              		.section	.text.Timer_48MHz_WritePeriod,"ax",%progbits
 516              		.align	2
 517              		.global	Timer_48MHz_WritePeriod
 518              		.thumb
 519              		.thumb_func
 520              		.type	Timer_48MHz_WritePeriod, %function
 521              	Timer_48MHz_WritePeriod:
 522              	.LFB10:
 413:Generated_Source\PSoC5/Timer_48MHz.c **** 
 414:Generated_Source\PSoC5/Timer_48MHz.c **** 
 415:Generated_Source\PSoC5/Timer_48MHz.c **** /*******************************************************************************
 416:Generated_Source\PSoC5/Timer_48MHz.c **** * Function Name: Timer_48MHz_WritePeriod
 417:Generated_Source\PSoC5/Timer_48MHz.c **** ********************************************************************************
 418:Generated_Source\PSoC5/Timer_48MHz.c **** *
 419:Generated_Source\PSoC5/Timer_48MHz.c **** * Summary:
 420:Generated_Source\PSoC5/Timer_48MHz.c **** *  This function is used to change the period of the counter.  The new period
 421:Generated_Source\PSoC5/Timer_48MHz.c **** *  will be loaded the next time terminal count is detected.
 422:Generated_Source\PSoC5/Timer_48MHz.c **** *
 423:Generated_Source\PSoC5/Timer_48MHz.c **** * Parameters:
 424:Generated_Source\PSoC5/Timer_48MHz.c **** *  period: This value may be between 1 and (2^Resolution)-1.  A value of 0 will
 425:Generated_Source\PSoC5/Timer_48MHz.c **** *          result in the counter remaining at zero.
 426:Generated_Source\PSoC5/Timer_48MHz.c **** *
 427:Generated_Source\PSoC5/Timer_48MHz.c **** * Return:
 428:Generated_Source\PSoC5/Timer_48MHz.c **** *  void
 429:Generated_Source\PSoC5/Timer_48MHz.c **** *
 430:Generated_Source\PSoC5/Timer_48MHz.c **** *******************************************************************************/
 431:Generated_Source\PSoC5/Timer_48MHz.c **** void Timer_48MHz_WritePeriod(uint16 period) 
 432:Generated_Source\PSoC5/Timer_48MHz.c **** {
 523              		.loc 1 432 0
 524              		.cfi_startproc
 525              		@ args = 0, pretend = 0, frame = 16
 526              		@ frame_needed = 1, uses_anonymous_args = 0
 527              		@ link register save eliminated.
 528 0000 80B4     		push	{r7}
 529              		.cfi_def_cfa_offset 4
 530              		.cfi_offset 7, -4
 531 0002 85B0     		sub	sp, sp, #20
 532              		.cfi_def_cfa_offset 24
 533 0004 00AF     		add	r7, sp, #0
 534              		.cfi_def_cfa_register 7
 535 0006 0346     		mov	r3, r0
 536 0008 FB80     		strh	r3, [r7, #6]	@ movhi
 433:Generated_Source\PSoC5/Timer_48MHz.c ****     #if(Timer_48MHz_UsingFixedFunction)
ARM GAS  C:\Users\bmt\AppData\Local\Temp\cctdXMto.s 			page 18


 434:Generated_Source\PSoC5/Timer_48MHz.c ****         uint16 period_temp = (uint16)period;
 537              		.loc 1 434 0
 538 000a FB88     		ldrh	r3, [r7, #6]	@ movhi
 539 000c FB81     		strh	r3, [r7, #14]	@ movhi
 435:Generated_Source\PSoC5/Timer_48MHz.c ****         CY_SET_REG16(Timer_48MHz_PERIOD_LSB_PTR, period_temp);
 540              		.loc 1 435 0
 541 000e 044A     		ldr	r2, .L36
 542 0010 FB89     		ldrh	r3, [r7, #14]	@ movhi
 543 0012 1380     		strh	r3, [r2]	@ movhi
 436:Generated_Source\PSoC5/Timer_48MHz.c ****     #else
 437:Generated_Source\PSoC5/Timer_48MHz.c ****         CY_SET_REG16(Timer_48MHz_PERIOD_LSB_PTR, period);
 438:Generated_Source\PSoC5/Timer_48MHz.c ****     #endif /*Write Period value with appropriate resolution suffix depending on UDB or fixed functi
 439:Generated_Source\PSoC5/Timer_48MHz.c **** }
 544              		.loc 1 439 0
 545 0014 1437     		adds	r7, r7, #20
 546              		.cfi_def_cfa_offset 4
 547 0016 BD46     		mov	sp, r7
 548              		.cfi_def_cfa_register 13
 549              		@ sp needed
 550 0018 5DF8047B 		ldr	r7, [sp], #4
 551              		.cfi_restore 7
 552              		.cfi_def_cfa_offset 0
 553 001c 7047     		bx	lr
 554              	.L37:
 555 001e 00BF     		.align	2
 556              	.L36:
 557 0020 104F0040 		.word	1073762064
 558              		.cfi_endproc
 559              	.LFE10:
 560              		.size	Timer_48MHz_WritePeriod, .-Timer_48MHz_WritePeriod
 561              		.section	.text.Timer_48MHz_ReadCapture,"ax",%progbits
 562              		.align	2
 563              		.global	Timer_48MHz_ReadCapture
 564              		.thumb
 565              		.thumb_func
 566              		.type	Timer_48MHz_ReadCapture, %function
 567              	Timer_48MHz_ReadCapture:
 568              	.LFB11:
 440:Generated_Source\PSoC5/Timer_48MHz.c **** 
 441:Generated_Source\PSoC5/Timer_48MHz.c **** 
 442:Generated_Source\PSoC5/Timer_48MHz.c **** /*******************************************************************************
 443:Generated_Source\PSoC5/Timer_48MHz.c **** * Function Name: Timer_48MHz_ReadCapture
 444:Generated_Source\PSoC5/Timer_48MHz.c **** ********************************************************************************
 445:Generated_Source\PSoC5/Timer_48MHz.c **** *
 446:Generated_Source\PSoC5/Timer_48MHz.c **** * Summary:
 447:Generated_Source\PSoC5/Timer_48MHz.c **** *  This function returns the last value captured.
 448:Generated_Source\PSoC5/Timer_48MHz.c **** *
 449:Generated_Source\PSoC5/Timer_48MHz.c **** * Parameters:
 450:Generated_Source\PSoC5/Timer_48MHz.c **** *  void
 451:Generated_Source\PSoC5/Timer_48MHz.c **** *
 452:Generated_Source\PSoC5/Timer_48MHz.c **** * Return:
 453:Generated_Source\PSoC5/Timer_48MHz.c **** *  Present Capture value.
 454:Generated_Source\PSoC5/Timer_48MHz.c **** *
 455:Generated_Source\PSoC5/Timer_48MHz.c **** *******************************************************************************/
 456:Generated_Source\PSoC5/Timer_48MHz.c **** uint16 Timer_48MHz_ReadCapture(void) 
 457:Generated_Source\PSoC5/Timer_48MHz.c **** {
 569              		.loc 1 457 0
ARM GAS  C:\Users\bmt\AppData\Local\Temp\cctdXMto.s 			page 19


 570              		.cfi_startproc
 571              		@ args = 0, pretend = 0, frame = 0
 572              		@ frame_needed = 1, uses_anonymous_args = 0
 573              		@ link register save eliminated.
 574 0000 80B4     		push	{r7}
 575              		.cfi_def_cfa_offset 4
 576              		.cfi_offset 7, -4
 577 0002 00AF     		add	r7, sp, #0
 578              		.cfi_def_cfa_register 7
 458:Generated_Source\PSoC5/Timer_48MHz.c ****    #if(Timer_48MHz_UsingFixedFunction)
 459:Generated_Source\PSoC5/Timer_48MHz.c ****        return ((uint16)CY_GET_REG16(Timer_48MHz_CAPTURE_LSB_PTR));
 579              		.loc 1 459 0
 580 0004 034B     		ldr	r3, .L40
 581 0006 1B88     		ldrh	r3, [r3]	@ movhi
 582 0008 9BB2     		uxth	r3, r3
 460:Generated_Source\PSoC5/Timer_48MHz.c ****    #else
 461:Generated_Source\PSoC5/Timer_48MHz.c ****        return (CY_GET_REG16(Timer_48MHz_CAPTURE_LSB_PTR));
 462:Generated_Source\PSoC5/Timer_48MHz.c ****    #endif /* (Timer_48MHz_UsingFixedFunction) */
 463:Generated_Source\PSoC5/Timer_48MHz.c **** }
 583              		.loc 1 463 0
 584 000a 1846     		mov	r0, r3
 585 000c BD46     		mov	sp, r7
 586              		.cfi_def_cfa_register 13
 587              		@ sp needed
 588 000e 5DF8047B 		ldr	r7, [sp], #4
 589              		.cfi_restore 7
 590              		.cfi_def_cfa_offset 0
 591 0012 7047     		bx	lr
 592              	.L41:
 593              		.align	2
 594              	.L40:
 595 0014 144F0040 		.word	1073762068
 596              		.cfi_endproc
 597              	.LFE11:
 598              		.size	Timer_48MHz_ReadCapture, .-Timer_48MHz_ReadCapture
 599              		.section	.text.Timer_48MHz_WriteCounter,"ax",%progbits
 600              		.align	2
 601              		.global	Timer_48MHz_WriteCounter
 602              		.thumb
 603              		.thumb_func
 604              		.type	Timer_48MHz_WriteCounter, %function
 605              	Timer_48MHz_WriteCounter:
 606              	.LFB12:
 464:Generated_Source\PSoC5/Timer_48MHz.c **** 
 465:Generated_Source\PSoC5/Timer_48MHz.c **** 
 466:Generated_Source\PSoC5/Timer_48MHz.c **** /*******************************************************************************
 467:Generated_Source\PSoC5/Timer_48MHz.c **** * Function Name: Timer_48MHz_WriteCounter
 468:Generated_Source\PSoC5/Timer_48MHz.c **** ********************************************************************************
 469:Generated_Source\PSoC5/Timer_48MHz.c **** *
 470:Generated_Source\PSoC5/Timer_48MHz.c **** * Summary:
 471:Generated_Source\PSoC5/Timer_48MHz.c **** *  This funtion is used to set the counter to a specific value
 472:Generated_Source\PSoC5/Timer_48MHz.c **** *
 473:Generated_Source\PSoC5/Timer_48MHz.c **** * Parameters:
 474:Generated_Source\PSoC5/Timer_48MHz.c **** *  counter:  New counter value.
 475:Generated_Source\PSoC5/Timer_48MHz.c **** *
 476:Generated_Source\PSoC5/Timer_48MHz.c **** * Return:
 477:Generated_Source\PSoC5/Timer_48MHz.c **** *  void
ARM GAS  C:\Users\bmt\AppData\Local\Temp\cctdXMto.s 			page 20


 478:Generated_Source\PSoC5/Timer_48MHz.c **** *
 479:Generated_Source\PSoC5/Timer_48MHz.c **** *******************************************************************************/
 480:Generated_Source\PSoC5/Timer_48MHz.c **** void Timer_48MHz_WriteCounter(uint16 counter) 
 481:Generated_Source\PSoC5/Timer_48MHz.c **** {
 607              		.loc 1 481 0
 608              		.cfi_startproc
 609              		@ args = 0, pretend = 0, frame = 8
 610              		@ frame_needed = 1, uses_anonymous_args = 0
 611              		@ link register save eliminated.
 612 0000 80B4     		push	{r7}
 613              		.cfi_def_cfa_offset 4
 614              		.cfi_offset 7, -4
 615 0002 83B0     		sub	sp, sp, #12
 616              		.cfi_def_cfa_offset 16
 617 0004 00AF     		add	r7, sp, #0
 618              		.cfi_def_cfa_register 7
 619 0006 0346     		mov	r3, r0
 620 0008 FB80     		strh	r3, [r7, #6]	@ movhi
 482:Generated_Source\PSoC5/Timer_48MHz.c ****    #if(Timer_48MHz_UsingFixedFunction)
 483:Generated_Source\PSoC5/Timer_48MHz.c ****         /* This functionality is removed until a FixedFunction HW update to
 484:Generated_Source\PSoC5/Timer_48MHz.c ****          * allow this register to be written
 485:Generated_Source\PSoC5/Timer_48MHz.c ****          */
 486:Generated_Source\PSoC5/Timer_48MHz.c ****         CY_SET_REG16(Timer_48MHz_COUNTER_LSB_PTR, (uint16)counter);
 621              		.loc 1 486 0
 622 000a 044A     		ldr	r2, .L43
 623 000c FB88     		ldrh	r3, [r7, #6]	@ movhi
 624 000e 1380     		strh	r3, [r2]	@ movhi
 487:Generated_Source\PSoC5/Timer_48MHz.c ****         
 488:Generated_Source\PSoC5/Timer_48MHz.c ****     #else
 489:Generated_Source\PSoC5/Timer_48MHz.c ****         CY_SET_REG16(Timer_48MHz_COUNTER_LSB_PTR, counter);
 490:Generated_Source\PSoC5/Timer_48MHz.c ****     #endif /* Set Write Counter only for the UDB implementation (Write Counter not available in fix
 491:Generated_Source\PSoC5/Timer_48MHz.c **** }
 625              		.loc 1 491 0
 626 0010 0C37     		adds	r7, r7, #12
 627              		.cfi_def_cfa_offset 4
 628 0012 BD46     		mov	sp, r7
 629              		.cfi_def_cfa_register 13
 630              		@ sp needed
 631 0014 5DF8047B 		ldr	r7, [sp], #4
 632              		.cfi_restore 7
 633              		.cfi_def_cfa_offset 0
 634 0018 7047     		bx	lr
 635              	.L44:
 636 001a 00BF     		.align	2
 637              	.L43:
 638 001c 124F0040 		.word	1073762066
 639              		.cfi_endproc
 640              	.LFE12:
 641              		.size	Timer_48MHz_WriteCounter, .-Timer_48MHz_WriteCounter
 642              		.section	.text.Timer_48MHz_ReadCounter,"ax",%progbits
 643              		.align	2
 644              		.global	Timer_48MHz_ReadCounter
 645              		.thumb
 646              		.thumb_func
 647              		.type	Timer_48MHz_ReadCounter, %function
 648              	Timer_48MHz_ReadCounter:
 649              	.LFB13:
ARM GAS  C:\Users\bmt\AppData\Local\Temp\cctdXMto.s 			page 21


 492:Generated_Source\PSoC5/Timer_48MHz.c **** 
 493:Generated_Source\PSoC5/Timer_48MHz.c **** 
 494:Generated_Source\PSoC5/Timer_48MHz.c **** /*******************************************************************************
 495:Generated_Source\PSoC5/Timer_48MHz.c **** * Function Name: Timer_48MHz_ReadCounter
 496:Generated_Source\PSoC5/Timer_48MHz.c **** ********************************************************************************
 497:Generated_Source\PSoC5/Timer_48MHz.c **** *
 498:Generated_Source\PSoC5/Timer_48MHz.c **** * Summary:
 499:Generated_Source\PSoC5/Timer_48MHz.c **** *  This function returns the current counter value.
 500:Generated_Source\PSoC5/Timer_48MHz.c **** *
 501:Generated_Source\PSoC5/Timer_48MHz.c **** * Parameters:
 502:Generated_Source\PSoC5/Timer_48MHz.c **** *  void
 503:Generated_Source\PSoC5/Timer_48MHz.c **** *
 504:Generated_Source\PSoC5/Timer_48MHz.c **** * Return:
 505:Generated_Source\PSoC5/Timer_48MHz.c **** *  Present compare value.
 506:Generated_Source\PSoC5/Timer_48MHz.c **** *
 507:Generated_Source\PSoC5/Timer_48MHz.c **** *******************************************************************************/
 508:Generated_Source\PSoC5/Timer_48MHz.c **** uint16 Timer_48MHz_ReadCounter(void) 
 509:Generated_Source\PSoC5/Timer_48MHz.c **** {
 650              		.loc 1 509 0
 651              		.cfi_startproc
 652              		@ args = 0, pretend = 0, frame = 0
 653              		@ frame_needed = 1, uses_anonymous_args = 0
 654              		@ link register save eliminated.
 655 0000 80B4     		push	{r7}
 656              		.cfi_def_cfa_offset 4
 657              		.cfi_offset 7, -4
 658 0002 00AF     		add	r7, sp, #0
 659              		.cfi_def_cfa_register 7
 510:Generated_Source\PSoC5/Timer_48MHz.c ****     /* Force capture by reading Accumulator */
 511:Generated_Source\PSoC5/Timer_48MHz.c ****     /* Must first do a software capture to be able to read the counter */
 512:Generated_Source\PSoC5/Timer_48MHz.c ****     /* It is up to the user code to make sure there isn't already captured data in the FIFO */
 513:Generated_Source\PSoC5/Timer_48MHz.c ****     #if(Timer_48MHz_UsingFixedFunction)
 514:Generated_Source\PSoC5/Timer_48MHz.c ****         (void)CY_GET_REG16(Timer_48MHz_COUNTER_LSB_PTR);
 660              		.loc 1 514 0
 661 0004 044B     		ldr	r3, .L47
 662 0006 1B88     		ldrh	r3, [r3]	@ movhi
 515:Generated_Source\PSoC5/Timer_48MHz.c ****     #else
 516:Generated_Source\PSoC5/Timer_48MHz.c ****         (void)CY_GET_REG8(Timer_48MHz_COUNTER_LSB_PTR_8BIT);
 517:Generated_Source\PSoC5/Timer_48MHz.c ****     #endif/* (Timer_48MHz_UsingFixedFunction) */
 518:Generated_Source\PSoC5/Timer_48MHz.c **** 
 519:Generated_Source\PSoC5/Timer_48MHz.c ****     /* Read the data from the FIFO (or capture register for Fixed Function)*/
 520:Generated_Source\PSoC5/Timer_48MHz.c ****     #if(Timer_48MHz_UsingFixedFunction)
 521:Generated_Source\PSoC5/Timer_48MHz.c ****         return ((uint16)CY_GET_REG16(Timer_48MHz_CAPTURE_LSB_PTR));
 663              		.loc 1 521 0
 664 0008 044B     		ldr	r3, .L47+4
 665 000a 1B88     		ldrh	r3, [r3]	@ movhi
 666 000c 9BB2     		uxth	r3, r3
 522:Generated_Source\PSoC5/Timer_48MHz.c ****     #else
 523:Generated_Source\PSoC5/Timer_48MHz.c ****         return (CY_GET_REG16(Timer_48MHz_CAPTURE_LSB_PTR));
 524:Generated_Source\PSoC5/Timer_48MHz.c ****     #endif /* (Timer_48MHz_UsingFixedFunction) */
 525:Generated_Source\PSoC5/Timer_48MHz.c **** }
 667              		.loc 1 525 0
 668 000e 1846     		mov	r0, r3
 669 0010 BD46     		mov	sp, r7
 670              		.cfi_def_cfa_register 13
 671              		@ sp needed
 672 0012 5DF8047B 		ldr	r7, [sp], #4
ARM GAS  C:\Users\bmt\AppData\Local\Temp\cctdXMto.s 			page 22


 673              		.cfi_restore 7
 674              		.cfi_def_cfa_offset 0
 675 0016 7047     		bx	lr
 676              	.L48:
 677              		.align	2
 678              	.L47:
 679 0018 124F0040 		.word	1073762066
 680 001c 144F0040 		.word	1073762068
 681              		.cfi_endproc
 682              	.LFE13:
 683              		.size	Timer_48MHz_ReadCounter, .-Timer_48MHz_ReadCounter
 684              		.text
 685              	.Letext0:
 686              		.file 2 "Generated_Source\\PSoC5\\cytypes.h"
 687              		.section	.debug_info,"",%progbits
 688              	.Ldebug_info0:
 689 0000 3A020000 		.4byte	0x23a
 690 0004 0400     		.2byte	0x4
 691 0006 00000000 		.4byte	.Ldebug_abbrev0
 692 000a 04       		.byte	0x4
 693 000b 01       		.uleb128 0x1
 694 000c F3000000 		.4byte	.LASF35
 695 0010 01       		.byte	0x1
 696 0011 8F010000 		.4byte	.LASF36
 697 0015 07030000 		.4byte	.LASF37
 698 0019 00000000 		.4byte	.Ldebug_ranges0+0
 699 001d 00000000 		.4byte	0
 700 0021 00000000 		.4byte	.Ldebug_line0
 701 0025 02       		.uleb128 0x2
 702 0026 01       		.byte	0x1
 703 0027 06       		.byte	0x6
 704 0028 E3020000 		.4byte	.LASF0
 705 002c 02       		.uleb128 0x2
 706 002d 01       		.byte	0x1
 707 002e 08       		.byte	0x8
 708 002f E5000000 		.4byte	.LASF1
 709 0033 02       		.uleb128 0x2
 710 0034 02       		.byte	0x2
 711 0035 05       		.byte	0x5
 712 0036 AF020000 		.4byte	.LASF2
 713 003a 02       		.uleb128 0x2
 714 003b 02       		.byte	0x2
 715 003c 07       		.byte	0x7
 716 003d 19000000 		.4byte	.LASF3
 717 0041 02       		.uleb128 0x2
 718 0042 04       		.byte	0x4
 719 0043 05       		.byte	0x5
 720 0044 D5020000 		.4byte	.LASF4
 721 0048 02       		.uleb128 0x2
 722 0049 04       		.byte	0x4
 723 004a 07       		.byte	0x7
 724 004b AD000000 		.4byte	.LASF5
 725 004f 02       		.uleb128 0x2
 726 0050 08       		.byte	0x8
 727 0051 05       		.byte	0x5
 728 0052 73020000 		.4byte	.LASF6
 729 0056 02       		.uleb128 0x2
ARM GAS  C:\Users\bmt\AppData\Local\Temp\cctdXMto.s 			page 23


 730 0057 08       		.byte	0x8
 731 0058 07       		.byte	0x7
 732 0059 DA010000 		.4byte	.LASF7
 733 005d 03       		.uleb128 0x3
 734 005e 04       		.byte	0x4
 735 005f 05       		.byte	0x5
 736 0060 696E7400 		.ascii	"int\000"
 737 0064 02       		.uleb128 0x2
 738 0065 04       		.byte	0x4
 739 0066 07       		.byte	0x7
 740 0067 B4010000 		.4byte	.LASF8
 741 006b 04       		.uleb128 0x4
 742 006c BF000000 		.4byte	.LASF9
 743 0070 02       		.byte	0x2
 744 0071 9201     		.2byte	0x192
 745 0073 2C000000 		.4byte	0x2c
 746 0077 04       		.uleb128 0x4
 747 0078 88010000 		.4byte	.LASF10
 748 007c 02       		.byte	0x2
 749 007d 9301     		.2byte	0x193
 750 007f 3A000000 		.4byte	0x3a
 751 0083 02       		.uleb128 0x2
 752 0084 04       		.byte	0x4
 753 0085 04       		.byte	0x4
 754 0086 76000000 		.4byte	.LASF11
 755 008a 02       		.uleb128 0x2
 756 008b 08       		.byte	0x8
 757 008c 04       		.byte	0x4
 758 008d 81010000 		.4byte	.LASF12
 759 0091 02       		.uleb128 0x2
 760 0092 01       		.byte	0x1
 761 0093 08       		.byte	0x8
 762 0094 DE020000 		.4byte	.LASF13
 763 0098 04       		.uleb128 0x4
 764 0099 A8000000 		.4byte	.LASF14
 765 009d 02       		.byte	0x2
 766 009e 3C02     		.2byte	0x23c
 767 00a0 A4000000 		.4byte	0xa4
 768 00a4 05       		.uleb128 0x5
 769 00a5 6B000000 		.4byte	0x6b
 770 00a9 04       		.uleb128 0x4
 771 00aa 00000000 		.4byte	.LASF15
 772 00ae 02       		.byte	0x2
 773 00af 3D02     		.2byte	0x23d
 774 00b1 B5000000 		.4byte	0xb5
 775 00b5 05       		.uleb128 0x5
 776 00b6 77000000 		.4byte	0x77
 777 00ba 02       		.uleb128 0x2
 778 00bb 04       		.byte	0x4
 779 00bc 07       		.byte	0x7
 780 00bd 6A020000 		.4byte	.LASF16
 781 00c1 06       		.uleb128 0x6
 782 00c2 84000000 		.4byte	.LASF17
 783 00c6 01       		.byte	0x1
 784 00c7 2B       		.byte	0x2b
 785 00c8 00000000 		.4byte	.LFB0
 786 00cc 9C000000 		.4byte	.LFE0-.LFB0
ARM GAS  C:\Users\bmt\AppData\Local\Temp\cctdXMto.s 			page 24


 787 00d0 01       		.uleb128 0x1
 788 00d1 9C       		.byte	0x9c
 789 00d2 07       		.uleb128 0x7
 790 00d3 95000000 		.4byte	.LASF18
 791 00d7 01       		.byte	0x1
 792 00d8 B4       		.byte	0xb4
 793 00d9 00000000 		.4byte	.LFB1
 794 00dd 48000000 		.4byte	.LFE1-.LFB1
 795 00e1 01       		.uleb128 0x1
 796 00e2 9C       		.byte	0x9c
 797 00e3 06       		.uleb128 0x6
 798 00e4 64000000 		.4byte	.LASF19
 799 00e8 01       		.byte	0x1
 800 00e9 D7       		.byte	0xd7
 801 00ea 00000000 		.4byte	.LFB2
 802 00ee 20000000 		.4byte	.LFE2-.LFB2
 803 00f2 01       		.uleb128 0x1
 804 00f3 9C       		.byte	0x9c
 805 00f4 07       		.uleb128 0x7
 806 00f5 2D020000 		.4byte	.LASF20
 807 00f9 01       		.byte	0x1
 808 00fa F7       		.byte	0xf7
 809 00fb 00000000 		.4byte	.LFB3
 810 00ff 48000000 		.4byte	.LFE3-.LFB3
 811 0103 01       		.uleb128 0x1
 812 0104 9C       		.byte	0x9c
 813 0105 08       		.uleb128 0x8
 814 0106 10020000 		.4byte	.LASF24
 815 010a 01       		.byte	0x1
 816 010b 1701     		.2byte	0x117
 817 010d 00000000 		.4byte	.LFB4
 818 0111 20000000 		.4byte	.LFE4-.LFB4
 819 0115 01       		.uleb128 0x1
 820 0116 9C       		.byte	0x9c
 821 0117 2B010000 		.4byte	0x12b
 822 011b 09       		.uleb128 0x9
 823 011c 81020000 		.4byte	.LASF26
 824 0120 01       		.byte	0x1
 825 0121 1701     		.2byte	0x117
 826 0123 6B000000 		.4byte	0x6b
 827 0127 02       		.uleb128 0x2
 828 0128 91       		.byte	0x91
 829 0129 77       		.sleb128 -9
 830 012a 00       		.byte	0
 831 012b 0A       		.uleb128 0xa
 832 012c B9020000 		.4byte	.LASF21
 833 0130 01       		.byte	0x1
 834 0131 2E01     		.2byte	0x12e
 835 0133 00000000 		.4byte	.LFB5
 836 0137 14000000 		.4byte	.LFE5-.LFB5
 837 013b 01       		.uleb128 0x1
 838 013c 9C       		.byte	0x9c
 839 013d 0B       		.uleb128 0xb
 840 013e F1010000 		.4byte	.LASF22
 841 0142 01       		.byte	0x1
 842 0143 4D01     		.2byte	0x14d
 843 0145 6B000000 		.4byte	0x6b
ARM GAS  C:\Users\bmt\AppData\Local\Temp\cctdXMto.s 			page 25


 844 0149 00000000 		.4byte	.LFB6
 845 014d 18000000 		.4byte	.LFE6-.LFB6
 846 0151 01       		.uleb128 0x1
 847 0152 9C       		.byte	0x9c
 848 0153 0B       		.uleb128 0xb
 849 0154 8F020000 		.4byte	.LASF23
 850 0158 01       		.byte	0x1
 851 0159 6401     		.2byte	0x164
 852 015b 6B000000 		.4byte	0x6b
 853 015f 00000000 		.4byte	.LFB7
 854 0163 18000000 		.4byte	.LFE7-.LFB7
 855 0167 01       		.uleb128 0x1
 856 0168 9C       		.byte	0x9c
 857 0169 08       		.uleb128 0x8
 858 016a 2C000000 		.4byte	.LASF25
 859 016e 01       		.byte	0x1
 860 016f 7B01     		.2byte	0x17b
 861 0171 00000000 		.4byte	.LFB8
 862 0175 20000000 		.4byte	.LFE8-.LFB8
 863 0179 01       		.uleb128 0x1
 864 017a 9C       		.byte	0x9c
 865 017b 8F010000 		.4byte	0x18f
 866 017f 09       		.uleb128 0x9
 867 0180 C5000000 		.4byte	.LASF27
 868 0184 01       		.byte	0x1
 869 0185 7B01     		.2byte	0x17b
 870 0187 6B000000 		.4byte	0x6b
 871 018b 02       		.uleb128 0x2
 872 018c 91       		.byte	0x91
 873 018d 77       		.sleb128 -9
 874 018e 00       		.byte	0
 875 018f 0B       		.uleb128 0xb
 876 0190 4D000000 		.4byte	.LASF28
 877 0194 01       		.byte	0x1
 878 0195 9501     		.2byte	0x195
 879 0197 77000000 		.4byte	0x77
 880 019b 00000000 		.4byte	.LFB9
 881 019f 18000000 		.4byte	.LFE9-.LFB9
 882 01a3 01       		.uleb128 0x1
 883 01a4 9C       		.byte	0x9c
 884 01a5 08       		.uleb128 0x8
 885 01a6 CD000000 		.4byte	.LASF29
 886 01aa 01       		.byte	0x1
 887 01ab AF01     		.2byte	0x1af
 888 01ad 00000000 		.4byte	.LFB10
 889 01b1 24000000 		.4byte	.LFE10-.LFB10
 890 01b5 01       		.uleb128 0x1
 891 01b6 9C       		.byte	0x9c
 892 01b7 DA010000 		.4byte	0x1da
 893 01bb 09       		.uleb128 0x9
 894 01bc 06000000 		.4byte	.LASF30
 895 01c0 01       		.byte	0x1
 896 01c1 AF01     		.2byte	0x1af
 897 01c3 77000000 		.4byte	0x77
 898 01c7 02       		.uleb128 0x2
 899 01c8 91       		.byte	0x91
 900 01c9 6E       		.sleb128 -18
ARM GAS  C:\Users\bmt\AppData\Local\Temp\cctdXMto.s 			page 26


 901 01ca 0C       		.uleb128 0xc
 902 01cb 0D000000 		.4byte	.LASF38
 903 01cf 01       		.byte	0x1
 904 01d0 B201     		.2byte	0x1b2
 905 01d2 77000000 		.4byte	0x77
 906 01d6 02       		.uleb128 0x2
 907 01d7 91       		.byte	0x91
 908 01d8 76       		.sleb128 -10
 909 01d9 00       		.byte	0
 910 01da 0B       		.uleb128 0xb
 911 01db 3E020000 		.4byte	.LASF31
 912 01df 01       		.byte	0x1
 913 01e0 C801     		.2byte	0x1c8
 914 01e2 77000000 		.4byte	0x77
 915 01e6 00000000 		.4byte	.LFB11
 916 01ea 18000000 		.4byte	.LFE11-.LFB11
 917 01ee 01       		.uleb128 0x1
 918 01ef 9C       		.byte	0x9c
 919 01f0 08       		.uleb128 0x8
 920 01f1 C1010000 		.4byte	.LASF32
 921 01f5 01       		.byte	0x1
 922 01f6 E001     		.2byte	0x1e0
 923 01f8 00000000 		.4byte	.LFB12
 924 01fc 20000000 		.4byte	.LFE12-.LFB12
 925 0200 01       		.uleb128 0x1
 926 0201 9C       		.byte	0x9c
 927 0202 16020000 		.4byte	0x216
 928 0206 09       		.uleb128 0x9
 929 0207 7C000000 		.4byte	.LASF33
 930 020b 01       		.byte	0x1
 931 020c E001     		.2byte	0x1e0
 932 020e 77000000 		.4byte	0x77
 933 0212 02       		.uleb128 0x2
 934 0213 91       		.byte	0x91
 935 0214 76       		.sleb128 -10
 936 0215 00       		.byte	0
 937 0216 0B       		.uleb128 0xb
 938 0217 EF020000 		.4byte	.LASF34
 939 021b 01       		.byte	0x1
 940 021c FC01     		.2byte	0x1fc
 941 021e 77000000 		.4byte	0x77
 942 0222 00000000 		.4byte	.LFB13
 943 0226 20000000 		.4byte	.LFE13-.LFB13
 944 022a 01       		.uleb128 0x1
 945 022b 9C       		.byte	0x9c
 946 022c 0D       		.uleb128 0xd
 947 022d 56020000 		.4byte	.LASF39
 948 0231 01       		.byte	0x1
 949 0232 1A       		.byte	0x1a
 950 0233 6B000000 		.4byte	0x6b
 951 0237 05       		.uleb128 0x5
 952 0238 03       		.byte	0x3
 953 0239 00000000 		.4byte	Timer_48MHz_initVar
 954 023d 00       		.byte	0
 955              		.section	.debug_abbrev,"",%progbits
 956              	.Ldebug_abbrev0:
 957 0000 01       		.uleb128 0x1
ARM GAS  C:\Users\bmt\AppData\Local\Temp\cctdXMto.s 			page 27


 958 0001 11       		.uleb128 0x11
 959 0002 01       		.byte	0x1
 960 0003 25       		.uleb128 0x25
 961 0004 0E       		.uleb128 0xe
 962 0005 13       		.uleb128 0x13
 963 0006 0B       		.uleb128 0xb
 964 0007 03       		.uleb128 0x3
 965 0008 0E       		.uleb128 0xe
 966 0009 1B       		.uleb128 0x1b
 967 000a 0E       		.uleb128 0xe
 968 000b 55       		.uleb128 0x55
 969 000c 17       		.uleb128 0x17
 970 000d 11       		.uleb128 0x11
 971 000e 01       		.uleb128 0x1
 972 000f 10       		.uleb128 0x10
 973 0010 17       		.uleb128 0x17
 974 0011 00       		.byte	0
 975 0012 00       		.byte	0
 976 0013 02       		.uleb128 0x2
 977 0014 24       		.uleb128 0x24
 978 0015 00       		.byte	0
 979 0016 0B       		.uleb128 0xb
 980 0017 0B       		.uleb128 0xb
 981 0018 3E       		.uleb128 0x3e
 982 0019 0B       		.uleb128 0xb
 983 001a 03       		.uleb128 0x3
 984 001b 0E       		.uleb128 0xe
 985 001c 00       		.byte	0
 986 001d 00       		.byte	0
 987 001e 03       		.uleb128 0x3
 988 001f 24       		.uleb128 0x24
 989 0020 00       		.byte	0
 990 0021 0B       		.uleb128 0xb
 991 0022 0B       		.uleb128 0xb
 992 0023 3E       		.uleb128 0x3e
 993 0024 0B       		.uleb128 0xb
 994 0025 03       		.uleb128 0x3
 995 0026 08       		.uleb128 0x8
 996 0027 00       		.byte	0
 997 0028 00       		.byte	0
 998 0029 04       		.uleb128 0x4
 999 002a 16       		.uleb128 0x16
 1000 002b 00       		.byte	0
 1001 002c 03       		.uleb128 0x3
 1002 002d 0E       		.uleb128 0xe
 1003 002e 3A       		.uleb128 0x3a
 1004 002f 0B       		.uleb128 0xb
 1005 0030 3B       		.uleb128 0x3b
 1006 0031 05       		.uleb128 0x5
 1007 0032 49       		.uleb128 0x49
 1008 0033 13       		.uleb128 0x13
 1009 0034 00       		.byte	0
 1010 0035 00       		.byte	0
 1011 0036 05       		.uleb128 0x5
 1012 0037 35       		.uleb128 0x35
 1013 0038 00       		.byte	0
 1014 0039 49       		.uleb128 0x49
ARM GAS  C:\Users\bmt\AppData\Local\Temp\cctdXMto.s 			page 28


 1015 003a 13       		.uleb128 0x13
 1016 003b 00       		.byte	0
 1017 003c 00       		.byte	0
 1018 003d 06       		.uleb128 0x6
 1019 003e 2E       		.uleb128 0x2e
 1020 003f 00       		.byte	0
 1021 0040 3F       		.uleb128 0x3f
 1022 0041 19       		.uleb128 0x19
 1023 0042 03       		.uleb128 0x3
 1024 0043 0E       		.uleb128 0xe
 1025 0044 3A       		.uleb128 0x3a
 1026 0045 0B       		.uleb128 0xb
 1027 0046 3B       		.uleb128 0x3b
 1028 0047 0B       		.uleb128 0xb
 1029 0048 27       		.uleb128 0x27
 1030 0049 19       		.uleb128 0x19
 1031 004a 11       		.uleb128 0x11
 1032 004b 01       		.uleb128 0x1
 1033 004c 12       		.uleb128 0x12
 1034 004d 06       		.uleb128 0x6
 1035 004e 40       		.uleb128 0x40
 1036 004f 18       		.uleb128 0x18
 1037 0050 9642     		.uleb128 0x2116
 1038 0052 19       		.uleb128 0x19
 1039 0053 00       		.byte	0
 1040 0054 00       		.byte	0
 1041 0055 07       		.uleb128 0x7
 1042 0056 2E       		.uleb128 0x2e
 1043 0057 00       		.byte	0
 1044 0058 3F       		.uleb128 0x3f
 1045 0059 19       		.uleb128 0x19
 1046 005a 03       		.uleb128 0x3
 1047 005b 0E       		.uleb128 0xe
 1048 005c 3A       		.uleb128 0x3a
 1049 005d 0B       		.uleb128 0xb
 1050 005e 3B       		.uleb128 0x3b
 1051 005f 0B       		.uleb128 0xb
 1052 0060 27       		.uleb128 0x27
 1053 0061 19       		.uleb128 0x19
 1054 0062 11       		.uleb128 0x11
 1055 0063 01       		.uleb128 0x1
 1056 0064 12       		.uleb128 0x12
 1057 0065 06       		.uleb128 0x6
 1058 0066 40       		.uleb128 0x40
 1059 0067 18       		.uleb128 0x18
 1060 0068 9742     		.uleb128 0x2117
 1061 006a 19       		.uleb128 0x19
 1062 006b 00       		.byte	0
 1063 006c 00       		.byte	0
 1064 006d 08       		.uleb128 0x8
 1065 006e 2E       		.uleb128 0x2e
 1066 006f 01       		.byte	0x1
 1067 0070 3F       		.uleb128 0x3f
 1068 0071 19       		.uleb128 0x19
 1069 0072 03       		.uleb128 0x3
 1070 0073 0E       		.uleb128 0xe
 1071 0074 3A       		.uleb128 0x3a
ARM GAS  C:\Users\bmt\AppData\Local\Temp\cctdXMto.s 			page 29


 1072 0075 0B       		.uleb128 0xb
 1073 0076 3B       		.uleb128 0x3b
 1074 0077 05       		.uleb128 0x5
 1075 0078 27       		.uleb128 0x27
 1076 0079 19       		.uleb128 0x19
 1077 007a 11       		.uleb128 0x11
 1078 007b 01       		.uleb128 0x1
 1079 007c 12       		.uleb128 0x12
 1080 007d 06       		.uleb128 0x6
 1081 007e 40       		.uleb128 0x40
 1082 007f 18       		.uleb128 0x18
 1083 0080 9742     		.uleb128 0x2117
 1084 0082 19       		.uleb128 0x19
 1085 0083 01       		.uleb128 0x1
 1086 0084 13       		.uleb128 0x13
 1087 0085 00       		.byte	0
 1088 0086 00       		.byte	0
 1089 0087 09       		.uleb128 0x9
 1090 0088 05       		.uleb128 0x5
 1091 0089 00       		.byte	0
 1092 008a 03       		.uleb128 0x3
 1093 008b 0E       		.uleb128 0xe
 1094 008c 3A       		.uleb128 0x3a
 1095 008d 0B       		.uleb128 0xb
 1096 008e 3B       		.uleb128 0x3b
 1097 008f 05       		.uleb128 0x5
 1098 0090 49       		.uleb128 0x49
 1099 0091 13       		.uleb128 0x13
 1100 0092 02       		.uleb128 0x2
 1101 0093 18       		.uleb128 0x18
 1102 0094 00       		.byte	0
 1103 0095 00       		.byte	0
 1104 0096 0A       		.uleb128 0xa
 1105 0097 2E       		.uleb128 0x2e
 1106 0098 00       		.byte	0
 1107 0099 3F       		.uleb128 0x3f
 1108 009a 19       		.uleb128 0x19
 1109 009b 03       		.uleb128 0x3
 1110 009c 0E       		.uleb128 0xe
 1111 009d 3A       		.uleb128 0x3a
 1112 009e 0B       		.uleb128 0xb
 1113 009f 3B       		.uleb128 0x3b
 1114 00a0 05       		.uleb128 0x5
 1115 00a1 27       		.uleb128 0x27
 1116 00a2 19       		.uleb128 0x19
 1117 00a3 11       		.uleb128 0x11
 1118 00a4 01       		.uleb128 0x1
 1119 00a5 12       		.uleb128 0x12
 1120 00a6 06       		.uleb128 0x6
 1121 00a7 40       		.uleb128 0x40
 1122 00a8 18       		.uleb128 0x18
 1123 00a9 9742     		.uleb128 0x2117
 1124 00ab 19       		.uleb128 0x19
 1125 00ac 00       		.byte	0
 1126 00ad 00       		.byte	0
 1127 00ae 0B       		.uleb128 0xb
 1128 00af 2E       		.uleb128 0x2e
ARM GAS  C:\Users\bmt\AppData\Local\Temp\cctdXMto.s 			page 30


 1129 00b0 00       		.byte	0
 1130 00b1 3F       		.uleb128 0x3f
 1131 00b2 19       		.uleb128 0x19
 1132 00b3 03       		.uleb128 0x3
 1133 00b4 0E       		.uleb128 0xe
 1134 00b5 3A       		.uleb128 0x3a
 1135 00b6 0B       		.uleb128 0xb
 1136 00b7 3B       		.uleb128 0x3b
 1137 00b8 05       		.uleb128 0x5
 1138 00b9 27       		.uleb128 0x27
 1139 00ba 19       		.uleb128 0x19
 1140 00bb 49       		.uleb128 0x49
 1141 00bc 13       		.uleb128 0x13
 1142 00bd 11       		.uleb128 0x11
 1143 00be 01       		.uleb128 0x1
 1144 00bf 12       		.uleb128 0x12
 1145 00c0 06       		.uleb128 0x6
 1146 00c1 40       		.uleb128 0x40
 1147 00c2 18       		.uleb128 0x18
 1148 00c3 9742     		.uleb128 0x2117
 1149 00c5 19       		.uleb128 0x19
 1150 00c6 00       		.byte	0
 1151 00c7 00       		.byte	0
 1152 00c8 0C       		.uleb128 0xc
 1153 00c9 34       		.uleb128 0x34
 1154 00ca 00       		.byte	0
 1155 00cb 03       		.uleb128 0x3
 1156 00cc 0E       		.uleb128 0xe
 1157 00cd 3A       		.uleb128 0x3a
 1158 00ce 0B       		.uleb128 0xb
 1159 00cf 3B       		.uleb128 0x3b
 1160 00d0 05       		.uleb128 0x5
 1161 00d1 49       		.uleb128 0x49
 1162 00d2 13       		.uleb128 0x13
 1163 00d3 02       		.uleb128 0x2
 1164 00d4 18       		.uleb128 0x18
 1165 00d5 00       		.byte	0
 1166 00d6 00       		.byte	0
 1167 00d7 0D       		.uleb128 0xd
 1168 00d8 34       		.uleb128 0x34
 1169 00d9 00       		.byte	0
 1170 00da 03       		.uleb128 0x3
 1171 00db 0E       		.uleb128 0xe
 1172 00dc 3A       		.uleb128 0x3a
 1173 00dd 0B       		.uleb128 0xb
 1174 00de 3B       		.uleb128 0x3b
 1175 00df 0B       		.uleb128 0xb
 1176 00e0 49       		.uleb128 0x49
 1177 00e1 13       		.uleb128 0x13
 1178 00e2 3F       		.uleb128 0x3f
 1179 00e3 19       		.uleb128 0x19
 1180 00e4 02       		.uleb128 0x2
 1181 00e5 18       		.uleb128 0x18
 1182 00e6 00       		.byte	0
 1183 00e7 00       		.byte	0
 1184 00e8 00       		.byte	0
 1185              		.section	.debug_aranges,"",%progbits
ARM GAS  C:\Users\bmt\AppData\Local\Temp\cctdXMto.s 			page 31


 1186 0000 84000000 		.4byte	0x84
 1187 0004 0200     		.2byte	0x2
 1188 0006 00000000 		.4byte	.Ldebug_info0
 1189 000a 04       		.byte	0x4
 1190 000b 00       		.byte	0
 1191 000c 0000     		.2byte	0
 1192 000e 0000     		.2byte	0
 1193 0010 00000000 		.4byte	.LFB0
 1194 0014 9C000000 		.4byte	.LFE0-.LFB0
 1195 0018 00000000 		.4byte	.LFB1
 1196 001c 48000000 		.4byte	.LFE1-.LFB1
 1197 0020 00000000 		.4byte	.LFB2
 1198 0024 20000000 		.4byte	.LFE2-.LFB2
 1199 0028 00000000 		.4byte	.LFB3
 1200 002c 48000000 		.4byte	.LFE3-.LFB3
 1201 0030 00000000 		.4byte	.LFB4
 1202 0034 20000000 		.4byte	.LFE4-.LFB4
 1203 0038 00000000 		.4byte	.LFB5
 1204 003c 14000000 		.4byte	.LFE5-.LFB5
 1205 0040 00000000 		.4byte	.LFB6
 1206 0044 18000000 		.4byte	.LFE6-.LFB6
 1207 0048 00000000 		.4byte	.LFB7
 1208 004c 18000000 		.4byte	.LFE7-.LFB7
 1209 0050 00000000 		.4byte	.LFB8
 1210 0054 20000000 		.4byte	.LFE8-.LFB8
 1211 0058 00000000 		.4byte	.LFB9
 1212 005c 18000000 		.4byte	.LFE9-.LFB9
 1213 0060 00000000 		.4byte	.LFB10
 1214 0064 24000000 		.4byte	.LFE10-.LFB10
 1215 0068 00000000 		.4byte	.LFB11
 1216 006c 18000000 		.4byte	.LFE11-.LFB11
 1217 0070 00000000 		.4byte	.LFB12
 1218 0074 20000000 		.4byte	.LFE12-.LFB12
 1219 0078 00000000 		.4byte	.LFB13
 1220 007c 20000000 		.4byte	.LFE13-.LFB13
 1221 0080 00000000 		.4byte	0
 1222 0084 00000000 		.4byte	0
 1223              		.section	.debug_ranges,"",%progbits
 1224              	.Ldebug_ranges0:
 1225 0000 00000000 		.4byte	.LFB0
 1226 0004 9C000000 		.4byte	.LFE0
 1227 0008 00000000 		.4byte	.LFB1
 1228 000c 48000000 		.4byte	.LFE1
 1229 0010 00000000 		.4byte	.LFB2
 1230 0014 20000000 		.4byte	.LFE2
 1231 0018 00000000 		.4byte	.LFB3
 1232 001c 48000000 		.4byte	.LFE3
 1233 0020 00000000 		.4byte	.LFB4
 1234 0024 20000000 		.4byte	.LFE4
 1235 0028 00000000 		.4byte	.LFB5
 1236 002c 14000000 		.4byte	.LFE5
 1237 0030 00000000 		.4byte	.LFB6
 1238 0034 18000000 		.4byte	.LFE6
 1239 0038 00000000 		.4byte	.LFB7
 1240 003c 18000000 		.4byte	.LFE7
 1241 0040 00000000 		.4byte	.LFB8
 1242 0044 20000000 		.4byte	.LFE8
ARM GAS  C:\Users\bmt\AppData\Local\Temp\cctdXMto.s 			page 32


 1243 0048 00000000 		.4byte	.LFB9
 1244 004c 18000000 		.4byte	.LFE9
 1245 0050 00000000 		.4byte	.LFB10
 1246 0054 24000000 		.4byte	.LFE10
 1247 0058 00000000 		.4byte	.LFB11
 1248 005c 18000000 		.4byte	.LFE11
 1249 0060 00000000 		.4byte	.LFB12
 1250 0064 20000000 		.4byte	.LFE12
 1251 0068 00000000 		.4byte	.LFB13
 1252 006c 20000000 		.4byte	.LFE13
 1253 0070 00000000 		.4byte	0
 1254 0074 00000000 		.4byte	0
 1255              		.section	.debug_line,"",%progbits
 1256              	.Ldebug_line0:
 1257 0000 5F010000 		.section	.debug_str,"MS",%progbits,1
 1257      02004800 
 1257      00000201 
 1257      FB0E0D00 
 1257      01010101 
 1258              	.LASF15:
 1259 0000 72656731 		.ascii	"reg16\000"
 1259      3600
 1260              	.LASF30:
 1261 0006 70657269 		.ascii	"period\000"
 1261      6F6400
 1262              	.LASF38:
 1263 000d 70657269 		.ascii	"period_temp\000"
 1263      6F645F74 
 1263      656D7000 
 1264              	.LASF3:
 1265 0019 73686F72 		.ascii	"short unsigned int\000"
 1265      7420756E 
 1265      7369676E 
 1265      65642069 
 1265      6E7400
 1266              	.LASF25:
 1267 002c 54696D65 		.ascii	"Timer_48MHz_WriteControlRegister\000"
 1267      725F3438 
 1267      4D487A5F 
 1267      57726974 
 1267      65436F6E 
 1268              	.LASF28:
 1269 004d 54696D65 		.ascii	"Timer_48MHz_ReadPeriod\000"
 1269      725F3438 
 1269      4D487A5F 
 1269      52656164 
 1269      50657269 
 1270              	.LASF19:
 1271 0064 54696D65 		.ascii	"Timer_48MHz_Start\000"
 1271      725F3438 
 1271      4D487A5F 
 1271      53746172 
 1271      7400
 1272              	.LASF11:
 1273 0076 666C6F61 		.ascii	"float\000"
 1273      7400
 1274              	.LASF33:
ARM GAS  C:\Users\bmt\AppData\Local\Temp\cctdXMto.s 			page 33


 1275 007c 636F756E 		.ascii	"counter\000"
 1275      74657200 
 1276              	.LASF17:
 1277 0084 54696D65 		.ascii	"Timer_48MHz_Init\000"
 1277      725F3438 
 1277      4D487A5F 
 1277      496E6974 
 1277      00
 1278              	.LASF18:
 1279 0095 54696D65 		.ascii	"Timer_48MHz_Enable\000"
 1279      725F3438 
 1279      4D487A5F 
 1279      456E6162 
 1279      6C6500
 1280              	.LASF14:
 1281 00a8 72656738 		.ascii	"reg8\000"
 1281      00
 1282              	.LASF5:
 1283 00ad 6C6F6E67 		.ascii	"long unsigned int\000"
 1283      20756E73 
 1283      69676E65 
 1283      6420696E 
 1283      7400
 1284              	.LASF9:
 1285 00bf 75696E74 		.ascii	"uint8\000"
 1285      3800
 1286              	.LASF27:
 1287 00c5 636F6E74 		.ascii	"control\000"
 1287      726F6C00 
 1288              	.LASF29:
 1289 00cd 54696D65 		.ascii	"Timer_48MHz_WritePeriod\000"
 1289      725F3438 
 1289      4D487A5F 
 1289      57726974 
 1289      65506572 
 1290              	.LASF1:
 1291 00e5 756E7369 		.ascii	"unsigned char\000"
 1291      676E6564 
 1291      20636861 
 1291      7200
 1292              	.LASF35:
 1293 00f3 474E5520 		.ascii	"GNU C 4.9.3 20150303 (release) [ARM/embedded-4_9-br"
 1293      4320342E 
 1293      392E3320 
 1293      32303135 
 1293      30333033 
 1294 0126 616E6368 		.ascii	"anch revision 221220] -mcpu=cortex-m3 -mthumb -g -O"
 1294      20726576 
 1294      6973696F 
 1294      6E203232 
 1294      31323230 
 1295 0159 30202D66 		.ascii	"0 -ffunction-sections -ffat-lto-objects\000"
 1295      66756E63 
 1295      74696F6E 
 1295      2D736563 
 1295      74696F6E 
 1296              	.LASF12:
ARM GAS  C:\Users\bmt\AppData\Local\Temp\cctdXMto.s 			page 34


 1297 0181 646F7562 		.ascii	"double\000"
 1297      6C6500
 1298              	.LASF10:
 1299 0188 75696E74 		.ascii	"uint16\000"
 1299      313600
 1300              	.LASF36:
 1301 018f 47656E65 		.ascii	"Generated_Source\\PSoC5\\Timer_48MHz.c\000"
 1301      72617465 
 1301      645F536F 
 1301      75726365 
 1301      5C50536F 
 1302              	.LASF8:
 1303 01b4 756E7369 		.ascii	"unsigned int\000"
 1303      676E6564 
 1303      20696E74 
 1303      00
 1304              	.LASF32:
 1305 01c1 54696D65 		.ascii	"Timer_48MHz_WriteCounter\000"
 1305      725F3438 
 1305      4D487A5F 
 1305      57726974 
 1305      65436F75 
 1306              	.LASF7:
 1307 01da 6C6F6E67 		.ascii	"long long unsigned int\000"
 1307      206C6F6E 
 1307      6720756E 
 1307      7369676E 
 1307      65642069 
 1308              	.LASF22:
 1309 01f1 54696D65 		.ascii	"Timer_48MHz_ReadStatusRegister\000"
 1309      725F3438 
 1309      4D487A5F 
 1309      52656164 
 1309      53746174 
 1310              	.LASF24:
 1311 0210 54696D65 		.ascii	"Timer_48MHz_SetInterruptMode\000"
 1311      725F3438 
 1311      4D487A5F 
 1311      53657449 
 1311      6E746572 
 1312              	.LASF20:
 1313 022d 54696D65 		.ascii	"Timer_48MHz_Stop\000"
 1313      725F3438 
 1313      4D487A5F 
 1313      53746F70 
 1313      00
 1314              	.LASF31:
 1315 023e 54696D65 		.ascii	"Timer_48MHz_ReadCapture\000"
 1315      725F3438 
 1315      4D487A5F 
 1315      52656164 
 1315      43617074 
 1316              	.LASF39:
 1317 0256 54696D65 		.ascii	"Timer_48MHz_initVar\000"
 1317      725F3438 
 1317      4D487A5F 
 1317      696E6974 
ARM GAS  C:\Users\bmt\AppData\Local\Temp\cctdXMto.s 			page 35


 1317      56617200 
 1318              	.LASF16:
 1319 026a 73697A65 		.ascii	"sizetype\000"
 1319      74797065 
 1319      00
 1320              	.LASF6:
 1321 0273 6C6F6E67 		.ascii	"long long int\000"
 1321      206C6F6E 
 1321      6720696E 
 1321      7400
 1322              	.LASF26:
 1323 0281 696E7465 		.ascii	"interruptMode\000"
 1323      72727570 
 1323      744D6F64 
 1323      6500
 1324              	.LASF23:
 1325 028f 54696D65 		.ascii	"Timer_48MHz_ReadControlRegister\000"
 1325      725F3438 
 1325      4D487A5F 
 1325      52656164 
 1325      436F6E74 
 1326              	.LASF2:
 1327 02af 73686F72 		.ascii	"short int\000"
 1327      7420696E 
 1327      7400
 1328              	.LASF21:
 1329 02b9 54696D65 		.ascii	"Timer_48MHz_SoftwareCapture\000"
 1329      725F3438 
 1329      4D487A5F 
 1329      536F6674 
 1329      77617265 
 1330              	.LASF4:
 1331 02d5 6C6F6E67 		.ascii	"long int\000"
 1331      20696E74 
 1331      00
 1332              	.LASF13:
 1333 02de 63686172 		.ascii	"char\000"
 1333      00
 1334              	.LASF0:
 1335 02e3 7369676E 		.ascii	"signed char\000"
 1335      65642063 
 1335      68617200 
 1336              	.LASF34:
 1337 02ef 54696D65 		.ascii	"Timer_48MHz_ReadCounter\000"
 1337      725F3438 
 1337      4D487A5F 
 1337      52656164 
 1337      436F756E 
 1338              	.LASF37:
 1339 0307 433A5C55 		.ascii	"C:\\Users\\bmt\\Documents\\GitHub\\FreeRTOS_CY8CKIT"
 1339      73657273 
 1339      5C626D74 
 1339      5C446F63 
 1339      756D656E 
 1340 0335 5F303539 		.ascii	"_059\\FreeRTOS_Demo.cydsn\000"
 1340      5C467265 
 1340      6552544F 
ARM GAS  C:\Users\bmt\AppData\Local\Temp\cctdXMto.s 			page 36


 1340      535F4465 
 1340      6D6F2E63 
 1341              		.ident	"GCC: (GNU Tools for ARM Embedded Processors) 4.9.3 20150303 (release) [ARM/embedded-4_9-br
