ARM GAS  C:\Users\bmt\AppData\Local\Temp\cctdXMto.s 			page 1


   1              		.syntax unified
   2              		.cpu cortex-m3
   3              		.fpu softvfp
   4              		.eabi_attribute 20, 1
   5              		.eabi_attribute 21, 1
   6              		.eabi_attribute 23, 3
   7              		.eabi_attribute 24, 1
   8              		.eabi_attribute 25, 1
   9              		.eabi_attribute 26, 1
  10              		.eabi_attribute 30, 6
  11              		.eabi_attribute 34, 1
  12              		.eabi_attribute 18, 4
  13              		.thumb
  14              		.file	"Timer_48MHz.c"
  15              		.text
  16              	.Ltext0:
  17              		.cfi_sections	.debug_frame
  18              		.global	Timer_48MHz_initVar
  19              		.bss
  20              		.type	Timer_48MHz_initVar, %object
  21              		.size	Timer_48MHz_initVar, 1
  22              	Timer_48MHz_initVar:
  23 0000 00       		.space	1
  24              		.section	.text.Timer_48MHz_Init,"ax",%progbits
  25              		.align	2
  26              		.global	Timer_48MHz_Init
  27              		.thumb
  28              		.thumb_func
  29              		.type	Timer_48MHz_Init, %function
  30              	Timer_48MHz_Init:
  31              	.LFB0:
  32              		.file 1 "Generated_Source\\PSoC5\\Timer_48MHz.c"
   1:Generated_Source\PSoC5/Timer_48MHz.c **** /*******************************************************************************
   2:Generated_Source\PSoC5/Timer_48MHz.c **** * File Name: Timer_48MHz.c
   3:Generated_Source\PSoC5/Timer_48MHz.c **** * Version 2.70
   4:Generated_Source\PSoC5/Timer_48MHz.c **** *
   5:Generated_Source\PSoC5/Timer_48MHz.c **** * Description:
   6:Generated_Source\PSoC5/Timer_48MHz.c **** *  The Timer component consists of a 8, 16, 24 or 32-bit timer with
   7:Generated_Source\PSoC5/Timer_48MHz.c **** *  a selectable period between 2 and 2^Width - 1.  The timer may free run
   8:Generated_Source\PSoC5/Timer_48MHz.c **** *  or be used as a capture timer as well.  The capture can be initiated
   9:Generated_Source\PSoC5/Timer_48MHz.c **** *  by a positive or negative edge signal as well as via software.
  10:Generated_Source\PSoC5/Timer_48MHz.c **** *  A trigger input can be programmed to enable the timer on rising edge
  11:Generated_Source\PSoC5/Timer_48MHz.c **** *  falling edge, either edge or continous run.
  12:Generated_Source\PSoC5/Timer_48MHz.c **** *  Interrupts may be generated due to a terminal count condition
  13:Generated_Source\PSoC5/Timer_48MHz.c **** *  or a capture event.
  14:Generated_Source\PSoC5/Timer_48MHz.c **** *
  15:Generated_Source\PSoC5/Timer_48MHz.c **** * Note:
  16:Generated_Source\PSoC5/Timer_48MHz.c **** *
  17:Generated_Source\PSoC5/Timer_48MHz.c **** ********************************************************************************
  18:Generated_Source\PSoC5/Timer_48MHz.c **** * Copyright 2008-2014, Cypress Semiconductor Corporation.  All rights reserved.
  19:Generated_Source\PSoC5/Timer_48MHz.c **** * You may use this file only in accordance with the license, terms, conditions,
  20:Generated_Source\PSoC5/Timer_48MHz.c **** * disclaimers, and limitations in the end user license agreement accompanying
  21:Generated_Source\PSoC5/Timer_48MHz.c **** * the software package with which this file was provided.
  22:Generated_Source\PSoC5/Timer_48MHz.c **** ********************************************************************************/
  23:Generated_Source\PSoC5/Timer_48MHz.c **** 
  24:Generated_Source\PSoC5/Timer_48MHz.c **** #include "Timer_48MHz.h"
  25:Generated_Source\PSoC5/Timer_48MHz.c **** 
ARM GAS  C:\Users\bmt\AppData\Local\Temp\cctdXMto.s 			page 2


  26:Generated_Source\PSoC5/Timer_48MHz.c **** uint8 Timer_48MHz_initVar = 0u;
  27:Generated_Source\PSoC5/Timer_48MHz.c **** 
  28:Generated_Source\PSoC5/Timer_48MHz.c **** 
  29:Generated_Source\PSoC5/Timer_48MHz.c **** /*******************************************************************************
  30:Generated_Source\PSoC5/Timer_48MHz.c **** * Function Name: Timer_48MHz_Init
  31:Generated_Source\PSoC5/Timer_48MHz.c **** ********************************************************************************
  32:Generated_Source\PSoC5/Timer_48MHz.c **** *
  33:Generated_Source\PSoC5/Timer_48MHz.c **** * Summary:
  34:Generated_Source\PSoC5/Timer_48MHz.c **** *  Initialize to the schematic state
  35:Generated_Source\PSoC5/Timer_48MHz.c **** *
  36:Generated_Source\PSoC5/Timer_48MHz.c **** * Parameters:
  37:Generated_Source\PSoC5/Timer_48MHz.c **** *  void
  38:Generated_Source\PSoC5/Timer_48MHz.c **** *
  39:Generated_Source\PSoC5/Timer_48MHz.c **** * Return:
  40:Generated_Source\PSoC5/Timer_48MHz.c **** *  void
  41:Generated_Source\PSoC5/Timer_48MHz.c **** *
  42:Generated_Source\PSoC5/Timer_48MHz.c **** *******************************************************************************/
  43:Generated_Source\PSoC5/Timer_48MHz.c **** void Timer_48MHz_Init(void) 
  44:Generated_Source\PSoC5/Timer_48MHz.c **** {
  33              		.loc 1 44 0
  34              		.cfi_startproc
  35              		@ args = 0, pretend = 0, frame = 0
  36              		@ frame_needed = 1, uses_anonymous_args = 0
  37 0000 80B5     		push	{r7, lr}
  38              		.cfi_def_cfa_offset 8
  39              		.cfi_offset 7, -8
  40              		.cfi_offset 14, -4
  41 0002 00AF     		add	r7, sp, #0
  42              		.cfi_def_cfa_register 7
  45:Generated_Source\PSoC5/Timer_48MHz.c ****     #if(!Timer_48MHz_UsingFixedFunction)
  46:Generated_Source\PSoC5/Timer_48MHz.c ****             /* Interrupt State Backup for Critical Region*/
  47:Generated_Source\PSoC5/Timer_48MHz.c ****             uint8 Timer_48MHz_interruptState;
  48:Generated_Source\PSoC5/Timer_48MHz.c ****     #endif /* Interrupt state back up for Fixed Function only */
  49:Generated_Source\PSoC5/Timer_48MHz.c **** 
  50:Generated_Source\PSoC5/Timer_48MHz.c ****     #if (Timer_48MHz_UsingFixedFunction)
  51:Generated_Source\PSoC5/Timer_48MHz.c ****         /* Clear all bits but the enable bit (if it's already set) for Timer operation */
  52:Generated_Source\PSoC5/Timer_48MHz.c ****         Timer_48MHz_CONTROL &= Timer_48MHz_CTRL_ENABLE;
  43              		.loc 1 52 0
  44 0004 214A     		ldr	r2, .L2
  45 0006 214B     		ldr	r3, .L2
  46 0008 1B78     		ldrb	r3, [r3]
  47 000a DBB2     		uxtb	r3, r3
  48 000c 03F00103 		and	r3, r3, #1
  49 0010 DBB2     		uxtb	r3, r3
  50 0012 1370     		strb	r3, [r2]
  53:Generated_Source\PSoC5/Timer_48MHz.c **** 
  54:Generated_Source\PSoC5/Timer_48MHz.c ****         /* Clear the mode bits for continuous run mode */
  55:Generated_Source\PSoC5/Timer_48MHz.c ****         #if (CY_PSOC5A)
  56:Generated_Source\PSoC5/Timer_48MHz.c ****             Timer_48MHz_CONTROL2 &= ((uint8)(~Timer_48MHz_CTRL_MODE_MASK));
  57:Generated_Source\PSoC5/Timer_48MHz.c ****         #endif /* Clear bits in CONTROL2 only in PSOC5A */
  58:Generated_Source\PSoC5/Timer_48MHz.c **** 
  59:Generated_Source\PSoC5/Timer_48MHz.c ****         #if (CY_PSOC3 || CY_PSOC5LP)
  60:Generated_Source\PSoC5/Timer_48MHz.c ****             Timer_48MHz_CONTROL3 &= ((uint8)(~Timer_48MHz_CTRL_MODE_MASK));
  51              		.loc 1 60 0
  52 0014 1E4A     		ldr	r2, .L2+4
  53 0016 1E4B     		ldr	r3, .L2+4
  54 0018 1B78     		ldrb	r3, [r3]
ARM GAS  C:\Users\bmt\AppData\Local\Temp\cctdXMto.s 			page 3


  55 001a DBB2     		uxtb	r3, r3
  56 001c 23F00303 		bic	r3, r3, #3
  57 0020 DBB2     		uxtb	r3, r3
  58 0022 1370     		strb	r3, [r2]
  61:Generated_Source\PSoC5/Timer_48MHz.c ****         #endif /* CONTROL3 register exists only in PSoC3 OR PSoC5LP */
  62:Generated_Source\PSoC5/Timer_48MHz.c **** 
  63:Generated_Source\PSoC5/Timer_48MHz.c ****         /* Check if One Shot mode is enabled i.e. RunMode !=0*/
  64:Generated_Source\PSoC5/Timer_48MHz.c ****         #if (Timer_48MHz_RunModeUsed != 0x0u)
  65:Generated_Source\PSoC5/Timer_48MHz.c ****             /* Set 3rd bit of Control register to enable one shot mode */
  66:Generated_Source\PSoC5/Timer_48MHz.c ****             Timer_48MHz_CONTROL |= 0x04u;
  67:Generated_Source\PSoC5/Timer_48MHz.c ****         #endif /* One Shot enabled only when RunModeUsed is not Continuous*/
  68:Generated_Source\PSoC5/Timer_48MHz.c **** 
  69:Generated_Source\PSoC5/Timer_48MHz.c ****         #if (Timer_48MHz_RunModeUsed == 2)
  70:Generated_Source\PSoC5/Timer_48MHz.c ****             #if (CY_PSOC5A)
  71:Generated_Source\PSoC5/Timer_48MHz.c ****                 /* Set last 2 bits of control2 register if one shot(halt on
  72:Generated_Source\PSoC5/Timer_48MHz.c ****                 interrupt) is enabled*/
  73:Generated_Source\PSoC5/Timer_48MHz.c ****                 Timer_48MHz_CONTROL2 |= 0x03u;
  74:Generated_Source\PSoC5/Timer_48MHz.c ****             #endif /* Set One-Shot Halt on Interrupt bit in CONTROL2 for PSoC5A */
  75:Generated_Source\PSoC5/Timer_48MHz.c **** 
  76:Generated_Source\PSoC5/Timer_48MHz.c ****             #if (CY_PSOC3 || CY_PSOC5LP)
  77:Generated_Source\PSoC5/Timer_48MHz.c ****                 /* Set last 2 bits of control3 register if one shot(halt on
  78:Generated_Source\PSoC5/Timer_48MHz.c ****                 interrupt) is enabled*/
  79:Generated_Source\PSoC5/Timer_48MHz.c ****                 Timer_48MHz_CONTROL3 |= 0x03u;
  80:Generated_Source\PSoC5/Timer_48MHz.c ****             #endif /* Set One-Shot Halt on Interrupt bit in CONTROL3 for PSoC3 or PSoC5LP */
  81:Generated_Source\PSoC5/Timer_48MHz.c **** 
  82:Generated_Source\PSoC5/Timer_48MHz.c ****         #endif /* Remove section if One Shot Halt on Interrupt is not enabled */
  83:Generated_Source\PSoC5/Timer_48MHz.c **** 
  84:Generated_Source\PSoC5/Timer_48MHz.c ****         #if (Timer_48MHz_UsingHWEnable != 0)
  85:Generated_Source\PSoC5/Timer_48MHz.c ****             #if (CY_PSOC5A)
  86:Generated_Source\PSoC5/Timer_48MHz.c ****                 /* Set the default Run Mode of the Timer to Continuous */
  87:Generated_Source\PSoC5/Timer_48MHz.c ****                 Timer_48MHz_CONTROL2 |= Timer_48MHz_CTRL_MODE_PULSEWIDTH;
  88:Generated_Source\PSoC5/Timer_48MHz.c ****             #endif /* Set Continuous Run Mode in CONTROL2 for PSoC5A */
  89:Generated_Source\PSoC5/Timer_48MHz.c **** 
  90:Generated_Source\PSoC5/Timer_48MHz.c ****             #if (CY_PSOC3 || CY_PSOC5LP)
  91:Generated_Source\PSoC5/Timer_48MHz.c ****                 /* Clear and Set ROD and COD bits of CFG2 register */
  92:Generated_Source\PSoC5/Timer_48MHz.c ****                 Timer_48MHz_CONTROL3 &= ((uint8)(~Timer_48MHz_CTRL_RCOD_MASK));
  93:Generated_Source\PSoC5/Timer_48MHz.c ****                 Timer_48MHz_CONTROL3 |= Timer_48MHz_CTRL_RCOD;
  94:Generated_Source\PSoC5/Timer_48MHz.c **** 
  95:Generated_Source\PSoC5/Timer_48MHz.c ****                 /* Clear and Enable the HW enable bit in CFG2 register */
  96:Generated_Source\PSoC5/Timer_48MHz.c ****                 Timer_48MHz_CONTROL3 &= ((uint8)(~Timer_48MHz_CTRL_ENBL_MASK));
  97:Generated_Source\PSoC5/Timer_48MHz.c ****                 Timer_48MHz_CONTROL3 |= Timer_48MHz_CTRL_ENBL;
  98:Generated_Source\PSoC5/Timer_48MHz.c **** 
  99:Generated_Source\PSoC5/Timer_48MHz.c ****                 /* Set the default Run Mode of the Timer to Continuous */
 100:Generated_Source\PSoC5/Timer_48MHz.c ****                 Timer_48MHz_CONTROL3 |= Timer_48MHz_CTRL_MODE_CONTINUOUS;
 101:Generated_Source\PSoC5/Timer_48MHz.c ****             #endif /* Set Continuous Run Mode in CONTROL3 for PSoC3ES3 or PSoC5A */
 102:Generated_Source\PSoC5/Timer_48MHz.c **** 
 103:Generated_Source\PSoC5/Timer_48MHz.c ****         #endif /* Configure Run Mode with hardware enable */
 104:Generated_Source\PSoC5/Timer_48MHz.c **** 
 105:Generated_Source\PSoC5/Timer_48MHz.c ****         /* Clear and Set SYNCTC and SYNCCMP bits of RT1 register */
 106:Generated_Source\PSoC5/Timer_48MHz.c ****         Timer_48MHz_RT1 &= ((uint8)(~Timer_48MHz_RT1_MASK));
  59              		.loc 1 106 0
  60 0024 1B4A     		ldr	r2, .L2+8
  61 0026 1B4B     		ldr	r3, .L2+8
  62 0028 1B78     		ldrb	r3, [r3]
  63 002a DBB2     		uxtb	r3, r3
  64 002c 23F03003 		bic	r3, r3, #48
  65 0030 DBB2     		uxtb	r3, r3
ARM GAS  C:\Users\bmt\AppData\Local\Temp\cctdXMto.s 			page 4


  66 0032 1370     		strb	r3, [r2]
 107:Generated_Source\PSoC5/Timer_48MHz.c ****         Timer_48MHz_RT1 |= Timer_48MHz_SYNC;
  67              		.loc 1 107 0
  68 0034 174A     		ldr	r2, .L2+8
  69 0036 174B     		ldr	r3, .L2+8
  70 0038 1B78     		ldrb	r3, [r3]
  71 003a DBB2     		uxtb	r3, r3
  72 003c 43F03003 		orr	r3, r3, #48
  73 0040 DBB2     		uxtb	r3, r3
  74 0042 1370     		strb	r3, [r2]
 108:Generated_Source\PSoC5/Timer_48MHz.c **** 
 109:Generated_Source\PSoC5/Timer_48MHz.c ****         /*Enable DSI Sync all all inputs of the Timer*/
 110:Generated_Source\PSoC5/Timer_48MHz.c ****         Timer_48MHz_RT1 &= ((uint8)(~Timer_48MHz_SYNCDSI_MASK));
  75              		.loc 1 110 0
  76 0044 134A     		ldr	r2, .L2+8
  77 0046 134B     		ldr	r3, .L2+8
  78 0048 1B78     		ldrb	r3, [r3]
  79 004a DBB2     		uxtb	r3, r3
  80 004c 23F00F03 		bic	r3, r3, #15
  81 0050 DBB2     		uxtb	r3, r3
  82 0052 1370     		strb	r3, [r2]
 111:Generated_Source\PSoC5/Timer_48MHz.c ****         Timer_48MHz_RT1 |= Timer_48MHz_SYNCDSI_EN;
  83              		.loc 1 111 0
  84 0054 0F4A     		ldr	r2, .L2+8
  85 0056 0F4B     		ldr	r3, .L2+8
  86 0058 1B78     		ldrb	r3, [r3]
  87 005a DBB2     		uxtb	r3, r3
  88 005c 43F00F03 		orr	r3, r3, #15
  89 0060 DBB2     		uxtb	r3, r3
  90 0062 1370     		strb	r3, [r2]
 112:Generated_Source\PSoC5/Timer_48MHz.c **** 
 113:Generated_Source\PSoC5/Timer_48MHz.c ****         /* Set the IRQ to use the status register interrupts */
 114:Generated_Source\PSoC5/Timer_48MHz.c ****         Timer_48MHz_CONTROL2 |= Timer_48MHz_CTRL2_IRQ_SEL;
  91              		.loc 1 114 0
  92 0064 0C4A     		ldr	r2, .L2+12
  93 0066 0C4B     		ldr	r3, .L2+12
  94 0068 1B78     		ldrb	r3, [r3]
  95 006a DBB2     		uxtb	r3, r3
  96 006c 43F00103 		orr	r3, r3, #1
  97 0070 DBB2     		uxtb	r3, r3
  98 0072 1370     		strb	r3, [r2]
 115:Generated_Source\PSoC5/Timer_48MHz.c ****     #endif /* Configuring registers of fixed function implementation */
 116:Generated_Source\PSoC5/Timer_48MHz.c **** 
 117:Generated_Source\PSoC5/Timer_48MHz.c ****     /* Set Initial values from Configuration */
 118:Generated_Source\PSoC5/Timer_48MHz.c ****     Timer_48MHz_WritePeriod(Timer_48MHz_INIT_PERIOD);
  99              		.loc 1 118 0
 100 0074 4FF6FF70 		movw	r0, #65535
 101 0078 FFF7FEFF 		bl	Timer_48MHz_WritePeriod
 119:Generated_Source\PSoC5/Timer_48MHz.c ****     Timer_48MHz_WriteCounter(Timer_48MHz_INIT_PERIOD);
 102              		.loc 1 119 0
 103 007c 4FF6FF70 		movw	r0, #65535
 104 0080 FFF7FEFF 		bl	Timer_48MHz_WriteCounter
 120:Generated_Source\PSoC5/Timer_48MHz.c **** 
 121:Generated_Source\PSoC5/Timer_48MHz.c ****     #if (Timer_48MHz_UsingHWCaptureCounter)/* Capture counter is enabled */
 122:Generated_Source\PSoC5/Timer_48MHz.c ****         Timer_48MHz_CAPTURE_COUNT_CTRL |= Timer_48MHz_CNTR_ENABLE;
 123:Generated_Source\PSoC5/Timer_48MHz.c ****         Timer_48MHz_SetCaptureCount(Timer_48MHz_INIT_CAPTURE_COUNT);
 124:Generated_Source\PSoC5/Timer_48MHz.c ****     #endif /* Configure capture counter value */
ARM GAS  C:\Users\bmt\AppData\Local\Temp\cctdXMto.s 			page 5


 125:Generated_Source\PSoC5/Timer_48MHz.c **** 
 126:Generated_Source\PSoC5/Timer_48MHz.c ****     #if (!Timer_48MHz_UsingFixedFunction)
 127:Generated_Source\PSoC5/Timer_48MHz.c ****         #if (Timer_48MHz_SoftwareCaptureMode)
 128:Generated_Source\PSoC5/Timer_48MHz.c ****             Timer_48MHz_SetCaptureMode(Timer_48MHz_INIT_CAPTURE_MODE);
 129:Generated_Source\PSoC5/Timer_48MHz.c ****         #endif /* Set Capture Mode for UDB implementation if capture mode is software controlled */
 130:Generated_Source\PSoC5/Timer_48MHz.c **** 
 131:Generated_Source\PSoC5/Timer_48MHz.c ****         #if (Timer_48MHz_SoftwareTriggerMode)
 132:Generated_Source\PSoC5/Timer_48MHz.c ****             #if (!Timer_48MHz_UDB_CONTROL_REG_REMOVED)
 133:Generated_Source\PSoC5/Timer_48MHz.c ****                 if (0u == (Timer_48MHz_CONTROL & Timer_48MHz__B_TIMER__TM_SOFTWARE))
 134:Generated_Source\PSoC5/Timer_48MHz.c ****                 {
 135:Generated_Source\PSoC5/Timer_48MHz.c ****                     Timer_48MHz_SetTriggerMode(Timer_48MHz_INIT_TRIGGER_MODE);
 136:Generated_Source\PSoC5/Timer_48MHz.c ****                 }
 137:Generated_Source\PSoC5/Timer_48MHz.c ****             #endif /* (!Timer_48MHz_UDB_CONTROL_REG_REMOVED) */
 138:Generated_Source\PSoC5/Timer_48MHz.c ****         #endif /* Set trigger mode for UDB Implementation if trigger mode is software controlled */
 139:Generated_Source\PSoC5/Timer_48MHz.c **** 
 140:Generated_Source\PSoC5/Timer_48MHz.c ****         /* CyEnterCriticalRegion and CyExitCriticalRegion are used to mark following region critica
 141:Generated_Source\PSoC5/Timer_48MHz.c ****         /* Enter Critical Region*/
 142:Generated_Source\PSoC5/Timer_48MHz.c ****         Timer_48MHz_interruptState = CyEnterCriticalSection();
 143:Generated_Source\PSoC5/Timer_48MHz.c **** 
 144:Generated_Source\PSoC5/Timer_48MHz.c ****         /* Use the interrupt output of the status register for IRQ output */
 145:Generated_Source\PSoC5/Timer_48MHz.c ****         Timer_48MHz_STATUS_AUX_CTRL |= Timer_48MHz_STATUS_ACTL_INT_EN_MASK;
 146:Generated_Source\PSoC5/Timer_48MHz.c **** 
 147:Generated_Source\PSoC5/Timer_48MHz.c ****         /* Exit Critical Region*/
 148:Generated_Source\PSoC5/Timer_48MHz.c ****         CyExitCriticalSection(Timer_48MHz_interruptState);
 149:Generated_Source\PSoC5/Timer_48MHz.c **** 
 150:Generated_Source\PSoC5/Timer_48MHz.c ****         #if (Timer_48MHz_EnableTriggerMode)
 151:Generated_Source\PSoC5/Timer_48MHz.c ****             Timer_48MHz_EnableTrigger();
 152:Generated_Source\PSoC5/Timer_48MHz.c ****         #endif /* Set Trigger enable bit for UDB implementation in the control register*/
 153:Generated_Source\PSoC5/Timer_48MHz.c **** 		
 154:Generated_Source\PSoC5/Timer_48MHz.c **** 		
 155:Generated_Source\PSoC5/Timer_48MHz.c ****         #if (Timer_48MHz_InterruptOnCaptureCount && !Timer_48MHz_UDB_CONTROL_REG_REMOVED)
 156:Generated_Source\PSoC5/Timer_48MHz.c ****             Timer_48MHz_SetInterruptCount(Timer_48MHz_INIT_INT_CAPTURE_COUNT);
 157:Generated_Source\PSoC5/Timer_48MHz.c ****         #endif /* Set interrupt count in UDB implementation if interrupt count feature is checked.*
 158:Generated_Source\PSoC5/Timer_48MHz.c **** 
 159:Generated_Source\PSoC5/Timer_48MHz.c ****         Timer_48MHz_ClearFIFO();
 160:Generated_Source\PSoC5/Timer_48MHz.c ****     #endif /* Configure additional features of UDB implementation */
 161:Generated_Source\PSoC5/Timer_48MHz.c **** 
 162:Generated_Source\PSoC5/Timer_48MHz.c ****     Timer_48MHz_SetInterruptMode(Timer_48MHz_INIT_INTERRUPT_MODE);
 105              		.loc 1 162 0
 106 0084 0020     		movs	r0, #0
 107 0086 FFF7FEFF 		bl	Timer_48MHz_SetInterruptMode
 163:Generated_Source\PSoC5/Timer_48MHz.c **** }
 108              		.loc 1 163 0
 109 008a 80BD     		pop	{r7, pc}
 110              	.L3:
 111              		.align	2
 112              	.L2:
 113 008c 0C4F0040 		.word	1073762060
 114 0090 0E4F0040 		.word	1073762062
 115 0094 174F0040 		.word	1073762071
 116 0098 0D4F0040 		.word	1073762061
 117              		.cfi_endproc
 118              	.LFE0:
 119              		.size	Timer_48MHz_Init, .-Timer_48MHz_Init
 120              		.section	.text.Timer_48MHz_Enable,"ax",%progbits
 121              		.align	2
 122              		.global	Timer_48MHz_Enable
ARM GAS  C:\Users\bmt\AppData\Local\Temp\cctdXMto.s 			page 6


 123              		.thumb
 124              		.thumb_func
 125              		.type	Timer_48MHz_Enable, %function
 126              	Timer_48MHz_Enable:
 127              	.LFB1:
 164:Generated_Source\PSoC5/Timer_48MHz.c **** 
 165:Generated_Source\PSoC5/Timer_48MHz.c **** 
 166:Generated_Source\PSoC5/Timer_48MHz.c **** /*******************************************************************************
 167:Generated_Source\PSoC5/Timer_48MHz.c **** * Function Name: Timer_48MHz_Enable
 168:Generated_Source\PSoC5/Timer_48MHz.c **** ********************************************************************************
 169:Generated_Source\PSoC5/Timer_48MHz.c **** *
 170:Generated_Source\PSoC5/Timer_48MHz.c **** * Summary:
 171:Generated_Source\PSoC5/Timer_48MHz.c **** *  Enable the Timer
 172:Generated_Source\PSoC5/Timer_48MHz.c **** *
 173:Generated_Source\PSoC5/Timer_48MHz.c **** * Parameters:
 174:Generated_Source\PSoC5/Timer_48MHz.c **** *  void
 175:Generated_Source\PSoC5/Timer_48MHz.c **** *
 176:Generated_Source\PSoC5/Timer_48MHz.c **** * Return:
 177:Generated_Source\PSoC5/Timer_48MHz.c **** *  void
 178:Generated_Source\PSoC5/Timer_48MHz.c **** *
 179:Generated_Source\PSoC5/Timer_48MHz.c **** *******************************************************************************/
 180:Generated_Source\PSoC5/Timer_48MHz.c **** void Timer_48MHz_Enable(void) 
 181:Generated_Source\PSoC5/Timer_48MHz.c **** {
 128              		.loc 1 181 0
 129              		.cfi_startproc
 130              		@ args = 0, pretend = 0, frame = 0
 131              		@ frame_needed = 1, uses_anonymous_args = 0
 132              		@ link register save eliminated.
 133 0000 80B4     		push	{r7}
 134              		.cfi_def_cfa_offset 4
 135              		.cfi_offset 7, -4
 136 0002 00AF     		add	r7, sp, #0
 137              		.cfi_def_cfa_register 7
 182:Generated_Source\PSoC5/Timer_48MHz.c ****     /* Globally Enable the Fixed Function Block chosen */
 183:Generated_Source\PSoC5/Timer_48MHz.c ****     #if (Timer_48MHz_UsingFixedFunction)
 184:Generated_Source\PSoC5/Timer_48MHz.c ****         Timer_48MHz_GLOBAL_ENABLE |= Timer_48MHz_BLOCK_EN_MASK;
 138              		.loc 1 184 0
 139 0004 0D4A     		ldr	r2, .L5
 140 0006 0D4B     		ldr	r3, .L5
 141 0008 1B78     		ldrb	r3, [r3]
 142 000a DBB2     		uxtb	r3, r3
 143 000c 43F00203 		orr	r3, r3, #2
 144 0010 DBB2     		uxtb	r3, r3
 145 0012 1370     		strb	r3, [r2]
 185:Generated_Source\PSoC5/Timer_48MHz.c ****         Timer_48MHz_GLOBAL_STBY_ENABLE |= Timer_48MHz_BLOCK_STBY_EN_MASK;
 146              		.loc 1 185 0
 147 0014 0A4A     		ldr	r2, .L5+4
 148 0016 0A4B     		ldr	r3, .L5+4
 149 0018 1B78     		ldrb	r3, [r3]
 150 001a DBB2     		uxtb	r3, r3
 151 001c 43F00203 		orr	r3, r3, #2
 152 0020 DBB2     		uxtb	r3, r3
 153 0022 1370     		strb	r3, [r2]
 186:Generated_Source\PSoC5/Timer_48MHz.c ****     #endif /* Set Enable bit for enabling Fixed function timer*/
 187:Generated_Source\PSoC5/Timer_48MHz.c **** 
 188:Generated_Source\PSoC5/Timer_48MHz.c ****     /* Remove assignment if control register is removed */
 189:Generated_Source\PSoC5/Timer_48MHz.c ****     #if (!Timer_48MHz_UDB_CONTROL_REG_REMOVED || Timer_48MHz_UsingFixedFunction)
ARM GAS  C:\Users\bmt\AppData\Local\Temp\cctdXMto.s 			page 7


 190:Generated_Source\PSoC5/Timer_48MHz.c ****         Timer_48MHz_CONTROL |= Timer_48MHz_CTRL_ENABLE;
 154              		.loc 1 190 0
 155 0024 074A     		ldr	r2, .L5+8
 156 0026 074B     		ldr	r3, .L5+8
 157 0028 1B78     		ldrb	r3, [r3]
 158 002a DBB2     		uxtb	r3, r3
 159 002c 43F00103 		orr	r3, r3, #1
 160 0030 DBB2     		uxtb	r3, r3
 161 0032 1370     		strb	r3, [r2]
 191:Generated_Source\PSoC5/Timer_48MHz.c ****     #endif /* Remove assignment if control register is removed */
 192:Generated_Source\PSoC5/Timer_48MHz.c **** }
 162              		.loc 1 192 0
 163 0034 BD46     		mov	sp, r7
 164              		.cfi_def_cfa_register 13
 165              		@ sp needed
 166 0036 5DF8047B 		ldr	r7, [sp], #4
 167              		.cfi_restore 7
 168              		.cfi_def_cfa_offset 0
 169 003a 7047     		bx	lr
 170              	.L6:
 171              		.align	2
 172              	.L5:
 173 003c A3430040 		.word	1073759139
 174 0040 B3430040 		.word	1073759155
 175 0044 0C4F0040 		.word	1073762060
 176              		.cfi_endproc
 177              	.LFE1:
 178              		.size	Timer_48MHz_Enable, .-Timer_48MHz_Enable
 179              		.section	.text.Timer_48MHz_Start,"ax",%progbits
 180              		.align	2
 181              		.global	Timer_48MHz_Start
 182              		.thumb
 183              		.thumb_func
 184              		.type	Timer_48MHz_Start, %function
 185              	Timer_48MHz_Start:
 186              	.LFB2:
 193:Generated_Source\PSoC5/Timer_48MHz.c **** 
 194:Generated_Source\PSoC5/Timer_48MHz.c **** 
 195:Generated_Source\PSoC5/Timer_48MHz.c **** /*******************************************************************************
 196:Generated_Source\PSoC5/Timer_48MHz.c **** * Function Name: Timer_48MHz_Start
 197:Generated_Source\PSoC5/Timer_48MHz.c **** ********************************************************************************
 198:Generated_Source\PSoC5/Timer_48MHz.c **** *
 199:Generated_Source\PSoC5/Timer_48MHz.c **** * Summary:
 200:Generated_Source\PSoC5/Timer_48MHz.c **** *  The start function initializes the timer with the default values, the
 201:Generated_Source\PSoC5/Timer_48MHz.c **** *  enables the timerto begin counting.  It does not enable interrupts,
 202:Generated_Source\PSoC5/Timer_48MHz.c **** *  the EnableInt command should be called if interrupt generation is required.
 203:Generated_Source\PSoC5/Timer_48MHz.c **** *
 204:Generated_Source\PSoC5/Timer_48MHz.c **** * Parameters:
 205:Generated_Source\PSoC5/Timer_48MHz.c **** *  void
 206:Generated_Source\PSoC5/Timer_48MHz.c **** *
 207:Generated_Source\PSoC5/Timer_48MHz.c **** * Return:
 208:Generated_Source\PSoC5/Timer_48MHz.c **** *  void
 209:Generated_Source\PSoC5/Timer_48MHz.c **** *
 210:Generated_Source\PSoC5/Timer_48MHz.c **** * Global variables:
 211:Generated_Source\PSoC5/Timer_48MHz.c **** *  Timer_48MHz_initVar: Is modified when this function is called for the
 212:Generated_Source\PSoC5/Timer_48MHz.c **** *   first time. Is used to ensure that initialization happens only once.
 213:Generated_Source\PSoC5/Timer_48MHz.c **** *
ARM GAS  C:\Users\bmt\AppData\Local\Temp\cctdXMto.s 			page 8


 214:Generated_Source\PSoC5/Timer_48MHz.c **** *******************************************************************************/
 215:Generated_Source\PSoC5/Timer_48MHz.c **** void Timer_48MHz_Start(void) 
 216:Generated_Source\PSoC5/Timer_48MHz.c **** {
 187              		.loc 1 216 0
 188              		.cfi_startproc
 189              		@ args = 0, pretend = 0, frame = 0
 190              		@ frame_needed = 1, uses_anonymous_args = 0
 191 0000 80B5     		push	{r7, lr}
 192              		.cfi_def_cfa_offset 8
 193              		.cfi_offset 7, -8
 194              		.cfi_offset 14, -4
 195 0002 00AF     		add	r7, sp, #0
 196              		.cfi_def_cfa_register 7
 217:Generated_Source\PSoC5/Timer_48MHz.c ****     if(Timer_48MHz_initVar == 0u)
 197              		.loc 1 217 0
 198 0004 054B     		ldr	r3, .L9
 199 0006 1B78     		ldrb	r3, [r3]	@ zero_extendqisi2
 200 0008 002B     		cmp	r3, #0
 201 000a 04D1     		bne	.L8
 218:Generated_Source\PSoC5/Timer_48MHz.c ****     {
 219:Generated_Source\PSoC5/Timer_48MHz.c ****         Timer_48MHz_Init();
 202              		.loc 1 219 0
 203 000c FFF7FEFF 		bl	Timer_48MHz_Init
 220:Generated_Source\PSoC5/Timer_48MHz.c **** 
 221:Generated_Source\PSoC5/Timer_48MHz.c ****         Timer_48MHz_initVar = 1u;   /* Clear this bit for Initialization */
 204              		.loc 1 221 0
 205 0010 024B     		ldr	r3, .L9
 206 0012 0122     		movs	r2, #1
 207 0014 1A70     		strb	r2, [r3]
 208              	.L8:
 222:Generated_Source\PSoC5/Timer_48MHz.c ****     }
 223:Generated_Source\PSoC5/Timer_48MHz.c **** 
 224:Generated_Source\PSoC5/Timer_48MHz.c ****     /* Enable the Timer */
 225:Generated_Source\PSoC5/Timer_48MHz.c ****     Timer_48MHz_Enable();
 209              		.loc 1 225 0
 210 0016 FFF7FEFF 		bl	Timer_48MHz_Enable
 226:Generated_Source\PSoC5/Timer_48MHz.c **** }
 211              		.loc 1 226 0
 212 001a 80BD     		pop	{r7, pc}
 213              	.L10:
 214              		.align	2
 215              	.L9:
 216 001c 00000000 		.word	Timer_48MHz_initVar
 217              		.cfi_endproc
 218              	.LFE2:
 219              		.size	Timer_48MHz_Start, .-Timer_48MHz_Start
 220              		.section	.text.Timer_48MHz_Stop,"ax",%progbits
 221              		.align	2
 222              		.global	Timer_48MHz_Stop
 223              		.thumb
 224              		.thumb_func
 225              		.type	Timer_48MHz_Stop, %function
 226              	Timer_48MHz_Stop:
 227              	.LFB3:
 227:Generated_Source\PSoC5/Timer_48MHz.c **** 
 228:Generated_Source\PSoC5/Timer_48MHz.c **** 
 229:Generated_Source\PSoC5/Timer_48MHz.c **** /*******************************************************************************
ARM GAS  C:\Users\bmt\AppData\Local\Temp\cctdXMto.s 			page 9


 230:Generated_Source\PSoC5/Timer_48MHz.c **** * Function Name: Timer_48MHz_Stop
 231:Generated_Source\PSoC5/Timer_48MHz.c **** ********************************************************************************
 232:Generated_Source\PSoC5/Timer_48MHz.c **** *
 233:Generated_Source\PSoC5/Timer_48MHz.c **** * Summary:
 234:Generated_Source\PSoC5/Timer_48MHz.c **** *  The stop function halts the timer, but does not change any modes or disable
 235:Generated_Source\PSoC5/Timer_48MHz.c **** *  interrupts.
 236:Generated_Source\PSoC5/Timer_48MHz.c **** *
 237:Generated_Source\PSoC5/Timer_48MHz.c **** * Parameters:
 238:Generated_Source\PSoC5/Timer_48MHz.c **** *  void
 239:Generated_Source\PSoC5/Timer_48MHz.c **** *
 240:Generated_Source\PSoC5/Timer_48MHz.c **** * Return:
 241:Generated_Source\PSoC5/Timer_48MHz.c **** *  void
 242:Generated_Source\PSoC5/Timer_48MHz.c **** *
 243:Generated_Source\PSoC5/Timer_48MHz.c **** * Side Effects: If the Enable mode is set to Hardware only then this function
 244:Generated_Source\PSoC5/Timer_48MHz.c **** *               has no effect on the operation of the timer.
 245:Generated_Source\PSoC5/Timer_48MHz.c **** *
 246:Generated_Source\PSoC5/Timer_48MHz.c **** *******************************************************************************/
 247:Generated_Source\PSoC5/Timer_48MHz.c **** void Timer_48MHz_Stop(void) 
 248:Generated_Source\PSoC5/Timer_48MHz.c **** {
 228              		.loc 1 248 0
 229              		.cfi_startproc
 230              		@ args = 0, pretend = 0, frame = 0
 231              		@ frame_needed = 1, uses_anonymous_args = 0
 232              		@ link register save eliminated.
 233 0000 80B4     		push	{r7}
 234              		.cfi_def_cfa_offset 4
 235              		.cfi_offset 7, -4
 236 0002 00AF     		add	r7, sp, #0
 237              		.cfi_def_cfa_register 7
 249:Generated_Source\PSoC5/Timer_48MHz.c ****     /* Disable Timer */
 250:Generated_Source\PSoC5/Timer_48MHz.c ****     #if(!Timer_48MHz_UDB_CONTROL_REG_REMOVED || Timer_48MHz_UsingFixedFunction)
 251:Generated_Source\PSoC5/Timer_48MHz.c ****         Timer_48MHz_CONTROL &= ((uint8)(~Timer_48MHz_CTRL_ENABLE));
 238              		.loc 1 251 0
 239 0004 0D4A     		ldr	r2, .L12
 240 0006 0D4B     		ldr	r3, .L12
 241 0008 1B78     		ldrb	r3, [r3]
 242 000a DBB2     		uxtb	r3, r3
 243 000c 23F00103 		bic	r3, r3, #1
 244 0010 DBB2     		uxtb	r3, r3
 245 0012 1370     		strb	r3, [r2]
 252:Generated_Source\PSoC5/Timer_48MHz.c ****     #endif /* Remove assignment if control register is removed */
 253:Generated_Source\PSoC5/Timer_48MHz.c **** 
 254:Generated_Source\PSoC5/Timer_48MHz.c ****     /* Globally disable the Fixed Function Block chosen */
 255:Generated_Source\PSoC5/Timer_48MHz.c ****     #if (Timer_48MHz_UsingFixedFunction)
 256:Generated_Source\PSoC5/Timer_48MHz.c ****         Timer_48MHz_GLOBAL_ENABLE &= ((uint8)(~Timer_48MHz_BLOCK_EN_MASK));
 246              		.loc 1 256 0
 247 0014 0A4A     		ldr	r2, .L12+4
 248 0016 0A4B     		ldr	r3, .L12+4
 249 0018 1B78     		ldrb	r3, [r3]
 250 001a DBB2     		uxtb	r3, r3
 251 001c 23F00203 		bic	r3, r3, #2
 252 0020 DBB2     		uxtb	r3, r3
 253 0022 1370     		strb	r3, [r2]
 257:Generated_Source\PSoC5/Timer_48MHz.c ****         Timer_48MHz_GLOBAL_STBY_ENABLE &= ((uint8)(~Timer_48MHz_BLOCK_STBY_EN_MASK));
 254              		.loc 1 257 0
 255 0024 074A     		ldr	r2, .L12+8
 256 0026 074B     		ldr	r3, .L12+8
ARM GAS  C:\Users\bmt\AppData\Local\Temp\cctdXMto.s 			page 10


 257 0028 1B78     		ldrb	r3, [r3]
 258 002a DBB2     		uxtb	r3, r3
 259 002c 23F00203 		bic	r3, r3, #2
 260 0030 DBB2     		uxtb	r3, r3
 261 0032 1370     		strb	r3, [r2]
 258:Generated_Source\PSoC5/Timer_48MHz.c ****     #endif /* Disable global enable for the Timer Fixed function block to stop the Timer*/
 259:Generated_Source\PSoC5/Timer_48MHz.c **** }
 262              		.loc 1 259 0
 263 0034 BD46     		mov	sp, r7
 264              		.cfi_def_cfa_register 13
 265              		@ sp needed
 266 0036 5DF8047B 		ldr	r7, [sp], #4
 267              		.cfi_restore 7
 268              		.cfi_def_cfa_offset 0
 269 003a 7047     		bx	lr
 270              	.L13:
 271              		.align	2
 272              	.L12:
 273 003c 0C4F0040 		.word	1073762060
 274 0040 A3430040 		.word	1073759139
 275 0044 B3430040 		.word	1073759155
 276              		.cfi_endproc
 277              	.LFE3:
 278              		.size	Timer_48MHz_Stop, .-Timer_48MHz_Stop
 279              		.section	.text.Timer_48MHz_SetInterruptMode,"ax",%progbits
 280              		.align	2
 281              		.global	Timer_48MHz_SetInterruptMode
 282              		.thumb
 283              		.thumb_func
 284              		.type	Timer_48MHz_SetInterruptMode, %function
 285              	Timer_48MHz_SetInterruptMode:
 286              	.LFB4:
 260:Generated_Source\PSoC5/Timer_48MHz.c **** 
 261:Generated_Source\PSoC5/Timer_48MHz.c **** 
 262:Generated_Source\PSoC5/Timer_48MHz.c **** /*******************************************************************************
 263:Generated_Source\PSoC5/Timer_48MHz.c **** * Function Name: Timer_48MHz_SetInterruptMode
 264:Generated_Source\PSoC5/Timer_48MHz.c **** ********************************************************************************
 265:Generated_Source\PSoC5/Timer_48MHz.c **** *
 266:Generated_Source\PSoC5/Timer_48MHz.c **** * Summary:
 267:Generated_Source\PSoC5/Timer_48MHz.c **** *  This function selects which of the interrupt inputs may cause an interrupt.
 268:Generated_Source\PSoC5/Timer_48MHz.c **** *  The twosources are caputure and terminal.  One, both or neither may
 269:Generated_Source\PSoC5/Timer_48MHz.c **** *  be selected.
 270:Generated_Source\PSoC5/Timer_48MHz.c **** *
 271:Generated_Source\PSoC5/Timer_48MHz.c **** * Parameters:
 272:Generated_Source\PSoC5/Timer_48MHz.c **** *  interruptMode:   This parameter is used to enable interrups on either/or
 273:Generated_Source\PSoC5/Timer_48MHz.c **** *                   terminal count or capture.
 274:Generated_Source\PSoC5/Timer_48MHz.c **** *
 275:Generated_Source\PSoC5/Timer_48MHz.c **** * Return:
 276:Generated_Source\PSoC5/Timer_48MHz.c **** *  void
 277:Generated_Source\PSoC5/Timer_48MHz.c **** *
 278:Generated_Source\PSoC5/Timer_48MHz.c **** *******************************************************************************/
 279:Generated_Source\PSoC5/Timer_48MHz.c **** void Timer_48MHz_SetInterruptMode(uint8 interruptMode) 
 280:Generated_Source\PSoC5/Timer_48MHz.c **** {
 287              		.loc 1 280 0
 288              		.cfi_startproc
 289              		@ args = 0, pretend = 0, frame = 8
 290              		@ frame_needed = 1, uses_anonymous_args = 0
ARM GAS  C:\Users\bmt\AppData\Local\Temp\cctdXMto.s 			page 11


 291              		@ link register save eliminated.
 292 0000 80B4     		push	{r7}
 293              		.cfi_def_cfa_offset 4
 294              		.cfi_offset 7, -4
 295 0002 83B0     		sub	sp, sp, #12
 296              		.cfi_def_cfa_offset 16
 297 0004 00AF     		add	r7, sp, #0
 298              		.cfi_def_cfa_register 7
 299 0006 0346     		mov	r3, r0
 300 0008 FB71     		strb	r3, [r7, #7]
 281:Generated_Source\PSoC5/Timer_48MHz.c ****     Timer_48MHz_STATUS_MASK = interruptMode;
 301              		.loc 1 281 0
 302 000a 044A     		ldr	r2, .L15
 303 000c FB79     		ldrb	r3, [r7, #7]
 304 000e 1370     		strb	r3, [r2]
 282:Generated_Source\PSoC5/Timer_48MHz.c **** }
 305              		.loc 1 282 0
 306 0010 0C37     		adds	r7, r7, #12
 307              		.cfi_def_cfa_offset 4
 308 0012 BD46     		mov	sp, r7
 309              		.cfi_def_cfa_register 13
 310              		@ sp needed
 311 0014 5DF8047B 		ldr	r7, [sp], #4
 312              		.cfi_restore 7
 313              		.cfi_def_cfa_offset 0
 314 0018 7047     		bx	lr
 315              	.L16:
 316 001a 00BF     		.align	2
 317              	.L15:
 318 001c 0F4F0040 		.word	1073762063
 319              		.cfi_endproc
 320              	.LFE4:
 321              		.size	Timer_48MHz_SetInterruptMode, .-Timer_48MHz_SetInterruptMode
 322              		.section	.text.Timer_48MHz_SoftwareCapture,"ax",%progbits
 323              		.align	2
 324              		.global	Timer_48MHz_SoftwareCapture
 325              		.thumb
 326              		.thumb_func
 327              		.type	Timer_48MHz_SoftwareCapture, %function
 328              	Timer_48MHz_SoftwareCapture:
 329              	.LFB5:
 283:Generated_Source\PSoC5/Timer_48MHz.c **** 
 284:Generated_Source\PSoC5/Timer_48MHz.c **** 
 285:Generated_Source\PSoC5/Timer_48MHz.c **** /*******************************************************************************
 286:Generated_Source\PSoC5/Timer_48MHz.c **** * Function Name: Timer_48MHz_SoftwareCapture
 287:Generated_Source\PSoC5/Timer_48MHz.c **** ********************************************************************************
 288:Generated_Source\PSoC5/Timer_48MHz.c **** *
 289:Generated_Source\PSoC5/Timer_48MHz.c **** * Summary:
 290:Generated_Source\PSoC5/Timer_48MHz.c **** *  This function forces a capture independent of the capture signal.
 291:Generated_Source\PSoC5/Timer_48MHz.c **** *
 292:Generated_Source\PSoC5/Timer_48MHz.c **** * Parameters:
 293:Generated_Source\PSoC5/Timer_48MHz.c **** *  void
 294:Generated_Source\PSoC5/Timer_48MHz.c **** *
 295:Generated_Source\PSoC5/Timer_48MHz.c **** * Return:
 296:Generated_Source\PSoC5/Timer_48MHz.c **** *  void
 297:Generated_Source\PSoC5/Timer_48MHz.c **** *
 298:Generated_Source\PSoC5/Timer_48MHz.c **** * Side Effects:
ARM GAS  C:\Users\bmt\AppData\Local\Temp\cctdXMto.s 			page 12


 299:Generated_Source\PSoC5/Timer_48MHz.c **** *  An existing hardware capture could be overwritten.
 300:Generated_Source\PSoC5/Timer_48MHz.c **** *
 301:Generated_Source\PSoC5/Timer_48MHz.c **** *******************************************************************************/
 302:Generated_Source\PSoC5/Timer_48MHz.c **** void Timer_48MHz_SoftwareCapture(void) 
 303:Generated_Source\PSoC5/Timer_48MHz.c **** {
 330              		.loc 1 303 0
 331              		.cfi_startproc
 332              		@ args = 0, pretend = 0, frame = 0
 333              		@ frame_needed = 1, uses_anonymous_args = 0
 334              		@ link register save eliminated.
 335 0000 80B4     		push	{r7}
 336              		.cfi_def_cfa_offset 4
 337              		.cfi_offset 7, -4
 338 0002 00AF     		add	r7, sp, #0
 339              		.cfi_def_cfa_register 7
 304:Generated_Source\PSoC5/Timer_48MHz.c ****     /* Generate a software capture by reading the counter register */
 305:Generated_Source\PSoC5/Timer_48MHz.c ****     #if(Timer_48MHz_UsingFixedFunction)
 306:Generated_Source\PSoC5/Timer_48MHz.c ****         (void)CY_GET_REG16(Timer_48MHz_COUNTER_LSB_PTR);
 340              		.loc 1 306 0
 341 0004 024B     		ldr	r3, .L18
 342 0006 1B88     		ldrh	r3, [r3]	@ movhi
 307:Generated_Source\PSoC5/Timer_48MHz.c ****     #else
 308:Generated_Source\PSoC5/Timer_48MHz.c ****         (void)CY_GET_REG8(Timer_48MHz_COUNTER_LSB_PTR_8BIT);
 309:Generated_Source\PSoC5/Timer_48MHz.c ****     #endif/* (Timer_48MHz_UsingFixedFunction) */
 310:Generated_Source\PSoC5/Timer_48MHz.c ****     /* Capture Data is now in the FIFO */
 311:Generated_Source\PSoC5/Timer_48MHz.c **** }
 343              		.loc 1 311 0
 344 0008 BD46     		mov	sp, r7
 345              		.cfi_def_cfa_register 13
 346              		@ sp needed
 347 000a 5DF8047B 		ldr	r7, [sp], #4
 348              		.cfi_restore 7
 349              		.cfi_def_cfa_offset 0
 350 000e 7047     		bx	lr
 351              	.L19:
 352              		.align	2
 353              	.L18:
 354 0010 124F0040 		.word	1073762066
 355              		.cfi_endproc
 356              	.LFE5:
 357              		.size	Timer_48MHz_SoftwareCapture, .-Timer_48MHz_SoftwareCapture
 358              		.section	.text.Timer_48MHz_ReadStatusRegister,"ax",%progbits
 359              		.align	2
 360              		.global	Timer_48MHz_ReadStatusRegister
 361              		.thumb
 362              		.thumb_func
 363              		.type	Timer_48MHz_ReadStatusRegister, %function
 364              	Timer_48MHz_ReadStatusRegister:
 365              	.LFB6:
 312:Generated_Source\PSoC5/Timer_48MHz.c **** 
 313:Generated_Source\PSoC5/Timer_48MHz.c **** 
 314:Generated_Source\PSoC5/Timer_48MHz.c **** /*******************************************************************************
 315:Generated_Source\PSoC5/Timer_48MHz.c **** * Function Name: Timer_48MHz_ReadStatusRegister
 316:Generated_Source\PSoC5/Timer_48MHz.c **** ********************************************************************************
 317:Generated_Source\PSoC5/Timer_48MHz.c **** *
 318:Generated_Source\PSoC5/Timer_48MHz.c **** * Summary:
 319:Generated_Source\PSoC5/Timer_48MHz.c **** *  Reads the status register and returns it's state. This function should use
ARM GAS  C:\Users\bmt\AppData\Local\Temp\cctdXMto.s 			page 13


 320:Generated_Source\PSoC5/Timer_48MHz.c **** *  defined types for the bit-field information as the bits in this register may
 321:Generated_Source\PSoC5/Timer_48MHz.c **** *  be permuteable.
 322:Generated_Source\PSoC5/Timer_48MHz.c **** *
 323:Generated_Source\PSoC5/Timer_48MHz.c **** * Parameters:
 324:Generated_Source\PSoC5/Timer_48MHz.c **** *  void
 325:Generated_Source\PSoC5/Timer_48MHz.c **** *
 326:Generated_Source\PSoC5/Timer_48MHz.c **** * Return:
 327:Generated_Source\PSoC5/Timer_48MHz.c **** *  The contents of the status register
 328:Generated_Source\PSoC5/Timer_48MHz.c **** *
 329:Generated_Source\PSoC5/Timer_48MHz.c **** * Side Effects:
 330:Generated_Source\PSoC5/Timer_48MHz.c **** *  Status register bits may be clear on read.
 331:Generated_Source\PSoC5/Timer_48MHz.c **** *
 332:Generated_Source\PSoC5/Timer_48MHz.c **** *******************************************************************************/
 333:Generated_Source\PSoC5/Timer_48MHz.c **** uint8   Timer_48MHz_ReadStatusRegister(void) 
 334:Generated_Source\PSoC5/Timer_48MHz.c **** {
 366              		.loc 1 334 0
 367              		.cfi_startproc
 368              		@ args = 0, pretend = 0, frame = 0
 369              		@ frame_needed = 1, uses_anonymous_args = 0
 370              		@ link register save eliminated.
 371 0000 80B4     		push	{r7}
 372              		.cfi_def_cfa_offset 4
 373              		.cfi_offset 7, -4
 374 0002 00AF     		add	r7, sp, #0
 375              		.cfi_def_cfa_register 7
 335:Generated_Source\PSoC5/Timer_48MHz.c ****     return (Timer_48MHz_STATUS);
 376              		.loc 1 335 0
 377 0004 034B     		ldr	r3, .L22
 378 0006 1B78     		ldrb	r3, [r3]
 379 0008 DBB2     		uxtb	r3, r3
 336:Generated_Source\PSoC5/Timer_48MHz.c **** }
 380              		.loc 1 336 0
 381 000a 1846     		mov	r0, r3
 382 000c BD46     		mov	sp, r7
 383              		.cfi_def_cfa_register 13
 384              		@ sp needed
 385 000e 5DF8047B 		ldr	r7, [sp], #4
 386              		.cfi_restore 7
 387              		.cfi_def_cfa_offset 0
 388 0012 7047     		bx	lr
 389              	.L23:
 390              		.align	2
 391              	.L22:
 392 0014 0F4F0040 		.word	1073762063
 393              		.cfi_endproc
 394              	.LFE6:
 395              		.size	Timer_48MHz_ReadStatusRegister, .-Timer_48MHz_ReadStatusRegister
 396              		.section	.text.Timer_48MHz_ReadControlRegister,"ax",%progbits
 397              		.align	2
 398              		.global	Timer_48MHz_ReadControlRegister
 399              		.thumb
 400              		.thumb_func
 401              		.type	Timer_48MHz_ReadControlRegister, %function
 402              	Timer_48MHz_ReadControlRegister:
 403              	.LFB7:
 337:Generated_Source\PSoC5/Timer_48MHz.c **** 
 338:Generated_Source\PSoC5/Timer_48MHz.c **** 
ARM GAS  C:\Users\bmt\AppData\Local\Temp\cctdXMto.s 			page 14


 339:Generated_Source\PSoC5/Timer_48MHz.c **** #if (!Timer_48MHz_UDB_CONTROL_REG_REMOVED) /* Remove API if control register is unused */
 340:Generated_Source\PSoC5/Timer_48MHz.c **** 
 341:Generated_Source\PSoC5/Timer_48MHz.c **** 
 342:Generated_Source\PSoC5/Timer_48MHz.c **** /*******************************************************************************
 343:Generated_Source\PSoC5/Timer_48MHz.c **** * Function Name: Timer_48MHz_ReadControlRegister
 344:Generated_Source\PSoC5/Timer_48MHz.c **** ********************************************************************************
 345:Generated_Source\PSoC5/Timer_48MHz.c **** *
 346:Generated_Source\PSoC5/Timer_48MHz.c **** * Summary:
 347:Generated_Source\PSoC5/Timer_48MHz.c **** *  Reads the control register and returns it's value.
 348:Generated_Source\PSoC5/Timer_48MHz.c **** *
 349:Generated_Source\PSoC5/Timer_48MHz.c **** * Parameters:
 350:Generated_Source\PSoC5/Timer_48MHz.c **** *  void
 351:Generated_Source\PSoC5/Timer_48MHz.c **** *
 352:Generated_Source\PSoC5/Timer_48MHz.c **** * Return:
 353:Generated_Source\PSoC5/Timer_48MHz.c **** *  The contents of the control register
 354:Generated_Source\PSoC5/Timer_48MHz.c **** *
 355:Generated_Source\PSoC5/Timer_48MHz.c **** *******************************************************************************/
 356:Generated_Source\PSoC5/Timer_48MHz.c **** uint8 Timer_48MHz_ReadControlRegister(void) 
 357:Generated_Source\PSoC5/Timer_48MHz.c **** {
 404              		.loc 1 357 0
 405              		.cfi_startproc
 406              		@ args = 0, pretend = 0, frame = 0
 407              		@ frame_needed = 1, uses_anonymous_args = 0
 408              		@ link register save eliminated.
 409 0000 80B4     		push	{r7}
 410              		.cfi_def_cfa_offset 4
 411              		.cfi_offset 7, -4
 412 0002 00AF     		add	r7, sp, #0
 413              		.cfi_def_cfa_register 7
 358:Generated_Source\PSoC5/Timer_48MHz.c ****     #if (!Timer_48MHz_UDB_CONTROL_REG_REMOVED) 
 359:Generated_Source\PSoC5/Timer_48MHz.c ****         return ((uint8)Timer_48MHz_CONTROL);
 414              		.loc 1 359 0
 415 0004 034B     		ldr	r3, .L26
 416 0006 1B78     		ldrb	r3, [r3]
 417 0008 DBB2     		uxtb	r3, r3
 360:Generated_Source\PSoC5/Timer_48MHz.c ****     #else
 361:Generated_Source\PSoC5/Timer_48MHz.c ****         return (0);
 362:Generated_Source\PSoC5/Timer_48MHz.c ****     #endif /* (!Timer_48MHz_UDB_CONTROL_REG_REMOVED) */
 363:Generated_Source\PSoC5/Timer_48MHz.c **** }
 418              		.loc 1 363 0
 419 000a 1846     		mov	r0, r3
 420 000c BD46     		mov	sp, r7
 421              		.cfi_def_cfa_register 13
 422              		@ sp needed
 423 000e 5DF8047B 		ldr	r7, [sp], #4
 424              		.cfi_restore 7
 425              		.cfi_def_cfa_offset 0
 426 0012 7047     		bx	lr
 427              	.L27:
 428              		.align	2
 429              	.L26:
 430 0014 0C4F0040 		.word	1073762060
 431              		.cfi_endproc
 432              	.LFE7:
 433              		.size	Timer_48MHz_ReadControlRegister, .-Timer_48MHz_ReadControlRegister
 434              		.section	.text.Timer_48MHz_WriteControlRegister,"ax",%progbits
 435              		.align	2
ARM GAS  C:\Users\bmt\AppData\Local\Temp\cctdXMto.s 			page 15


 436              		.global	Timer_48MHz_WriteControlRegister
 437              		.thumb
 438              		.thumb_func
 439              		.type	Timer_48MHz_WriteControlRegister, %function
 440              	Timer_48MHz_WriteControlRegister:
 441              	.LFB8:
 364:Generated_Source\PSoC5/Timer_48MHz.c **** 
 365:Generated_Source\PSoC5/Timer_48MHz.c **** 
 366:Generated_Source\PSoC5/Timer_48MHz.c **** /*******************************************************************************
 367:Generated_Source\PSoC5/Timer_48MHz.c **** * Function Name: Timer_48MHz_WriteControlRegister
 368:Generated_Source\PSoC5/Timer_48MHz.c **** ********************************************************************************
 369:Generated_Source\PSoC5/Timer_48MHz.c **** *
 370:Generated_Source\PSoC5/Timer_48MHz.c **** * Summary:
 371:Generated_Source\PSoC5/Timer_48MHz.c **** *  Sets the bit-field of the control register.
 372:Generated_Source\PSoC5/Timer_48MHz.c **** *
 373:Generated_Source\PSoC5/Timer_48MHz.c **** * Parameters:
 374:Generated_Source\PSoC5/Timer_48MHz.c **** *  control: The contents of the control register
 375:Generated_Source\PSoC5/Timer_48MHz.c **** *
 376:Generated_Source\PSoC5/Timer_48MHz.c **** * Return:
 377:Generated_Source\PSoC5/Timer_48MHz.c **** *
 378:Generated_Source\PSoC5/Timer_48MHz.c **** *******************************************************************************/
 379:Generated_Source\PSoC5/Timer_48MHz.c **** void Timer_48MHz_WriteControlRegister(uint8 control) 
 380:Generated_Source\PSoC5/Timer_48MHz.c **** {
 442              		.loc 1 380 0
 443              		.cfi_startproc
 444              		@ args = 0, pretend = 0, frame = 8
 445              		@ frame_needed = 1, uses_anonymous_args = 0
 446              		@ link register save eliminated.
 447 0000 80B4     		push	{r7}
 448              		.cfi_def_cfa_offset 4
 449              		.cfi_offset 7, -4
 450 0002 83B0     		sub	sp, sp, #12
 451              		.cfi_def_cfa_offset 16
 452 0004 00AF     		add	r7, sp, #0
 453              		.cfi_def_cfa_register 7
 454 0006 0346     		mov	r3, r0
 455 0008 FB71     		strb	r3, [r7, #7]
 381:Generated_Source\PSoC5/Timer_48MHz.c ****     #if (!Timer_48MHz_UDB_CONTROL_REG_REMOVED) 
 382:Generated_Source\PSoC5/Timer_48MHz.c ****         Timer_48MHz_CONTROL = control;
 456              		.loc 1 382 0
 457 000a 044A     		ldr	r2, .L29
 458 000c FB79     		ldrb	r3, [r7, #7]
 459 000e 1370     		strb	r3, [r2]
 383:Generated_Source\PSoC5/Timer_48MHz.c ****     #else
 384:Generated_Source\PSoC5/Timer_48MHz.c ****         control = 0u;
 385:Generated_Source\PSoC5/Timer_48MHz.c ****     #endif /* (!Timer_48MHz_UDB_CONTROL_REG_REMOVED) */
 386:Generated_Source\PSoC5/Timer_48MHz.c **** }
 460              		.loc 1 386 0
 461 0010 0C37     		adds	r7, r7, #12
 462              		.cfi_def_cfa_offset 4
 463 0012 BD46     		mov	sp, r7
 464              		.cfi_def_cfa_register 13
 465              		@ sp needed
 466 0014 5DF8047B 		ldr	r7, [sp], #4
 467              		.cfi_restore 7
 468              		.cfi_def_cfa_offset 0
 469 0018 7047     		bx	lr
ARM GAS  C:\Users\bmt\AppData\Local\Temp\cctdXMto.s 			page 16


 470              	.L30:
 471 001a 00BF     		.align	2
 472              	.L29:
 473 001c 0C4F0040 		.word	1073762060
 474              		.cfi_endproc
 475              	.LFE8:
 476              		.size	Timer_48MHz_WriteControlRegister, .-Timer_48MHz_WriteControlRegister
 477              		.section	.text.Timer_48MHz_ReadPeriod,"ax",%progbits
 478              		.align	2
 479              		.global	Timer_48MHz_ReadPeriod
 480              		.thumb
 481              		.thumb_func
 482              		.type	Timer_48MHz_ReadPeriod, %function
 483              	Timer_48MHz_ReadPeriod:
 484              	.LFB9:
 387:Generated_Source\PSoC5/Timer_48MHz.c **** 
 388:Generated_Source\PSoC5/Timer_48MHz.c **** #endif /* Remove API if control register is unused */
 389:Generated_Source\PSoC5/Timer_48MHz.c **** 
 390:Generated_Source\PSoC5/Timer_48MHz.c **** 
 391:Generated_Source\PSoC5/Timer_48MHz.c **** /*******************************************************************************
 392:Generated_Source\PSoC5/Timer_48MHz.c **** * Function Name: Timer_48MHz_ReadPeriod
 393:Generated_Source\PSoC5/Timer_48MHz.c **** ********************************************************************************
 394:Generated_Source\PSoC5/Timer_48MHz.c **** *
 395:Generated_Source\PSoC5/Timer_48MHz.c **** * Summary:
 396:Generated_Source\PSoC5/Timer_48MHz.c **** *  This function returns the current value of the Period.
 397:Generated_Source\PSoC5/Timer_48MHz.c **** *
 398:Generated_Source\PSoC5/Timer_48MHz.c **** * Parameters:
 399:Generated_Source\PSoC5/Timer_48MHz.c **** *  void
 400:Generated_Source\PSoC5/Timer_48MHz.c **** *
 401:Generated_Source\PSoC5/Timer_48MHz.c **** * Return:
 402:Generated_Source\PSoC5/Timer_48MHz.c **** *  The present value of the counter.
 403:Generated_Source\PSoC5/Timer_48MHz.c **** *
 404:Generated_Source\PSoC5/Timer_48MHz.c **** *******************************************************************************/
 405:Generated_Source\PSoC5/Timer_48MHz.c **** uint16 Timer_48MHz_ReadPeriod(void) 
 406:Generated_Source\PSoC5/Timer_48MHz.c **** {
 485              		.loc 1 406 0
 486              		.cfi_startproc
 487              		@ args = 0, pretend = 0, frame = 0
 488              		@ frame_needed = 1, uses_anonymous_args = 0
 489              		@ link register save eliminated.
 490 0000 80B4     		push	{r7}
 491              		.cfi_def_cfa_offset 4
 492              		.cfi_offset 7, -4
 493 0002 00AF     		add	r7, sp, #0
 494              		.cfi_def_cfa_register 7
 407:Generated_Source\PSoC5/Timer_48MHz.c ****    #if(Timer_48MHz_UsingFixedFunction)
 408:Generated_Source\PSoC5/Timer_48MHz.c ****        return ((uint16)CY_GET_REG16(Timer_48MHz_PERIOD_LSB_PTR));
 495              		.loc 1 408 0
 496 0004 034B     		ldr	r3, .L33
 497 0006 1B88     		ldrh	r3, [r3]	@ movhi
 498 0008 9BB2     		uxth	r3, r3
 409:Generated_Source\PSoC5/Timer_48MHz.c ****    #else
 410:Generated_Source\PSoC5/Timer_48MHz.c ****        return (CY_GET_REG16(Timer_48MHz_PERIOD_LSB_PTR));
 411:Generated_Source\PSoC5/Timer_48MHz.c ****    #endif /* (Timer_48MHz_UsingFixedFunction) */
 412:Generated_Source\PSoC5/Timer_48MHz.c **** }
 499              		.loc 1 412 0
 500 000a 1846     		mov	r0, r3
ARM GAS  C:\Users\bmt\AppData\Local\Temp\cctdXMto.s 			page 17


 501 000c BD46     		mov	sp, r7
 502              		.cfi_def_cfa_register 13
 503              		@ sp needed
 504 000e 5DF8047B 		ldr	r7, [sp], #4
 505              		.cfi_restore 7
 506              		.cfi_def_cfa_offset 0
 507 0012 7047     		bx	lr
 508              	.L34:
 509              		.align	2
 510              	.L33:
 511 0014 104F0040 		.word	1073762064
 512              		.cfi_endproc
 513              	.LFE9:
 514              		.size	Timer_48MHz_ReadPeriod, .-Timer_48MHz_ReadPeriod
 515              		.section	.text.Timer_48MHz_WritePeriod,"ax",%progbits
 516              		.align	2
 517              		.global	Timer_48MHz_WritePeriod
 518              		.thumb
 519              		.thumb_func
 520              		.type	Timer_48MHz_WritePeriod, %function
 521              	Timer_48MHz_WritePeriod:
 522              	.LFB10:
 413:Generated_Source\PSoC5/Timer_48MHz.c **** 
 414:Generated_Source\PSoC5/Timer_48MHz.c **** 
 415:Generated_Source\PSoC5/Timer_48MHz.c **** /*******************************************************************************
 416:Generated_Source\PSoC5/Timer_48MHz.c **** * Function Name: Timer_48MHz_WritePeriod
 417:Generated_Source\PSoC5/Timer_48MHz.c **** ********************************************************************************
 418:Generated_Source\PSoC5/Timer_48MHz.c **** *
 419:Generated_Source\PSoC5/Timer_48MHz.c **** * Summary:
 420:Generated_Source\PSoC5/Timer_48MHz.c **** *  This function is used to change the period of the counter.  The new period
 421:Generated_Source\PSoC5/Timer_48MHz.c **** *  will be loaded the next time terminal count is detected.
 422:Generated_Source\PSoC5/Timer_48MHz.c **** *
 423:Generated_Source\PSoC5/Timer_48MHz.c **** * Parameters:
 424:Generated_Source\PSoC5/Timer_48MHz.c **** *  period: This value may be between 1 and (2^Resolution)-1.  A value of 0 will
 425:Generated_Source\PSoC5/Timer_48MHz.c **** *          result in the counter remaining at zero.
 426:Generated_Source\PSoC5/Timer_48MHz.c **** *
 427:Generated_Source\PSoC5/Timer_48MHz.c **** * Return:
 428:Generated_Source\PSoC5/Timer_48MHz.c **** *  void
 429:Generated_Source\PSoC5/Timer_48MHz.c **** *
 430:Generated_Source\PSoC5/Timer_48MHz.c **** *******************************************************************************/
 431:Generated_Source\PSoC5/Timer_48MHz.c **** void Timer_48MHz_WritePeriod(uint16 period) 
 432:Generated_Source\PSoC5/Timer_48MHz.c **** {
 523              		.loc 1 432 0
 524              		.cfi_startproc
 525              		@ args = 0, pretend = 0, frame = 16
 526              		@ frame_needed = 1, uses_anonymous_args = 0
 527              		@ link register save eliminated.
 528 0000 80B4     		push	{r7}
 529              		.cfi_def_cfa_offset 4
 530              		.cfi_offset 7, -4
 531 0002 85B0     		sub	sp, sp, #20
 532              		.cfi_def_cfa_offset 24
 533 0004 00AF     		add	r7, sp, #0
 534              		.cfi_def_cfa_register 7
 535 0006 0346     		mov	r3, r0
 536 0008 FB80     		strh	r3, [r7, #6]	@ movhi
 433:Generated_Source\PSoC5/Timer_48MHz.c ****     #if(Timer_48MHz_UsingFixedFunction)
ARM GAS  C:\Users\bmt\AppData\Local\Temp\cctdXMto.s 			page 18


 434:Generated_Source\PSoC5/Timer_48MHz.c ****         uint16 period_temp = (uint16)period;
 537              		.loc 1 434 0
 538 000a FB88     		ldrh	r3, [r7, #6]	@ movhi
 539 000c FB81     		strh	r3, [r7, #14]	@ movhi
 435:Generated_Source\PSoC5/Timer_48MHz.c ****         CY_SET_REG16(Timer_48MHz_PERIOD_LSB_PTR, period_temp);
 540              		.loc 1 435 0
 541 000e 044A     		ldr	r2, .L36
 542 0010 FB89     		ldrh	r3, [r7, #14]	@ movhi
 543 0012 1380     		strh	r3, [r2]	@ movhi
 436:Generated_Source\PSoC5/Timer_48MHz.c ****     #else
 437:Generated_Source\PSoC5/Timer_48MHz.c ****         CY_SET_REG16(Timer_48MHz_PERIOD_LSB_PTR, period);
 438:Generated_Source\PSoC5/Timer_48MHz.c ****     #endif /*Write Period value with appropriate resolution suffix depending on UDB or fixed functi
 439:Generated_Source\PSoC5/Timer_48MHz.c **** }
 544              		.loc 1 439 0
 545 0014 1437     		adds	r7, r7, #20
 546              		.cfi_def_cfa_offset 4
 547 0016 BD46     		mov	sp, r7
 548              		.cfi_def_cfa_register 13
 549              		@ sp needed
 550 0018 5DF8047B 		ldr	r7, [sp], #4
 551              		.cfi_restore 7
 552              		.cfi_def_cfa_offset 0
 553 001c 7047     		bx	lr
 554              	.L37:
 555 001e 00BF     		.align	2
 556              	.L36:
 557 0020 104F0040 		.word	1073762064
 558              		.cfi_endproc
 559              	.LFE10:
 560              		.size	Timer_48MHz_WritePeriod, .-Timer_48MHz_WritePeriod
 561              		.section	.text.Timer_48MHz_ReadCapture,"ax",%progbits
 562              		.align	2
 563              		.global	Timer_48MHz_ReadCapture
 564              		.thumb
 565              		.thumb_func
 566              		.type	Timer_48MHz_ReadCapture, %function
 567              	Timer_48MHz_ReadCapture:
 568              	.LFB11:
 440:Generated_Source\PSoC5/Timer_48MHz.c **** 
 441:Generated_Source\PSoC5/Timer_48MHz.c **** 
 442:Generated_Source\PSoC5/Timer_48MHz.c **** /*******************************************************************************
 443:Generated_Source\PSoC5/Timer_48MHz.c **** * Function Name: Timer_48MHz_ReadCapture
 444:Generated_Source\PSoC5/Timer_48MHz.c **** ********************************************************************************
 445:Generated_Source\PSoC5/Timer_48MHz.c **** *
 446:Generated_Source\PSoC5/Timer_48MHz.c **** * Summary:
 447:Generated_Source\PSoC5/Timer_48MHz.c **** *  This function returns the last value captured.
 448:Generated_Source\PSoC5/Timer_48MHz.c **** *
 449:Generated_Source\PSoC5/Timer_48MHz.c **** * Parameters:
 450:Generated_Source\PSoC5/Timer_48MHz.c **** *  void
 451:Generated_Source\PSoC5/Timer_48MHz.c **** *
 452:Generated_Source\PSoC5/Timer_48MHz.c **** * Return:
 453:Generated_Source\PSoC5/Timer_48MHz.c **** *  Present Capture value.
 454:Generated_Source\PSoC5/Timer_48MHz.c **** *
 455:Generated_Source\PSoC5/Timer_48MHz.c **** *******************************************************************************/
 456:Generated_Source\PSoC5/Timer_48MHz.c **** uint16 Timer_48MHz_ReadCapture(void) 
 457:Generated_Source\PSoC5/Timer_48MHz.c **** {
 569              		.loc 1 457 0
ARM GAS  C:\Users\bmt\AppData\Local\Temp\cctdXMto.s 			page 19


 570              		.cfi_startproc
 571              		@ args = 0, pretend = 0, frame = 0
 572              		@ frame_needed = 1, uses_anonymous_args = 0
 573              		@ link register save eliminated.
 574 0000 80B4     		push	{r7}
 575              		.cfi_def_cfa_offset 4
 576              		.cfi_offset 7, -4
 577 0002 00AF     		add	r7, sp, #0
 578              		.cfi_def_cfa_register 7
 458:Generated_Source\PSoC5/Timer_48MHz.c ****    #if(Timer_48MHz_UsingFixedFunction)
 459:Generated_Source\PSoC5/Timer_48MHz.c ****        return ((uint16)CY_GET_REG16(Timer_48MHz_CAPTURE_LSB_PTR));
 579              		.loc 1 459 0
 580 0004 034B     		ldr	r3, .L40
 581 0006 1B88     		ldrh	r3, [r3]	@ movhi
 582 0008 9BB2     		uxth	r3, r3
 460:Generated_Source\PSoC5/Timer_48MHz.c ****    #else
 461:Generated_Source\PSoC5/Timer_48MHz.c ****        return (CY_GET_REG16(Timer_48MHz_CAPTURE_LSB_PTR));
 462:Generated_Source\PSoC5/Timer_48MHz.c ****    #endif /* (Timer_48MHz_UsingFixedFunction) */
 463:Generated_Source\PSoC5/Timer_48MHz.c **** }
 583              		.loc 1 463 0
 584 000a 1846     		mov	r0, r3
 585 000c BD46     		mov	sp, r7
 586              		.cfi_def_cfa_register 13
 587              		@ sp needed
 588 000e 5DF8047B 		ldr	r7, [sp], #4
 589              		.cfi_restore 7
 590              		.cfi_def_cfa_offset 0
 591 0012 7047     		bx	lr
 592              	.L41:
 593              		.align	2
 594              	.L40:
 595 0014 144F0040 		.word	1073762068
 596              		.cfi_endproc
 597              	.LFE11:
 598              		.size	Timer_48MHz_ReadCapture, .-Timer_48MHz_ReadCapture
 599              		.section	.text.Timer_48MHz_WriteCounter,"ax",%progbits
 600              		.align	2
 601              		.global	Timer_48MHz_WriteCounter
 602              		.thumb
 603              		.thumb_func
 604              		.type	Timer_48MHz_WriteCounter, %function
 605              	Timer_48MHz_WriteCounter:
 606              	.LFB12:
 464:Generated_Source\PSoC5/Timer_48MHz.c **** 
 465:Generated_Source\PSoC5/Timer_48MHz.c **** 
 466:Generated_Source\PSoC5/Timer_48MHz.c **** /*******************************************************************************
 467:Generated_Source\PSoC5/Timer_48MHz.c **** * Function Name: Timer_48MHz_WriteCounter
 468:Generated_Source\PSoC5/Timer_48MHz.c **** ********************************************************************************
 469:Generated_Source\PSoC5/Timer_48MHz.c **** *
 470:Generated_Source\PSoC5/Timer_48MHz.c **** * Summary:
 471:Generated_Source\PSoC5/Timer_48MHz.c **** *  This funtion is used to set the counter to a specific value
 472:Generated_Source\PSoC5/Timer_48MHz.c **** *
 473:Generated_Source\PSoC5/Timer_48MHz.c **** * Parameters:
 474:Generated_Source\PSoC5/Timer_48MHz.c **** *  counter:  New counter value.
 475:Generated_Source\PSoC5/Timer_48MHz.c **** *
 476:Generated_Source\PSoC5/Timer_48MHz.c **** * Return:
 477:Generated_Source\PSoC5/Timer_48MHz.c **** *  void
ARM GAS  C:\Users\bmt\AppData\Local\Temp\cctdXMto.s 			page 20


 478:Generated_Source\PSoC5/Timer_48MHz.c **** *
 479:Generated_Source\PSoC5/Timer_48MHz.c **** *******************************************************************************/
 480:Generated_Source\PSoC5/Timer_48MHz.c **** void Timer_48MHz_WriteCounter(uint16 counter) 
 481:Generated_Source\PSoC5/Timer_48MHz.c **** {
 607              		.loc 1 481 0
 608              		.cfi_startproc
 609              		@ args = 0, pretend = 0, frame = 8
 610              		@ frame_needed = 1, uses_anonymous_args = 0
 611              		@ link register save eliminated.
 612 0000 80B4     		push	{r7}
 613              		.cfi_def_cfa_offset 4
 614              		.cfi_offset 7, -4
 615 0002 83B0     		sub	sp, sp, #12
 616              		.cfi_def_cfa_offset 16
 617 0004 00AF     		add	r7, sp, #0
 618              		.cfi_def_cfa_register 7
 619 0006 0346     		mov	r3, r0
 620 0008 FB80     		strh	r3, [r7, #6]	@ movhi
 482:Generated_Source\PSoC5/Timer_48MHz.c ****    #if(Timer_48MHz_UsingFixedFunction)
 483:Generated_Source\PSoC5/Timer_48MHz.c ****         /* This functionality is removed until a FixedFunction HW update to
 484:Generated_Source\PSoC5/Timer_48MHz.c ****          * allow this register to be written
 485:Generated_Source\PSoC5/Timer_48MHz.c ****          */
 486:Generated_Source\PSoC5/Timer_48MHz.c ****         CY_SET_REG16(Timer_48MHz_COUNTER_LSB_PTR, (uint16)counter);
 621              		.loc 1 486 0
 622 000a 044A     		ldr	r2, .L43
 623 000c FB88     		ldrh	r3, [r7, #6]	@ movhi
 624 000e 1380     		strh	r3, [r2]	@ movhi
 487:Generated_Source\PSoC5/Timer_48MHz.c ****         
 488:Generated_Source\PSoC5/Timer_48MHz.c ****     #else
 489:Generated_Source\PSoC5/Timer_48MHz.c ****         CY_SET_REG16(Timer_48MHz_COUNTER_LSB_PTR, counter);
 490:Generated_Source\PSoC5/Timer_48MHz.c ****     #endif /* Set Write Counter only for the UDB implementation (Write Counter not available in fix
 491:Generated_Source\PSoC5/Timer_48MHz.c **** }
 625              		.loc 1 491 0
 626 0010 0C37     		adds	r7, r7, #12
 627              		.cfi_def_cfa_offset 4
 628 0012 BD46     		mov	sp, r7
 629              		.cfi_def_cfa_register 13
 630              		@ sp needed
 631 0014 5DF8047B 		ldr	r7, [sp], #4
 632              		.cfi_restore 7
 633              		.cfi_def_cfa_offset 0
 634 0018 7047     		bx	lr
 635              	.L44:
 636 001a 00BF     		.align	2
 637              	.L43:
 638 001c 124F0040 		.word	1073762066
 639              		.cfi_endproc
 640              	.LFE12:
 641              		.size	Timer_48MHz_WriteCounter, .-Timer_48MHz_WriteCounter
 642              		.section	.text.Timer_48MHz_ReadCounter,"ax",%progbits
 643              		.align	2
 644              		.global	Timer_48MHz_ReadCounter
 645              		.thumb
 646              		.thumb_func
 647              		.type	Timer_48MHz_ReadCounter, %function
 648              	Timer_48MHz_ReadCounter:
 649              	.LFB13:
ARM GAS  C:\Users\bmt\AppData\Local\Temp\cctdXMto.s 			page 21


 492:Generated_Source\PSoC5/Timer_48MHz.c **** 
 493:Generated_Source\PSoC5/Timer_48MHz.c **** 
 494:Generated_Source\PSoC5/Timer_48MHz.c **** /*******************************************************************************
 495:Generated_Source\PSoC5/Timer_48MHz.c **** * Function Name: Timer_48MHz_ReadCounter
 496:Generated_Source\PSoC5/Timer_48MHz.c **** ********************************************************************************
 497:Generated_Source\PSoC5/Timer_48MHz.c **** *
 498:Generated_Source\PSoC5/Timer_48MHz.c **** * Summary:
 499:Generated_Source\PSoC5/Timer_48MHz.c **** *  This function returns the current counter value.
 500:Generated_Source\PSoC5/Timer_48MHz.c **** *
 501:Generated_Source\PSoC5/Timer_48MHz.c **** * Parameters:
 502:Generated_Source\PSoC5/Timer_48MHz.c **** *  void
 503:Generated_Source\PSoC5/Timer_48MHz.c **** *
 504:Generated_Source\PSoC5/Timer_48MHz.c **** * Return:
 505:Generated_Source\PSoC5/Timer_48MHz.c **** *  Present compare value.
 506:Generated_Source\PSoC5/Timer_48MHz.c **** *
 507:Generated_Source\PSoC5/Timer_48MHz.c **** *******************************************************************************/
 508:Generated_Source\PSoC5/Timer_48MHz.c **** uint16 Timer_48MHz_ReadCounter(void) 
 509:Generated_Source\PSoC5/Timer_48MHz.c **** {
 650              		.loc 1 509 0
 651              		.cfi_startproc
 652              		@ args = 0, pretend = 0, frame = 0
 653              		@ frame_needed = 1, uses_anonymous_args = 0
 654              		@ link register save eliminated.
 655 0000 80B4     		push	{r7}
 656              		.cfi_def_cfa_offset 4
 657              		.cfi_offset 7, -4
 658 0002 00AF     		add	r7, sp, #0
 659              		.cfi_def_cfa_register 7
 510:Generated_Source\PSoC5/Timer_48MHz.c ****     /* Force capture by reading Accumulator */
 511:Generated_Source\PSoC5/Timer_48MHz.c ****     /* Must first do a software capture to be able to read the counter */
 512:Generated_Source\PSoC5/Timer_48MHz.c ****     /* It is up to the user code to make sure there isn't already captured data in the FIFO */
 513:Generated_Source\PSoC5/Timer_48MHz.c ****     #if(Timer_48MHz_UsingFixedFunction)
 514:Generated_Source\PSoC5/Timer_48MHz.c ****         (void)CY_GET_REG16(Timer_48MHz_COUNTER_LSB_PTR);
 660              		.loc 1 514 0
 661 0004 044B     		ldr	r3, .L47
 662 0006 1B88     		ldrh	r3, [r3]	@ movhi
 515:Generated_Source\PSoC5/Timer_48MHz.c ****     #else
 516:Generated_Source\PSoC5/Timer_48MHz.c ****         (void)CY_GET_REG8(Timer_48MHz_COUNTER_LSB_PTR_8BIT);
 517:Generated_Source\PSoC5/Timer_48MHz.c ****     #endif/* (Timer_48MHz_UsingFixedFunction) */
 518:Generated_Source\PSoC5/Timer_48MHz.c **** 
 519:Generated_Source\PSoC5/Timer_48MHz.c ****     /* Read the data from the FIFO (or capture register for Fixed Function)*/
 520:Generated_Source\PSoC5/Timer_48MHz.c ****     #if(Timer_48MHz_UsingFixedFunction)
 521:Generated_Source\PSoC5/Timer_48MHz.c ****         return ((uint16)CY_GET_REG16(Timer_48MHz_CAPTURE_LSB_PTR));
 663              		.loc 1 521 0
 664 0008 044B     		ldr	r3, .L47+4
 665 000a 1B88     		ldrh	r3, [r3]	@ movhi
 666 000c 9BB2     		uxth	r3, r3
 522:Generated_Source\PSoC5/Timer_48MHz.c ****     #else
 523:Generated_Source\PSoC5/Timer_48MHz.c ****         return (CY_GET_REG16(Timer_48MHz_CAPTURE_LSB_PTR));
 524:Generated_Source\PSoC5/Timer_48MHz.c ****     #endif /* (Timer_48MHz_UsingFixedFunction) */
 525:Generated_Source\PSoC5/Timer_48MHz.c **** }
 667              		.loc 1 525 0
 668 000e 1846     		mov	r0, r3
 669 0010 BD46     		mov	sp, r7
 670              		.cfi_def_cfa_register 13
 671              		@ sp needed
 672 0012 5DF8047B 		ldr	r7, [sp], #4
ARM GAS  C:\Users\bmt\AppData\Local\Temp\cctdXMto.s 			page 22


 673              		.cfi_restore 7
 674              		.cfi_def_cfa_offset 0
 675 0016 7047     		bx	lr
 676              	.L48:
 677              		.align	2
 678              	.L47:
 679 0018 124F0040 		.word	1073762066
 680 001c 144F0040 		.word	1073762068
 681              		.cfi_endproc
 682              	.LFE13:
 683              		.size	Timer_48MHz_ReadCounter, .-Timer_48MHz_ReadCounter
 684              		.text
 685              	.Letext0:
 686              		.file 2 "Generated_Source\\PSoC5\\cytypes.h"