ARM GAS  C:\Users\bmt\AppData\Local\Temp\ccBCsY1e.s 			page 1


   1              		.syntax unified
   2              		.cpu cortex-m3
   3              		.fpu softvfp
   4              		.eabi_attribute 20, 1
   5              		.eabi_attribute 21, 1
   6              		.eabi_attribute 23, 3
   7              		.eabi_attribute 24, 1
   8              		.eabi_attribute 25, 1
   9              		.eabi_attribute 26, 1
  10              		.eabi_attribute 30, 6
  11              		.eabi_attribute 34, 1
  12              		.eabi_attribute 18, 4
  13              		.thumb
  14              		.file	"USBSerial.c"
  15              		.text
  16              	.Ltext0:
  17              		.cfi_sections	.debug_frame
  18              		.global	xDelay
  19              		.section	.rodata
  20              		.align	2
  21              		.type	xDelay, %object
  22              		.size	xDelay, 4
  23              	xDelay:
  24 0000 64000000 		.word	100
  25              		.global	mDelay
  26              		.align	2
  27              		.type	mDelay, %object
  28              		.size	mDelay, 4
  29              	mDelay:
  30 0004 88130000 		.word	5000
  31              		.comm	USBMutex,4,4
  32              		.section	.text.usbserial_putString,"ax",%progbits
  33              		.align	2
  34              		.global	usbserial_putString
  35              		.thumb
  36              		.thumb_func
  37              		.type	usbserial_putString, %function
  38              	usbserial_putString:
  39              	.LFB68:
  40              		.file 1 "USBSerial.c"
   1:USBSerial.c   **** /*
   2:USBSerial.c   ****     FreeRTOS V9.0.0 - Copyright (C) 2016 Real Time Engineers Ltd.
   3:USBSerial.c   ****     All rights reserved
   4:USBSerial.c   **** 
   5:USBSerial.c   ****     VISIT http://www.FreeRTOS.org TO ENSURE YOU ARE USING THE LATEST VERSION.
   6:USBSerial.c   **** 
   7:USBSerial.c   ****     This file is part of the FreeRTOS distribution.
   8:USBSerial.c   **** 
   9:USBSerial.c   ****     FreeRTOS is free software; you can redistribute it and/or modify it under
  10:USBSerial.c   ****     the terms of the GNU General Public License (version 2) as published by the
  11:USBSerial.c   ****     Free Software Foundation >>>> AND MODIFIED BY <<<< the FreeRTOS exception.
  12:USBSerial.c   **** 
  13:USBSerial.c   ****     ***************************************************************************
  14:USBSerial.c   ****     >>!   NOTE: The modification to the GPL is included to allow you to     !<<
  15:USBSerial.c   ****     >>!   distribute a combined work that includes FreeRTOS without being   !<<
  16:USBSerial.c   ****     >>!   obliged to provide the source code for proprietary components     !<<
  17:USBSerial.c   ****     >>!   outside of the FreeRTOS kernel.                                   !<<
ARM GAS  C:\Users\bmt\AppData\Local\Temp\ccBCsY1e.s 			page 2


  18:USBSerial.c   ****     ***************************************************************************
  19:USBSerial.c   **** 
  20:USBSerial.c   ****     FreeRTOS is distributed in the hope that it will be useful, but WITHOUT ANY
  21:USBSerial.c   ****     WARRANTY; without even the implied warranty of MERCHANTABILITY or FITNESS
  22:USBSerial.c   ****     FOR A PARTICULAR PURPOSE.  Full license text is available on the following
  23:USBSerial.c   ****     link: http://www.freertos.org/a00114.html
  24:USBSerial.c   **** 
  25:USBSerial.c   ****     ***************************************************************************
  26:USBSerial.c   ****      *                                                                       *
  27:USBSerial.c   ****      *    FreeRTOS provides completely free yet professionally developed,    *
  28:USBSerial.c   ****      *    robust, strictly quality controlled, supported, and cross          *
  29:USBSerial.c   ****      *    platform software that is more than just the market leader, it     *
  30:USBSerial.c   ****      *    is the industry's de facto standard.                               *
  31:USBSerial.c   ****      *                                                                       *
  32:USBSerial.c   ****      *    Help yourself get started quickly while simultaneously helping     *
  33:USBSerial.c   ****      *    to support the FreeRTOS project by purchasing a FreeRTOS           *
  34:USBSerial.c   ****      *    tutorial book, reference manual, or both:                          *
  35:USBSerial.c   ****      *    http://www.FreeRTOS.org/Documentation                              *
  36:USBSerial.c   ****      *                                                                       *
  37:USBSerial.c   ****     ***************************************************************************
  38:USBSerial.c   **** 
  39:USBSerial.c   ****     http://www.FreeRTOS.org/FAQHelp.html - Having a problem?  Start by reading
  40:USBSerial.c   ****     the FAQ page "My application does not run, what could be wrong?".  Have you
  41:USBSerial.c   ****     defined configASSERT()?
  42:USBSerial.c   **** 
  43:USBSerial.c   ****     http://www.FreeRTOS.org/support - In return for receiving this top quality
  44:USBSerial.c   ****     embedded software for free we request you assist our global community by
  45:USBSerial.c   ****     participating in the support forum.
  46:USBSerial.c   **** 
  47:USBSerial.c   ****     http://www.FreeRTOS.org/training - Investing in training allows your team to
  48:USBSerial.c   ****     be as productive as possible as early as possible.  Now you can receive
  49:USBSerial.c   ****     FreeRTOS training directly from Richard Barry, CEO of Real Time Engineers
  50:USBSerial.c   ****     Ltd, and the world's leading authority on the world's leading RTOS.
  51:USBSerial.c   **** 
  52:USBSerial.c   ****     http://www.FreeRTOS.org/plus - A selection of FreeRTOS ecosystem products,
  53:USBSerial.c   ****     including FreeRTOS+Trace - an indispensable productivity tool, a DOS
  54:USBSerial.c   ****     compatible FAT file system, and our tiny thread aware UDP/IP stack.
  55:USBSerial.c   **** 
  56:USBSerial.c   ****     http://www.FreeRTOS.org/labs - Where new FreeRTOS products go to incubate.
  57:USBSerial.c   ****     Come and try FreeRTOS+TCP, our new open source TCP/IP stack for FreeRTOS.
  58:USBSerial.c   **** 
  59:USBSerial.c   ****     http://www.OpenRTOS.com - Real Time Engineers ltd. license FreeRTOS to High
  60:USBSerial.c   ****     Integrity Systems ltd. to sell under the OpenRTOS brand.  Low cost OpenRTOS
  61:USBSerial.c   ****     licenses offer ticketed support, indemnification and commercial middleware.
  62:USBSerial.c   **** 
  63:USBSerial.c   ****     http://www.SafeRTOS.com - High Integrity Systems also provide a safety
  64:USBSerial.c   ****     engineered and independently SIL3 certified version for use in safety and
  65:USBSerial.c   ****     mission critical applications that require provable dependability.
  66:USBSerial.c   **** 
  67:USBSerial.c   ****     1 tab == 4 spaces!
  68:USBSerial.c   **** */
  69:USBSerial.c   **** 
  70:USBSerial.c   **** /**
  71:USBSerial.c   ****  * This version of flash .c is for use on systems that have limited stack space
  72:USBSerial.c   ****  * and no display facilities.  The complete version can be found in the 
  73:USBSerial.c   ****  * Demo/Common/Full directory.
  74:USBSerial.c   ****  * 
ARM GAS  C:\Users\bmt\AppData\Local\Temp\ccBCsY1e.s 			page 3


  75:USBSerial.c   ****  * Three tasks are created, each of which flash an LED at a different rate.  The first 
  76:USBSerial.c   ****  * LED flashes every 200ms, the second every 400ms, the third every 600ms.
  77:USBSerial.c   ****  *
  78:USBSerial.c   ****  * The LED flash tasks provide instant visual feedback.  They show that the scheduler 
  79:USBSerial.c   ****  * is still operational.
  80:USBSerial.c   ****  *
  81:USBSerial.c   ****  */
  82:USBSerial.c   **** 
  83:USBSerial.c   **** 
  84:USBSerial.c   **** #include <stdlib.h>
  85:USBSerial.c   **** 
  86:USBSerial.c   **** /* Scheduler include files. */
  87:USBSerial.c   **** #include "FreeRTOS.h"
  88:USBSerial.c   **** #include "task.h"
  89:USBSerial.c   **** #include "semphr.h"
  90:USBSerial.c   **** 
  91:USBSerial.c   **** /* Demo program include files. */
  92:USBSerial.c   **** #include "partest.h"
  93:USBSerial.c   **** #include "USBSerial.h"
  94:USBSerial.c   **** 
  95:USBSerial.c   **** #define USBSerialSTACK_SIZE		configMINIMAL_STACK_SIZE
  96:USBSerial.c   **** const TickType_t xDelay = 100 / portTICK_PERIOD_MS;
  97:USBSerial.c   **** const TickType_t mDelay = 5000 / portTICK_PERIOD_MS;
  98:USBSerial.c   ****     
  99:USBSerial.c   **** /* The task that is created three times. */
 100:USBSerial.c   **** static portTASK_FUNCTION_PROTO( vUSBSerialTask, pvParameters );
 101:USBSerial.c   **** 
 102:USBSerial.c   **** SemaphoreHandle_t USBMutex;
 103:USBSerial.c   **** 
 104:USBSerial.c   **** /*-----------------------------------------------------------*/
 105:USBSerial.c   **** 
 106:USBSerial.c   **** void usbserial_putString(const char msg[])
 107:USBSerial.c   **** {
  41              		.loc 1 107 0
  42              		.cfi_startproc
  43              		@ args = 0, pretend = 0, frame = 8
  44              		@ frame_needed = 1, uses_anonymous_args = 0
  45 0000 80B5     		push	{r7, lr}
  46              		.cfi_def_cfa_offset 8
  47              		.cfi_offset 7, -8
  48              		.cfi_offset 14, -4
  49 0002 82B0     		sub	sp, sp, #8
  50              		.cfi_def_cfa_offset 16
  51 0004 00AF     		add	r7, sp, #0
  52              		.cfi_def_cfa_register 7
  53 0006 7860     		str	r0, [r7, #4]
 108:USBSerial.c   ****     if(0 == USBUART_GetConfiguration()) return;
  54              		.loc 1 108 0
  55 0008 FFF7FEFF 		bl	USBUART_GetConfiguration
  56 000c 0346     		mov	r3, r0
  57 000e 002B     		cmp	r3, #0
  58 0010 00D1     		bne	.L2
  59 0012 1DE0     		b	.L1
  60              	.L2:
 109:USBSerial.c   ****     xSemaphoreTake(USBMutex,portMAX_DELAY);
  61              		.loc 1 109 0
  62 0014 104B     		ldr	r3, .L6
ARM GAS  C:\Users\bmt\AppData\Local\Temp\ccBCsY1e.s 			page 4


  63 0016 1B68     		ldr	r3, [r3]
  64 0018 1846     		mov	r0, r3
  65 001a 0021     		movs	r1, #0
  66 001c 4FF0FF32 		mov	r2, #-1
  67 0020 0023     		movs	r3, #0
  68 0022 FFF7FEFF 		bl	xQueueGenericReceive
 110:USBSerial.c   ****     while(0 == USBUART_CDCIsReady()) vTaskDelay(xDelay);
  69              		.loc 1 110 0
  70 0026 03E0     		b	.L4
  71              	.L5:
  72              		.loc 1 110 0 is_stmt 0 discriminator 2
  73 0028 6423     		movs	r3, #100
  74 002a 1846     		mov	r0, r3
  75 002c FFF7FEFF 		bl	vTaskDelay
  76              	.L4:
  77              		.loc 1 110 0 discriminator 1
  78 0030 FFF7FEFF 		bl	USBUART_CDCIsReady
  79 0034 0346     		mov	r3, r0
  80 0036 002B     		cmp	r3, #0
  81 0038 F6D0     		beq	.L5
 111:USBSerial.c   ****     USBUART_PutString(msg);
  82              		.loc 1 111 0 is_stmt 1
  83 003a 7868     		ldr	r0, [r7, #4]
  84 003c FFF7FEFF 		bl	USBUART_PutString
 112:USBSerial.c   ****     xSemaphoreGive(USBMutex);
  85              		.loc 1 112 0
  86 0040 054B     		ldr	r3, .L6
  87 0042 1B68     		ldr	r3, [r3]
  88 0044 1846     		mov	r0, r3
  89 0046 0021     		movs	r1, #0
  90 0048 0022     		movs	r2, #0
  91 004a 0023     		movs	r3, #0
  92 004c FFF7FEFF 		bl	xQueueGenericSend
  93              	.L1:
 113:USBSerial.c   **** }
  94              		.loc 1 113 0
  95 0050 0837     		adds	r7, r7, #8
  96              		.cfi_def_cfa_offset 8
  97 0052 BD46     		mov	sp, r7
  98              		.cfi_def_cfa_register 13
  99              		@ sp needed
 100 0054 80BD     		pop	{r7, pc}
 101              	.L7:
 102 0056 00BF     		.align	2
 103              	.L6:
 104 0058 00000000 		.word	USBMutex
 105              		.cfi_endproc
 106              	.LFE68:
 107              		.size	usbserial_putString, .-usbserial_putString
 108              		.section	.rodata
 109              		.align	2
 110              	.LC0:
 111 0008 55534253 		.ascii	"USBSerial\000"
 111      65726961 
 111      6C00
 112 0012 0000     		.section	.text.vStartUSBSerialTasks,"ax",%progbits
 113              		.align	2
ARM GAS  C:\Users\bmt\AppData\Local\Temp\ccBCsY1e.s 			page 5


 114              		.global	vStartUSBSerialTasks
 115              		.thumb
 116              		.thumb_func
 117              		.type	vStartUSBSerialTasks, %function
 118              	vStartUSBSerialTasks:
 119              	.LFB69:
 114:USBSerial.c   **** 
 115:USBSerial.c   **** void vStartUSBSerialTasks( UBaseType_t uxPriority )
 116:USBSerial.c   **** {
 120              		.loc 1 116 0
 121              		.cfi_startproc
 122              		@ args = 0, pretend = 0, frame = 8
 123              		@ frame_needed = 1, uses_anonymous_args = 0
 124 0000 80B5     		push	{r7, lr}
 125              		.cfi_def_cfa_offset 8
 126              		.cfi_offset 7, -8
 127              		.cfi_offset 14, -4
 128 0002 84B0     		sub	sp, sp, #16
 129              		.cfi_def_cfa_offset 24
 130 0004 02AF     		add	r7, sp, #8
 131              		.cfi_def_cfa 7, 16
 132 0006 7860     		str	r0, [r7, #4]
 117:USBSerial.c   ****     /*Setup the mutex to control port access*/
 118:USBSerial.c   ****     USBMutex = xSemaphoreCreateMutex();
 133              		.loc 1 118 0
 134 0008 0120     		movs	r0, #1
 135 000a FFF7FEFF 		bl	xQueueCreateMutex
 136 000e 0246     		mov	r2, r0
 137 0010 074B     		ldr	r3, .L9
 138 0012 1A60     		str	r2, [r3]
 119:USBSerial.c   **** 	/* Spawn the task. */
 120:USBSerial.c   **** 	xTaskCreate( vUSBSerialTask, "USBSerial", USBSerialSTACK_SIZE, NULL, uxPriority, ( TaskHandle_t * 
 139              		.loc 1 120 0
 140 0014 7B68     		ldr	r3, [r7, #4]
 141 0016 0093     		str	r3, [sp]
 142 0018 0023     		movs	r3, #0
 143 001a 0193     		str	r3, [sp, #4]
 144 001c 0548     		ldr	r0, .L9+4
 145 001e 0649     		ldr	r1, .L9+8
 146 0020 6422     		movs	r2, #100
 147 0022 0023     		movs	r3, #0
 148 0024 FFF7FEFF 		bl	xTaskCreate
 121:USBSerial.c   **** 
 122:USBSerial.c   **** }
 149              		.loc 1 122 0
 150 0028 0837     		adds	r7, r7, #8
 151              		.cfi_def_cfa_offset 8
 152 002a BD46     		mov	sp, r7
 153              		.cfi_def_cfa_register 13
 154              		@ sp needed
 155 002c 80BD     		pop	{r7, pc}
 156              	.L10:
 157 002e 00BF     		.align	2
 158              	.L9:
 159 0030 00000000 		.word	USBMutex
 160 0034 00000000 		.word	vUSBSerialTask
 161 0038 08000000 		.word	.LC0
ARM GAS  C:\Users\bmt\AppData\Local\Temp\ccBCsY1e.s 			page 6


 162              		.cfi_endproc
 163              	.LFE69:
 164              		.size	vStartUSBSerialTasks, .-vStartUSBSerialTasks
 165              		.section	.text.vUSBSerialTask,"ax",%progbits
 166              		.align	2
 167              		.thumb
 168              		.thumb_func
 169              		.type	vUSBSerialTask, %function
 170              	vUSBSerialTask:
 171              	.LFB70:
 123:USBSerial.c   **** /*-----------------------------------------------------------*/
 124:USBSerial.c   **** 
 125:USBSerial.c   **** static portTASK_FUNCTION( vUSBSerialTask, pvParameters )
 126:USBSerial.c   **** {
 172              		.loc 1 126 0
 173              		.cfi_startproc
 174              		@ args = 0, pretend = 0, frame = 8
 175              		@ frame_needed = 1, uses_anonymous_args = 0
 176 0000 80B5     		push	{r7, lr}
 177              		.cfi_def_cfa_offset 8
 178              		.cfi_offset 7, -8
 179              		.cfi_offset 14, -4
 180 0002 82B0     		sub	sp, sp, #8
 181              		.cfi_def_cfa_offset 16
 182 0004 00AF     		add	r7, sp, #0
 183              		.cfi_def_cfa_register 7
 184 0006 7860     		str	r0, [r7, #4]
 127:USBSerial.c   ****    	/* The parameters are not used. */
 128:USBSerial.c   **** 	( void ) pvParameters;
 129:USBSerial.c   **** 
 130:USBSerial.c   ****     /* Start the USB_UART */
 131:USBSerial.c   ****     /* Start USBFS operation with 5-V operation. */
 132:USBSerial.c   ****     USBUART_Start(0, USBUART_5V_OPERATION);
 185              		.loc 1 132 0
 186 0008 0020     		movs	r0, #0
 187 000a 0121     		movs	r1, #1
 188 000c FFF7FEFF 		bl	USBUART_Start
 189              	.L14:
 133:USBSerial.c   **** 
 134:USBSerial.c   ****     
 135:USBSerial.c   **** 	for(;;)
 136:USBSerial.c   **** 	{
 137:USBSerial.c   ****         /* Host can send double SET_INTERFACE request. */
 138:USBSerial.c   ****         if (0u != USBUART_IsConfigurationChanged())
 190              		.loc 1 138 0
 191 0010 FFF7FEFF 		bl	USBUART_IsConfigurationChanged
 192 0014 0346     		mov	r3, r0
 193 0016 002B     		cmp	r3, #0
 194 0018 06D0     		beq	.L12
 139:USBSerial.c   ****         {
 140:USBSerial.c   ****             /* Initialize IN endpoints when device is configured. */
 141:USBSerial.c   ****             if (0u != USBUART_GetConfiguration())
 195              		.loc 1 141 0
 196 001a FFF7FEFF 		bl	USBUART_GetConfiguration
 197 001e 0346     		mov	r3, r0
 198 0020 002B     		cmp	r3, #0
 199 0022 01D0     		beq	.L12
ARM GAS  C:\Users\bmt\AppData\Local\Temp\ccBCsY1e.s 			page 7


 142:USBSerial.c   ****             {
 143:USBSerial.c   ****                 /* Enumeration is done, enable OUT endpoint to receive data 
 144:USBSerial.c   ****                  * from host. */
 145:USBSerial.c   ****                 USBUART_CDC_Init();
 200              		.loc 1 145 0
 201 0024 FFF7FEFF 		bl	USBUART_CDC_Init
 202              	.L12:
 146:USBSerial.c   ****             }
 147:USBSerial.c   ****         }
 148:USBSerial.c   ****         
 149:USBSerial.c   ****         if(0 != USBUART_GetConfiguration())
 203              		.loc 1 149 0
 204 0028 FFF7FEFF 		bl	USBUART_GetConfiguration
 205 002c 0346     		mov	r3, r0
 206 002e 002B     		cmp	r3, #0
 207 0030 04D0     		beq	.L13
 150:USBSerial.c   ****         {
 151:USBSerial.c   ****             /* Get and process inputs here */
 152:USBSerial.c   ****             vTaskDelay(mDelay);
 208              		.loc 1 152 0
 209 0032 41F28833 		movw	r3, #5000
 210 0036 1846     		mov	r0, r3
 211 0038 FFF7FEFF 		bl	vTaskDelay
 212              	.L13:
 153:USBSerial.c   ****         }
 154:USBSerial.c   ****         vTaskDelay(xDelay);
 213              		.loc 1 154 0
 214 003c 6423     		movs	r3, #100
 215 003e 1846     		mov	r0, r3
 216 0040 FFF7FEFF 		bl	vTaskDelay
 155:USBSerial.c   **** 	}
 217              		.loc 1 155 0
 218 0044 E4E7     		b	.L14
 219              		.cfi_endproc
 220              	.LFE70:
 221              		.size	vUSBSerialTask, .-vUSBSerialTask
 222 0046 00BF     		.text
 223              	.Letext0:
 224              		.file 2 "c:\\program files (x86)\\cypress\\psoc creator\\4.0\\psoc creator\\import\\gnu\\arm\\4.9.
 225              		.file 3 "c:\\program files (x86)\\cypress\\psoc creator\\4.0\\psoc creator\\import\\gnu\\arm\\4.9.
 226              		.file 4 "..\\Source\\portable\\GCC\\ARM_CM3/portmacro.h"
 227              		.file 5 "..\\Source\\include/task.h"
 228              		.file 6 "..\\Source\\include/queue.h"
 229              		.file 7 "..\\Source\\include/semphr.h"
 230              		.file 8 "Generated_Source\\PSoC5/core_cm3.h"