ARM GAS  C:\Users\bmt\AppData\Local\Temp\ccK7q03X.s 			page 1


   1              		.syntax unified
   2              		.cpu cortex-m3
   3              		.fpu softvfp
   4              		.eabi_attribute 20, 1
   5              		.eabi_attribute 21, 1
   6              		.eabi_attribute 23, 3
   7              		.eabi_attribute 24, 1
   8              		.eabi_attribute 25, 1
   9              		.eabi_attribute 26, 1
  10              		.eabi_attribute 30, 6
  11              		.eabi_attribute 34, 1
  12              		.eabi_attribute 18, 4
  13              		.thumb
  14              		.file	"USBUART_1_vnd.c"
  15              		.text
  16              	.Ltext0:
  17              		.cfi_sections	.debug_frame
  18              		.section	.text.USBUART_1_HandleVendorRqst,"ax",%progbits
  19              		.align	2
  20              		.global	USBUART_1_HandleVendorRqst
  21              		.thumb
  22              		.thumb_func
  23              		.type	USBUART_1_HandleVendorRqst, %function
  24              	USBUART_1_HandleVendorRqst:
  25              	.LFB0:
  26              		.file 1 "Generated_Source\\PSoC5\\USBUART_1_vnd.c"
   1:Generated_Source\PSoC5/USBUART_1_vnd.c **** /***************************************************************************//**
   2:Generated_Source\PSoC5/USBUART_1_vnd.c **** * \file USBUART_1_vnd.c
   3:Generated_Source\PSoC5/USBUART_1_vnd.c **** * \version 3.10
   4:Generated_Source\PSoC5/USBUART_1_vnd.c **** *
   5:Generated_Source\PSoC5/USBUART_1_vnd.c **** * \brief
   6:Generated_Source\PSoC5/USBUART_1_vnd.c **** *  This file contains the  USB vendor request handler.
   7:Generated_Source\PSoC5/USBUART_1_vnd.c **** *
   8:Generated_Source\PSoC5/USBUART_1_vnd.c **** ********************************************************************************
   9:Generated_Source\PSoC5/USBUART_1_vnd.c **** * \copyright
  10:Generated_Source\PSoC5/USBUART_1_vnd.c **** * Copyright 2008-2016, Cypress Semiconductor Corporation.  All rights reserved.
  11:Generated_Source\PSoC5/USBUART_1_vnd.c **** * You may use this file only in accordance with the license, terms, conditions,
  12:Generated_Source\PSoC5/USBUART_1_vnd.c **** * disclaimers, and limitations in the end user license agreement accompanying
  13:Generated_Source\PSoC5/USBUART_1_vnd.c **** * the software package with which this file was provided.
  14:Generated_Source\PSoC5/USBUART_1_vnd.c **** *******************************************************************************/
  15:Generated_Source\PSoC5/USBUART_1_vnd.c **** 
  16:Generated_Source\PSoC5/USBUART_1_vnd.c **** #include "USBUART_1_pvt.h"
  17:Generated_Source\PSoC5/USBUART_1_vnd.c **** 
  18:Generated_Source\PSoC5/USBUART_1_vnd.c **** 
  19:Generated_Source\PSoC5/USBUART_1_vnd.c **** #if(USBUART_1_EXTERN_VND == USBUART_1_FALSE)
  20:Generated_Source\PSoC5/USBUART_1_vnd.c **** 
  21:Generated_Source\PSoC5/USBUART_1_vnd.c **** /***************************************
  22:Generated_Source\PSoC5/USBUART_1_vnd.c **** * Vendor Specific Declarations
  23:Generated_Source\PSoC5/USBUART_1_vnd.c **** ***************************************/
  24:Generated_Source\PSoC5/USBUART_1_vnd.c **** 
  25:Generated_Source\PSoC5/USBUART_1_vnd.c **** /* `#START VENDOR_SPECIFIC_DECLARATIONS` Place your declaration here */
  26:Generated_Source\PSoC5/USBUART_1_vnd.c **** 
  27:Generated_Source\PSoC5/USBUART_1_vnd.c **** /* `#END` */
  28:Generated_Source\PSoC5/USBUART_1_vnd.c **** 
  29:Generated_Source\PSoC5/USBUART_1_vnd.c **** 
  30:Generated_Source\PSoC5/USBUART_1_vnd.c **** /*******************************************************************************
  31:Generated_Source\PSoC5/USBUART_1_vnd.c **** * Function Name: USBUART_1_HandleVendorRqst
ARM GAS  C:\Users\bmt\AppData\Local\Temp\ccK7q03X.s 			page 2


  32:Generated_Source\PSoC5/USBUART_1_vnd.c **** ****************************************************************************//**
  33:Generated_Source\PSoC5/USBUART_1_vnd.c **** *
  34:Generated_Source\PSoC5/USBUART_1_vnd.c **** *  This routine provide users with a method to implement vendor specific
  35:Generated_Source\PSoC5/USBUART_1_vnd.c **** *  requests.
  36:Generated_Source\PSoC5/USBUART_1_vnd.c **** *
  37:Generated_Source\PSoC5/USBUART_1_vnd.c **** *  To implement vendor specific requests, add your code in this function to
  38:Generated_Source\PSoC5/USBUART_1_vnd.c **** *  decode and disposition the request.  If the request is handled, your code
  39:Generated_Source\PSoC5/USBUART_1_vnd.c **** *  must set the variable "requestHandled" to TRUE, indicating that the
  40:Generated_Source\PSoC5/USBUART_1_vnd.c **** *  request has been handled.
  41:Generated_Source\PSoC5/USBUART_1_vnd.c **** *
  42:Generated_Source\PSoC5/USBUART_1_vnd.c **** * \return
  43:Generated_Source\PSoC5/USBUART_1_vnd.c **** *  requestHandled.
  44:Generated_Source\PSoC5/USBUART_1_vnd.c **** *
  45:Generated_Source\PSoC5/USBUART_1_vnd.c **** * \reentrant
  46:Generated_Source\PSoC5/USBUART_1_vnd.c **** *  No.
  47:Generated_Source\PSoC5/USBUART_1_vnd.c **** *
  48:Generated_Source\PSoC5/USBUART_1_vnd.c **** *******************************************************************************/
  49:Generated_Source\PSoC5/USBUART_1_vnd.c **** uint8 USBUART_1_HandleVendorRqst(void) 
  50:Generated_Source\PSoC5/USBUART_1_vnd.c **** {
  27              		.loc 1 50 0
  28              		.cfi_startproc
  29              		@ args = 0, pretend = 0, frame = 8
  30              		@ frame_needed = 1, uses_anonymous_args = 0
  31              		@ link register save eliminated.
  32 0000 80B4     		push	{r7}
  33              		.cfi_def_cfa_offset 4
  34              		.cfi_offset 7, -4
  35 0002 83B0     		sub	sp, sp, #12
  36              		.cfi_def_cfa_offset 16
  37 0004 00AF     		add	r7, sp, #0
  38              		.cfi_def_cfa_register 7
  51:Generated_Source\PSoC5/USBUART_1_vnd.c ****     uint8 requestHandled = USBUART_1_FALSE;
  39              		.loc 1 51 0
  40 0006 0023     		movs	r3, #0
  41 0008 FB71     		strb	r3, [r7, #7]
  52:Generated_Source\PSoC5/USBUART_1_vnd.c **** 
  53:Generated_Source\PSoC5/USBUART_1_vnd.c ****     /* Check request direction: D2H or H2D. */
  54:Generated_Source\PSoC5/USBUART_1_vnd.c ****     if (0u != (USBUART_1_bmRequestTypeReg & USBUART_1_RQST_DIR_D2H))
  42              		.loc 1 54 0
  43 000a 0A4B     		ldr	r3, .L7
  44 000c 1B78     		ldrb	r3, [r3]
  45 000e DBB2     		uxtb	r3, r3
  46 0010 DBB2     		uxtb	r3, r3
  47 0012 5BB2     		sxtb	r3, r3
  48 0014 002B     		cmp	r3, #0
  49 0016 06DA     		bge	.L2
  55:Generated_Source\PSoC5/USBUART_1_vnd.c ****     {
  56:Generated_Source\PSoC5/USBUART_1_vnd.c ****         /* Handle direction from device to host. */
  57:Generated_Source\PSoC5/USBUART_1_vnd.c ****         
  58:Generated_Source\PSoC5/USBUART_1_vnd.c ****         switch (USBUART_1_bRequestReg)
  50              		.loc 1 58 0
  51 0018 064B     		ldr	r3, .L7
  52 001a 5B78     		ldrb	r3, [r3, #1]
  53 001c DBB2     		uxtb	r3, r3
  54 001e 012B     		cmp	r3, #1
  55 0020 00D0     		beq	.L6
  59:Generated_Source\PSoC5/USBUART_1_vnd.c ****         {
ARM GAS  C:\Users\bmt\AppData\Local\Temp\ccK7q03X.s 			page 3


  60:Generated_Source\PSoC5/USBUART_1_vnd.c ****             case USBUART_1_GET_EXTENDED_CONFIG_DESCRIPTOR:
  61:Generated_Source\PSoC5/USBUART_1_vnd.c ****             #if defined(USBUART_1_ENABLE_MSOS_STRING)
  62:Generated_Source\PSoC5/USBUART_1_vnd.c ****                 USBUART_1_currentTD.pData = (volatile uint8 *) &USBUART_1_MSOS_CONFIGURATION_DESCR[
  63:Generated_Source\PSoC5/USBUART_1_vnd.c ****                 USBUART_1_currentTD.count = USBUART_1_MSOS_CONFIGURATION_DESCR[0u];
  64:Generated_Source\PSoC5/USBUART_1_vnd.c ****                 requestHandled  = USBUART_1_InitControlRead();
  65:Generated_Source\PSoC5/USBUART_1_vnd.c ****             #endif /* (USBUART_1_ENABLE_MSOS_STRING) */
  66:Generated_Source\PSoC5/USBUART_1_vnd.c ****                 break;
  67:Generated_Source\PSoC5/USBUART_1_vnd.c ****             
  68:Generated_Source\PSoC5/USBUART_1_vnd.c ****             default:
  69:Generated_Source\PSoC5/USBUART_1_vnd.c ****                 break;
  56              		.loc 1 69 0
  57 0022 00E0     		b	.L2
  58              	.L6:
  66:Generated_Source\PSoC5/USBUART_1_vnd.c ****             
  59              		.loc 1 66 0
  60 0024 00BF     		nop
  61              	.L2:
  70:Generated_Source\PSoC5/USBUART_1_vnd.c ****         }
  71:Generated_Source\PSoC5/USBUART_1_vnd.c ****     }
  72:Generated_Source\PSoC5/USBUART_1_vnd.c **** 
  73:Generated_Source\PSoC5/USBUART_1_vnd.c ****     /* `#START VENDOR_SPECIFIC_CODE` Place your vendor specific request here */
  74:Generated_Source\PSoC5/USBUART_1_vnd.c **** 
  75:Generated_Source\PSoC5/USBUART_1_vnd.c ****     /* `#END` */
  76:Generated_Source\PSoC5/USBUART_1_vnd.c **** 
  77:Generated_Source\PSoC5/USBUART_1_vnd.c **** #ifdef USBUART_1_HANDLE_VENDOR_RQST_CALLBACK
  78:Generated_Source\PSoC5/USBUART_1_vnd.c ****     if (USBUART_1_FALSE == requestHandled)
  79:Generated_Source\PSoC5/USBUART_1_vnd.c ****     {
  80:Generated_Source\PSoC5/USBUART_1_vnd.c ****         requestHandled = USBUART_1_HandleVendorRqst_Callback();
  81:Generated_Source\PSoC5/USBUART_1_vnd.c ****     }
  82:Generated_Source\PSoC5/USBUART_1_vnd.c **** #endif /* (USBUART_1_HANDLE_VENDOR_RQST_CALLBACK) */
  83:Generated_Source\PSoC5/USBUART_1_vnd.c **** 
  84:Generated_Source\PSoC5/USBUART_1_vnd.c ****     return (requestHandled);
  62              		.loc 1 84 0
  63 0026 FB79     		ldrb	r3, [r7, #7]	@ zero_extendqisi2
  85:Generated_Source\PSoC5/USBUART_1_vnd.c **** }
  64              		.loc 1 85 0
  65 0028 1846     		mov	r0, r3
  66 002a 0C37     		adds	r7, r7, #12
  67              		.cfi_def_cfa_offset 4
  68 002c BD46     		mov	sp, r7
  69              		.cfi_def_cfa_register 13
  70              		@ sp needed
  71 002e 5DF8047B 		ldr	r7, [sp], #4
  72              		.cfi_restore 7
  73              		.cfi_def_cfa_offset 0
  74 0032 7047     		bx	lr
  75              	.L8:
  76              		.align	2
  77              	.L7:
  78 0034 00600040 		.word	1073766400
  79              		.cfi_endproc
  80              	.LFE0:
  81              		.size	USBUART_1_HandleVendorRqst, .-USBUART_1_HandleVendorRqst
  82              		.text
  83              	.Letext0:
  84              		.file 2 "Generated_Source\\PSoC5\\cytypes.h"
  85              		.file 3 "Generated_Source\\PSoC5\\USBUART_1.h"
ARM GAS  C:\Users\bmt\AppData\Local\Temp\ccK7q03X.s 			page 4

