ARM GAS  C:\Users\bmt\AppData\Local\Temp\ccKVUDN8.s 			page 1


   1              		.syntax unified
   2              		.cpu cortex-m3
   3              		.fpu softvfp
   4              		.eabi_attribute 20, 1
   5              		.eabi_attribute 21, 1
   6              		.eabi_attribute 23, 3
   7              		.eabi_attribute 24, 1
   8              		.eabi_attribute 25, 1
   9              		.eabi_attribute 26, 1
  10              		.eabi_attribute 30, 6
  11              		.eabi_attribute 34, 1
  12              		.eabi_attribute 18, 4
  13              		.thumb
  14              		.file	"xformatc.c"
  15              		.text
  16              	.Ltext0:
  17              		.cfi_sections	.debug_frame
  18              		.section	.rodata
  19              		.align	2
  20              		.type	ms_null, %object
  21              		.size	ms_null, 7
  22              	ms_null:
  23 0000 286E756C 		.ascii	"(null)\000"
  23      6C2900
  24 0007 00       		.align	2
  25              		.type	ms_true, %object
  26              		.size	ms_true, 5
  27              	ms_true:
  28 0008 54727565 		.ascii	"True\000"
  28      00
  29 000d 000000   		.align	2
  30              		.type	ms_false, %object
  31              		.size	ms_false, 6
  32              	ms_false:
  33 0010 46616C73 		.ascii	"False\000"
  33      6500
  34 0016 0000     		.align	2
  35              		.type	ms_digits, %object
  36              		.size	ms_digits, 17
  37              	ms_digits:
  38 0018 30313233 		.ascii	"0123456789abcdef\000"
  38      34353637 
  38      38396162 
  38      63646566 
  38      00
  39 0029 000000   		.align	2
  40              		.type	formatStates, %object
  41              		.size	formatStates, 91
  42              	formatStates:
  43 002c 06       		.byte	6
  44 002d 00       		.byte	0
  45 002e 00       		.byte	0
  46 002f 06       		.byte	6
  47 0030 00       		.byte	0
  48 0031 01       		.byte	1
  49 0032 00       		.byte	0
  50 0033 00       		.byte	0
ARM GAS  C:\Users\bmt\AppData\Local\Temp\ccKVUDN8.s 			page 2


  51 0034 10       		.byte	16
  52 0035 00       		.byte	0
  53 0036 03       		.byte	3
  54 0037 06       		.byte	6
  55 0038 00       		.byte	0
  56 0039 06       		.byte	6
  57 003a 02       		.byte	2
  58 003b 10       		.byte	16
  59 003c 04       		.byte	4
  60 003d 45       		.byte	69
  61 003e 45       		.byte	69
  62 003f 45       		.byte	69
  63 0040 45       		.byte	69
  64 0041 05       		.byte	5
  65 0042 05       		.byte	5
  66 0043 05       		.byte	5
  67 0044 05       		.byte	5
  68 0045 35       		.byte	53
  69 0046 30       		.byte	48
  70 0047 00       		.byte	0
  71 0048 50       		.byte	80
  72 0049 60       		.byte	96
  73 004a 00       		.byte	0
  74 004b 00       		.byte	0
  75 004c 00       		.byte	0
  76 004d 20       		.byte	32
  77 004e 28       		.byte	40
  78 004f 38       		.byte	56
  79 0050 50       		.byte	80
  80 0051 50       		.byte	80
  81 0052 00       		.byte	0
  82 0053 00       		.byte	0
  83 0054 00       		.byte	0
  84 0055 30       		.byte	48
  85 0056 30       		.byte	48
  86 0057 30       		.byte	48
  87 0058 50       		.byte	80
  88 0059 50       		.byte	80
  89 005a 00       		.byte	0
  90 005b 00       		.byte	0
  91 005c 08       		.byte	8
  92 005d 20       		.byte	32
  93 005e 20       		.byte	32
  94 005f 28       		.byte	40
  95 0060 20       		.byte	32
  96 0061 20       		.byte	32
  97 0062 20       		.byte	32
  98 0063 00       		.byte	0
  99 0064 08       		.byte	8
 100 0065 60       		.byte	96
 101 0066 60       		.byte	96
 102 0067 60       		.byte	96
 103 0068 60       		.byte	96
 104 0069 60       		.byte	96
 105 006a 60       		.byte	96
 106 006b 00       		.byte	0
 107 006c 00       		.byte	0
ARM GAS  C:\Users\bmt\AppData\Local\Temp\ccKVUDN8.s 			page 3


 108 006d 70       		.byte	112
 109 006e 78       		.byte	120
 110 006f 78       		.byte	120
 111 0070 78       		.byte	120
 112 0071 70       		.byte	112
 113 0072 78       		.byte	120
 114 0073 00       		.byte	0
 115 0074 07       		.byte	7
 116 0075 08       		.byte	8
 117 0076 00       		.byte	0
 118 0077 00       		.byte	0
 119 0078 07       		.byte	7
 120 0079 00       		.byte	0
 121 007a 00       		.byte	0
 122 007b 08       		.byte	8
 123 007c 08       		.byte	8
 124 007d 00       		.byte	0
 125 007e 00       		.byte	0
 126 007f 08       		.byte	8
 127 0080 00       		.byte	0
 128 0081 08       		.byte	8
 129 0082 00       		.byte	0
 130 0083 00       		.byte	0
 131 0084 08       		.byte	8
 132 0085 00       		.byte	0
 133 0086 07       		.byte	7
 134 0087 00       		.section	.text.ulong2a,"ax",%progbits
 135              		.align	2
 136              		.thumb
 137              		.thumb_func
 138              		.type	ulong2a, %function
 139              	ulong2a:
 140              	.LFB0:
 141              		.file 1 "xformatc.c"
   1:xformatc.c    **** /**
   2:xformatc.c    ****  * @file	xformatc.c
   3:xformatc.c    ****  *
   4:xformatc.c    ****  * @brief	Printf C implementation.
   5:xformatc.c    ****  *
   6:xformatc.c    ****  * Tested wuth the following operating systems / compilers :
   7:xformatc.c    ****  *
   8:xformatc.c    ****  * - Visual studio 6
   9:xformatc.c    ****  * - Visual studio 2008 / Windows CE
  10:xformatc.c    ****  * - MinGw 32
  11:xformatc.c    ****  * - Linux i686
  12:xformatc.c    ****  * - Linux x86_64
  13:xformatc.c    ****  * - GCC wiith embedded ARM.
  14:xformatc.c    ****  * - Linux armel
  15:xformatc.c    ****  * - HCS08 with Freescale compiler.
  16:xformatc.c    ****  * - SDCC (Z80 and 8051)
  17:xformatc.c    ****  * 
  18:xformatc.c    ****  * @author	Mario Viara
  19:xformatc.c    ****  * 
  20:xformatc.c    ****  * 
  21:xformatc.c    ****  * @copyright	Copyright Mario Viara 2014	- License Open Source (LGPL)
  22:xformatc.c    ****  * This is a free software and is opened for education, research and commercial
  23:xformatc.c    ****  * developments under license policy of following terms:
ARM GAS  C:\Users\bmt\AppData\Local\Temp\ccKVUDN8.s 			page 4


  24:xformatc.c    ****  * 
  25:xformatc.c    ****  * - This is a free software and there is NO WARRANTY.
  26:xformatc.c    ****  * - No restriction on use. You can use, modify and redistribute it for personal,
  27:xformatc.c    ****  *	 non-profit or commercial product UNDER YOUR RESPONSIBILITY.
  28:xformatc.c    ****  * - Redistributions of source code must retain the above copyright notice.
  29:xformatc.c    ****  *
  30:xformatc.c    ****  * To contact the author send an email to mario_at_viara.eu
  31:xformatc.c    ****  *
  32:xformatc.c    ****  */
  33:xformatc.c    **** #ifdef HAVE_CONFIG_H
  34:xformatc.c    **** #include "config.h"
  35:xformatc.c    **** #endif
  36:xformatc.c    **** 
  37:xformatc.c    **** #include  "xformatc.h"
  38:xformatc.c    **** 
  39:xformatc.c    **** 
  40:xformatc.c    **** 
  41:xformatc.c    **** /**
  42:xformatc.c    ****  * Default largest int is long
  43:xformatc.c    ****  */
  44:xformatc.c    **** #ifndef	LONG
  45:xformatc.c    **** #define	LONG	long
  46:xformatc.c    **** #endif
  47:xformatc.c    **** 
  48:xformatc.c    **** /**
  49:xformatc.c    ****  * Define the double type if not defined
  50:xformatc.c    ****  */
  51:xformatc.c    **** #ifndef DOUBLE
  52:xformatc.c    **** #define DOUBLE	double
  53:xformatc.c    **** #endif
  54:xformatc.c    **** 
  55:xformatc.c    **** 
  56:xformatc.c    **** /**
  57:xformatc.c    ****  * Default long long type
  58:xformatc.c    ****  */
  59:xformatc.c    **** #ifndef LONGLONG
  60:xformatc.c    **** #define LONGLONG   long long
  61:xformatc.c    **** #endif
  62:xformatc.c    **** 
  63:xformatc.c    **** 
  64:xformatc.c    **** /**
  65:xformatc.c    ****  * Definition to convert integer part of floating point
  66:xformatc.c    ****  * number if supported we use the long long type
  67:xformatc.c    ****  */
  68:xformatc.c    **** #if XCFG_FORMAT_LONGLONG
  69:xformatc.c    **** #define	FLOAT_LONG		LONGLONG
  70:xformatc.c    **** #define FLOAT_VALUE		llvalue
  71:xformatc.c    **** #define FLOAT_TYPE		FLAG_TYPE_LONGLONG
  72:xformatc.c    **** #else
  73:xformatc.c    **** #define FLOAT_LONG		LONG
  74:xformatc.c    **** #define FLOAT_VALUE		lvalue
  75:xformatc.c    **** #define FLOAT_TYPE		FLAG_TYPE_LONG
  76:xformatc.c    **** #endif
  77:xformatc.c    **** 
  78:xformatc.c    **** /**
  79:xformatc.c    ****  * Structure with all parameter used
  80:xformatc.c    ****  */
ARM GAS  C:\Users\bmt\AppData\Local\Temp\ccKVUDN8.s 			page 5


  81:xformatc.c    **** struct param_s
  82:xformatc.c    **** {
  83:xformatc.c    **** 	/**
  84:xformatc.c    **** 	 * Buffer for current integer value and for temporary
  85:xformatc.c    **** 	 * double value defined as union to save stack.
  86:xformatc.c    **** 	 */
  87:xformatc.c    **** 	union
  88:xformatc.c    **** 	{
  89:xformatc.c    **** 		unsigned LONG		lvalue;
  90:xformatc.c    **** #if XCFG_FORMAT_LONGLONG
  91:xformatc.c    **** 		unsigned LONGLONG	llvalue;
  92:xformatc.c    **** #endif
  93:xformatc.c    **** #if XCFG_FORMAT_FLOAT
  94:xformatc.c    **** 		DOUBLE				dvalue;
  95:xformatc.c    **** #endif
  96:xformatc.c    **** 	} values;
  97:xformatc.c    **** 
  98:xformatc.c    **** 	/**
  99:xformatc.c    **** 	 * Pointer to the output buffer
 100:xformatc.c    **** 	 */
 101:xformatc.c    **** 	char*		out;
 102:xformatc.c    **** 
 103:xformatc.c    **** #if XCFG_FORMAT_FLOAT
 104:xformatc.c    **** 	/**
 105:xformatc.c    **** 	 * Floating point argument
 106:xformatc.c    **** 	 */
 107:xformatc.c    **** 	DOUBLE		dbl;
 108:xformatc.c    **** 
 109:xformatc.c    **** 	/**
 110:xformatc.c    **** 	 * Integer part of floating point
 111:xformatc.c    **** 	 */
 112:xformatc.c    **** 	unsigned FLOAT_LONG	iPart;
 113:xformatc.c    **** 
 114:xformatc.c    **** #endif
 115:xformatc.c    **** 
 116:xformatc.c    **** 	
 117:xformatc.c    **** 	/**
 118:xformatc.c    **** 	 * Current length of the output buffer
 119:xformatc.c    **** 	 */
 120:xformatc.c    **** 	int		length;
 121:xformatc.c    **** 
 122:xformatc.c    **** 	/**
 123:xformatc.c    **** 	 * Field precision
 124:xformatc.c    **** 	 */
 125:xformatc.c    **** 	int		prec;
 126:xformatc.c    **** 
 127:xformatc.c    **** 	/**
 128:xformatc.c    **** 	 * Field width
 129:xformatc.c    **** 	 */
 130:xformatc.c    **** 	int		width;
 131:xformatc.c    **** 
 132:xformatc.c    **** 
 133:xformatc.c    **** 	/**
 134:xformatc.c    **** 	 * Count the number of char emitted
 135:xformatc.c    **** 	 */
 136:xformatc.c    **** 	unsigned	count;
 137:xformatc.c    **** 
ARM GAS  C:\Users\bmt\AppData\Local\Temp\ccKVUDN8.s 			page 6


 138:xformatc.c    **** 
 139:xformatc.c    **** 	/**
 140:xformatc.c    **** 	 * Parser flags
 141:xformatc.c    **** 	 */
 142:xformatc.c    **** 	unsigned flags;
 143:xformatc.c    **** 
 144:xformatc.c    **** #define FLAG_TYPE_INT		0x0000	/* Argument is integer					*/
 145:xformatc.c    **** #define FLAG_TYPE_LONG		0x0001	/* Argument is long						*/
 146:xformatc.c    **** #define FLAG_TYPE_SIZEOF	0x0002	/* Argument is size_t					*/
 147:xformatc.c    **** #define FLAG_TYPE_LONGLONG	0x0003	/* Argument is long long				*/
 148:xformatc.c    **** #define	FLAG_TYPE_MASK		0x0003	/* Mask for field type					*/
 149:xformatc.c    **** #define FLAG_PREC			0x0004	/* Precision set						*/
 150:xformatc.c    **** #define FLAG_LEFT			0x0008	/* Left alignment						*/
 151:xformatc.c    **** #define	FLAG_BLANK			0x0010	/* Blank before positive integer number */
 152:xformatc.c    **** #define	FLAG_PREFIX			0x0020	/* Prefix required						*/
 153:xformatc.c    **** #define FLAG_PLUS			0x0040	/* Force a + before positive number		*/
 154:xformatc.c    **** #define	FLAG_UPPER			0x0080	/* Output in upper case letter			*/
 155:xformatc.c    **** #define FLAG_DECIMAL		0x0100	/* Decimal field						*/
 156:xformatc.c    **** #define FLAG_INTEGER		0x0200	/* Integer field						*/
 157:xformatc.c    **** #define FLAG_MINUS			0x0400	/* Field is negative					*/
 158:xformatc.c    **** #define FLAG_VALUE			0x0800	/* Value set							*/
 159:xformatc.c    **** #define FLAG_BUFFER			0x1000	/* Buffer set							*/
 160:xformatc.c    **** 
 161:xformatc.c    **** 	/**
 162:xformatc.c    **** 	 * Length of the prefix
 163:xformatc.c    **** 	 */
 164:xformatc.c    **** 	int		prefixlen;
 165:xformatc.c    **** 
 166:xformatc.c    **** 	/* Buffer to store the field  prefix */
 167:xformatc.c    **** 	char prefix[2];
 168:xformatc.c    **** 
 169:xformatc.c    **** 
 170:xformatc.c    **** 	/** Buffer to store the biggest integer number in binary */
 171:xformatc.c    **** #if XCFG_FORMAT_LONGLONG
 172:xformatc.c    **** 	char		buffer[sizeof(LONGLONG)*8+1];
 173:xformatc.c    **** #else
 174:xformatc.c    **** 	char		buffer[sizeof(LONG)*8+1];
 175:xformatc.c    **** #endif
 176:xformatc.c    **** 
 177:xformatc.c    **** 	/* Radix for ASCII integer conversion */
 178:xformatc.c    **** 	unsigned char	radix;
 179:xformatc.c    **** 
 180:xformatc.c    **** 	/* char used for padding */
 181:xformatc.c    **** 	char		pad;
 182:xformatc.c    **** 
 183:xformatc.c    **** 
 184:xformatc.c    **** 	/**
 185:xformatc.c    **** 	 * Current state
 186:xformatc.c    **** 	 */
 187:xformatc.c    **** 	char		state;
 188:xformatc.c    **** 
 189:xformatc.c    **** };
 190:xformatc.c    **** 
 191:xformatc.c    **** 
 192:xformatc.c    **** /**
 193:xformatc.c    ****  * Enum for the internal state machine
 194:xformatc.c    ****  */ 
ARM GAS  C:\Users\bmt\AppData\Local\Temp\ccKVUDN8.s 			page 7


 195:xformatc.c    **** enum State
 196:xformatc.c    **** {
 197:xformatc.c    **** 	/* Normal state outputting literal */
 198:xformatc.c    **** 	ST_NORMAL = 0,
 199:xformatc.c    **** 
 200:xformatc.c    **** 	/* Just read % */
 201:xformatc.c    **** 	ST_PERCENT = 1,
 202:xformatc.c    **** 
 203:xformatc.c    **** 	/* Just read flag */
 204:xformatc.c    **** 	ST_FLAG = 2,
 205:xformatc.c    **** 
 206:xformatc.c    **** 	/* Just read the width */
 207:xformatc.c    **** 	ST_WIDTH = 3,
 208:xformatc.c    **** 
 209:xformatc.c    **** 	/* Just read '.' */
 210:xformatc.c    **** 	ST_DOT= 4,
 211:xformatc.c    **** 
 212:xformatc.c    **** 	/* Just read the precision */
 213:xformatc.c    **** 	ST_PRECIS = 5,
 214:xformatc.c    **** 
 215:xformatc.c    **** 	/* Just	 read the size */
 216:xformatc.c    **** 	ST_SIZE = 6,
 217:xformatc.c    **** 
 218:xformatc.c    **** 	/* Just read the type specifier */
 219:xformatc.c    **** 	ST_TYPE = 7 
 220:xformatc.c    **** };
 221:xformatc.c    **** 
 222:xformatc.c    **** /**
 223:xformatc.c    ****  * Enum for char class
 224:xformatc.c    ****  */ 
 225:xformatc.c    **** enum CharClass
 226:xformatc.c    **** {
 227:xformatc.c    **** 	/* Other char */
 228:xformatc.c    **** 	CH_OTHER = 0,
 229:xformatc.c    **** 	/* The % char */
 230:xformatc.c    **** 	CH_PERCENT = 1,
 231:xformatc.c    **** 	/* The . char */
 232:xformatc.c    **** 	CH_DOT = 2,
 233:xformatc.c    **** 	/* The * char */
 234:xformatc.c    **** 	CH_STAR = 3,
 235:xformatc.c    **** 	/* The 0 char */
 236:xformatc.c    **** 	CH_ZERO = 4,
 237:xformatc.c    **** 	/* Digit 0-9 */
 238:xformatc.c    **** 	CH_DIGIT = 5,
 239:xformatc.c    **** 	/* Flag chars */
 240:xformatc.c    **** 	CH_FLAG = 6,
 241:xformatc.c    **** 	/* Size chars */
 242:xformatc.c    **** 	CH_SIZE = 7,
 243:xformatc.c    **** 	/* Type chars */
 244:xformatc.c    **** 	CH_TYPE = 8
 245:xformatc.c    **** };
 246:xformatc.c    **** 
 247:xformatc.c    **** 
 248:xformatc.c    **** 
 249:xformatc.c    **** /**
 250:xformatc.c    ****  * String used when %s is a null parameter
 251:xformatc.c    ****  */
ARM GAS  C:\Users\bmt\AppData\Local\Temp\ccKVUDN8.s 			page 8


 252:xformatc.c    **** static const char  ms_null[] = "(null)";
 253:xformatc.c    **** /*
 254:xformatc.c    ****  * String for true value
 255:xformatc.c    ****  */
 256:xformatc.c    **** static const char  ms_true[] = "True";
 257:xformatc.c    **** 
 258:xformatc.c    **** /**
 259:xformatc.c    ****  * String for false value
 260:xformatc.c    ****  */
 261:xformatc.c    **** static const char  ms_false[]= "False";
 262:xformatc.c    **** 
 263:xformatc.c    **** 
 264:xformatc.c    **** /*
 265:xformatc.c    ****  * Digit values
 266:xformatc.c    ****  */
 267:xformatc.c    **** static const char ms_digits[] = "0123456789abcdef";
 268:xformatc.c    ****    
 269:xformatc.c    ****    
 270:xformatc.c    **** /*
 271:xformatc.c    ****  * This table contains the next state for all char and it will be
 272:xformatc.c    ****  * generate using xformattable.c
 273:xformatc.c    ****  */
 274:xformatc.c    **** 
 275:xformatc.c    **** static const unsigned char formatStates[] =
 276:xformatc.c    **** {
 277:xformatc.c    **** 	0x06,0x00,0x00,0x06,0x00,0x01,0x00,0x00,
 278:xformatc.c    **** 	0x10,0x00,0x03,0x06,0x00,0x06,0x02,0x10,
 279:xformatc.c    **** 	0x04,0x45,0x45,0x45,0x45,0x05,0x05,0x05,
 280:xformatc.c    **** 	0x05,0x35,0x30,0x00,0x50,0x60,0x00,0x00,
 281:xformatc.c    **** 	0x00,0x20,0x28,0x38,0x50,0x50,0x00,0x00,
 282:xformatc.c    **** 	0x00,0x30,0x30,0x30,0x50,0x50,0x00,0x00,
 283:xformatc.c    **** 	0x08,0x20,0x20,0x28,0x20,0x20,0x20,0x00,
 284:xformatc.c    **** 	0x08,0x60,0x60,0x60,0x60,0x60,0x60,0x00,
 285:xformatc.c    **** 	0x00,0x70,0x78,0x78,0x78,0x70,0x78,0x00,
 286:xformatc.c    **** 	0x07,0x08,0x00,0x00,0x07,0x00,0x00,0x08,
 287:xformatc.c    **** 	0x08,0x00,0x00,0x08,0x00,0x08,0x00,0x00,
 288:xformatc.c    **** 	0x08,0x00,0x07
 289:xformatc.c    **** };
 290:xformatc.c    **** 
 291:xformatc.c    **** 
 292:xformatc.c    **** 
 293:xformatc.c    **** 
 294:xformatc.c    **** /**
 295:xformatc.c    ****  * Convert an unsigned value in one string
 296:xformatc.c    ****  *
 297:xformatc.c    ****  * All parameter are in the passed structure
 298:xformatc.c    ****  *
 299:xformatc.c    ****  * @param prec		- Minimum precision
 300:xformatc.c    ****  * @param lvalue	- Unsigned value
 301:xformatc.c    ****  * @param radix		- Radix (Supported values 2/8/10/16)
 302:xformatc.c    ****  *
 303:xformatc.c    ****  * @param out		- Buffer with the converted value.
 304:xformatc.c    ****  */
 305:xformatc.c    **** static void ulong2a(struct param_s * param)
 306:xformatc.c    **** {
 142              		.loc 1 306 0
 143              		.cfi_startproc
ARM GAS  C:\Users\bmt\AppData\Local\Temp\ccKVUDN8.s 			page 9


 144              		@ args = 0, pretend = 0, frame = 16
 145              		@ frame_needed = 1, uses_anonymous_args = 0
 146              		@ link register save eliminated.
 147 0000 80B4     		push	{r7}
 148              		.cfi_def_cfa_offset 4
 149              		.cfi_offset 7, -4
 150 0002 85B0     		sub	sp, sp, #20
 151              		.cfi_def_cfa_offset 24
 152 0004 00AF     		add	r7, sp, #0
 153              		.cfi_def_cfa_register 7
 154 0006 7860     		str	r0, [r7, #4]
 307:xformatc.c    **** 	unsigned char digit;
 308:xformatc.c    **** 	
 309:xformatc.c    **** 	while (param->prec -- > 0 ||  param->values.lvalue)
 155              		.loc 1 309 0
 156 0008 50E0     		b	.L2
 157              	.L8:
 310:xformatc.c    **** 	{
 311:xformatc.c    **** 		switch (param->radix)
 158              		.loc 1 311 0
 159 000a 7B68     		ldr	r3, [r7, #4]
 160 000c 93F87B30 		ldrb	r3, [r3, #123]	@ zero_extendqisi2
 161 0010 082B     		cmp	r3, #8
 162 0012 0FD0     		beq	.L4
 163 0014 102B     		cmp	r3, #16
 164 0016 19D0     		beq	.L5
 165 0018 022B     		cmp	r3, #2
 166 001a 23D1     		bne	.L9
 312:xformatc.c    **** 		{
 313:xformatc.c    **** 			case 2:
 314:xformatc.c    **** 				digit = param->values.lvalue & 0x01;
 167              		.loc 1 314 0
 168 001c 7B68     		ldr	r3, [r7, #4]
 169 001e 1B68     		ldr	r3, [r3]
 170 0020 DBB2     		uxtb	r3, r3
 171 0022 03F00103 		and	r3, r3, #1
 172 0026 FB73     		strb	r3, [r7, #15]
 315:xformatc.c    **** 				param->values.lvalue >>= 1;
 173              		.loc 1 315 0
 174 0028 7B68     		ldr	r3, [r7, #4]
 175 002a 1B68     		ldr	r3, [r3]
 176 002c 5A08     		lsrs	r2, r3, #1
 177 002e 7B68     		ldr	r3, [r7, #4]
 178 0030 1A60     		str	r2, [r3]
 316:xformatc.c    **** 				break;
 179              		.loc 1 316 0
 180 0032 2DE0     		b	.L7
 181              	.L4:
 317:xformatc.c    **** 
 318:xformatc.c    **** 			case 8:
 319:xformatc.c    **** 				digit = param->values.lvalue & 0x07;
 182              		.loc 1 319 0
 183 0034 7B68     		ldr	r3, [r7, #4]
 184 0036 1B68     		ldr	r3, [r3]
 185 0038 DBB2     		uxtb	r3, r3
 186 003a 03F00703 		and	r3, r3, #7
 187 003e FB73     		strb	r3, [r7, #15]
ARM GAS  C:\Users\bmt\AppData\Local\Temp\ccKVUDN8.s 			page 10


 320:xformatc.c    **** 				param->values.lvalue >>= 3;
 188              		.loc 1 320 0
 189 0040 7B68     		ldr	r3, [r7, #4]
 190 0042 1B68     		ldr	r3, [r3]
 191 0044 DA08     		lsrs	r2, r3, #3
 192 0046 7B68     		ldr	r3, [r7, #4]
 193 0048 1A60     		str	r2, [r3]
 321:xformatc.c    **** 				break;
 194              		.loc 1 321 0
 195 004a 21E0     		b	.L7
 196              	.L5:
 322:xformatc.c    **** 
 323:xformatc.c    **** 			case 16:
 324:xformatc.c    **** 				digit = param->values.lvalue & 0x0F;
 197              		.loc 1 324 0
 198 004c 7B68     		ldr	r3, [r7, #4]
 199 004e 1B68     		ldr	r3, [r3]
 200 0050 DBB2     		uxtb	r3, r3
 201 0052 03F00F03 		and	r3, r3, #15
 202 0056 FB73     		strb	r3, [r7, #15]
 325:xformatc.c    **** 				param->values.lvalue >>= 4;
 203              		.loc 1 325 0
 204 0058 7B68     		ldr	r3, [r7, #4]
 205 005a 1B68     		ldr	r3, [r3]
 206 005c 1A09     		lsrs	r2, r3, #4
 207 005e 7B68     		ldr	r3, [r7, #4]
 208 0060 1A60     		str	r2, [r3]
 326:xformatc.c    **** 				break;
 209              		.loc 1 326 0
 210 0062 15E0     		b	.L7
 211              	.L9:
 327:xformatc.c    **** 				
 328:xformatc.c    **** 			default:
 329:xformatc.c    **** 			case 10:
 330:xformatc.c    **** 				digit = param->values.lvalue % 10;
 212              		.loc 1 330 0
 213 0064 7B68     		ldr	r3, [r7, #4]
 214 0066 1968     		ldr	r1, [r3]
 215 0068 184B     		ldr	r3, .L10
 216 006a A3FB0123 		umull	r2, r3, r3, r1
 217 006e DA08     		lsrs	r2, r3, #3
 218 0070 1346     		mov	r3, r2
 219 0072 9B00     		lsls	r3, r3, #2
 220 0074 1344     		add	r3, r3, r2
 221 0076 5B00     		lsls	r3, r3, #1
 222 0078 CA1A     		subs	r2, r1, r3
 223 007a 1346     		mov	r3, r2
 224 007c FB73     		strb	r3, [r7, #15]
 331:xformatc.c    **** 				param->values.lvalue /= 10;
 225              		.loc 1 331 0
 226 007e 7B68     		ldr	r3, [r7, #4]
 227 0080 1B68     		ldr	r3, [r3]
 228 0082 124A     		ldr	r2, .L10
 229 0084 A2FB0323 		umull	r2, r3, r2, r3
 230 0088 DA08     		lsrs	r2, r3, #3
 231 008a 7B68     		ldr	r3, [r7, #4]
 232 008c 1A60     		str	r2, [r3]
ARM GAS  C:\Users\bmt\AppData\Local\Temp\ccKVUDN8.s 			page 11


 332:xformatc.c    **** 				break;
 233              		.loc 1 332 0
 234 008e 00BF     		nop
 235              	.L7:
 333:xformatc.c    **** 		}
 334:xformatc.c    **** 
 335:xformatc.c    **** 
 336:xformatc.c    **** 		*param->out -- = ms_digits[digit];
 236              		.loc 1 336 0
 237 0090 7B68     		ldr	r3, [r7, #4]
 238 0092 9B68     		ldr	r3, [r3, #8]
 239 0094 591E     		subs	r1, r3, #1
 240 0096 7A68     		ldr	r2, [r7, #4]
 241 0098 9160     		str	r1, [r2, #8]
 242 009a FA7B     		ldrb	r2, [r7, #15]	@ zero_extendqisi2
 243 009c 0C49     		ldr	r1, .L10+4
 244 009e 8A5C     		ldrb	r2, [r1, r2]	@ zero_extendqisi2
 245 00a0 1A70     		strb	r2, [r3]
 337:xformatc.c    **** 		param->length ++;
 246              		.loc 1 337 0
 247 00a2 7B68     		ldr	r3, [r7, #4]
 248 00a4 1B6A     		ldr	r3, [r3, #32]
 249 00a6 5A1C     		adds	r2, r3, #1
 250 00a8 7B68     		ldr	r3, [r7, #4]
 251 00aa 1A62     		str	r2, [r3, #32]
 252              	.L2:
 309:xformatc.c    **** 	{
 253              		.loc 1 309 0
 254 00ac 7B68     		ldr	r3, [r7, #4]
 255 00ae 5B6A     		ldr	r3, [r3, #36]
 256 00b0 591E     		subs	r1, r3, #1
 257 00b2 7A68     		ldr	r2, [r7, #4]
 258 00b4 5162     		str	r1, [r2, #36]
 259 00b6 002B     		cmp	r3, #0
 260 00b8 A7DC     		bgt	.L8
 309:xformatc.c    **** 	{
 261              		.loc 1 309 0 is_stmt 0 discriminator 1
 262 00ba 7B68     		ldr	r3, [r7, #4]
 263 00bc 1B68     		ldr	r3, [r3]
 264 00be 002B     		cmp	r3, #0
 265 00c0 A3D1     		bne	.L8
 338:xformatc.c    **** 
 339:xformatc.c    **** 	}
 340:xformatc.c    **** 
 341:xformatc.c    **** }
 266              		.loc 1 341 0 is_stmt 1
 267 00c2 1437     		adds	r7, r7, #20
 268              		.cfi_def_cfa_offset 4
 269 00c4 BD46     		mov	sp, r7
 270              		.cfi_def_cfa_register 13
 271              		@ sp needed
 272 00c6 5DF8047B 		ldr	r7, [sp], #4
 273              		.cfi_restore 7
 274              		.cfi_def_cfa_offset 0
 275 00ca 7047     		bx	lr
 276              	.L11:
 277              		.align	2
ARM GAS  C:\Users\bmt\AppData\Local\Temp\ccKVUDN8.s 			page 12


 278              	.L10:
 279 00cc CDCCCCCC 		.word	-858993459
 280 00d0 18000000 		.word	ms_digits
 281              		.cfi_endproc
 282              	.LFE0:
 283              		.size	ulong2a, .-ulong2a
 284              		.global	__aeabi_uldivmod
 285              		.section	.text.ullong2a,"ax",%progbits
 286              		.align	2
 287              		.thumb
 288              		.thumb_func
 289              		.type	ullong2a, %function
 290              	ullong2a:
 291              	.LFB1:
 342:xformatc.c    **** 
 343:xformatc.c    **** 
 344:xformatc.c    **** #if XCFG_FORMAT_LONGLONG
 345:xformatc.c    **** #ifdef XCFG_FORMAT_LONG_ARE_LONGLONG
 346:xformatc.c    **** #define	ullong2a	ulong2a
 347:xformatc.c    **** #else
 348:xformatc.c    **** static void ullong2a(struct param_s * param)
 349:xformatc.c    **** {
 292              		.loc 1 349 0
 293              		.cfi_startproc
 294              		@ args = 0, pretend = 0, frame = 16
 295              		@ frame_needed = 1, uses_anonymous_args = 0
 296 0000 2DE9B043 		push	{r4, r5, r7, r8, r9, lr}
 297              		.cfi_def_cfa_offset 24
 298              		.cfi_offset 4, -24
 299              		.cfi_offset 5, -20
 300              		.cfi_offset 7, -16
 301              		.cfi_offset 8, -12
 302              		.cfi_offset 9, -8
 303              		.cfi_offset 14, -4
 304 0004 84B0     		sub	sp, sp, #16
 305              		.cfi_def_cfa_offset 40
 306 0006 00AF     		add	r7, sp, #0
 307              		.cfi_def_cfa_register 7
 308 0008 7860     		str	r0, [r7, #4]
 350:xformatc.c    **** 	unsigned char digit;
 351:xformatc.c    **** 
 352:xformatc.c    **** 	while (param->prec -- > 0 ||  param->values.llvalue)
 309              		.loc 1 352 0
 310 000a 6BE0     		b	.L13
 311              	.L19:
 353:xformatc.c    **** 	{
 354:xformatc.c    **** 		switch (param->radix)
 312              		.loc 1 354 0
 313 000c 7B68     		ldr	r3, [r7, #4]
 314 000e 93F87B30 		ldrb	r3, [r3, #123]	@ zero_extendqisi2
 315 0012 082B     		cmp	r3, #8
 316 0014 14D0     		beq	.L15
 317 0016 102B     		cmp	r3, #16
 318 0018 24D0     		beq	.L16
 319 001a 022B     		cmp	r3, #2
 320 001c 36D1     		bne	.L20
 355:xformatc.c    **** 		{
ARM GAS  C:\Users\bmt\AppData\Local\Temp\ccKVUDN8.s 			page 13


 356:xformatc.c    **** 			case 2:
 357:xformatc.c    **** 				digit = param->values.llvalue & 0x01;
 321              		.loc 1 357 0
 322 001e 7B68     		ldr	r3, [r7, #4]
 323 0020 D3E90023 		ldrd	r2, [r3]
 324 0024 D3B2     		uxtb	r3, r2
 325 0026 03F00103 		and	r3, r3, #1
 326 002a FB73     		strb	r3, [r7, #15]
 358:xformatc.c    **** 				param->values.llvalue >>= 1;
 327              		.loc 1 358 0
 328 002c 7B68     		ldr	r3, [r7, #4]
 329 002e D3E90023 		ldrd	r2, [r3]
 330 0032 5B08     		movs	r3, r3, lsr #1
 331 0034 4FEA3202 		mov	r2, r2, rrx
 332 0038 7968     		ldr	r1, [r7, #4]
 333 003a C1E90023 		strd	r2, [r1]
 359:xformatc.c    **** 				break;
 334              		.loc 1 359 0
 335 003e 43E0     		b	.L18
 336              	.L15:
 360:xformatc.c    **** 
 361:xformatc.c    **** 			case 8:
 362:xformatc.c    **** 				digit = param->values.llvalue & 0x07;
 337              		.loc 1 362 0
 338 0040 7B68     		ldr	r3, [r7, #4]
 339 0042 D3E90023 		ldrd	r2, [r3]
 340 0046 D3B2     		uxtb	r3, r2
 341 0048 03F00703 		and	r3, r3, #7
 342 004c FB73     		strb	r3, [r7, #15]
 363:xformatc.c    **** 				param->values.llvalue >>= 3;
 343              		.loc 1 363 0
 344 004e 7B68     		ldr	r3, [r7, #4]
 345 0050 D3E90023 		ldrd	r2, [r3]
 346 0054 D408     		lsrs	r4, r2, #3
 347 0056 44EA4374 		orr	r4, r4, r3, lsl #29
 348 005a DD08     		lsrs	r5, r3, #3
 349 005c 7B68     		ldr	r3, [r7, #4]
 350 005e C3E90045 		strd	r4, [r3]
 364:xformatc.c    **** 				break;
 351              		.loc 1 364 0
 352 0062 31E0     		b	.L18
 353              	.L16:
 365:xformatc.c    **** 
 366:xformatc.c    **** 			case 16:
 367:xformatc.c    **** 				digit = param->values.llvalue & 0x0F;
 354              		.loc 1 367 0
 355 0064 7B68     		ldr	r3, [r7, #4]
 356 0066 D3E90023 		ldrd	r2, [r3]
 357 006a D3B2     		uxtb	r3, r2
 358 006c 03F00F03 		and	r3, r3, #15
 359 0070 FB73     		strb	r3, [r7, #15]
 368:xformatc.c    **** 				param->values.llvalue >>= 4;
 360              		.loc 1 368 0
 361 0072 7B68     		ldr	r3, [r7, #4]
 362 0074 D3E90023 		ldrd	r2, [r3]
 363 0078 4FEA1218 		lsr	r8, r2, #4
 364 007c 48EA0378 		orr	r8, r8, r3, lsl #28
ARM GAS  C:\Users\bmt\AppData\Local\Temp\ccKVUDN8.s 			page 14


 365 0080 4FEA1319 		lsr	r9, r3, #4
 366 0084 7B68     		ldr	r3, [r7, #4]
 367 0086 C3E90089 		strd	r8, [r3]
 369:xformatc.c    **** 				break;
 368              		.loc 1 369 0
 369 008a 1DE0     		b	.L18
 370              	.L20:
 370:xformatc.c    **** 				
 371:xformatc.c    **** 			default:
 372:xformatc.c    **** 			case 10:
 373:xformatc.c    **** 				digit = param->values.llvalue % 10;
 371              		.loc 1 373 0
 372 008c 7B68     		ldr	r3, [r7, #4]
 373 008e D3E90023 		ldrd	r2, [r3]
 374 0092 1046     		mov	r0, r2
 375 0094 1946     		mov	r1, r3
 376 0096 4FF00A02 		mov	r2, #10
 377 009a 4FF00003 		mov	r3, #0
 378 009e FFF7FEFF 		bl	__aeabi_uldivmod
 379 00a2 1346     		mov	r3, r2
 380 00a4 FB73     		strb	r3, [r7, #15]
 374:xformatc.c    **** 				param->values.llvalue /= 10;
 381              		.loc 1 374 0
 382 00a6 7B68     		ldr	r3, [r7, #4]
 383 00a8 D3E90023 		ldrd	r2, [r3]
 384 00ac 1046     		mov	r0, r2
 385 00ae 1946     		mov	r1, r3
 386 00b0 4FF00A02 		mov	r2, #10
 387 00b4 4FF00003 		mov	r3, #0
 388 00b8 FFF7FEFF 		bl	__aeabi_uldivmod
 389 00bc 0246     		mov	r2, r0
 390 00be 0B46     		mov	r3, r1
 391 00c0 7968     		ldr	r1, [r7, #4]
 392 00c2 C1E90023 		strd	r2, [r1]
 375:xformatc.c    **** 				
 376:xformatc.c    **** 				break;
 393              		.loc 1 376 0
 394 00c6 00BF     		nop
 395              	.L18:
 377:xformatc.c    **** 		}
 378:xformatc.c    **** 
 379:xformatc.c    **** 
 380:xformatc.c    **** 		*param->out -- = ms_digits[digit];
 396              		.loc 1 380 0
 397 00c8 7B68     		ldr	r3, [r7, #4]
 398 00ca 9B68     		ldr	r3, [r3, #8]
 399 00cc 591E     		subs	r1, r3, #1
 400 00ce 7A68     		ldr	r2, [r7, #4]
 401 00d0 9160     		str	r1, [r2, #8]
 402 00d2 FA7B     		ldrb	r2, [r7, #15]	@ zero_extendqisi2
 403 00d4 0B49     		ldr	r1, .L21
 404 00d6 8A5C     		ldrb	r2, [r1, r2]	@ zero_extendqisi2
 405 00d8 1A70     		strb	r2, [r3]
 381:xformatc.c    **** 		param->length ++;
 406              		.loc 1 381 0
 407 00da 7B68     		ldr	r3, [r7, #4]
 408 00dc 1B6A     		ldr	r3, [r3, #32]
ARM GAS  C:\Users\bmt\AppData\Local\Temp\ccKVUDN8.s 			page 15


 409 00de 5A1C     		adds	r2, r3, #1
 410 00e0 7B68     		ldr	r3, [r7, #4]
 411 00e2 1A62     		str	r2, [r3, #32]
 412              	.L13:
 352:xformatc.c    **** 	{
 413              		.loc 1 352 0
 414 00e4 7B68     		ldr	r3, [r7, #4]
 415 00e6 5B6A     		ldr	r3, [r3, #36]
 416 00e8 591E     		subs	r1, r3, #1
 417 00ea 7A68     		ldr	r2, [r7, #4]
 418 00ec 5162     		str	r1, [r2, #36]
 419 00ee 002B     		cmp	r3, #0
 420 00f0 8CDC     		bgt	.L19
 352:xformatc.c    **** 	{
 421              		.loc 1 352 0 is_stmt 0 discriminator 1
 422 00f2 7B68     		ldr	r3, [r7, #4]
 423 00f4 D3E90023 		ldrd	r2, [r3]
 424 00f8 1343     		orrs	r3, r2, r3
 425 00fa 87D1     		bne	.L19
 382:xformatc.c    **** 
 383:xformatc.c    **** 	}
 384:xformatc.c    **** 
 385:xformatc.c    **** }
 426              		.loc 1 385 0 is_stmt 1
 427 00fc 1037     		adds	r7, r7, #16
 428              		.cfi_def_cfa_offset 24
 429 00fe BD46     		mov	sp, r7
 430              		.cfi_def_cfa_register 13
 431              		@ sp needed
 432 0100 BDE8B083 		pop	{r4, r5, r7, r8, r9, pc}
 433              	.L22:
 434              		.align	2
 435              	.L21:
 436 0104 18000000 		.word	ms_digits
 437              		.cfi_endproc
 438              	.LFE1:
 439              		.size	ullong2a, .-ullong2a
 440              		.section	.text.xformat,"ax",%progbits
 441              		.align	2
 442              		.global	xformat
 443              		.thumb
 444              		.thumb_func
 445              		.type	xformat, %function
 446              	xformat:
 447              	.LFB2:
 386:xformatc.c    **** #endif
 387:xformatc.c    **** #endif
 388:xformatc.c    **** 
 389:xformatc.c    **** /**
 390:xformatc.c    ****  * Printf like using variable arguments.
 391:xformatc.c    ****  * 
 392:xformatc.c    ****  * @param outchar - Pointer to the function to output one new char.
 393:xformatc.c    ****  * @param arg	- Argument for the output function.
 394:xformatc.c    ****  * @param fmt	- Format options for the list of parameters.
 395:xformatc.c    ****  * @param ...	- Arguments
 396:xformatc.c    ****  *
 397:xformatc.c    ****  * @return The number of char emitted.
ARM GAS  C:\Users\bmt\AppData\Local\Temp\ccKVUDN8.s 			page 16


 398:xformatc.c    ****  * 
 399:xformatc.c    ****  * @see xvformat
 400:xformatc.c    ****  */
 401:xformatc.c    **** unsigned xformat(void (*outchar)(void *,char),void *arg,const char * fmt,...)
 402:xformatc.c    **** {
 448              		.loc 1 402 0
 449              		.cfi_startproc
 450              		@ args = 4, pretend = 8, frame = 16
 451              		@ frame_needed = 1, uses_anonymous_args = 1
 452 0000 0CB4     		push	{r2, r3}
 453              		.cfi_def_cfa_offset 8
 454              		.cfi_offset 2, -8
 455              		.cfi_offset 3, -4
 456 0002 80B5     		push	{r7, lr}
 457              		.cfi_def_cfa_offset 16
 458              		.cfi_offset 7, -16
 459              		.cfi_offset 14, -12
 460 0004 84B0     		sub	sp, sp, #16
 461              		.cfi_def_cfa_offset 32
 462 0006 00AF     		add	r7, sp, #0
 463              		.cfi_def_cfa_register 7
 464 0008 7860     		str	r0, [r7, #4]
 465 000a 3960     		str	r1, [r7]
 403:xformatc.c    **** 	va_list list;
 404:xformatc.c    **** 	unsigned count;
 405:xformatc.c    **** 
 406:xformatc.c    **** 	va_start(list,fmt);
 466              		.loc 1 406 0
 467 000c 07F11C03 		add	r3, r7, #28
 468 0010 BB60     		str	r3, [r7, #8]
 407:xformatc.c    **** 	count = xvformat(outchar,arg,fmt,list);
 469              		.loc 1 407 0
 470 0012 7868     		ldr	r0, [r7, #4]
 471 0014 3968     		ldr	r1, [r7]
 472 0016 BA69     		ldr	r2, [r7, #24]
 473 0018 BB68     		ldr	r3, [r7, #8]
 474 001a FFF7FEFF 		bl	xvformat
 475 001e F860     		str	r0, [r7, #12]
 408:xformatc.c    **** 	va_end(list);
 409:xformatc.c    **** 
 410:xformatc.c    **** 	(void)list;
 411:xformatc.c    **** 
 412:xformatc.c    **** 	return count;
 476              		.loc 1 412 0
 477 0020 FB68     		ldr	r3, [r7, #12]
 413:xformatc.c    **** }
 478              		.loc 1 413 0
 479 0022 1846     		mov	r0, r3
 480 0024 1037     		adds	r7, r7, #16
 481              		.cfi_def_cfa_offset 16
 482 0026 BD46     		mov	sp, r7
 483              		.cfi_def_cfa_register 13
 484              		@ sp needed
 485 0028 BDE88040 		pop	{r7, lr}
 486              		.cfi_restore 14
 487              		.cfi_restore 7
 488              		.cfi_def_cfa_offset 8
ARM GAS  C:\Users\bmt\AppData\Local\Temp\ccKVUDN8.s 			page 17


 489 002c 02B0     		add	sp, sp, #8
 490              		.cfi_restore 3
 491              		.cfi_restore 2
 492              		.cfi_def_cfa_offset 0
 493 002e 7047     		bx	lr
 494              		.cfi_endproc
 495              	.LFE2:
 496              		.size	xformat, .-xformat
 497              		.section	.text.xstrlen,"ax",%progbits
 498              		.align	2
 499              		.thumb
 500              		.thumb_func
 501              		.type	xstrlen, %function
 502              	xstrlen:
 503              	.LFB3:
 414:xformatc.c    **** 
 415:xformatc.c    **** 
 416:xformatc.c    **** /**
 417:xformatc.c    ****  * We do not want use any library function.
 418:xformatc.c    ****  *
 419:xformatc.c    ****  * @param s - C	 string
 420:xformatc.c    ****  * @return The length of the string
 421:xformatc.c    ****  */
 422:xformatc.c    **** static unsigned xstrlen(const char *s)
 423:xformatc.c    **** {
 504              		.loc 1 423 0
 505              		.cfi_startproc
 506              		@ args = 0, pretend = 0, frame = 16
 507              		@ frame_needed = 1, uses_anonymous_args = 0
 508              		@ link register save eliminated.
 509 0000 80B4     		push	{r7}
 510              		.cfi_def_cfa_offset 4
 511              		.cfi_offset 7, -4
 512 0002 85B0     		sub	sp, sp, #20
 513              		.cfi_def_cfa_offset 24
 514 0004 00AF     		add	r7, sp, #0
 515              		.cfi_def_cfa_register 7
 516 0006 7860     		str	r0, [r7, #4]
 424:xformatc.c    **** 	const char *i;
 425:xformatc.c    **** 
 426:xformatc.c    **** 	for (i = s ; *i ; i++)
 517              		.loc 1 426 0
 518 0008 7B68     		ldr	r3, [r7, #4]
 519 000a FB60     		str	r3, [r7, #12]
 520 000c 02E0     		b	.L26
 521              	.L27:
 522              		.loc 1 426 0 is_stmt 0 discriminator 3
 523 000e FB68     		ldr	r3, [r7, #12]
 524 0010 0133     		adds	r3, r3, #1
 525 0012 FB60     		str	r3, [r7, #12]
 526              	.L26:
 527              		.loc 1 426 0 discriminator 1
 528 0014 FB68     		ldr	r3, [r7, #12]
 529 0016 1B78     		ldrb	r3, [r3]	@ zero_extendqisi2
 530 0018 002B     		cmp	r3, #0
 531 001a F8D1     		bne	.L27
 427:xformatc.c    **** 	{
ARM GAS  C:\Users\bmt\AppData\Local\Temp\ccKVUDN8.s 			page 18


 428:xformatc.c    **** 	}
 429:xformatc.c    **** 
 430:xformatc.c    **** 	return (unsigned)(i - s);
 532              		.loc 1 430 0 is_stmt 1
 533 001c FA68     		ldr	r2, [r7, #12]
 534 001e 7B68     		ldr	r3, [r7, #4]
 535 0020 D31A     		subs	r3, r2, r3
 431:xformatc.c    **** }
 536              		.loc 1 431 0
 537 0022 1846     		mov	r0, r3
 538 0024 1437     		adds	r7, r7, #20
 539              		.cfi_def_cfa_offset 4
 540 0026 BD46     		mov	sp, r7
 541              		.cfi_def_cfa_register 13
 542              		@ sp needed
 543 0028 5DF8047B 		ldr	r7, [sp], #4
 544              		.cfi_restore 7
 545              		.cfi_def_cfa_offset 0
 546 002c 7047     		bx	lr
 547              		.cfi_endproc
 548              	.LFE3:
 549              		.size	xstrlen, .-xstrlen
 550 002e 00BF     		.section	.text.outBuffer,"ax",%progbits
 551              		.align	2
 552              		.thumb
 553              		.thumb_func
 554              		.type	outBuffer, %function
 555              	outBuffer:
 556              	.LFB4:
 432:xformatc.c    **** 
 433:xformatc.c    **** static unsigned outBuffer(void (*myoutchar)(void *arg,char),void *arg,const char *buffer,int len,un
 434:xformatc.c    **** {
 557              		.loc 1 434 0
 558              		.cfi_startproc
 559              		@ args = 4, pretend = 0, frame = 32
 560              		@ frame_needed = 1, uses_anonymous_args = 0
 561 0000 80B5     		push	{r7, lr}
 562              		.cfi_def_cfa_offset 8
 563              		.cfi_offset 7, -8
 564              		.cfi_offset 14, -4
 565 0002 88B0     		sub	sp, sp, #32
 566              		.cfi_def_cfa_offset 40
 567 0004 00AF     		add	r7, sp, #0
 568              		.cfi_def_cfa_register 7
 569 0006 F860     		str	r0, [r7, #12]
 570 0008 B960     		str	r1, [r7, #8]
 571 000a 7A60     		str	r2, [r7, #4]
 572 000c 3B60     		str	r3, [r7]
 435:xformatc.c    **** 	unsigned count = 0;
 573              		.loc 1 435 0
 574 000e 0023     		movs	r3, #0
 575 0010 FB61     		str	r3, [r7, #28]
 436:xformatc.c    **** 	int i;
 437:xformatc.c    **** 	char c;
 438:xformatc.c    **** 
 439:xformatc.c    **** 	for (i = 0; i < len ; i++)
 576              		.loc 1 439 0
ARM GAS  C:\Users\bmt\AppData\Local\Temp\ccKVUDN8.s 			page 19


 577 0012 0023     		movs	r3, #0
 578 0014 BB61     		str	r3, [r7, #24]
 579 0016 1BE0     		b	.L30
 580              	.L32:
 440:xformatc.c    **** 	{
 441:xformatc.c    **** 		c = buffer[i];
 581              		.loc 1 441 0
 582 0018 BB69     		ldr	r3, [r7, #24]
 583 001a 7A68     		ldr	r2, [r7, #4]
 584 001c 1344     		add	r3, r3, r2
 585 001e 1B78     		ldrb	r3, [r3]
 586 0020 FB75     		strb	r3, [r7, #23]
 442:xformatc.c    **** 
 443:xformatc.c    **** 		if (toupper && (c >= 'a' && c <= 'z'))
 587              		.loc 1 443 0
 588 0022 BB6A     		ldr	r3, [r7, #40]
 589 0024 002B     		cmp	r3, #0
 590 0026 08D0     		beq	.L31
 591              		.loc 1 443 0 is_stmt 0 discriminator 1
 592 0028 FB7D     		ldrb	r3, [r7, #23]	@ zero_extendqisi2
 593 002a 602B     		cmp	r3, #96
 594 002c 05D9     		bls	.L31
 595              		.loc 1 443 0 discriminator 2
 596 002e FB7D     		ldrb	r3, [r7, #23]	@ zero_extendqisi2
 597 0030 7A2B     		cmp	r3, #122
 598 0032 02D8     		bhi	.L31
 444:xformatc.c    **** 		{
 445:xformatc.c    **** 			c -= 'a' - 'A';
 599              		.loc 1 445 0 is_stmt 1
 600 0034 FB7D     		ldrb	r3, [r7, #23]
 601 0036 203B     		subs	r3, r3, #32
 602 0038 FB75     		strb	r3, [r7, #23]
 603              	.L31:
 446:xformatc.c    **** 		}
 447:xformatc.c    **** 
 448:xformatc.c    **** 		(*myoutchar)(arg,c);
 604              		.loc 1 448 0 discriminator 2
 605 003a FA7D     		ldrb	r2, [r7, #23]	@ zero_extendqisi2
 606 003c FB68     		ldr	r3, [r7, #12]
 607 003e B868     		ldr	r0, [r7, #8]
 608 0040 1146     		mov	r1, r2
 609 0042 9847     		blx	r3
 449:xformatc.c    **** 		count++;
 610              		.loc 1 449 0 discriminator 2
 611 0044 FB69     		ldr	r3, [r7, #28]
 612 0046 0133     		adds	r3, r3, #1
 613 0048 FB61     		str	r3, [r7, #28]
 439:xformatc.c    **** 	{
 614              		.loc 1 439 0 discriminator 2
 615 004a BB69     		ldr	r3, [r7, #24]
 616 004c 0133     		adds	r3, r3, #1
 617 004e BB61     		str	r3, [r7, #24]
 618              	.L30:
 439:xformatc.c    **** 	{
 619              		.loc 1 439 0 is_stmt 0 discriminator 1
 620 0050 BA69     		ldr	r2, [r7, #24]
 621 0052 3B68     		ldr	r3, [r7]
ARM GAS  C:\Users\bmt\AppData\Local\Temp\ccKVUDN8.s 			page 20


 622 0054 9A42     		cmp	r2, r3
 623 0056 DFDB     		blt	.L32
 450:xformatc.c    **** 	}
 451:xformatc.c    **** 
 452:xformatc.c    **** 	return count;
 624              		.loc 1 452 0 is_stmt 1
 625 0058 FB69     		ldr	r3, [r7, #28]
 453:xformatc.c    **** }
 626              		.loc 1 453 0
 627 005a 1846     		mov	r0, r3
 628 005c 2037     		adds	r7, r7, #32
 629              		.cfi_def_cfa_offset 8
 630 005e BD46     		mov	sp, r7
 631              		.cfi_def_cfa_register 13
 632              		@ sp needed
 633 0060 80BD     		pop	{r7, pc}
 634              		.cfi_endproc
 635              	.LFE4:
 636              		.size	outBuffer, .-outBuffer
 637 0062 00BF     		.section	.text.outChars,"ax",%progbits
 638              		.align	2
 639              		.thumb
 640              		.thumb_func
 641              		.type	outChars, %function
 642              	outChars:
 643              	.LFB5:
 454:xformatc.c    **** 
 455:xformatc.c    **** 
 456:xformatc.c    **** static unsigned outChars(void (*myoutchar)(void *arg,char),void *arg,char ch,int len)
 457:xformatc.c    **** {
 644              		.loc 1 457 0
 645              		.cfi_startproc
 646              		@ args = 0, pretend = 0, frame = 24
 647              		@ frame_needed = 1, uses_anonymous_args = 0
 648 0000 80B5     		push	{r7, lr}
 649              		.cfi_def_cfa_offset 8
 650              		.cfi_offset 7, -8
 651              		.cfi_offset 14, -4
 652 0002 86B0     		sub	sp, sp, #24
 653              		.cfi_def_cfa_offset 32
 654 0004 00AF     		add	r7, sp, #0
 655              		.cfi_def_cfa_register 7
 656 0006 F860     		str	r0, [r7, #12]
 657 0008 B960     		str	r1, [r7, #8]
 658 000a 3B60     		str	r3, [r7]
 659 000c 1346     		mov	r3, r2
 660 000e FB71     		strb	r3, [r7, #7]
 458:xformatc.c    **** 	unsigned count= 0;
 661              		.loc 1 458 0
 662 0010 0023     		movs	r3, #0
 663 0012 7B61     		str	r3, [r7, #20]
 459:xformatc.c    **** 
 460:xformatc.c    **** 	while (len-- > 0)
 664              		.loc 1 460 0
 665 0014 07E0     		b	.L35
 666              	.L36:
 461:xformatc.c    **** 	{
ARM GAS  C:\Users\bmt\AppData\Local\Temp\ccKVUDN8.s 			page 21


 462:xformatc.c    **** 		(*myoutchar)(arg,ch);
 667              		.loc 1 462 0
 668 0016 FA79     		ldrb	r2, [r7, #7]	@ zero_extendqisi2
 669 0018 FB68     		ldr	r3, [r7, #12]
 670 001a B868     		ldr	r0, [r7, #8]
 671 001c 1146     		mov	r1, r2
 672 001e 9847     		blx	r3
 463:xformatc.c    **** 		count++;
 673              		.loc 1 463 0
 674 0020 7B69     		ldr	r3, [r7, #20]
 675 0022 0133     		adds	r3, r3, #1
 676 0024 7B61     		str	r3, [r7, #20]
 677              	.L35:
 460:xformatc.c    **** 	{
 678              		.loc 1 460 0
 679 0026 3B68     		ldr	r3, [r7]
 680 0028 5A1E     		subs	r2, r3, #1
 681 002a 3A60     		str	r2, [r7]
 682 002c 002B     		cmp	r3, #0
 683 002e F2DC     		bgt	.L36
 464:xformatc.c    **** 	}
 465:xformatc.c    **** 
 466:xformatc.c    **** 	return count;
 684              		.loc 1 466 0
 685 0030 7B69     		ldr	r3, [r7, #20]
 467:xformatc.c    **** }
 686              		.loc 1 467 0
 687 0032 1846     		mov	r0, r3
 688 0034 1837     		adds	r7, r7, #24
 689              		.cfi_def_cfa_offset 8
 690 0036 BD46     		mov	sp, r7
 691              		.cfi_def_cfa_register 13
 692              		@ sp needed
 693 0038 80BD     		pop	{r7, pc}
 694              		.cfi_endproc
 695              	.LFE5:
 696              		.size	outChars, .-outChars
 697              		.global	__aeabi_ddiv
 698              		.global	__aeabi_dcmplt
 699              		.global	__aeabi_dsub
 700              		.global	__aeabi_d2lz
 701              		.global	__aeabi_l2d
 702              		.global	__aeabi_dadd
 703              		.global	__aeabi_ul2d
 704              		.global	__aeabi_dmul
 705              		.global	__aeabi_d2uiz
 706 003a 00BF     		.section	.text.xvformat,"ax",%progbits
 707              		.align	2
 708              		.global	xvformat
 709              		.thumb
 710              		.thumb_func
 711              		.type	xvformat, %function
 712              	xvformat:
 713              	.LFB6:
 468:xformatc.c    **** 
 469:xformatc.c    **** 
 470:xformatc.c    **** 
ARM GAS  C:\Users\bmt\AppData\Local\Temp\ccKVUDN8.s 			page 22


 471:xformatc.c    **** /*
 472:xformatc.c    ****  * Lint want declare list as const but list is an obscured pointer so
 473:xformatc.c    ****  * the warning is disabled.
 474:xformatc.c    ****  */
 475:xformatc.c    **** /*lint -save -e818 */
 476:xformatc.c    **** 
 477:xformatc.c    **** 
 478:xformatc.c    **** /**
 479:xformatc.c    ****  * Printf like format function.
 480:xformatc.c    ****  *
 481:xformatc.c    ****  * General format :
 482:xformatc.c    ****  * 
 483:xformatc.c    ****  * %[width][.precision][flags]type
 484:xformatc.c    ****  *
 485:xformatc.c    ****  * - width Is the minimum size of the field.
 486:xformatc.c    ****  * 
 487:xformatc.c    ****  * - precision Is the maximum size of the field.
 488:xformatc.c    ****  * 
 489:xformatc.c    ****  * Supported flags :
 490:xformatc.c    ****  * 
 491:xformatc.c    ****  * - l	With integer number the argument will be of type long.
 492:xformatc.c    ****  * - ll With integer number the argument will be of type long long.
 493:xformatc.c    ****  * -	Space for positive integer a space will be added before.
 494:xformatc.c    ****  * - z	Compatible with C99 the argument is size_t (aka sizeof(void *))
 495:xformatc.c    ****  * - +	A + sign prefix positive number.
 496:xformatc.c    ****  * - #	A prefix will be printed (o for octal,0x for hex,0b for binary)
 497:xformatc.c    ****  * - 0	Value will be padded with zero (default is spacwe)
 498:xformatc.c    ****  * - -	Left justify as default filed have rigth justification.
 499:xformatc.c    ****  * 
 500:xformatc.c    ****  * Supported type :
 501:xformatc.c    ****  * 
 502:xformatc.c    ****  * - s	Null terminated string of char.
 503:xformatc.c    ****  * - S	Null terminated string of char in upper case.
 504:xformatc.c    ****  * - i	Integer number.
 505:xformatc.c    ****  * - d	Integer number.
 506:xformatc.c    ****  * - u	Unsigned number.
 507:xformatc.c    ****  * - x	Unsigned number in hex.
 508:xformatc.c    ****  * - X	Unsigned number in hex upper case.
 509:xformatc.c    ****  * - b	Binary number
 510:xformatc.c    ****  * - o	Octal number
 511:xformatc.c    ****  * - p	Pointer will be emitted with the prefix ->
 512:xformatc.c    ****  * - P	Pointer in upper case letter.
 513:xformatc.c    ****  * - f	Floating point number.
 514:xformatc.c    ****  * - B	Boolean value printed as True / False.
 515:xformatc.c    ****  *
 516:xformatc.c    ****  * @param outchar - Pointer to the function to output one char.
 517:xformatc.c    ****  * @param arg	- Argument for the output function.
 518:xformatc.c    ****  * @param fmt	- Format options for the list of parameters.
 519:xformatc.c    ****  * @param args	- List parameters.
 520:xformatc.c    ****  *
 521:xformatc.c    ****  * @return The number of char emitted.
 522:xformatc.c    ****  */
 523:xformatc.c    **** unsigned xvformat(void (*outchar)(void *,char),void *arg,const char * fmt,va_list _args)
 524:xformatc.c    **** {
 714              		.loc 1 524 0
 715              		.cfi_startproc
 716              		@ args = 0, pretend = 0, frame = 152
ARM GAS  C:\Users\bmt\AppData\Local\Temp\ccKVUDN8.s 			page 23


 717              		@ frame_needed = 1, uses_anonymous_args = 0
 718 0000 2DE9F043 		push	{r4, r5, r6, r7, r8, r9, lr}
 719              		.cfi_def_cfa_offset 28
 720              		.cfi_offset 4, -28
 721              		.cfi_offset 5, -24
 722              		.cfi_offset 6, -20
 723              		.cfi_offset 7, -16
 724              		.cfi_offset 8, -12
 725              		.cfi_offset 9, -8
 726              		.cfi_offset 14, -4
 727 0004 A9B0     		sub	sp, sp, #164
 728              		.cfi_def_cfa_offset 192
 729 0006 02AF     		add	r7, sp, #8
 730              		.cfi_def_cfa 7, 184
 731 0008 F860     		str	r0, [r7, #12]
 732 000a B960     		str	r1, [r7, #8]
 733 000c 7A60     		str	r2, [r7, #4]
 734 000e 3B60     		str	r3, [r7]
 525:xformatc.c    **** 	XCFG_FORMAT_STATIC struct param_s param;
 526:xformatc.c    **** 	int i;
 527:xformatc.c    **** 	char c;
 528:xformatc.c    **** 	
 529:xformatc.c    **** #if XCFG_FORMAT_VA_COPY
 530:xformatc.c    **** 	va_list args;
 531:xformatc.c    **** 
 532:xformatc.c    **** 	va_copy(args,_args);
 533:xformatc.c    **** #else
 534:xformatc.c    **** #define args	_args
 535:xformatc.c    **** #endif
 536:xformatc.c    **** 
 537:xformatc.c    **** 	param.count = 0;
 735              		.loc 1 537 0
 736 0010 0023     		movs	r3, #0
 737 0012 FB63     		str	r3, [r7, #60]
 538:xformatc.c    **** 	param.state = ST_NORMAL;
 738              		.loc 1 538 0
 739 0014 0023     		movs	r3, #0
 740 0016 87F88D30 		strb	r3, [r7, #141]
 539:xformatc.c    **** 
 540:xformatc.c    **** 	while (*fmt)
 741              		.loc 1 540 0
 742 001a 00F020BC 		b	.L39
 743              	.L128:
 541:xformatc.c    **** 	{
 542:xformatc.c    **** 		c = *fmt++;
 744              		.loc 1 542 0
 745 001e 7B68     		ldr	r3, [r7, #4]
 746 0020 5A1C     		adds	r2, r3, #1
 747 0022 7A60     		str	r2, [r7, #4]
 748 0024 1B78     		ldrb	r3, [r3]
 749 0026 87F89330 		strb	r3, [r7, #147]
 543:xformatc.c    **** 
 544:xformatc.c    **** 		if (c < ' ' || c > 'z')
 750              		.loc 1 544 0
 751 002a 97F89330 		ldrb	r3, [r7, #147]	@ zero_extendqisi2
 752 002e 1F2B     		cmp	r3, #31
 753 0030 03D9     		bls	.L40
ARM GAS  C:\Users\bmt\AppData\Local\Temp\ccKVUDN8.s 			page 24


 754              		.loc 1 544 0 is_stmt 0 discriminator 1
 755 0032 97F89330 		ldrb	r3, [r7, #147]	@ zero_extendqisi2
 756 0036 7A2B     		cmp	r3, #122
 757 0038 03D9     		bls	.L41
 758              	.L40:
 545:xformatc.c    **** 			i = (int)CH_OTHER;
 759              		.loc 1 545 0 is_stmt 1
 760 003a 0023     		movs	r3, #0
 761 003c C7F89430 		str	r3, [r7, #148]
 762 0040 08E0     		b	.L42
 763              	.L41:
 546:xformatc.c    **** 		else
 547:xformatc.c    **** 			i = formatStates[c - ' '] & 0x0F;
 764              		.loc 1 547 0
 765 0042 97F89330 		ldrb	r3, [r7, #147]	@ zero_extendqisi2
 766 0046 203B     		subs	r3, r3, #32
 767 0048 C34A     		ldr	r2, .L134
 768 004a D35C     		ldrb	r3, [r2, r3]	@ zero_extendqisi2
 769 004c 03F00F03 		and	r3, r3, #15
 770 0050 C7F89430 		str	r3, [r7, #148]
 771              	.L42:
 548:xformatc.c    **** 
 549:xformatc.c    **** 		param.state = formatStates[(i << 3) + param.state] >> 4;
 772              		.loc 1 549 0
 773 0054 D7F89430 		ldr	r3, [r7, #148]
 774 0058 DB00     		lsls	r3, r3, #3
 775 005a 97F88D20 		ldrb	r2, [r7, #141]	@ zero_extendqisi2
 776 005e 1344     		add	r3, r3, r2
 777 0060 BD4A     		ldr	r2, .L134
 778 0062 D35C     		ldrb	r3, [r2, r3]	@ zero_extendqisi2
 779 0064 1B09     		lsrs	r3, r3, #4
 780 0066 DBB2     		uxtb	r3, r3
 781 0068 87F88D30 		strb	r3, [r7, #141]
 550:xformatc.c    **** 
 551:xformatc.c    **** 
 552:xformatc.c    **** 		switch (param.state)
 782              		.loc 1 552 0
 783 006c 97F88D30 		ldrb	r3, [r7, #141]	@ zero_extendqisi2
 784 0070 013B     		subs	r3, r3, #1
 785 0072 062B     		cmp	r3, #6
 786 0074 10D8     		bhi	.L43
 787 0076 01A2     		adr	r2, .L45
 788 0078 52F823F0 		ldr	pc, [r2, r3, lsl #2]
 789              		.p2align 2
 790              	.L45:
 791 007c AD000000 		.word	.L44+1
 792 0080 79010000 		.word	.L46+1
 793 0084 C9000000 		.word	.L47+1
 794 0088 5F080000 		.word	.L39+1
 795 008c F5000000 		.word	.L49+1
 796 0090 29010000 		.word	.L50+1
 797 0094 01020000 		.word	.L51+1
 798              		.p2align 1
 799              	.L43:
 553:xformatc.c    **** 		{
 554:xformatc.c    **** 			default:
 555:xformatc.c    **** 			case	ST_NORMAL:
ARM GAS  C:\Users\bmt\AppData\Local\Temp\ccKVUDN8.s 			page 25


 556:xformatc.c    **** 				(*outchar)(arg,c);
 800              		.loc 1 556 0
 801 0098 97F89320 		ldrb	r2, [r7, #147]	@ zero_extendqisi2
 802 009c FB68     		ldr	r3, [r7, #12]
 803 009e B868     		ldr	r0, [r7, #8]
 804 00a0 1146     		mov	r1, r2
 805 00a2 9847     		blx	r3
 557:xformatc.c    **** 				param.count++;
 806              		.loc 1 557 0
 807 00a4 FB6B     		ldr	r3, [r7, #60]
 808 00a6 0133     		adds	r3, r3, #1
 809 00a8 FB63     		str	r3, [r7, #60]
 558:xformatc.c    **** 				break;
 810              		.loc 1 558 0
 811 00aa D8E3     		b	.L39
 812              	.L44:
 559:xformatc.c    **** 
 560:xformatc.c    **** 			case	ST_PERCENT:
 561:xformatc.c    **** 				param.flags = param.length = param.prefixlen = param.width = param.prec = 0;
 813              		.loc 1 561 0
 814 00ac 0023     		movs	r3, #0
 815 00ae 7B63     		str	r3, [r7, #52]
 816 00b0 7B6B     		ldr	r3, [r7, #52]
 817 00b2 BB63     		str	r3, [r7, #56]
 818 00b4 BB6B     		ldr	r3, [r7, #56]
 819 00b6 7B64     		str	r3, [r7, #68]
 820 00b8 7B6C     		ldr	r3, [r7, #68]
 821 00ba 3B63     		str	r3, [r7, #48]
 822 00bc 3B6B     		ldr	r3, [r7, #48]
 823 00be 3B64     		str	r3, [r7, #64]
 562:xformatc.c    **** 				param.pad = ' ';
 824              		.loc 1 562 0
 825 00c0 2023     		movs	r3, #32
 826 00c2 87F88C30 		strb	r3, [r7, #140]
 563:xformatc.c    **** 				break;
 827              		.loc 1 563 0
 828 00c6 CAE3     		b	.L39
 829              	.L47:
 564:xformatc.c    **** 
 565:xformatc.c    **** 			case	ST_WIDTH:
 566:xformatc.c    **** 				if (c == '*')
 830              		.loc 1 566 0
 831 00c8 97F89330 		ldrb	r3, [r7, #147]	@ zero_extendqisi2
 832 00cc 2A2B     		cmp	r3, #42
 833 00ce 05D1     		bne	.L52
 567:xformatc.c    **** 					param.width = (int)va_arg(args,int);
 834              		.loc 1 567 0
 835 00d0 3B68     		ldr	r3, [r7]
 836 00d2 1A1D     		adds	r2, r3, #4
 837 00d4 3A60     		str	r2, [r7]
 838 00d6 1B68     		ldr	r3, [r3]
 839 00d8 BB63     		str	r3, [r7, #56]
 840 00da 0AE0     		b	.L53
 841              	.L52:
 568:xformatc.c    **** 				else
 569:xformatc.c    **** 					param.width = param.width * 10 + (c - '0');
 842              		.loc 1 569 0
ARM GAS  C:\Users\bmt\AppData\Local\Temp\ccKVUDN8.s 			page 26


 843 00dc BA6B     		ldr	r2, [r7, #56]
 844 00de 1346     		mov	r3, r2
 845 00e0 9B00     		lsls	r3, r3, #2
 846 00e2 1344     		add	r3, r3, r2
 847 00e4 5B00     		lsls	r3, r3, #1
 848 00e6 1A46     		mov	r2, r3
 849 00e8 97F89330 		ldrb	r3, [r7, #147]	@ zero_extendqisi2
 850 00ec 303B     		subs	r3, r3, #48
 851 00ee 1344     		add	r3, r3, r2
 852 00f0 BB63     		str	r3, [r7, #56]
 853              	.L53:
 570:xformatc.c    **** 				break;
 854              		.loc 1 570 0
 855 00f2 B4E3     		b	.L39
 856              	.L49:
 571:xformatc.c    **** 
 572:xformatc.c    **** 			case	ST_DOT:
 573:xformatc.c    **** 				break;
 574:xformatc.c    **** 
 575:xformatc.c    **** 			case	ST_PRECIS:
 576:xformatc.c    **** 				param.flags |= FLAG_PREC;
 857              		.loc 1 576 0
 858 00f4 3B6C     		ldr	r3, [r7, #64]
 859 00f6 43F00403 		orr	r3, r3, #4
 860 00fa 3B64     		str	r3, [r7, #64]
 577:xformatc.c    **** 				if (c == '*')
 861              		.loc 1 577 0
 862 00fc 97F89330 		ldrb	r3, [r7, #147]	@ zero_extendqisi2
 863 0100 2A2B     		cmp	r3, #42
 864 0102 05D1     		bne	.L54
 578:xformatc.c    **** 					param.prec = (int)va_arg(args,int);
 865              		.loc 1 578 0
 866 0104 3B68     		ldr	r3, [r7]
 867 0106 1A1D     		adds	r2, r3, #4
 868 0108 3A60     		str	r2, [r7]
 869 010a 1B68     		ldr	r3, [r3]
 870 010c 7B63     		str	r3, [r7, #52]
 871 010e 0AE0     		b	.L55
 872              	.L54:
 579:xformatc.c    **** 				else
 580:xformatc.c    **** 					param.prec = param.prec * 10 + (c - '0');
 873              		.loc 1 580 0
 874 0110 7A6B     		ldr	r2, [r7, #52]
 875 0112 1346     		mov	r3, r2
 876 0114 9B00     		lsls	r3, r3, #2
 877 0116 1344     		add	r3, r3, r2
 878 0118 5B00     		lsls	r3, r3, #1
 879 011a 1A46     		mov	r2, r3
 880 011c 97F89330 		ldrb	r3, [r7, #147]	@ zero_extendqisi2
 881 0120 303B     		subs	r3, r3, #48
 882 0122 1344     		add	r3, r3, r2
 883 0124 7B63     		str	r3, [r7, #52]
 884              	.L55:
 581:xformatc.c    **** 				break;
 885              		.loc 1 581 0
 886 0126 9AE3     		b	.L39
 887              	.L50:
ARM GAS  C:\Users\bmt\AppData\Local\Temp\ccKVUDN8.s 			page 27


 582:xformatc.c    **** 
 583:xformatc.c    **** 			case	ST_SIZE:
 584:xformatc.c    **** 				switch (c)
 888              		.loc 1 584 0
 889 0128 97F89330 		ldrb	r3, [r7, #147]	@ zero_extendqisi2
 890 012c 6C2B     		cmp	r3, #108
 891 012e 0BD0     		beq	.L57
 892 0130 7A2B     		cmp	r3, #122
 893 0132 00D0     		beq	.L58
 585:xformatc.c    **** 				{
 586:xformatc.c    **** 					default:
 587:xformatc.c    **** 						break;
 894              		.loc 1 587 0
 895 0134 1FE0     		b	.L59
 896              	.L58:
 588:xformatc.c    **** 					case 'z':
 589:xformatc.c    **** 						param.flags &= ~FLAG_TYPE_MASK;
 897              		.loc 1 589 0
 898 0136 3B6C     		ldr	r3, [r7, #64]
 899 0138 23F00303 		bic	r3, r3, #3
 900 013c 3B64     		str	r3, [r7, #64]
 590:xformatc.c    **** 						param.flags |= FLAG_TYPE_SIZEOF;
 901              		.loc 1 590 0
 902 013e 3B6C     		ldr	r3, [r7, #64]
 903 0140 43F00203 		orr	r3, r3, #2
 904 0144 3B64     		str	r3, [r7, #64]
 591:xformatc.c    **** 						break;
 905              		.loc 1 591 0
 906 0146 16E0     		b	.L59
 907              	.L57:
 592:xformatc.c    **** 
 593:xformatc.c    **** 					case 'l':
 594:xformatc.c    **** #if XCFG_FORMAT_LONGLONG
 595:xformatc.c    **** 						if ((param.flags & FLAG_TYPE_MASK) == FLAG_TYPE_LONG)
 908              		.loc 1 595 0
 909 0148 3B6C     		ldr	r3, [r7, #64]
 910 014a 03F00303 		and	r3, r3, #3
 911 014e 012B     		cmp	r3, #1
 912 0150 08D1     		bne	.L60
 596:xformatc.c    **** 						{
 597:xformatc.c    **** 							param.flags &= ~FLAG_TYPE_MASK;
 913              		.loc 1 597 0
 914 0152 3B6C     		ldr	r3, [r7, #64]
 915 0154 23F00303 		bic	r3, r3, #3
 916 0158 3B64     		str	r3, [r7, #64]
 598:xformatc.c    **** 							param.flags |=  FLAG_TYPE_LONGLONG;
 917              		.loc 1 598 0
 918 015a 3B6C     		ldr	r3, [r7, #64]
 919 015c 43F00303 		orr	r3, r3, #3
 920 0160 3B64     		str	r3, [r7, #64]
 599:xformatc.c    **** 						}
 600:xformatc.c    **** 						else
 601:xformatc.c    **** 						{
 602:xformatc.c    **** 							param.flags &= ~FLAG_TYPE_MASK;
 603:xformatc.c    **** 							param.flags |= FLAG_TYPE_LONG;
 604:xformatc.c    **** 
 605:xformatc.c    **** 						}
ARM GAS  C:\Users\bmt\AppData\Local\Temp\ccKVUDN8.s 			page 28


 606:xformatc.c    **** #else
 607:xformatc.c    **** 						param.flags &= ~FLAG_TYPE_MASK;
 608:xformatc.c    **** 						param.flags |= FLAG_TYPE_LONG;
 609:xformatc.c    **** #endif
 610:xformatc.c    **** 						break;
 921              		.loc 1 610 0
 922 0162 07E0     		b	.L132
 923              	.L60:
 602:xformatc.c    **** 							param.flags |= FLAG_TYPE_LONG;
 924              		.loc 1 602 0
 925 0164 3B6C     		ldr	r3, [r7, #64]
 926 0166 23F00303 		bic	r3, r3, #3
 927 016a 3B64     		str	r3, [r7, #64]
 603:xformatc.c    **** 
 928              		.loc 1 603 0
 929 016c 3B6C     		ldr	r3, [r7, #64]
 930 016e 43F00103 		orr	r3, r3, #1
 931 0172 3B64     		str	r3, [r7, #64]
 932              	.L132:
 933              		.loc 1 610 0
 934 0174 00BF     		nop
 935              	.L59:
 611:xformatc.c    **** 
 612:xformatc.c    **** 
 613:xformatc.c    **** 				}
 614:xformatc.c    **** 				break;
 936              		.loc 1 614 0 discriminator 1
 937 0176 72E3     		b	.L39
 938              	.L46:
 615:xformatc.c    **** 
 616:xformatc.c    **** 			case	ST_FLAG:
 617:xformatc.c    **** 				switch (c)
 939              		.loc 1 617 0
 940 0178 97F89330 		ldrb	r3, [r7, #147]	@ zero_extendqisi2
 941 017c 203B     		subs	r3, r3, #32
 942 017e 102B     		cmp	r3, #16
 943 0180 3CD8     		bhi	.L133
 944 0182 01A2     		adr	r2, .L64
 945 0184 52F823F0 		ldr	pc, [r2, r3, lsl #2]
 946              		.p2align 2
 947              	.L64:
 948 0188 DF010000 		.word	.L63+1
 949 018c FD010000 		.word	.L133+1
 950 0190 FD010000 		.word	.L133+1
 951 0194 E9010000 		.word	.L65+1
 952 0198 FD010000 		.word	.L133+1
 953 019c FD010000 		.word	.L133+1
 954 01a0 FD010000 		.word	.L133+1
 955 01a4 FD010000 		.word	.L133+1
 956 01a8 FD010000 		.word	.L133+1
 957 01ac FD010000 		.word	.L133+1
 958 01b0 FD010000 		.word	.L133+1
 959 01b4 F3010000 		.word	.L66+1
 960 01b8 FD010000 		.word	.L133+1
 961 01bc CD010000 		.word	.L67+1
 962 01c0 FD010000 		.word	.L133+1
 963 01c4 FD010000 		.word	.L133+1
ARM GAS  C:\Users\bmt\AppData\Local\Temp\ccKVUDN8.s 			page 29


 964 01c8 D7010000 		.word	.L68+1
 965              		.p2align 1
 966              	.L67:
 618:xformatc.c    **** 				{
 619:xformatc.c    **** 					default:
 620:xformatc.c    **** 						break;
 621:xformatc.c    **** 					case  '-':
 622:xformatc.c    **** 						param.flags |= FLAG_LEFT;
 967              		.loc 1 622 0
 968 01cc 3B6C     		ldr	r3, [r7, #64]
 969 01ce 43F00803 		orr	r3, r3, #8
 970 01d2 3B64     		str	r3, [r7, #64]
 623:xformatc.c    **** 						break;
 971              		.loc 1 623 0
 972 01d4 13E0     		b	.L69
 973              	.L68:
 624:xformatc.c    **** 					case  '0':
 625:xformatc.c    **** 						param.pad = '0';
 974              		.loc 1 625 0
 975 01d6 3023     		movs	r3, #48
 976 01d8 87F88C30 		strb	r3, [r7, #140]
 626:xformatc.c    **** 						break;
 977              		.loc 1 626 0
 978 01dc 0FE0     		b	.L69
 979              	.L63:
 627:xformatc.c    **** 					case ' ':
 628:xformatc.c    **** 						param.flags |= FLAG_BLANK;
 980              		.loc 1 628 0
 981 01de 3B6C     		ldr	r3, [r7, #64]
 982 01e0 43F01003 		orr	r3, r3, #16
 983 01e4 3B64     		str	r3, [r7, #64]
 629:xformatc.c    **** 						break;
 984              		.loc 1 629 0
 985 01e6 0AE0     		b	.L69
 986              	.L65:
 630:xformatc.c    **** 					case '#':
 631:xformatc.c    **** 						param.flags |= FLAG_PREFIX;
 987              		.loc 1 631 0
 988 01e8 3B6C     		ldr	r3, [r7, #64]
 989 01ea 43F02003 		orr	r3, r3, #32
 990 01ee 3B64     		str	r3, [r7, #64]
 632:xformatc.c    **** 						break;
 991              		.loc 1 632 0
 992 01f0 05E0     		b	.L69
 993              	.L66:
 633:xformatc.c    **** 					case '+':
 634:xformatc.c    **** 						param.flags |= FLAG_PLUS;
 994              		.loc 1 634 0
 995 01f2 3B6C     		ldr	r3, [r7, #64]
 996 01f4 43F04003 		orr	r3, r3, #64
 997 01f8 3B64     		str	r3, [r7, #64]
 635:xformatc.c    **** 						break;
 998              		.loc 1 635 0
 999 01fa 00E0     		b	.L69
 1000              	.L133:
 620:xformatc.c    **** 					case  '-':
 1001              		.loc 1 620 0
ARM GAS  C:\Users\bmt\AppData\Local\Temp\ccKVUDN8.s 			page 30


 1002 01fc 00BF     		nop
 1003              	.L69:
 636:xformatc.c    **** 				}
 637:xformatc.c    **** 				break;
 1004              		.loc 1 637 0 discriminator 3
 1005 01fe 2EE3     		b	.L39
 1006              	.L51:
 638:xformatc.c    **** 
 639:xformatc.c    **** 			case	ST_TYPE:
 640:xformatc.c    **** 				switch (c)
 1007              		.loc 1 640 0
 1008 0200 97F89330 		ldrb	r3, [r7, #147]	@ zero_extendqisi2
 1009 0204 423B     		subs	r3, r3, #66
 1010 0206 362B     		cmp	r3, #54
 1011 0208 70D8     		bhi	.L70
 1012 020a 01A2     		adr	r2, .L72
 1013 020c 52F823F0 		ldr	pc, [r2, r3, lsl #2]
 1014              		.p2align 2
 1015              	.L72:
 1016 0210 E1050000 		.word	.L71+1
 1017 0214 01040000 		.word	.L73+1
 1018 0218 ED020000 		.word	.L70+1
 1019 021c ED020000 		.word	.L70+1
 1020 0220 ED020000 		.word	.L70+1
 1021 0224 ED020000 		.word	.L70+1
 1022 0228 ED020000 		.word	.L70+1
 1023 022c ED020000 		.word	.L70+1
 1024 0230 ED020000 		.word	.L70+1
 1025 0234 ED020000 		.word	.L70+1
 1026 0238 ED020000 		.word	.L70+1
 1027 023c ED020000 		.word	.L70+1
 1028 0240 ED020000 		.word	.L70+1
 1029 0244 ED020000 		.word	.L70+1
 1030 0248 F3020000 		.word	.L74+1
 1031 024c ED020000 		.word	.L70+1
 1032 0250 ED020000 		.word	.L70+1
 1033 0254 D7030000 		.word	.L75+1
 1034 0258 ED020000 		.word	.L70+1
 1035 025c ED020000 		.word	.L70+1
 1036 0260 ED020000 		.word	.L70+1
 1037 0264 ED020000 		.word	.L70+1
 1038 0268 83030000 		.word	.L76+1
 1039 026c ED020000 		.word	.L70+1
 1040 0270 ED020000 		.word	.L70+1
 1041 0274 ED020000 		.word	.L70+1
 1042 0278 ED020000 		.word	.L70+1
 1043 027c ED020000 		.word	.L70+1
 1044 0280 ED020000 		.word	.L70+1
 1045 0284 ED020000 		.word	.L70+1
 1046 0288 ED020000 		.word	.L70+1
 1047 028c ED020000 		.word	.L70+1
 1048 0290 2B030000 		.word	.L77+1
 1049 0294 09040000 		.word	.L78+1
 1050 0298 B7030000 		.word	.L79+1
 1051 029c ED020000 		.word	.L70+1
 1052 02a0 25040000 		.word	.L80+1
 1053 02a4 ED020000 		.word	.L70+1
ARM GAS  C:\Users\bmt\AppData\Local\Temp\ccKVUDN8.s 			page 31


 1054 02a8 ED020000 		.word	.L70+1
 1055 02ac B7030000 		.word	.L79+1
 1056 02b0 ED020000 		.word	.L70+1
 1057 02b4 ED020000 		.word	.L70+1
 1058 02b8 ED020000 		.word	.L70+1
 1059 02bc ED020000 		.word	.L70+1
 1060 02c0 ED020000 		.word	.L70+1
 1061 02c4 5D030000 		.word	.L81+1
 1062 02c8 FB020000 		.word	.L82+1
 1063 02cc ED020000 		.word	.L70+1
 1064 02d0 ED020000 		.word	.L70+1
 1065 02d4 DF030000 		.word	.L83+1
 1066 02d8 ED020000 		.word	.L70+1
 1067 02dc C7030000 		.word	.L84+1
 1068 02e0 ED020000 		.word	.L70+1
 1069 02e4 ED020000 		.word	.L70+1
 1070 02e8 8B030000 		.word	.L85+1
 1071              		.p2align 1
 1072              	.L70:
 641:xformatc.c    **** 				{
 642:xformatc.c    **** 					default:
 643:xformatc.c    **** 						param.length = 0;
 1073              		.loc 1 643 0
 1074 02ec 0023     		movs	r3, #0
 1075 02ee 3B63     		str	r3, [r7, #48]
 644:xformatc.c    **** 						break;
 1076              		.loc 1 644 0
 1077 02f0 88E1     		b	.L86
 1078              	.L74:
 645:xformatc.c    **** 
 646:xformatc.c    **** 						/*
 647:xformatc.c    **** 						 * Pointer upper case
 648:xformatc.c    **** 						 */
 649:xformatc.c    **** 					case	'P':
 650:xformatc.c    **** 						param.flags |=  FLAG_UPPER;
 1079              		.loc 1 650 0
 1080 02f2 3B6C     		ldr	r3, [r7, #64]
 1081 02f4 43F08003 		orr	r3, r3, #128
 1082 02f8 3B64     		str	r3, [r7, #64]
 1083              	.L82:
 651:xformatc.c    **** 						/* no break */
 652:xformatc.c    **** 						/*lint -fallthrough */
 653:xformatc.c    **** 
 654:xformatc.c    **** 						/*
 655:xformatc.c    **** 						 * Pointer 
 656:xformatc.c    **** 						 */
 657:xformatc.c    **** 					case	'p':
 658:xformatc.c    **** 						param.flags &= ~FLAG_TYPE_MASK;
 1084              		.loc 1 658 0
 1085 02fa 3B6C     		ldr	r3, [r7, #64]
 1086 02fc 23F00303 		bic	r3, r3, #3
 1087 0300 3B64     		str	r3, [r7, #64]
 659:xformatc.c    **** 						param.flags |= FLAG_INTEGER | FLAG_TYPE_SIZEOF;
 1088              		.loc 1 659 0
 1089 0302 3B6C     		ldr	r3, [r7, #64]
 1090 0304 43F40073 		orr	r3, r3, #512
 1091 0308 43F00203 		orr	r3, r3, #2
ARM GAS  C:\Users\bmt\AppData\Local\Temp\ccKVUDN8.s 			page 32


 1092 030c 3B64     		str	r3, [r7, #64]
 660:xformatc.c    **** 						param.radix = 16;
 1093              		.loc 1 660 0
 1094 030e 1023     		movs	r3, #16
 1095 0310 87F88B30 		strb	r3, [r7, #139]
 661:xformatc.c    **** 						param.prec = sizeof(void *) * 2;
 1096              		.loc 1 661 0
 1097 0314 0823     		movs	r3, #8
 1098 0316 7B63     		str	r3, [r7, #52]
 662:xformatc.c    **** 						param.prefix[0] = '-';
 1099              		.loc 1 662 0
 1100 0318 2D23     		movs	r3, #45
 1101 031a 87F84830 		strb	r3, [r7, #72]
 663:xformatc.c    **** 						param.prefix[1] = '>';
 1102              		.loc 1 663 0
 1103 031e 3E23     		movs	r3, #62
 1104 0320 87F84930 		strb	r3, [r7, #73]
 664:xformatc.c    **** 						param.prefixlen = 2;
 1105              		.loc 1 664 0
 1106 0324 0223     		movs	r3, #2
 1107 0326 7B64     		str	r3, [r7, #68]
 665:xformatc.c    **** 						break;
 1108              		.loc 1 665 0
 1109 0328 6CE1     		b	.L86
 1110              	.L77:
 666:xformatc.c    **** 
 667:xformatc.c    **** 						/*
 668:xformatc.c    **** 						 * Binary number
 669:xformatc.c    **** 						 */
 670:xformatc.c    **** 					case	'b':
 671:xformatc.c    **** 						param.flags |= FLAG_INTEGER;
 1111              		.loc 1 671 0
 1112 032a 3B6C     		ldr	r3, [r7, #64]
 1113 032c 43F40073 		orr	r3, r3, #512
 1114 0330 3B64     		str	r3, [r7, #64]
 672:xformatc.c    **** 						param.radix = 2;
 1115              		.loc 1 672 0
 1116 0332 0223     		movs	r3, #2
 1117 0334 87F88B30 		strb	r3, [r7, #139]
 673:xformatc.c    **** 						if (param.flags & FLAG_PREFIX)
 1118              		.loc 1 673 0
 1119 0338 3B6C     		ldr	r3, [r7, #64]
 1120 033a 03F02003 		and	r3, r3, #32
 1121 033e 002B     		cmp	r3, #0
 1122 0340 08D0     		beq	.L87
 674:xformatc.c    **** 						{
 675:xformatc.c    **** 							param.prefix[0] = '0';
 1123              		.loc 1 675 0
 1124 0342 3023     		movs	r3, #48
 1125 0344 87F84830 		strb	r3, [r7, #72]
 676:xformatc.c    **** 							param.prefix[1] = 'b';
 1126              		.loc 1 676 0
 1127 0348 6223     		movs	r3, #98
 1128 034a 87F84930 		strb	r3, [r7, #73]
 677:xformatc.c    **** 							param.prefixlen = 2;
 1129              		.loc 1 677 0
 1130 034e 0223     		movs	r3, #2
ARM GAS  C:\Users\bmt\AppData\Local\Temp\ccKVUDN8.s 			page 33


 1131 0350 7B64     		str	r3, [r7, #68]
 678:xformatc.c    **** 						}
 679:xformatc.c    **** 						break;
 1132              		.loc 1 679 0
 1133 0352 57E1     		b	.L86
 1134              	.L87:
 1135 0354 56E1     		b	.L86
 1136              	.L135:
 1137 0356 00BF     		.align	2
 1138              	.L134:
 1139 0358 2C000000 		.word	formatStates
 1140              	.L81:
 680:xformatc.c    **** 
 681:xformatc.c    **** 						/*
 682:xformatc.c    **** 						 * Octal number
 683:xformatc.c    **** 						 */
 684:xformatc.c    **** 					case	'o':
 685:xformatc.c    **** 						param.flags |= FLAG_INTEGER;
 1141              		.loc 1 685 0
 1142 035c 3B6C     		ldr	r3, [r7, #64]
 1143 035e 43F40073 		orr	r3, r3, #512
 1144 0362 3B64     		str	r3, [r7, #64]
 686:xformatc.c    **** 						param.radix = 8;
 1145              		.loc 1 686 0
 1146 0364 0823     		movs	r3, #8
 1147 0366 87F88B30 		strb	r3, [r7, #139]
 687:xformatc.c    **** 						if (param.flags & FLAG_PREFIX)
 1148              		.loc 1 687 0
 1149 036a 3B6C     		ldr	r3, [r7, #64]
 1150 036c 03F02003 		and	r3, r3, #32
 1151 0370 002B     		cmp	r3, #0
 1152 0372 05D0     		beq	.L88
 688:xformatc.c    **** 						{
 689:xformatc.c    **** 							param.prefix[0] = '0';
 1153              		.loc 1 689 0
 1154 0374 3023     		movs	r3, #48
 1155 0376 87F84830 		strb	r3, [r7, #72]
 690:xformatc.c    **** 							param.prefixlen = 1;
 1156              		.loc 1 690 0
 1157 037a 0123     		movs	r3, #1
 1158 037c 7B64     		str	r3, [r7, #68]
 691:xformatc.c    **** 						}
 692:xformatc.c    **** 						break;
 1159              		.loc 1 692 0
 1160 037e 41E1     		b	.L86
 1161              	.L88:
 1162 0380 40E1     		b	.L86
 1163              	.L76:
 693:xformatc.c    **** 
 694:xformatc.c    **** 						/*
 695:xformatc.c    **** 						 * Hex number upper case letter.
 696:xformatc.c    **** 						 */
 697:xformatc.c    **** 					case	'X':
 698:xformatc.c    **** 						/* no break */
 699:xformatc.c    **** 						param.flags |= FLAG_UPPER;
 1164              		.loc 1 699 0
 1165 0382 3B6C     		ldr	r3, [r7, #64]
ARM GAS  C:\Users\bmt\AppData\Local\Temp\ccKVUDN8.s 			page 34


 1166 0384 43F08003 		orr	r3, r3, #128
 1167 0388 3B64     		str	r3, [r7, #64]
 1168              	.L85:
 700:xformatc.c    **** 
 701:xformatc.c    **** 						/* no break */
 702:xformatc.c    **** 
 703:xformatc.c    **** 						/* lint -fallthrough */
 704:xformatc.c    **** 
 705:xformatc.c    **** 						/*
 706:xformatc.c    **** 						 * Hex number lower case
 707:xformatc.c    **** 						 */
 708:xformatc.c    **** 					case	'x':
 709:xformatc.c    **** 						param.flags |= FLAG_INTEGER;
 1169              		.loc 1 709 0
 1170 038a 3B6C     		ldr	r3, [r7, #64]
 1171 038c 43F40073 		orr	r3, r3, #512
 1172 0390 3B64     		str	r3, [r7, #64]
 710:xformatc.c    **** 						param.radix = 16;
 1173              		.loc 1 710 0
 1174 0392 1023     		movs	r3, #16
 1175 0394 87F88B30 		strb	r3, [r7, #139]
 711:xformatc.c    **** 						if (param.flags & FLAG_PREFIX)
 1176              		.loc 1 711 0
 1177 0398 3B6C     		ldr	r3, [r7, #64]
 1178 039a 03F02003 		and	r3, r3, #32
 1179 039e 002B     		cmp	r3, #0
 1180 03a0 08D0     		beq	.L89
 712:xformatc.c    **** 						{
 713:xformatc.c    **** 							param.prefix[0] = '0';
 1181              		.loc 1 713 0
 1182 03a2 3023     		movs	r3, #48
 1183 03a4 87F84830 		strb	r3, [r7, #72]
 714:xformatc.c    **** 							param.prefix[1] = 'x';
 1184              		.loc 1 714 0
 1185 03a8 7823     		movs	r3, #120
 1186 03aa 87F84930 		strb	r3, [r7, #73]
 715:xformatc.c    **** 							param.prefixlen = 2;
 1187              		.loc 1 715 0
 1188 03ae 0223     		movs	r3, #2
 1189 03b0 7B64     		str	r3, [r7, #68]
 716:xformatc.c    **** 						}
 717:xformatc.c    **** 						break;
 1190              		.loc 1 717 0
 1191 03b2 27E1     		b	.L86
 1192              	.L89:
 1193 03b4 26E1     		b	.L86
 1194              	.L79:
 718:xformatc.c    **** 
 719:xformatc.c    **** 						/*
 720:xformatc.c    **** 						 * Integer number radix 10
 721:xformatc.c    **** 						 */
 722:xformatc.c    **** 					case	'd':
 723:xformatc.c    **** 					case	'i':
 724:xformatc.c    **** 						param.flags |= FLAG_DECIMAL|FLAG_INTEGER;
 1195              		.loc 1 724 0
 1196 03b6 3B6C     		ldr	r3, [r7, #64]
 1197 03b8 43F44073 		orr	r3, r3, #768
ARM GAS  C:\Users\bmt\AppData\Local\Temp\ccKVUDN8.s 			page 35


 1198 03bc 3B64     		str	r3, [r7, #64]
 725:xformatc.c    **** 						param.radix = 10;
 1199              		.loc 1 725 0
 1200 03be 0A23     		movs	r3, #10
 1201 03c0 87F88B30 		strb	r3, [r7, #139]
 726:xformatc.c    **** 						break;
 1202              		.loc 1 726 0
 1203 03c4 1EE1     		b	.L86
 1204              	.L84:
 727:xformatc.c    **** 
 728:xformatc.c    **** 						/*
 729:xformatc.c    **** 						 * Unsigned number
 730:xformatc.c    **** 						 */
 731:xformatc.c    **** 					case	'u':
 732:xformatc.c    **** 						param.flags |= FLAG_INTEGER;
 1205              		.loc 1 732 0
 1206 03c6 3B6C     		ldr	r3, [r7, #64]
 1207 03c8 43F40073 		orr	r3, r3, #512
 1208 03cc 3B64     		str	r3, [r7, #64]
 733:xformatc.c    **** 						param.radix = 10;
 1209              		.loc 1 733 0
 1210 03ce 0A23     		movs	r3, #10
 1211 03d0 87F88B30 		strb	r3, [r7, #139]
 734:xformatc.c    **** 						break;
 1212              		.loc 1 734 0
 1213 03d4 16E1     		b	.L86
 1214              	.L75:
 735:xformatc.c    **** 
 736:xformatc.c    **** 						/*
 737:xformatc.c    **** 						 * Upper case string
 738:xformatc.c    **** 						 */
 739:xformatc.c    **** 					case	'S':
 740:xformatc.c    **** 						param.flags |= FLAG_UPPER;
 1215              		.loc 1 740 0
 1216 03d6 3B6C     		ldr	r3, [r7, #64]
 1217 03d8 43F08003 		orr	r3, r3, #128
 1218 03dc 3B64     		str	r3, [r7, #64]
 1219              	.L83:
 741:xformatc.c    **** 						/* no break */
 742:xformatc.c    **** 						/*lint -fallthrough */
 743:xformatc.c    **** 
 744:xformatc.c    **** 						/*
 745:xformatc.c    **** 						 * Normal string
 746:xformatc.c    **** 						 */
 747:xformatc.c    **** 					case	's':
 748:xformatc.c    **** 						param.out = va_arg(args,char *);
 1220              		.loc 1 748 0
 1221 03de 3B68     		ldr	r3, [r7]
 1222 03e0 1A1D     		adds	r2, r3, #4
 1223 03e2 3A60     		str	r2, [r7]
 1224 03e4 1B68     		ldr	r3, [r3]
 1225 03e6 BB61     		str	r3, [r7, #24]
 749:xformatc.c    **** 						if (param.out == 0)
 1226              		.loc 1 749 0
 1227 03e8 BB69     		ldr	r3, [r7, #24]
 1228 03ea 002B     		cmp	r3, #0
 1229 03ec 01D1     		bne	.L90
ARM GAS  C:\Users\bmt\AppData\Local\Temp\ccKVUDN8.s 			page 36


 750:xformatc.c    **** 							param.out = (char *)ms_null;
 1230              		.loc 1 750 0
 1231 03ee A94B     		ldr	r3, .L136
 1232 03f0 BB61     		str	r3, [r7, #24]
 1233              	.L90:
 751:xformatc.c    **** 						param.length = (int)xstrlen(param.out);
 1234              		.loc 1 751 0
 1235 03f2 BB69     		ldr	r3, [r7, #24]
 1236 03f4 1846     		mov	r0, r3
 1237 03f6 FFF7FEFF 		bl	xstrlen
 1238 03fa 0346     		mov	r3, r0
 1239 03fc 3B63     		str	r3, [r7, #48]
 752:xformatc.c    **** 						break;
 1240              		.loc 1 752 0
 1241 03fe 01E1     		b	.L86
 1242              	.L73:
 753:xformatc.c    **** 
 754:xformatc.c    **** 						/*
 755:xformatc.c    **** 						 * Upper case char
 756:xformatc.c    **** 						 */
 757:xformatc.c    **** 					case	'C':
 758:xformatc.c    **** 						param.flags |= FLAG_UPPER;
 1243              		.loc 1 758 0
 1244 0400 3B6C     		ldr	r3, [r7, #64]
 1245 0402 43F08003 		orr	r3, r3, #128
 1246 0406 3B64     		str	r3, [r7, #64]
 1247              	.L78:
 759:xformatc.c    **** 						/* no break */
 760:xformatc.c    **** 						/* lint -fallthrough */
 761:xformatc.c    **** 
 762:xformatc.c    **** 						/*
 763:xformatc.c    **** 						 * Char
 764:xformatc.c    **** 						 */
 765:xformatc.c    **** 					case	'c':
 766:xformatc.c    **** 						param.out = param.buffer;
 1248              		.loc 1 766 0
 1249 0408 07F11003 		add	r3, r7, #16
 1250 040c 3A33     		adds	r3, r3, #58
 1251 040e BB61     		str	r3, [r7, #24]
 767:xformatc.c    **** 						param.buffer[0] = (char)va_arg(args,int);
 1252              		.loc 1 767 0
 1253 0410 3B68     		ldr	r3, [r7]
 1254 0412 1A1D     		adds	r2, r3, #4
 1255 0414 3A60     		str	r2, [r7]
 1256 0416 1B68     		ldr	r3, [r3]
 1257 0418 DBB2     		uxtb	r3, r3
 1258 041a 87F84A30 		strb	r3, [r7, #74]
 768:xformatc.c    **** 						param.length = 1;
 1259              		.loc 1 768 0
 1260 041e 0123     		movs	r3, #1
 1261 0420 3B63     		str	r3, [r7, #48]
 769:xformatc.c    **** 						break;
 1262              		.loc 1 769 0
 1263 0422 EFE0     		b	.L86
 1264              	.L80:
 770:xformatc.c    **** 
 771:xformatc.c    **** #if XCFG_FORMAT_FLOAT
ARM GAS  C:\Users\bmt\AppData\Local\Temp\ccKVUDN8.s 			page 37


 772:xformatc.c    **** 						/**
 773:xformatc.c    **** 						 * Floating point number
 774:xformatc.c    **** 						 */
 775:xformatc.c    **** 					case 'f':
 776:xformatc.c    **** 						if (!(param.flags & FLAG_PREC))
 1265              		.loc 1 776 0
 1266 0424 3B6C     		ldr	r3, [r7, #64]
 1267 0426 03F00403 		and	r3, r3, #4
 1268 042a 002B     		cmp	r3, #0
 1269 042c 01D1     		bne	.L91
 777:xformatc.c    **** 						{
 778:xformatc.c    **** 							param.prec = 6;
 1270              		.loc 1 778 0
 1271 042e 0623     		movs	r3, #6
 1272 0430 7B63     		str	r3, [r7, #52]
 1273              	.L91:
 779:xformatc.c    **** 						}
 780:xformatc.c    **** 
 781:xformatc.c    **** 						param.dbl = va_arg(args,DOUBLE);
 1274              		.loc 1 781 0
 1275 0432 3B68     		ldr	r3, [r7]
 1276 0434 0733     		adds	r3, r3, #7
 1277 0436 23F00703 		bic	r3, r3, #7
 1278 043a 03F10802 		add	r2, r3, #8
 1279 043e 3A60     		str	r2, [r7]
 1280 0440 D3E90023 		ldrd	r2, [r3]
 1281 0444 C7E90823 		strd	r2, [r7, #32]
 782:xformatc.c    **** 						param.values.dvalue = 0.50;
 1282              		.loc 1 782 0
 1283 0448 4FF00002 		mov	r2, #0
 1284 044c 924B     		ldr	r3, .L136+4
 1285 044e C7E90423 		strd	r2, [r7, #16]
 783:xformatc.c    **** 						for (i = 0 ; i < param.prec ; i++)
 1286              		.loc 1 783 0
 1287 0452 0023     		movs	r3, #0
 1288 0454 C7F89430 		str	r3, [r7, #148]
 1289 0458 11E0     		b	.L92
 1290              	.L93:
 784:xformatc.c    **** 							param.values.dvalue /= 10.0;
 1291              		.loc 1 784 0 discriminator 3
 1292 045a D7E90423 		ldrd	r2, [r7, #16]
 1293 045e 1046     		mov	r0, r2
 1294 0460 1946     		mov	r1, r3
 1295 0462 4FF00002 		mov	r2, #0
 1296 0466 8D4B     		ldr	r3, .L136+8
 1297 0468 FFF7FEFF 		bl	__aeabi_ddiv
 1298 046c 0246     		mov	r2, r0
 1299 046e 0B46     		mov	r3, r1
 1300 0470 C7E90423 		strd	r2, [r7, #16]
 783:xformatc.c    **** 						for (i = 0 ; i < param.prec ; i++)
 1301              		.loc 1 783 0 discriminator 3
 1302 0474 D7F89430 		ldr	r3, [r7, #148]
 1303 0478 0133     		adds	r3, r3, #1
 1304 047a C7F89430 		str	r3, [r7, #148]
 1305              	.L92:
 783:xformatc.c    **** 						for (i = 0 ; i < param.prec ; i++)
 1306              		.loc 1 783 0 is_stmt 0 discriminator 1
ARM GAS  C:\Users\bmt\AppData\Local\Temp\ccKVUDN8.s 			page 38


 1307 047e 7A6B     		ldr	r2, [r7, #52]
 1308 0480 D7F89430 		ldr	r3, [r7, #148]
 1309 0484 9A42     		cmp	r2, r3
 1310 0486 E8DC     		bgt	.L93
 785:xformatc.c    **** 
 786:xformatc.c    **** 						if (param.dbl < 0)
 1311              		.loc 1 786 0 is_stmt 1
 1312 0488 D7E90823 		ldrd	r2, [r7, #32]
 1313 048c 1046     		mov	r0, r2
 1314 048e 1946     		mov	r1, r3
 1315 0490 4FF00002 		mov	r2, #0
 1316 0494 4FF00003 		mov	r3, #0
 1317 0498 FFF7FEFF 		bl	__aeabi_dcmplt
 1318 049c 0346     		mov	r3, r0
 1319 049e 002B     		cmp	r3, #0
 1320 04a0 31D0     		beq	.L131
 787:xformatc.c    **** 						{
 788:xformatc.c    **** 							param.flags |= FLAG_MINUS;
 1321              		.loc 1 788 0
 1322 04a2 3B6C     		ldr	r3, [r7, #64]
 1323 04a4 43F48063 		orr	r3, r3, #1024
 1324 04a8 3B64     		str	r3, [r7, #64]
 789:xformatc.c    **** 							param.dbl		-= param.values.dvalue;
 1325              		.loc 1 789 0
 1326 04aa D7E90801 		ldrd	r0, [r7, #32]
 1327 04ae D7E90423 		ldrd	r2, [r7, #16]
 1328 04b2 FFF7FEFF 		bl	__aeabi_dsub
 1329 04b6 0246     		mov	r2, r0
 1330 04b8 0B46     		mov	r3, r1
 1331 04ba C7E90823 		strd	r2, [r7, #32]
 790:xformatc.c    **** 							param.iPart	   = (FLOAT_LONG)param.dbl;
 1332              		.loc 1 790 0
 1333 04be D7E90823 		ldrd	r2, [r7, #32]
 1334 04c2 1046     		mov	r0, r2
 1335 04c4 1946     		mov	r1, r3
 1336 04c6 FFF7FEFF 		bl	__aeabi_d2lz
 1337 04ca 0246     		mov	r2, r0
 1338 04cc 0B46     		mov	r3, r1
 1339 04ce C7E90A23 		strd	r2, [r7, #40]
 791:xformatc.c    **** 							param.dbl		-=	(FLOAT_LONG)param.iPart;
 1340              		.loc 1 791 0
 1341 04d2 D7E90889 		ldrd	r8, [r7, #32]
 1342 04d6 D7E90A23 		ldrd	r2, [r7, #40]
 1343 04da 1046     		mov	r0, r2
 1344 04dc 1946     		mov	r1, r3
 1345 04de FFF7FEFF 		bl	__aeabi_l2d
 1346 04e2 0246     		mov	r2, r0
 1347 04e4 0B46     		mov	r3, r1
 1348 04e6 4046     		mov	r0, r8
 1349 04e8 4946     		mov	r1, r9
 1350 04ea FFF7FEFF 		bl	__aeabi_dsub
 1351 04ee 0246     		mov	r2, r0
 1352 04f0 0B46     		mov	r3, r1
 1353 04f2 C7E90823 		strd	r2, [r7, #32]
 792:xformatc.c    **** 							param.dbl		 = - param.dbl;
 1354              		.loc 1 792 0
 1355 04f6 D7E90823 		ldrd	r2, [r7, #32]
ARM GAS  C:\Users\bmt\AppData\Local\Temp\ccKVUDN8.s 			page 39


 1356 04fa 1446     		mov	r4, r2
 1357 04fc 83F00045 		eor	r5, r3, #-2147483648
 1358 0500 C7E90845 		strd	r4, [r7, #32]
 1359 0504 25E0     		b	.L96
 1360              	.L131:
 793:xformatc.c    **** 						}
 794:xformatc.c    **** 						else
 795:xformatc.c    **** 						{
 796:xformatc.c    **** 							param.dbl += param.values.dvalue;
 1361              		.loc 1 796 0
 1362 0506 D7E90801 		ldrd	r0, [r7, #32]
 1363 050a D7E90423 		ldrd	r2, [r7, #16]
 1364 050e FFF7FEFF 		bl	__aeabi_dadd
 1365 0512 0246     		mov	r2, r0
 1366 0514 0B46     		mov	r3, r1
 1367 0516 C7E90823 		strd	r2, [r7, #32]
 797:xformatc.c    **** 							param.iPart = (FLOAT_LONG)param.dbl;
 1368              		.loc 1 797 0
 1369 051a D7E90823 		ldrd	r2, [r7, #32]
 1370 051e 1046     		mov	r0, r2
 1371 0520 1946     		mov	r1, r3
 1372 0522 FFF7FEFF 		bl	__aeabi_d2lz
 1373 0526 0246     		mov	r2, r0
 1374 0528 0B46     		mov	r3, r1
 1375 052a C7E90A23 		strd	r2, [r7, #40]
 798:xformatc.c    **** 							param.dbl -= param.iPart;
 1376              		.loc 1 798 0
 1377 052e D7E90889 		ldrd	r8, [r7, #32]
 1378 0532 D7E90A23 		ldrd	r2, [r7, #40]
 1379 0536 1046     		mov	r0, r2
 1380 0538 1946     		mov	r1, r3
 1381 053a FFF7FEFF 		bl	__aeabi_ul2d
 1382 053e 0246     		mov	r2, r0
 1383 0540 0B46     		mov	r3, r1
 1384 0542 4046     		mov	r0, r8
 1385 0544 4946     		mov	r1, r9
 1386 0546 FFF7FEFF 		bl	__aeabi_dsub
 1387 054a 0246     		mov	r2, r0
 1388 054c 0B46     		mov	r3, r1
 1389 054e C7E90823 		strd	r2, [r7, #32]
 1390              	.L96:
 799:xformatc.c    **** 						}
 800:xformatc.c    **** 
 801:xformatc.c    **** 
 802:xformatc.c    **** 						for (i = 0 ;i < param.prec	;i++)
 1391              		.loc 1 802 0
 1392 0552 0023     		movs	r3, #0
 1393 0554 C7F89430 		str	r3, [r7, #148]
 1394 0558 11E0     		b	.L97
 1395              	.L98:
 803:xformatc.c    **** 							param.dbl *= 10.0;
 1396              		.loc 1 803 0 discriminator 3
 1397 055a D7E90823 		ldrd	r2, [r7, #32]
 1398 055e 1046     		mov	r0, r2
 1399 0560 1946     		mov	r1, r3
 1400 0562 4FF00002 		mov	r2, #0
 1401 0566 4D4B     		ldr	r3, .L136+8
ARM GAS  C:\Users\bmt\AppData\Local\Temp\ccKVUDN8.s 			page 40


 1402 0568 FFF7FEFF 		bl	__aeabi_dmul
 1403 056c 0246     		mov	r2, r0
 1404 056e 0B46     		mov	r3, r1
 1405 0570 C7E90823 		strd	r2, [r7, #32]
 802:xformatc.c    **** 							param.dbl *= 10.0;
 1406              		.loc 1 802 0 discriminator 3
 1407 0574 D7F89430 		ldr	r3, [r7, #148]
 1408 0578 0133     		adds	r3, r3, #1
 1409 057a C7F89430 		str	r3, [r7, #148]
 1410              	.L97:
 802:xformatc.c    **** 							param.dbl *= 10.0;
 1411              		.loc 1 802 0 is_stmt 0 discriminator 1
 1412 057e 7A6B     		ldr	r2, [r7, #52]
 1413 0580 D7F89430 		ldr	r3, [r7, #148]
 1414 0584 9A42     		cmp	r2, r3
 1415 0586 E8DC     		bgt	.L98
 804:xformatc.c    **** 
 805:xformatc.c    **** 						param.values.lvalue = (unsigned LONG)param.dbl;
 1416              		.loc 1 805 0 is_stmt 1
 1417 0588 D7E90823 		ldrd	r2, [r7, #32]
 1418 058c 1046     		mov	r0, r2
 1419 058e 1946     		mov	r1, r3
 1420 0590 FFF7FEFF 		bl	__aeabi_d2uiz
 1421 0594 0346     		mov	r3, r0
 1422 0596 3B61     		str	r3, [r7, #16]
 806:xformatc.c    **** 
 807:xformatc.c    **** 						param.out = param.buffer + sizeof(param.buffer) - 1;
 1423              		.loc 1 807 0
 1424 0598 07F11003 		add	r3, r7, #16
 1425 059c 7A33     		adds	r3, r3, #122
 1426 059e BB61     		str	r3, [r7, #24]
 808:xformatc.c    **** 						param.radix = 10;
 1427              		.loc 1 808 0
 1428 05a0 0A23     		movs	r3, #10
 1429 05a2 87F88B30 		strb	r3, [r7, #139]
 809:xformatc.c    **** 						if (param.prec)
 1430              		.loc 1 809 0
 1431 05a6 7B6B     		ldr	r3, [r7, #52]
 1432 05a8 002B     		cmp	r3, #0
 1433 05aa 0CD0     		beq	.L99
 810:xformatc.c    **** 						{
 811:xformatc.c    **** 							ulong2a(&param);
 1434              		.loc 1 811 0
 1435 05ac 07F11003 		add	r3, r7, #16
 1436 05b0 1846     		mov	r0, r3
 1437 05b2 FFF7FEFF 		bl	ulong2a
 812:xformatc.c    **** 							*param.out -- = '.';
 1438              		.loc 1 812 0
 1439 05b6 BB69     		ldr	r3, [r7, #24]
 1440 05b8 5A1E     		subs	r2, r3, #1
 1441 05ba BA61     		str	r2, [r7, #24]
 1442 05bc 2E22     		movs	r2, #46
 1443 05be 1A70     		strb	r2, [r3]
 813:xformatc.c    **** 							param.length ++;
 1444              		.loc 1 813 0
 1445 05c0 3B6B     		ldr	r3, [r7, #48]
 1446 05c2 0133     		adds	r3, r3, #1
ARM GAS  C:\Users\bmt\AppData\Local\Temp\ccKVUDN8.s 			page 41


 1447 05c4 3B63     		str	r3, [r7, #48]
 1448              	.L99:
 814:xformatc.c    **** 						}
 815:xformatc.c    **** 						param.flags |= FLAG_INTEGER | FLAG_BUFFER |
 1449              		.loc 1 815 0
 1450 05c6 3B6C     		ldr	r3, [r7, #64]
 1451 05c8 43F4D853 		orr	r3, r3, #6912
 1452 05cc 43F00303 		orr	r3, r3, #3
 1453 05d0 3B64     		str	r3, [r7, #64]
 816:xformatc.c    **** 									   FLAG_DECIMAL | FLAG_VALUE  | FLOAT_TYPE;
 817:xformatc.c    **** 
 818:xformatc.c    **** 						param.prec = 0;
 1454              		.loc 1 818 0
 1455 05d2 0023     		movs	r3, #0
 1456 05d4 7B63     		str	r3, [r7, #52]
 819:xformatc.c    **** 						param.values.FLOAT_VALUE  = (unsigned FLOAT_LONG)param.iPart;
 1457              		.loc 1 819 0
 1458 05d6 D7E90A23 		ldrd	r2, [r7, #40]
 1459 05da C7E90423 		strd	r2, [r7, #16]
 820:xformatc.c    **** 						break;
 1460              		.loc 1 820 0
 1461 05de 11E0     		b	.L86
 1462              	.L71:
 821:xformatc.c    **** #endif
 822:xformatc.c    **** 
 823:xformatc.c    **** 						/**
 824:xformatc.c    **** 						 * Boolean value
 825:xformatc.c    **** 						 */
 826:xformatc.c    **** 					case 'B':
 827:xformatc.c    **** 						if (va_arg(args,int) != 0)
 1463              		.loc 1 827 0
 1464 05e0 3B68     		ldr	r3, [r7]
 1465 05e2 1A1D     		adds	r2, r3, #4
 1466 05e4 3A60     		str	r2, [r7]
 1467 05e6 1B68     		ldr	r3, [r3]
 1468 05e8 002B     		cmp	r3, #0
 1469 05ea 02D0     		beq	.L100
 828:xformatc.c    **** 							param.out = (char*)ms_true;
 1470              		.loc 1 828 0
 1471 05ec 2C4B     		ldr	r3, .L136+12
 1472 05ee BB61     		str	r3, [r7, #24]
 1473 05f0 01E0     		b	.L101
 1474              	.L100:
 829:xformatc.c    **** 						else
 830:xformatc.c    **** 							param.out = (char*)ms_false;
 1475              		.loc 1 830 0
 1476 05f2 2C4B     		ldr	r3, .L136+16
 1477 05f4 BB61     		str	r3, [r7, #24]
 1478              	.L101:
 831:xformatc.c    **** 
 832:xformatc.c    **** 						param.length = (int)xstrlen(param.out);
 1479              		.loc 1 832 0
 1480 05f6 BB69     		ldr	r3, [r7, #24]
 1481 05f8 1846     		mov	r0, r3
 1482 05fa FFF7FEFF 		bl	xstrlen
 1483 05fe 0346     		mov	r3, r0
 1484 0600 3B63     		str	r3, [r7, #48]
ARM GAS  C:\Users\bmt\AppData\Local\Temp\ccKVUDN8.s 			page 42


 833:xformatc.c    **** 						break;
 1485              		.loc 1 833 0
 1486 0602 00BF     		nop
 1487              	.L86:
 834:xformatc.c    **** 
 835:xformatc.c    **** 
 836:xformatc.c    **** 				}
 837:xformatc.c    **** 
 838:xformatc.c    **** 				/*
 839:xformatc.c    **** 				 * Process integer number
 840:xformatc.c    **** 				 */
 841:xformatc.c    **** 				if (param.flags & FLAG_INTEGER)
 1488              		.loc 1 841 0
 1489 0604 3B6C     		ldr	r3, [r7, #64]
 1490 0606 03F40073 		and	r3, r3, #512
 1491 060a 002B     		cmp	r3, #0
 1492 060c 00F0D880 		beq	.L102
 842:xformatc.c    **** 				{
 843:xformatc.c    **** 					if (param.prec == 0)
 1493              		.loc 1 843 0
 1494 0610 7B6B     		ldr	r3, [r7, #52]
 1495 0612 002B     		cmp	r3, #0
 1496 0614 01D1     		bne	.L103
 844:xformatc.c    **** 						param.prec = 1;
 1497              		.loc 1 844 0
 1498 0616 0123     		movs	r3, #1
 1499 0618 7B63     		str	r3, [r7, #52]
 1500              	.L103:
 845:xformatc.c    **** 
 846:xformatc.c    **** 					if (!(param.flags & FLAG_VALUE))
 1501              		.loc 1 846 0
 1502 061a 3B6C     		ldr	r3, [r7, #64]
 1503 061c 03F40063 		and	r3, r3, #2048
 1504 0620 002B     		cmp	r3, #0
 1505 0622 4DD1     		bne	.L104
 847:xformatc.c    **** 					{
 848:xformatc.c    **** 						switch (param.flags & FLAG_TYPE_MASK)
 1506              		.loc 1 848 0
 1507 0624 3B6C     		ldr	r3, [r7, #64]
 1508 0626 03F00303 		and	r3, r3, #3
 1509 062a 032B     		cmp	r3, #3
 1510 062c 48D8     		bhi	.L104
 1511 062e 01A2     		adr	r2, .L106
 1512 0630 52F823F0 		ldr	pc, [r2, r3, lsl #2]
 1513              		.p2align 2
 1514              	.L106:
 1515 0634 73060000 		.word	.L105+1
 1516 0638 51060000 		.word	.L107+1
 1517 063c 45060000 		.word	.L108+1
 1518 0640 A9060000 		.word	.L109+1
 1519              		.p2align 1
 1520              	.L108:
 849:xformatc.c    **** 						{
 850:xformatc.c    **** 							case FLAG_TYPE_SIZEOF:
 851:xformatc.c    **** 								param.values.lvalue = (unsigned LONG)va_arg(args,void *);
 1521              		.loc 1 851 0
 1522 0644 3B68     		ldr	r3, [r7]
ARM GAS  C:\Users\bmt\AppData\Local\Temp\ccKVUDN8.s 			page 43


 1523 0646 1A1D     		adds	r2, r3, #4
 1524 0648 3A60     		str	r2, [r7]
 1525 064a 1B68     		ldr	r3, [r3]
 1526 064c 3B61     		str	r3, [r7, #16]
 852:xformatc.c    **** 								break;
 1527              		.loc 1 852 0
 1528 064e 37E0     		b	.L104
 1529              	.L107:
 853:xformatc.c    **** 							case FLAG_TYPE_LONG:
 854:xformatc.c    **** 								if (param.flags & FLAG_DECIMAL)
 1530              		.loc 1 854 0
 1531 0650 3B6C     		ldr	r3, [r7, #64]
 1532 0652 03F48073 		and	r3, r3, #256
 1533 0656 002B     		cmp	r3, #0
 1534 0658 05D0     		beq	.L110
 855:xformatc.c    **** 									param.values.lvalue = (LONG)va_arg(args,long);
 1535              		.loc 1 855 0
 1536 065a 3B68     		ldr	r3, [r7]
 1537 065c 1A1D     		adds	r2, r3, #4
 1538 065e 3A60     		str	r2, [r7]
 1539 0660 1B68     		ldr	r3, [r3]
 1540 0662 3B61     		str	r3, [r7, #16]
 856:xformatc.c    **** 								else
 857:xformatc.c    **** 									param.values.lvalue = (unsigned LONG)va_arg(args,unsigned long);
 858:xformatc.c    **** 								break;
 1541              		.loc 1 858 0
 1542 0664 2CE0     		b	.L104
 1543              	.L110:
 857:xformatc.c    **** 								break;
 1544              		.loc 1 857 0
 1545 0666 3B68     		ldr	r3, [r7]
 1546 0668 1A1D     		adds	r2, r3, #4
 1547 066a 3A60     		str	r2, [r7]
 1548 066c 1B68     		ldr	r3, [r3]
 1549 066e 3B61     		str	r3, [r7, #16]
 1550              		.loc 1 858 0
 1551 0670 26E0     		b	.L104
 1552              	.L105:
 859:xformatc.c    **** 								
 860:xformatc.c    **** 							case FLAG_TYPE_INT:
 861:xformatc.c    **** 								if (param.flags & FLAG_DECIMAL)
 1553              		.loc 1 861 0
 1554 0672 3B6C     		ldr	r3, [r7, #64]
 1555 0674 03F48073 		and	r3, r3, #256
 1556 0678 002B     		cmp	r3, #0
 1557 067a 05D0     		beq	.L112
 862:xformatc.c    **** 									param.values.lvalue = (LONG)va_arg(args,int);
 1558              		.loc 1 862 0
 1559 067c 3B68     		ldr	r3, [r7]
 1560 067e 1A1D     		adds	r2, r3, #4
 1561 0680 3A60     		str	r2, [r7]
 1562 0682 1B68     		ldr	r3, [r3]
 1563 0684 3B61     		str	r3, [r7, #16]
 863:xformatc.c    **** 								else
 864:xformatc.c    **** 									param.values.lvalue = (unsigned LONG)va_arg(args,unsigned int);
 865:xformatc.c    **** 								break;
 1564              		.loc 1 865 0
ARM GAS  C:\Users\bmt\AppData\Local\Temp\ccKVUDN8.s 			page 44


 1565 0686 1BE0     		b	.L104
 1566              	.L112:
 864:xformatc.c    **** 								break;
 1567              		.loc 1 864 0
 1568 0688 3B68     		ldr	r3, [r7]
 1569 068a 1A1D     		adds	r2, r3, #4
 1570 068c 3A60     		str	r2, [r7]
 1571 068e 1B68     		ldr	r3, [r3]
 1572 0690 3B61     		str	r3, [r7, #16]
 1573              		.loc 1 865 0
 1574 0692 15E0     		b	.L104
 1575              	.L137:
 1576              		.align	2
 1577              	.L136:
 1578 0694 00000000 		.word	ms_null
 1579 0698 0000E03F 		.word	1071644672
 1580 069c 00002440 		.word	1076101120
 1581 06a0 08000000 		.word	ms_true
 1582 06a4 10000000 		.word	ms_false
 1583              	.L109:
 866:xformatc.c    **** #if XCFG_FORMAT_LONGLONG
 867:xformatc.c    **** 							case FLAG_TYPE_LONGLONG:
 868:xformatc.c    **** 								param.values.llvalue = (LONGLONG)va_arg(args,long long);
 1584              		.loc 1 868 0
 1585 06a8 3B68     		ldr	r3, [r7]
 1586 06aa 0733     		adds	r3, r3, #7
 1587 06ac 23F00703 		bic	r3, r3, #7
 1588 06b0 03F10802 		add	r2, r3, #8
 1589 06b4 3A60     		str	r2, [r7]
 1590 06b6 D3E90023 		ldrd	r2, [r3]
 1591 06ba C7E90423 		strd	r2, [r7, #16]
 869:xformatc.c    **** 								break;
 1592              		.loc 1 869 0
 1593 06be 00BF     		nop
 1594              	.L104:
 870:xformatc.c    **** #endif
 871:xformatc.c    **** 						}
 872:xformatc.c    **** 
 873:xformatc.c    **** 					}
 874:xformatc.c    **** 
 875:xformatc.c    **** 					if ((param.flags & FLAG_PREFIX) && param.values.lvalue == 0)
 1595              		.loc 1 875 0
 1596 06c0 3B6C     		ldr	r3, [r7, #64]
 1597 06c2 03F02003 		and	r3, r3, #32
 1598 06c6 002B     		cmp	r3, #0
 1599 06c8 04D0     		beq	.L114
 1600              		.loc 1 875 0 is_stmt 0 discriminator 1
 1601 06ca 3B69     		ldr	r3, [r7, #16]
 1602 06cc 002B     		cmp	r3, #0
 1603 06ce 01D1     		bne	.L114
 876:xformatc.c    **** 					{
 877:xformatc.c    **** 						param.prefixlen = 0;
 1604              		.loc 1 877 0 is_stmt 1
 1605 06d0 0023     		movs	r3, #0
 1606 06d2 7B64     		str	r3, [r7, #68]
 1607              	.L114:
 878:xformatc.c    **** 					}
ARM GAS  C:\Users\bmt\AppData\Local\Temp\ccKVUDN8.s 			page 45


 879:xformatc.c    **** 
 880:xformatc.c    **** 
 881:xformatc.c    **** 					/*
 882:xformatc.c    **** 					 * Manage signed integer
 883:xformatc.c    **** 					 */
 884:xformatc.c    **** 					if (param.flags & FLAG_DECIMAL)
 1608              		.loc 1 884 0
 1609 06d4 3B6C     		ldr	r3, [r7, #64]
 1610 06d6 03F48073 		and	r3, r3, #256
 1611 06da 002B     		cmp	r3, #0
 1612 06dc 2FD0     		beq	.L115
 885:xformatc.c    **** 					{
 886:xformatc.c    **** #if XCFG_FORMAT_LONGLONG
 887:xformatc.c    **** 						if ((param.flags & FLAG_TYPE_MASK) == FLAG_TYPE_LONGLONG)
 1613              		.loc 1 887 0
 1614 06de 3B6C     		ldr	r3, [r7, #64]
 1615 06e0 03F00303 		and	r3, r3, #3
 1616 06e4 032B     		cmp	r3, #3
 1617 06e6 11D1     		bne	.L116
 888:xformatc.c    **** 						{
 889:xformatc.c    **** 							if ((LONGLONG)param.values.llvalue < 0)
 1618              		.loc 1 889 0
 1619 06e8 D7E90423 		ldrd	r2, [r7, #16]
 1620 06ec 002A     		cmp	r2, #0
 1621 06ee 73F10003 		sbcs	r3, r3, #0
 1622 06f2 15DA     		bge	.L118
 890:xformatc.c    **** 							{
 891:xformatc.c    **** 								param.values.llvalue = ~param.values.llvalue + 1;
 1623              		.loc 1 891 0
 1624 06f4 D7E90423 		ldrd	r2, [r7, #16]
 1625 06f8 5242     		rsbs	r2, r2, #0
 1626 06fa 63EB4303 		sbc	r3, r3, r3, lsl #1
 1627 06fe C7E90423 		strd	r2, [r7, #16]
 892:xformatc.c    **** 								param.flags |= FLAG_MINUS;
 1628              		.loc 1 892 0
 1629 0702 3B6C     		ldr	r3, [r7, #64]
 1630 0704 43F48063 		orr	r3, r3, #1024
 1631 0708 3B64     		str	r3, [r7, #64]
 1632 070a 09E0     		b	.L118
 1633              	.L116:
 893:xformatc.c    **** 							}
 894:xformatc.c    **** 						}
 895:xformatc.c    **** 						else 
 896:xformatc.c    **** 						{
 897:xformatc.c    **** #endif
 898:xformatc.c    **** 							if ((LONG)param.values.lvalue < 0)
 1634              		.loc 1 898 0
 1635 070c 3B69     		ldr	r3, [r7, #16]
 1636 070e 002B     		cmp	r3, #0
 1637 0710 06DA     		bge	.L118
 899:xformatc.c    **** 							{
 900:xformatc.c    **** 								param.values.lvalue = ~param.values.lvalue + 1;
 1638              		.loc 1 900 0
 1639 0712 3B69     		ldr	r3, [r7, #16]
 1640 0714 5B42     		negs	r3, r3
 1641 0716 3B61     		str	r3, [r7, #16]
 901:xformatc.c    **** 								param.flags |= FLAG_MINUS;
ARM GAS  C:\Users\bmt\AppData\Local\Temp\ccKVUDN8.s 			page 46


 1642              		.loc 1 901 0
 1643 0718 3B6C     		ldr	r3, [r7, #64]
 1644 071a 43F48063 		orr	r3, r3, #1024
 1645 071e 3B64     		str	r3, [r7, #64]
 1646              	.L118:
 902:xformatc.c    **** 
 903:xformatc.c    **** 							}
 904:xformatc.c    **** #if XCFG_FORMAT_LONGLONG
 905:xformatc.c    **** 						}
 906:xformatc.c    **** #endif
 907:xformatc.c    **** 						if (!(param.flags & FLAG_MINUS)  && (param.flags & FLAG_BLANK))
 1647              		.loc 1 907 0
 1648 0720 3B6C     		ldr	r3, [r7, #64]
 1649 0722 03F48063 		and	r3, r3, #1024
 1650 0726 002B     		cmp	r3, #0
 1651 0728 09D1     		bne	.L115
 1652              		.loc 1 907 0 is_stmt 0 discriminator 1
 1653 072a 3B6C     		ldr	r3, [r7, #64]
 1654 072c 03F01003 		and	r3, r3, #16
 1655 0730 002B     		cmp	r3, #0
 1656 0732 04D0     		beq	.L115
 908:xformatc.c    **** 						{
 909:xformatc.c    **** 							param.prefix[0] = ' ';
 1657              		.loc 1 909 0 is_stmt 1
 1658 0734 2023     		movs	r3, #32
 1659 0736 87F84830 		strb	r3, [r7, #72]
 910:xformatc.c    **** 							param.prefixlen = 1;
 1660              		.loc 1 910 0
 1661 073a 0123     		movs	r3, #1
 1662 073c 7B64     		str	r3, [r7, #68]
 1663              	.L115:
 911:xformatc.c    **** 						}
 912:xformatc.c    **** 					}
 913:xformatc.c    **** 
 914:xformatc.c    **** 					if ((param.flags & FLAG_BUFFER) == 0)
 1664              		.loc 1 914 0
 1665 073e 3B6C     		ldr	r3, [r7, #64]
 1666 0740 03F48053 		and	r3, r3, #4096
 1667 0744 002B     		cmp	r3, #0
 1668 0746 03D1     		bne	.L119
 915:xformatc.c    **** 					{
 916:xformatc.c    **** 						param.out = param.buffer + sizeof(param.buffer) - 1;
 1669              		.loc 1 916 0
 1670 0748 07F11003 		add	r3, r7, #16
 1671 074c 7A33     		adds	r3, r3, #122
 1672 074e BB61     		str	r3, [r7, #24]
 1673              	.L119:
 917:xformatc.c    **** 					}
 918:xformatc.c    **** 
 919:xformatc.c    **** 
 920:xformatc.c    **** #if XCFG_FORMAT_LONGLONG
 921:xformatc.c    **** 					if ((param.flags & FLAG_TYPE_MASK) == FLAG_TYPE_LONGLONG)
 1674              		.loc 1 921 0
 1675 0750 3B6C     		ldr	r3, [r7, #64]
 1676 0752 03F00303 		and	r3, r3, #3
 1677 0756 032B     		cmp	r3, #3
 1678 0758 05D1     		bne	.L120
ARM GAS  C:\Users\bmt\AppData\Local\Temp\ccKVUDN8.s 			page 47


 922:xformatc.c    **** 						ullong2a(&param);
 1679              		.loc 1 922 0
 1680 075a 07F11003 		add	r3, r7, #16
 1681 075e 1846     		mov	r0, r3
 1682 0760 FFF7FEFF 		bl	ullong2a
 1683 0764 04E0     		b	.L121
 1684              	.L120:
 923:xformatc.c    **** 					else
 924:xformatc.c    **** 						ulong2a(&param);
 1685              		.loc 1 924 0
 1686 0766 07F11003 		add	r3, r7, #16
 1687 076a 1846     		mov	r0, r3
 1688 076c FFF7FEFF 		bl	ulong2a
 1689              	.L121:
 925:xformatc.c    **** #else
 926:xformatc.c    **** 
 927:xformatc.c    **** 					ulong2a(&param);
 928:xformatc.c    **** #endif
 929:xformatc.c    **** 					param.out++;
 1690              		.loc 1 929 0
 1691 0770 BB69     		ldr	r3, [r7, #24]
 1692 0772 0133     		adds	r3, r3, #1
 1693 0774 BB61     		str	r3, [r7, #24]
 930:xformatc.c    **** 
 931:xformatc.c    **** 					/*
 932:xformatc.c    **** 					 * Check if a sign is required
 933:xformatc.c    **** 					 */
 934:xformatc.c    **** 					if (param.flags & (FLAG_MINUS|FLAG_PLUS))
 1694              		.loc 1 934 0
 1695 0776 3B6C     		ldr	r3, [r7, #64]
 1696 0778 03F48863 		and	r3, r3, #1088
 1697 077c 002B     		cmp	r3, #0
 1698 077e 28D0     		beq	.L126
 935:xformatc.c    **** 					{
 936:xformatc.c    **** 						c = param.flags & FLAG_MINUS ? '-' : '+';
 1699              		.loc 1 936 0
 1700 0780 3B6C     		ldr	r3, [r7, #64]
 1701 0782 03F48063 		and	r3, r3, #1024
 1702 0786 002B     		cmp	r3, #0
 1703 0788 01D0     		beq	.L123
 1704              		.loc 1 936 0 is_stmt 0 discriminator 1
 1705 078a 2D23     		movs	r3, #45
 1706 078c 00E0     		b	.L124
 1707              	.L123:
 1708              		.loc 1 936 0 discriminator 2
 1709 078e 2B23     		movs	r3, #43
 1710              	.L124:
 1711              		.loc 1 936 0 discriminator 4
 1712 0790 87F89330 		strb	r3, [r7, #147]
 937:xformatc.c    **** 
 938:xformatc.c    **** 						if (param.pad == '0')
 1713              		.loc 1 938 0 is_stmt 1 discriminator 4
 1714 0794 97F88C30 		ldrb	r3, [r7, #140]	@ zero_extendqisi2
 1715 0798 302B     		cmp	r3, #48
 1716 079a 06D1     		bne	.L125
 939:xformatc.c    **** 						{
 940:xformatc.c    **** 							param.prefixlen = 1;
ARM GAS  C:\Users\bmt\AppData\Local\Temp\ccKVUDN8.s 			page 48


 1717              		.loc 1 940 0
 1718 079c 0123     		movs	r3, #1
 1719 079e 7B64     		str	r3, [r7, #68]
 941:xformatc.c    **** 							param.prefix[0] = c;
 1720              		.loc 1 941 0
 1721 07a0 97F89330 		ldrb	r3, [r7, #147]
 1722 07a4 87F84830 		strb	r3, [r7, #72]
 1723 07a8 13E0     		b	.L126
 1724              	.L125:
 942:xformatc.c    **** 						}
 943:xformatc.c    **** 						else
 944:xformatc.c    **** 						{
 945:xformatc.c    **** 							*--param.out = c;
 1725              		.loc 1 945 0
 1726 07aa BB69     		ldr	r3, [r7, #24]
 1727 07ac 013B     		subs	r3, r3, #1
 1728 07ae BB61     		str	r3, [r7, #24]
 1729 07b0 BB69     		ldr	r3, [r7, #24]
 1730 07b2 97F89320 		ldrb	r2, [r7, #147]
 1731 07b6 1A70     		strb	r2, [r3]
 946:xformatc.c    **** 							param.length++;
 1732              		.loc 1 946 0
 1733 07b8 3B6B     		ldr	r3, [r7, #48]
 1734 07ba 0133     		adds	r3, r3, #1
 1735 07bc 3B63     		str	r3, [r7, #48]
 1736 07be 08E0     		b	.L126
 1737              	.L102:
 947:xformatc.c    **** 						}
 948:xformatc.c    **** 					}
 949:xformatc.c    **** 
 950:xformatc.c    **** 
 951:xformatc.c    **** 				}
 952:xformatc.c    **** 				else
 953:xformatc.c    **** 				{
 954:xformatc.c    **** 					if (param.width && param.length > param.width)
 1738              		.loc 1 954 0
 1739 07c0 BB6B     		ldr	r3, [r7, #56]
 1740 07c2 002B     		cmp	r3, #0
 1741 07c4 05D0     		beq	.L126
 1742              		.loc 1 954 0 is_stmt 0 discriminator 1
 1743 07c6 3A6B     		ldr	r2, [r7, #48]
 1744 07c8 BB6B     		ldr	r3, [r7, #56]
 1745 07ca 9A42     		cmp	r2, r3
 1746 07cc 01DD     		ble	.L126
 955:xformatc.c    **** 					{
 956:xformatc.c    **** 						param.length = param.width;
 1747              		.loc 1 956 0 is_stmt 1
 1748 07ce BB6B     		ldr	r3, [r7, #56]
 1749 07d0 3B63     		str	r3, [r7, #48]
 1750              	.L126:
 957:xformatc.c    **** 					}
 958:xformatc.c    **** 
 959:xformatc.c    **** 				}
 960:xformatc.c    **** 
 961:xformatc.c    **** 				/*
 962:xformatc.c    **** 				 * Now width contain the size of the pad
 963:xformatc.c    **** 				 */
ARM GAS  C:\Users\bmt\AppData\Local\Temp\ccKVUDN8.s 			page 49


 964:xformatc.c    **** 				param.width -= (param.length + param.prefixlen);
 1751              		.loc 1 964 0
 1752 07d2 BA6B     		ldr	r2, [r7, #56]
 1753 07d4 396B     		ldr	r1, [r7, #48]
 1754 07d6 7B6C     		ldr	r3, [r7, #68]
 1755 07d8 0B44     		add	r3, r3, r1
 1756 07da D31A     		subs	r3, r2, r3
 1757 07dc BB63     		str	r3, [r7, #56]
 965:xformatc.c    **** 
 966:xformatc.c    **** 				param.count += outBuffer(outchar,arg,param.prefix,param.prefixlen,param.flags & FLAG_UPPER);
 1758              		.loc 1 966 0
 1759 07de 7E6C     		ldr	r6, [r7, #68]
 1760 07e0 3B6C     		ldr	r3, [r7, #64]
 1761 07e2 03F08003 		and	r3, r3, #128
 1762 07e6 07F11002 		add	r2, r7, #16
 1763 07ea 3832     		adds	r2, r2, #56
 1764 07ec 0093     		str	r3, [sp]
 1765 07ee F868     		ldr	r0, [r7, #12]
 1766 07f0 B968     		ldr	r1, [r7, #8]
 1767 07f2 3346     		mov	r3, r6
 1768 07f4 FFF7FEFF 		bl	outBuffer
 1769 07f8 0246     		mov	r2, r0
 1770 07fa FB6B     		ldr	r3, [r7, #60]
 1771 07fc 1344     		add	r3, r3, r2
 1772 07fe FB63     		str	r3, [r7, #60]
 967:xformatc.c    **** 				if (!(param.flags & FLAG_LEFT))
 1773              		.loc 1 967 0
 1774 0800 3B6C     		ldr	r3, [r7, #64]
 1775 0802 03F00803 		and	r3, r3, #8
 1776 0806 002B     		cmp	r3, #0
 1777 0808 0AD1     		bne	.L127
 968:xformatc.c    **** 					param.count += outChars(outchar,arg,param.pad,param.width);
 1778              		.loc 1 968 0
 1779 080a 97F88C20 		ldrb	r2, [r7, #140]	@ zero_extendqisi2
 1780 080e BB6B     		ldr	r3, [r7, #56]
 1781 0810 F868     		ldr	r0, [r7, #12]
 1782 0812 B968     		ldr	r1, [r7, #8]
 1783 0814 FFF7FEFF 		bl	outChars
 1784 0818 0246     		mov	r2, r0
 1785 081a FB6B     		ldr	r3, [r7, #60]
 1786 081c 1344     		add	r3, r3, r2
 1787 081e FB63     		str	r3, [r7, #60]
 1788              	.L127:
 969:xformatc.c    **** 				param.count += outBuffer(outchar,arg,param.out,param.length,param.flags & FLAG_UPPER);
 1789              		.loc 1 969 0
 1790 0820 BA69     		ldr	r2, [r7, #24]
 1791 0822 3E6B     		ldr	r6, [r7, #48]
 1792 0824 3B6C     		ldr	r3, [r7, #64]
 1793 0826 03F08003 		and	r3, r3, #128
 1794 082a 0093     		str	r3, [sp]
 1795 082c F868     		ldr	r0, [r7, #12]
 1796 082e B968     		ldr	r1, [r7, #8]
 1797 0830 3346     		mov	r3, r6
 1798 0832 FFF7FEFF 		bl	outBuffer
 1799 0836 0246     		mov	r2, r0
 1800 0838 FB6B     		ldr	r3, [r7, #60]
 1801 083a 1344     		add	r3, r3, r2
ARM GAS  C:\Users\bmt\AppData\Local\Temp\ccKVUDN8.s 			page 50


 1802 083c FB63     		str	r3, [r7, #60]
 970:xformatc.c    **** 				if (param.flags & FLAG_LEFT)
 1803              		.loc 1 970 0
 1804 083e 3B6C     		ldr	r3, [r7, #64]
 1805 0840 03F00803 		and	r3, r3, #8
 1806 0844 002B     		cmp	r3, #0
 1807 0846 0AD0     		beq	.L39
 971:xformatc.c    **** 					param.count += outChars(outchar,arg,param.pad,param.width);
 1808              		.loc 1 971 0
 1809 0848 97F88C20 		ldrb	r2, [r7, #140]	@ zero_extendqisi2
 1810 084c BB6B     		ldr	r3, [r7, #56]
 1811 084e F868     		ldr	r0, [r7, #12]
 1812 0850 B968     		ldr	r1, [r7, #8]
 1813 0852 FFF7FEFF 		bl	outChars
 1814 0856 0246     		mov	r2, r0
 1815 0858 FB6B     		ldr	r3, [r7, #60]
 1816 085a 1344     		add	r3, r3, r2
 1817 085c FB63     		str	r3, [r7, #60]
 1818              	.L39:
 540:xformatc.c    **** 	{
 1819              		.loc 1 540 0
 1820 085e 7B68     		ldr	r3, [r7, #4]
 1821 0860 1B78     		ldrb	r3, [r3]	@ zero_extendqisi2
 1822 0862 002B     		cmp	r3, #0
 1823 0864 7FF4DBAB 		bne	.L128
 972:xformatc.c    **** 				
 973:xformatc.c    **** 		}
 974:xformatc.c    **** 	}
 975:xformatc.c    **** 
 976:xformatc.c    **** #if XCFG_FORMAT_VA_COPY
 977:xformatc.c    **** 	va_end(args);
 978:xformatc.c    **** #endif
 979:xformatc.c    **** 
 980:xformatc.c    **** 	return param.count;
 1824              		.loc 1 980 0
 1825 0868 FB6B     		ldr	r3, [r7, #60]
 981:xformatc.c    **** }
 1826              		.loc 1 981 0
 1827 086a 1846     		mov	r0, r3
 1828 086c 9C37     		adds	r7, r7, #156
 1829              		.cfi_def_cfa_offset 28
 1830 086e BD46     		mov	sp, r7
 1831              		.cfi_def_cfa_register 13
 1832              		@ sp needed
 1833 0870 BDE8F083 		pop	{r4, r5, r6, r7, r8, r9, pc}
 1834              		.cfi_endproc
 1835              	.LFE6:
 1836              		.size	xvformat, .-xvformat
 1837              		.text
 1838              	.Letext0:
 1839              		.file 2 "c:\\program files (x86)\\cypress\\psoc creator\\4.0\\psoc creator\\import\\gnu\\arm\\4.9.
 1840              		.file 3 "<built-in>"
 1841              		.section	.debug_info,"",%progbits
 1842              	.Ldebug_info0:
 1843 0000 82050000 		.4byte	0x582
 1844 0004 0400     		.2byte	0x4
 1845 0006 00000000 		.4byte	.Ldebug_abbrev0
ARM GAS  C:\Users\bmt\AppData\Local\Temp\ccKVUDN8.s 			page 51


 1846 000a 04       		.byte	0x4
 1847 000b 01       		.uleb128 0x1
 1848 000c 5F000000 		.4byte	.LASF65
 1849 0010 01       		.byte	0x1
 1850 0011 D2010000 		.4byte	.LASF66
 1851 0015 BE020000 		.4byte	.LASF67
 1852 0019 00000000 		.4byte	.Ldebug_ranges0+0
 1853 001d 00000000 		.4byte	0
 1854 0021 00000000 		.4byte	.Ldebug_line0
 1855 0025 02       		.uleb128 0x2
 1856 0026 26010000 		.4byte	.LASF0
 1857 002a 02       		.byte	0x2
 1858 002b 28       		.byte	0x28
 1859 002c 30000000 		.4byte	0x30
 1860 0030 03       		.uleb128 0x3
 1861 0031 3B020000 		.4byte	.LASF9
 1862 0035 04       		.byte	0x4
 1863 0036 03       		.byte	0x3
 1864 0037 00       		.byte	0
 1865 0038 47000000 		.4byte	0x47
 1866 003c 04       		.uleb128 0x4
 1867 003d 13020000 		.4byte	.LASF2
 1868 0041 47000000 		.4byte	0x47
 1869 0045 00       		.byte	0
 1870 0046 00       		.byte	0
 1871 0047 05       		.uleb128 0x5
 1872 0048 04       		.byte	0x4
 1873 0049 02       		.uleb128 0x2
 1874 004a 90010000 		.4byte	.LASF1
 1875 004e 02       		.byte	0x2
 1876 004f 62       		.byte	0x62
 1877 0050 25000000 		.4byte	0x25
 1878 0054 06       		.uleb128 0x6
 1879 0055 08       		.byte	0x8
 1880 0056 01       		.byte	0x1
 1881 0057 57       		.byte	0x57
 1882 0058 7E000000 		.4byte	0x7e
 1883 005c 07       		.uleb128 0x7
 1884 005d ED010000 		.4byte	.LASF3
 1885 0061 01       		.byte	0x1
 1886 0062 59       		.byte	0x59
 1887 0063 7E000000 		.4byte	0x7e
 1888 0067 07       		.uleb128 0x7
 1889 0068 3E000000 		.4byte	.LASF4
 1890 006c 01       		.byte	0x1
 1891 006d 5B       		.byte	0x5b
 1892 006e 85000000 		.4byte	0x85
 1893 0072 07       		.uleb128 0x7
 1894 0073 46000000 		.4byte	.LASF5
 1895 0077 01       		.byte	0x1
 1896 0078 5E       		.byte	0x5e
 1897 0079 8C000000 		.4byte	0x8c
 1898 007d 00       		.byte	0
 1899 007e 08       		.uleb128 0x8
 1900 007f 04       		.byte	0x4
 1901 0080 07       		.byte	0x7
 1902 0081 55010000 		.4byte	.LASF6
ARM GAS  C:\Users\bmt\AppData\Local\Temp\ccKVUDN8.s 			page 52


 1903 0085 08       		.uleb128 0x8
 1904 0086 08       		.byte	0x8
 1905 0087 07       		.byte	0x7
 1906 0088 FC010000 		.4byte	.LASF7
 1907 008c 08       		.uleb128 0x8
 1908 008d 08       		.byte	0x8
 1909 008e 04       		.byte	0x4
 1910 008f B0010000 		.4byte	.LASF8
 1911 0093 03       		.uleb128 0x3
 1912 0094 B6020000 		.4byte	.LASF10
 1913 0098 80       		.byte	0x80
 1914 0099 01       		.byte	0x1
 1915 009a 51       		.byte	0x51
 1916 009b 54010000 		.4byte	0x154
 1917 009f 09       		.uleb128 0x9
 1918 00a0 50020000 		.4byte	.LASF11
 1919 00a4 01       		.byte	0x1
 1920 00a5 60       		.byte	0x60
 1921 00a6 54000000 		.4byte	0x54
 1922 00aa 00       		.byte	0
 1923 00ab 0A       		.uleb128 0xa
 1924 00ac 6F757400 		.ascii	"out\000"
 1925 00b0 01       		.byte	0x1
 1926 00b1 65       		.byte	0x65
 1927 00b2 54010000 		.4byte	0x154
 1928 00b6 08       		.byte	0x8
 1929 00b7 0A       		.uleb128 0xa
 1930 00b8 64626C00 		.ascii	"dbl\000"
 1931 00bc 01       		.byte	0x1
 1932 00bd 6B       		.byte	0x6b
 1933 00be 8C000000 		.4byte	0x8c
 1934 00c2 10       		.byte	0x10
 1935 00c3 09       		.uleb128 0x9
 1936 00c4 F6000000 		.4byte	.LASF12
 1937 00c8 01       		.byte	0x1
 1938 00c9 70       		.byte	0x70
 1939 00ca 85000000 		.4byte	0x85
 1940 00ce 18       		.byte	0x18
 1941 00cf 09       		.uleb128 0x9
 1942 00d0 AF020000 		.4byte	.LASF13
 1943 00d4 01       		.byte	0x1
 1944 00d5 78       		.byte	0x78
 1945 00d6 61010000 		.4byte	0x161
 1946 00da 20       		.byte	0x20
 1947 00db 09       		.uleb128 0x9
 1948 00dc 80020000 		.4byte	.LASF14
 1949 00e0 01       		.byte	0x1
 1950 00e1 7D       		.byte	0x7d
 1951 00e2 61010000 		.4byte	0x161
 1952 00e6 24       		.byte	0x24
 1953 00e7 09       		.uleb128 0x9
 1954 00e8 5F020000 		.4byte	.LASF15
 1955 00ec 01       		.byte	0x1
 1956 00ed 82       		.byte	0x82
 1957 00ee 61010000 		.4byte	0x161
 1958 00f2 28       		.byte	0x28
 1959 00f3 09       		.uleb128 0x9
ARM GAS  C:\Users\bmt\AppData\Local\Temp\ccKVUDN8.s 			page 53


 1960 00f4 65020000 		.4byte	.LASF16
 1961 00f8 01       		.byte	0x1
 1962 00f9 88       		.byte	0x88
 1963 00fa 68010000 		.4byte	0x168
 1964 00fe 2C       		.byte	0x2c
 1965 00ff 09       		.uleb128 0x9
 1966 0100 E7010000 		.4byte	.LASF17
 1967 0104 01       		.byte	0x1
 1968 0105 8E       		.byte	0x8e
 1969 0106 68010000 		.4byte	0x168
 1970 010a 30       		.byte	0x30
 1971 010b 09       		.uleb128 0x9
 1972 010c B7010000 		.4byte	.LASF18
 1973 0110 01       		.byte	0x1
 1974 0111 A4       		.byte	0xa4
 1975 0112 61010000 		.4byte	0x161
 1976 0116 34       		.byte	0x34
 1977 0117 09       		.uleb128 0x9
 1978 0118 A9010000 		.4byte	.LASF19
 1979 011c 01       		.byte	0x1
 1980 011d A7       		.byte	0xa7
 1981 011e 6F010000 		.4byte	0x16f
 1982 0122 38       		.byte	0x38
 1983 0123 09       		.uleb128 0x9
 1984 0124 2F000000 		.4byte	.LASF20
 1985 0128 01       		.byte	0x1
 1986 0129 AC       		.byte	0xac
 1987 012a 86010000 		.4byte	0x186
 1988 012e 3A       		.byte	0x3a
 1989 012f 09       		.uleb128 0x9
 1990 0130 FC000000 		.4byte	.LASF21
 1991 0134 01       		.byte	0x1
 1992 0135 B2       		.byte	0xb2
 1993 0136 96010000 		.4byte	0x196
 1994 013a 7B       		.byte	0x7b
 1995 013b 0A       		.uleb128 0xa
 1996 013c 70616400 		.ascii	"pad\000"
 1997 0140 01       		.byte	0x1
 1998 0141 B5       		.byte	0xb5
 1999 0142 5A010000 		.4byte	0x15a
 2000 0146 7C       		.byte	0x7c
 2001 0147 09       		.uleb128 0x9
 2002 0148 17000000 		.4byte	.LASF22
 2003 014c 01       		.byte	0x1
 2004 014d BB       		.byte	0xbb
 2005 014e 5A010000 		.4byte	0x15a
 2006 0152 7D       		.byte	0x7d
 2007 0153 00       		.byte	0
 2008 0154 0B       		.uleb128 0xb
 2009 0155 04       		.byte	0x4
 2010 0156 5A010000 		.4byte	0x15a
 2011 015a 08       		.uleb128 0x8
 2012 015b 01       		.byte	0x1
 2013 015c 08       		.byte	0x8
 2014 015d 4B020000 		.4byte	.LASF23
 2015 0161 0C       		.uleb128 0xc
 2016 0162 04       		.byte	0x4
ARM GAS  C:\Users\bmt\AppData\Local\Temp\ccKVUDN8.s 			page 54


 2017 0163 05       		.byte	0x5
 2018 0164 696E7400 		.ascii	"int\000"
 2019 0168 08       		.uleb128 0x8
 2020 0169 04       		.byte	0x4
 2021 016a 07       		.byte	0x7
 2022 016b 75010000 		.4byte	.LASF24
 2023 016f 0D       		.uleb128 0xd
 2024 0170 5A010000 		.4byte	0x15a
 2025 0174 7F010000 		.4byte	0x17f
 2026 0178 0E       		.uleb128 0xe
 2027 0179 7F010000 		.4byte	0x17f
 2028 017d 01       		.byte	0x1
 2029 017e 00       		.byte	0
 2030 017f 08       		.uleb128 0x8
 2031 0180 04       		.byte	0x4
 2032 0181 07       		.byte	0x7
 2033 0182 2A020000 		.4byte	.LASF25
 2034 0186 0D       		.uleb128 0xd
 2035 0187 5A010000 		.4byte	0x15a
 2036 018b 96010000 		.4byte	0x196
 2037 018f 0E       		.uleb128 0xe
 2038 0190 7F010000 		.4byte	0x17f
 2039 0194 40       		.byte	0x40
 2040 0195 00       		.byte	0
 2041 0196 08       		.uleb128 0x8
 2042 0197 01       		.byte	0x1
 2043 0198 08       		.byte	0x8
 2044 0199 47010000 		.4byte	.LASF26
 2045 019d 0F       		.uleb128 0xf
 2046 019e A9020000 		.4byte	.LASF35
 2047 01a2 01       		.byte	0x1
 2048 01a3 01       		.byte	0x1
 2049 01a4 C3       		.byte	0xc3
 2050 01a5 DA010000 		.4byte	0x1da
 2051 01a9 10       		.uleb128 0x10
 2052 01aa 3D010000 		.4byte	.LASF27
 2053 01ae 00       		.sleb128 0
 2054 01af 10       		.uleb128 0x10
 2055 01b0 9E010000 		.4byte	.LASF28
 2056 01b4 01       		.sleb128 1
 2057 01b5 10       		.uleb128 0x10
 2058 01b6 82010000 		.4byte	.LASF29
 2059 01ba 02       		.sleb128 2
 2060 01bb 10       		.uleb128 0x10
 2061 01bc C9010000 		.4byte	.LASF30
 2062 01c0 03       		.sleb128 3
 2063 01c1 10       		.uleb128 0x10
 2064 01c2 28000000 		.4byte	.LASF31
 2065 01c6 04       		.sleb128 4
 2066 01c7 10       		.uleb128 0x10
 2067 01c8 85020000 		.4byte	.LASF32
 2068 01cc 05       		.sleb128 5
 2069 01cd 10       		.uleb128 0x10
 2070 01ce 35010000 		.4byte	.LASF33
 2071 01d2 06       		.sleb128 6
 2072 01d3 10       		.uleb128 0x10
 2073 01d4 1E010000 		.4byte	.LASF34
ARM GAS  C:\Users\bmt\AppData\Local\Temp\ccKVUDN8.s 			page 55


 2074 01d8 07       		.sleb128 7
 2075 01d9 00       		.byte	0
 2076 01da 0F       		.uleb128 0xf
 2077 01db 55000000 		.4byte	.LASF36
 2078 01df 01       		.byte	0x1
 2079 01e0 01       		.byte	0x1
 2080 01e1 E1       		.byte	0xe1
 2081 01e2 1D020000 		.4byte	0x21d
 2082 01e6 10       		.uleb128 0x10
 2083 01e7 98020000 		.4byte	.LASF37
 2084 01eb 00       		.sleb128 0
 2085 01ec 10       		.uleb128 0x10
 2086 01ed 1D000000 		.4byte	.LASF38
 2087 01f1 01       		.sleb128 1
 2088 01f2 10       		.uleb128 0x10
 2089 01f3 00000000 		.4byte	.LASF39
 2090 01f7 02       		.sleb128 2
 2091 01f8 10       		.uleb128 0x10
 2092 01f9 57020000 		.4byte	.LASF40
 2093 01fd 03       		.sleb128 3
 2094 01fe 10       		.uleb128 0x10
 2095 01ff 05030000 		.4byte	.LASF41
 2096 0203 04       		.sleb128 4
 2097 0204 10       		.uleb128 0x10
 2098 0205 ED000000 		.4byte	.LASF42
 2099 0209 05       		.sleb128 5
 2100 020a 10       		.uleb128 0x10
 2101 020b 4D000000 		.4byte	.LASF43
 2102 020f 06       		.sleb128 6
 2103 0210 10       		.uleb128 0x10
 2104 0211 0F000000 		.4byte	.LASF44
 2105 0215 07       		.sleb128 7
 2106 0216 10       		.uleb128 0x10
 2107 0217 C1010000 		.4byte	.LASF45
 2108 021b 08       		.sleb128 8
 2109 021c 00       		.byte	0
 2110 021d 11       		.uleb128 0x11
 2111 021e F4010000 		.4byte	.LASF46
 2112 0222 01       		.byte	0x1
 2113 0223 3101     		.2byte	0x131
 2114 0225 00000000 		.4byte	.LFB0
 2115 0229 D4000000 		.4byte	.LFE0-.LFB0
 2116 022d 01       		.uleb128 0x1
 2117 022e 9C       		.byte	0x9c
 2118 022f 52020000 		.4byte	0x252
 2119 0233 12       		.uleb128 0x12
 2120 0234 8A010000 		.4byte	.LASF48
 2121 0238 01       		.byte	0x1
 2122 0239 3101     		.2byte	0x131
 2123 023b 52020000 		.4byte	0x252
 2124 023f 02       		.uleb128 0x2
 2125 0240 91       		.byte	0x91
 2126 0241 6C       		.sleb128 -20
 2127 0242 13       		.uleb128 0x13
 2128 0243 45020000 		.4byte	.LASF49
 2129 0247 01       		.byte	0x1
 2130 0248 3301     		.2byte	0x133
ARM GAS  C:\Users\bmt\AppData\Local\Temp\ccKVUDN8.s 			page 56


 2131 024a 96010000 		.4byte	0x196
 2132 024e 02       		.uleb128 0x2
 2133 024f 91       		.byte	0x91
 2134 0250 77       		.sleb128 -9
 2135 0251 00       		.byte	0
 2136 0252 0B       		.uleb128 0xb
 2137 0253 04       		.byte	0x4
 2138 0254 93000000 		.4byte	0x93
 2139 0258 14       		.uleb128 0x14
 2140 0259 67010000 		.4byte	.LASF47
 2141 025d 01       		.byte	0x1
 2142 025e 5C01     		.2byte	0x15c
 2143 0260 00000000 		.4byte	.LFB1
 2144 0264 08010000 		.4byte	.LFE1-.LFB1
 2145 0268 01       		.uleb128 0x1
 2146 0269 9C       		.byte	0x9c
 2147 026a 8D020000 		.4byte	0x28d
 2148 026e 12       		.uleb128 0x12
 2149 026f 8A010000 		.4byte	.LASF48
 2150 0273 01       		.byte	0x1
 2151 0274 5C01     		.2byte	0x15c
 2152 0276 52020000 		.4byte	0x252
 2153 027a 02       		.uleb128 0x2
 2154 027b 91       		.byte	0x91
 2155 027c 5C       		.sleb128 -36
 2156 027d 13       		.uleb128 0x13
 2157 027e 45020000 		.4byte	.LASF49
 2158 0282 01       		.byte	0x1
 2159 0283 5E01     		.2byte	0x15e
 2160 0285 96010000 		.4byte	0x196
 2161 0289 02       		.uleb128 0x2
 2162 028a 91       		.byte	0x91
 2163 028b 67       		.sleb128 -25
 2164 028c 00       		.byte	0
 2165 028d 15       		.uleb128 0x15
 2166 028e 0C010000 		.4byte	.LASF57
 2167 0292 01       		.byte	0x1
 2168 0293 9101     		.2byte	0x191
 2169 0295 68010000 		.4byte	0x168
 2170 0299 00000000 		.4byte	.LFB2
 2171 029d 30000000 		.4byte	.LFE2-.LFB2
 2172 02a1 01       		.uleb128 0x1
 2173 02a2 9C       		.byte	0x9c
 2174 02a3 F4020000 		.4byte	0x2f4
 2175 02a7 12       		.uleb128 0x12
 2176 02a8 6B020000 		.4byte	.LASF50
 2177 02ac 01       		.byte	0x1
 2178 02ad 9101     		.2byte	0x191
 2179 02af 04030000 		.4byte	0x304
 2180 02b3 02       		.uleb128 0x2
 2181 02b4 91       		.byte	0x91
 2182 02b5 64       		.sleb128 -28
 2183 02b6 16       		.uleb128 0x16
 2184 02b7 61726700 		.ascii	"arg\000"
 2185 02bb 01       		.byte	0x1
 2186 02bc 9101     		.2byte	0x191
 2187 02be 47000000 		.4byte	0x47
ARM GAS  C:\Users\bmt\AppData\Local\Temp\ccKVUDN8.s 			page 57


 2188 02c2 02       		.uleb128 0x2
 2189 02c3 91       		.byte	0x91
 2190 02c4 60       		.sleb128 -32
 2191 02c5 16       		.uleb128 0x16
 2192 02c6 666D7400 		.ascii	"fmt\000"
 2193 02ca 01       		.byte	0x1
 2194 02cb 9101     		.2byte	0x191
 2195 02cd 0A030000 		.4byte	0x30a
 2196 02d1 02       		.uleb128 0x2
 2197 02d2 91       		.byte	0x91
 2198 02d3 78       		.sleb128 -8
 2199 02d4 17       		.uleb128 0x17
 2200 02d5 13       		.uleb128 0x13
 2201 02d6 70010000 		.4byte	.LASF51
 2202 02da 01       		.byte	0x1
 2203 02db 9301     		.2byte	0x193
 2204 02dd 49000000 		.4byte	0x49
 2205 02e1 02       		.uleb128 0x2
 2206 02e2 91       		.byte	0x91
 2207 02e3 68       		.sleb128 -24
 2208 02e4 13       		.uleb128 0x13
 2209 02e5 65020000 		.4byte	.LASF16
 2210 02e9 01       		.byte	0x1
 2211 02ea 9401     		.2byte	0x194
 2212 02ec 68010000 		.4byte	0x168
 2213 02f0 02       		.uleb128 0x2
 2214 02f1 91       		.byte	0x91
 2215 02f2 6C       		.sleb128 -20
 2216 02f3 00       		.byte	0
 2217 02f4 18       		.uleb128 0x18
 2218 02f5 04030000 		.4byte	0x304
 2219 02f9 19       		.uleb128 0x19
 2220 02fa 47000000 		.4byte	0x47
 2221 02fe 19       		.uleb128 0x19
 2222 02ff 5A010000 		.4byte	0x15a
 2223 0303 00       		.byte	0
 2224 0304 0B       		.uleb128 0xb
 2225 0305 04       		.byte	0x4
 2226 0306 F4020000 		.4byte	0x2f4
 2227 030a 0B       		.uleb128 0xb
 2228 030b 04       		.byte	0x4
 2229 030c 10030000 		.4byte	0x310
 2230 0310 1A       		.uleb128 0x1a
 2231 0311 5A010000 		.4byte	0x15a
 2232 0315 1B       		.uleb128 0x1b
 2233 0316 36000000 		.4byte	.LASF52
 2234 031a 01       		.byte	0x1
 2235 031b A601     		.2byte	0x1a6
 2236 031d 68010000 		.4byte	0x168
 2237 0321 00000000 		.4byte	.LFB3
 2238 0325 2E000000 		.4byte	.LFE3-.LFB3
 2239 0329 01       		.uleb128 0x1
 2240 032a 9C       		.byte	0x9c
 2241 032b 4A030000 		.4byte	0x34a
 2242 032f 16       		.uleb128 0x16
 2243 0330 7300     		.ascii	"s\000"
 2244 0332 01       		.byte	0x1
ARM GAS  C:\Users\bmt\AppData\Local\Temp\ccKVUDN8.s 			page 58


 2245 0333 A601     		.2byte	0x1a6
 2246 0335 0A030000 		.4byte	0x30a
 2247 0339 02       		.uleb128 0x2
 2248 033a 91       		.byte	0x91
 2249 033b 6C       		.sleb128 -20
 2250 033c 1C       		.uleb128 0x1c
 2251 033d 6900     		.ascii	"i\000"
 2252 033f 01       		.byte	0x1
 2253 0340 A801     		.2byte	0x1a8
 2254 0342 0A030000 		.4byte	0x30a
 2255 0346 02       		.uleb128 0x2
 2256 0347 91       		.byte	0x91
 2257 0348 74       		.sleb128 -12
 2258 0349 00       		.byte	0
 2259 034a 1D       		.uleb128 0x1d
 2260 034b DD010000 		.4byte	.LASF53
 2261 034f 01       		.byte	0x1
 2262 0350 B101     		.2byte	0x1b1
 2263 0352 68010000 		.4byte	0x168
 2264 0356 00000000 		.4byte	.LFB4
 2265 035a 62000000 		.4byte	.LFE4-.LFB4
 2266 035e 01       		.uleb128 0x1
 2267 035f 9C       		.byte	0x9c
 2268 0360 D9030000 		.4byte	0x3d9
 2269 0364 12       		.uleb128 0x12
 2270 0365 14010000 		.4byte	.LASF54
 2271 0369 01       		.byte	0x1
 2272 036a B101     		.2byte	0x1b1
 2273 036c 04030000 		.4byte	0x304
 2274 0370 02       		.uleb128 0x2
 2275 0371 91       		.byte	0x91
 2276 0372 64       		.sleb128 -28
 2277 0373 16       		.uleb128 0x16
 2278 0374 61726700 		.ascii	"arg\000"
 2279 0378 01       		.byte	0x1
 2280 0379 B101     		.2byte	0x1b1
 2281 037b 47000000 		.4byte	0x47
 2282 037f 02       		.uleb128 0x2
 2283 0380 91       		.byte	0x91
 2284 0381 60       		.sleb128 -32
 2285 0382 12       		.uleb128 0x12
 2286 0383 2F000000 		.4byte	.LASF20
 2287 0387 01       		.byte	0x1
 2288 0388 B101     		.2byte	0x1b1
 2289 038a 0A030000 		.4byte	0x30a
 2290 038e 02       		.uleb128 0x2
 2291 038f 91       		.byte	0x91
 2292 0390 5C       		.sleb128 -36
 2293 0391 16       		.uleb128 0x16
 2294 0392 6C656E00 		.ascii	"len\000"
 2295 0396 01       		.byte	0x1
 2296 0397 B101     		.2byte	0x1b1
 2297 0399 61010000 		.4byte	0x161
 2298 039d 02       		.uleb128 0x2
 2299 039e 91       		.byte	0x91
 2300 039f 58       		.sleb128 -40
 2301 03a0 12       		.uleb128 0x12
ARM GAS  C:\Users\bmt\AppData\Local\Temp\ccKVUDN8.s 			page 59


 2302 03a1 33020000 		.4byte	.LASF55
 2303 03a5 01       		.byte	0x1
 2304 03a6 B101     		.2byte	0x1b1
 2305 03a8 68010000 		.4byte	0x168
 2306 03ac 02       		.uleb128 0x2
 2307 03ad 91       		.byte	0x91
 2308 03ae 00       		.sleb128 0
 2309 03af 13       		.uleb128 0x13
 2310 03b0 65020000 		.4byte	.LASF16
 2311 03b4 01       		.byte	0x1
 2312 03b5 B301     		.2byte	0x1b3
 2313 03b7 68010000 		.4byte	0x168
 2314 03bb 02       		.uleb128 0x2
 2315 03bc 91       		.byte	0x91
 2316 03bd 74       		.sleb128 -12
 2317 03be 1C       		.uleb128 0x1c
 2318 03bf 6900     		.ascii	"i\000"
 2319 03c1 01       		.byte	0x1
 2320 03c2 B401     		.2byte	0x1b4
 2321 03c4 61010000 		.4byte	0x161
 2322 03c8 02       		.uleb128 0x2
 2323 03c9 91       		.byte	0x91
 2324 03ca 70       		.sleb128 -16
 2325 03cb 1C       		.uleb128 0x1c
 2326 03cc 6300     		.ascii	"c\000"
 2327 03ce 01       		.byte	0x1
 2328 03cf B501     		.2byte	0x1b5
 2329 03d1 5A010000 		.4byte	0x15a
 2330 03d5 02       		.uleb128 0x2
 2331 03d6 91       		.byte	0x91
 2332 03d7 6F       		.sleb128 -17
 2333 03d8 00       		.byte	0
 2334 03d9 1D       		.uleb128 0x1d
 2335 03da 18020000 		.4byte	.LASF56
 2336 03de 01       		.byte	0x1
 2337 03df C801     		.2byte	0x1c8
 2338 03e1 68010000 		.4byte	0x168
 2339 03e5 00000000 		.4byte	.LFB5
 2340 03e9 3A000000 		.4byte	.LFE5-.LFB5
 2341 03ed 01       		.uleb128 0x1
 2342 03ee 9C       		.byte	0x9c
 2343 03ef 3E040000 		.4byte	0x43e
 2344 03f3 12       		.uleb128 0x12
 2345 03f4 14010000 		.4byte	.LASF54
 2346 03f8 01       		.byte	0x1
 2347 03f9 C801     		.2byte	0x1c8
 2348 03fb 04030000 		.4byte	0x304
 2349 03ff 02       		.uleb128 0x2
 2350 0400 91       		.byte	0x91
 2351 0401 6C       		.sleb128 -20
 2352 0402 16       		.uleb128 0x16
 2353 0403 61726700 		.ascii	"arg\000"
 2354 0407 01       		.byte	0x1
 2355 0408 C801     		.2byte	0x1c8
 2356 040a 47000000 		.4byte	0x47
 2357 040e 02       		.uleb128 0x2
 2358 040f 91       		.byte	0x91
ARM GAS  C:\Users\bmt\AppData\Local\Temp\ccKVUDN8.s 			page 60


 2359 0410 68       		.sleb128 -24
 2360 0411 16       		.uleb128 0x16
 2361 0412 636800   		.ascii	"ch\000"
 2362 0415 01       		.byte	0x1
 2363 0416 C801     		.2byte	0x1c8
 2364 0418 5A010000 		.4byte	0x15a
 2365 041c 02       		.uleb128 0x2
 2366 041d 91       		.byte	0x91
 2367 041e 67       		.sleb128 -25
 2368 041f 16       		.uleb128 0x16
 2369 0420 6C656E00 		.ascii	"len\000"
 2370 0424 01       		.byte	0x1
 2371 0425 C801     		.2byte	0x1c8
 2372 0427 61010000 		.4byte	0x161
 2373 042b 02       		.uleb128 0x2
 2374 042c 91       		.byte	0x91
 2375 042d 60       		.sleb128 -32
 2376 042e 13       		.uleb128 0x13
 2377 042f 65020000 		.4byte	.LASF16
 2378 0433 01       		.byte	0x1
 2379 0434 CA01     		.2byte	0x1ca
 2380 0436 68010000 		.4byte	0x168
 2381 043a 02       		.uleb128 0x2
 2382 043b 91       		.byte	0x91
 2383 043c 74       		.sleb128 -12
 2384 043d 00       		.byte	0
 2385 043e 15       		.uleb128 0x15
 2386 043f 21020000 		.4byte	.LASF58
 2387 0443 01       		.byte	0x1
 2388 0444 0B02     		.2byte	0x20b
 2389 0446 68010000 		.4byte	0x168
 2390 044a 00000000 		.4byte	.LFB6
 2391 044e 74080000 		.4byte	.LFE6-.LFB6
 2392 0452 01       		.uleb128 0x1
 2393 0453 9C       		.byte	0x9c
 2394 0454 C3040000 		.4byte	0x4c3
 2395 0458 12       		.uleb128 0x12
 2396 0459 6B020000 		.4byte	.LASF50
 2397 045d 01       		.byte	0x1
 2398 045e 0B02     		.2byte	0x20b
 2399 0460 04030000 		.4byte	0x304
 2400 0464 03       		.uleb128 0x3
 2401 0465 91       		.byte	0x91
 2402 0466 D47E     		.sleb128 -172
 2403 0468 16       		.uleb128 0x16
 2404 0469 61726700 		.ascii	"arg\000"
 2405 046d 01       		.byte	0x1
 2406 046e 0B02     		.2byte	0x20b
 2407 0470 47000000 		.4byte	0x47
 2408 0474 03       		.uleb128 0x3
 2409 0475 91       		.byte	0x91
 2410 0476 D07E     		.sleb128 -176
 2411 0478 16       		.uleb128 0x16
 2412 0479 666D7400 		.ascii	"fmt\000"
 2413 047d 01       		.byte	0x1
 2414 047e 0B02     		.2byte	0x20b
 2415 0480 0A030000 		.4byte	0x30a
ARM GAS  C:\Users\bmt\AppData\Local\Temp\ccKVUDN8.s 			page 61


 2416 0484 03       		.uleb128 0x3
 2417 0485 91       		.byte	0x91
 2418 0486 CC7E     		.sleb128 -180
 2419 0488 12       		.uleb128 0x12
 2420 0489 98010000 		.4byte	.LASF59
 2421 048d 01       		.byte	0x1
 2422 048e 0B02     		.2byte	0x20b
 2423 0490 49000000 		.4byte	0x49
 2424 0494 03       		.uleb128 0x3
 2425 0495 91       		.byte	0x91
 2426 0496 C87E     		.sleb128 -184
 2427 0498 13       		.uleb128 0x13
 2428 0499 8A010000 		.4byte	.LASF48
 2429 049d 01       		.byte	0x1
 2430 049e 0D02     		.2byte	0x20d
 2431 04a0 93000000 		.4byte	0x93
 2432 04a4 03       		.uleb128 0x3
 2433 04a5 91       		.byte	0x91
 2434 04a6 D87E     		.sleb128 -168
 2435 04a8 1C       		.uleb128 0x1c
 2436 04a9 6900     		.ascii	"i\000"
 2437 04ab 01       		.byte	0x1
 2438 04ac 0E02     		.2byte	0x20e
 2439 04ae 61010000 		.4byte	0x161
 2440 04b2 02       		.uleb128 0x2
 2441 04b3 91       		.byte	0x91
 2442 04b4 5C       		.sleb128 -36
 2443 04b5 1C       		.uleb128 0x1c
 2444 04b6 6300     		.ascii	"c\000"
 2445 04b8 01       		.byte	0x1
 2446 04b9 0F02     		.2byte	0x20f
 2447 04bb 5A010000 		.4byte	0x15a
 2448 04bf 02       		.uleb128 0x2
 2449 04c0 91       		.byte	0x91
 2450 04c1 5B       		.sleb128 -37
 2451 04c2 00       		.byte	0
 2452 04c3 0D       		.uleb128 0xd
 2453 04c4 5A010000 		.4byte	0x15a
 2454 04c8 D3040000 		.4byte	0x4d3
 2455 04cc 0E       		.uleb128 0xe
 2456 04cd 7F010000 		.4byte	0x17f
 2457 04d1 06       		.byte	0x6
 2458 04d2 00       		.byte	0
 2459 04d3 1E       		.uleb128 0x1e
 2460 04d4 07000000 		.4byte	.LASF60
 2461 04d8 01       		.byte	0x1
 2462 04d9 FC       		.byte	0xfc
 2463 04da E4040000 		.4byte	0x4e4
 2464 04de 05       		.uleb128 0x5
 2465 04df 03       		.byte	0x3
 2466 04e0 00000000 		.4byte	ms_null
 2467 04e4 1A       		.uleb128 0x1a
 2468 04e5 C3040000 		.4byte	0x4c3
 2469 04e9 0D       		.uleb128 0xd
 2470 04ea 5A010000 		.4byte	0x15a
 2471 04ee F9040000 		.4byte	0x4f9
 2472 04f2 0E       		.uleb128 0xe
ARM GAS  C:\Users\bmt\AppData\Local\Temp\ccKVUDN8.s 			page 62


 2473 04f3 7F010000 		.4byte	0x17f
 2474 04f7 04       		.byte	0x4
 2475 04f8 00       		.byte	0
 2476 04f9 13       		.uleb128 0x13
 2477 04fa A1020000 		.4byte	.LASF61
 2478 04fe 01       		.byte	0x1
 2479 04ff 0001     		.2byte	0x100
 2480 0501 0B050000 		.4byte	0x50b
 2481 0505 05       		.uleb128 0x5
 2482 0506 03       		.byte	0x3
 2483 0507 08000000 		.4byte	ms_true
 2484 050b 1A       		.uleb128 0x1a
 2485 050c E9040000 		.4byte	0x4e9
 2486 0510 0D       		.uleb128 0xd
 2487 0511 5A010000 		.4byte	0x15a
 2488 0515 20050000 		.4byte	0x520
 2489 0519 0E       		.uleb128 0xe
 2490 051a 7F010000 		.4byte	0x17f
 2491 051e 05       		.byte	0x5
 2492 051f 00       		.byte	0
 2493 0520 13       		.uleb128 0x13
 2494 0521 8F020000 		.4byte	.LASF62
 2495 0525 01       		.byte	0x1
 2496 0526 0501     		.2byte	0x105
 2497 0528 32050000 		.4byte	0x532
 2498 052c 05       		.uleb128 0x5
 2499 052d 03       		.byte	0x3
 2500 052e 10000000 		.4byte	ms_false
 2501 0532 1A       		.uleb128 0x1a
 2502 0533 10050000 		.4byte	0x510
 2503 0537 0D       		.uleb128 0xd
 2504 0538 5A010000 		.4byte	0x15a
 2505 053c 47050000 		.4byte	0x547
 2506 0540 0E       		.uleb128 0xe
 2507 0541 7F010000 		.4byte	0x17f
 2508 0545 10       		.byte	0x10
 2509 0546 00       		.byte	0
 2510 0547 13       		.uleb128 0x13
 2511 0548 02010000 		.4byte	.LASF63
 2512 054c 01       		.byte	0x1
 2513 054d 0B01     		.2byte	0x10b
 2514 054f 59050000 		.4byte	0x559
 2515 0553 05       		.uleb128 0x5
 2516 0554 03       		.byte	0x3
 2517 0555 18000000 		.4byte	ms_digits
 2518 0559 1A       		.uleb128 0x1a
 2519 055a 37050000 		.4byte	0x537
 2520 055e 0D       		.uleb128 0xd
 2521 055f 96010000 		.4byte	0x196
 2522 0563 6E050000 		.4byte	0x56e
 2523 0567 0E       		.uleb128 0xe
 2524 0568 7F010000 		.4byte	0x17f
 2525 056c 5A       		.byte	0x5a
 2526 056d 00       		.byte	0
 2527 056e 13       		.uleb128 0x13
 2528 056f 73020000 		.4byte	.LASF64
 2529 0573 01       		.byte	0x1
ARM GAS  C:\Users\bmt\AppData\Local\Temp\ccKVUDN8.s 			page 63


 2530 0574 1301     		.2byte	0x113
 2531 0576 80050000 		.4byte	0x580
 2532 057a 05       		.uleb128 0x5
 2533 057b 03       		.byte	0x3
 2534 057c 2C000000 		.4byte	formatStates
 2535 0580 1A       		.uleb128 0x1a
 2536 0581 5E050000 		.4byte	0x55e
 2537 0585 00       		.byte	0
 2538              		.section	.debug_abbrev,"",%progbits
 2539              	.Ldebug_abbrev0:
 2540 0000 01       		.uleb128 0x1
 2541 0001 11       		.uleb128 0x11
 2542 0002 01       		.byte	0x1
 2543 0003 25       		.uleb128 0x25
 2544 0004 0E       		.uleb128 0xe
 2545 0005 13       		.uleb128 0x13
 2546 0006 0B       		.uleb128 0xb
 2547 0007 03       		.uleb128 0x3
 2548 0008 0E       		.uleb128 0xe
 2549 0009 1B       		.uleb128 0x1b
 2550 000a 0E       		.uleb128 0xe
 2551 000b 55       		.uleb128 0x55
 2552 000c 17       		.uleb128 0x17
 2553 000d 11       		.uleb128 0x11
 2554 000e 01       		.uleb128 0x1
 2555 000f 10       		.uleb128 0x10
 2556 0010 17       		.uleb128 0x17
 2557 0011 00       		.byte	0
 2558 0012 00       		.byte	0
 2559 0013 02       		.uleb128 0x2
 2560 0014 16       		.uleb128 0x16
 2561 0015 00       		.byte	0
 2562 0016 03       		.uleb128 0x3
 2563 0017 0E       		.uleb128 0xe
 2564 0018 3A       		.uleb128 0x3a
 2565 0019 0B       		.uleb128 0xb
 2566 001a 3B       		.uleb128 0x3b
 2567 001b 0B       		.uleb128 0xb
 2568 001c 49       		.uleb128 0x49
 2569 001d 13       		.uleb128 0x13
 2570 001e 00       		.byte	0
 2571 001f 00       		.byte	0
 2572 0020 03       		.uleb128 0x3
 2573 0021 13       		.uleb128 0x13
 2574 0022 01       		.byte	0x1
 2575 0023 03       		.uleb128 0x3
 2576 0024 0E       		.uleb128 0xe
 2577 0025 0B       		.uleb128 0xb
 2578 0026 0B       		.uleb128 0xb
 2579 0027 3A       		.uleb128 0x3a
 2580 0028 0B       		.uleb128 0xb
 2581 0029 3B       		.uleb128 0x3b
 2582 002a 0B       		.uleb128 0xb
 2583 002b 01       		.uleb128 0x1
 2584 002c 13       		.uleb128 0x13
 2585 002d 00       		.byte	0
 2586 002e 00       		.byte	0
ARM GAS  C:\Users\bmt\AppData\Local\Temp\ccKVUDN8.s 			page 64


 2587 002f 04       		.uleb128 0x4
 2588 0030 0D       		.uleb128 0xd
 2589 0031 00       		.byte	0
 2590 0032 03       		.uleb128 0x3
 2591 0033 0E       		.uleb128 0xe
 2592 0034 49       		.uleb128 0x49
 2593 0035 13       		.uleb128 0x13
 2594 0036 38       		.uleb128 0x38
 2595 0037 0B       		.uleb128 0xb
 2596 0038 34       		.uleb128 0x34
 2597 0039 19       		.uleb128 0x19
 2598 003a 00       		.byte	0
 2599 003b 00       		.byte	0
 2600 003c 05       		.uleb128 0x5
 2601 003d 0F       		.uleb128 0xf
 2602 003e 00       		.byte	0
 2603 003f 0B       		.uleb128 0xb
 2604 0040 0B       		.uleb128 0xb
 2605 0041 00       		.byte	0
 2606 0042 00       		.byte	0
 2607 0043 06       		.uleb128 0x6
 2608 0044 17       		.uleb128 0x17
 2609 0045 01       		.byte	0x1
 2610 0046 0B       		.uleb128 0xb
 2611 0047 0B       		.uleb128 0xb
 2612 0048 3A       		.uleb128 0x3a
 2613 0049 0B       		.uleb128 0xb
 2614 004a 3B       		.uleb128 0x3b
 2615 004b 0B       		.uleb128 0xb
 2616 004c 01       		.uleb128 0x1
 2617 004d 13       		.uleb128 0x13
 2618 004e 00       		.byte	0
 2619 004f 00       		.byte	0
 2620 0050 07       		.uleb128 0x7
 2621 0051 0D       		.uleb128 0xd
 2622 0052 00       		.byte	0
 2623 0053 03       		.uleb128 0x3
 2624 0054 0E       		.uleb128 0xe
 2625 0055 3A       		.uleb128 0x3a
 2626 0056 0B       		.uleb128 0xb
 2627 0057 3B       		.uleb128 0x3b
 2628 0058 0B       		.uleb128 0xb
 2629 0059 49       		.uleb128 0x49
 2630 005a 13       		.uleb128 0x13
 2631 005b 00       		.byte	0
 2632 005c 00       		.byte	0
 2633 005d 08       		.uleb128 0x8
 2634 005e 24       		.uleb128 0x24
 2635 005f 00       		.byte	0
 2636 0060 0B       		.uleb128 0xb
 2637 0061 0B       		.uleb128 0xb
 2638 0062 3E       		.uleb128 0x3e
 2639 0063 0B       		.uleb128 0xb
 2640 0064 03       		.uleb128 0x3
 2641 0065 0E       		.uleb128 0xe
 2642 0066 00       		.byte	0
 2643 0067 00       		.byte	0
ARM GAS  C:\Users\bmt\AppData\Local\Temp\ccKVUDN8.s 			page 65


 2644 0068 09       		.uleb128 0x9
 2645 0069 0D       		.uleb128 0xd
 2646 006a 00       		.byte	0
 2647 006b 03       		.uleb128 0x3
 2648 006c 0E       		.uleb128 0xe
 2649 006d 3A       		.uleb128 0x3a
 2650 006e 0B       		.uleb128 0xb
 2651 006f 3B       		.uleb128 0x3b
 2652 0070 0B       		.uleb128 0xb
 2653 0071 49       		.uleb128 0x49
 2654 0072 13       		.uleb128 0x13
 2655 0073 38       		.uleb128 0x38
 2656 0074 0B       		.uleb128 0xb
 2657 0075 00       		.byte	0
 2658 0076 00       		.byte	0
 2659 0077 0A       		.uleb128 0xa
 2660 0078 0D       		.uleb128 0xd
 2661 0079 00       		.byte	0
 2662 007a 03       		.uleb128 0x3
 2663 007b 08       		.uleb128 0x8
 2664 007c 3A       		.uleb128 0x3a
 2665 007d 0B       		.uleb128 0xb
 2666 007e 3B       		.uleb128 0x3b
 2667 007f 0B       		.uleb128 0xb
 2668 0080 49       		.uleb128 0x49
 2669 0081 13       		.uleb128 0x13
 2670 0082 38       		.uleb128 0x38
 2671 0083 0B       		.uleb128 0xb
 2672 0084 00       		.byte	0
 2673 0085 00       		.byte	0
 2674 0086 0B       		.uleb128 0xb
 2675 0087 0F       		.uleb128 0xf
 2676 0088 00       		.byte	0
 2677 0089 0B       		.uleb128 0xb
 2678 008a 0B       		.uleb128 0xb
 2679 008b 49       		.uleb128 0x49
 2680 008c 13       		.uleb128 0x13
 2681 008d 00       		.byte	0
 2682 008e 00       		.byte	0
 2683 008f 0C       		.uleb128 0xc
 2684 0090 24       		.uleb128 0x24
 2685 0091 00       		.byte	0
 2686 0092 0B       		.uleb128 0xb
 2687 0093 0B       		.uleb128 0xb
 2688 0094 3E       		.uleb128 0x3e
 2689 0095 0B       		.uleb128 0xb
 2690 0096 03       		.uleb128 0x3
 2691 0097 08       		.uleb128 0x8
 2692 0098 00       		.byte	0
 2693 0099 00       		.byte	0
 2694 009a 0D       		.uleb128 0xd
 2695 009b 01       		.uleb128 0x1
 2696 009c 01       		.byte	0x1
 2697 009d 49       		.uleb128 0x49
 2698 009e 13       		.uleb128 0x13
 2699 009f 01       		.uleb128 0x1
 2700 00a0 13       		.uleb128 0x13
ARM GAS  C:\Users\bmt\AppData\Local\Temp\ccKVUDN8.s 			page 66


 2701 00a1 00       		.byte	0
 2702 00a2 00       		.byte	0
 2703 00a3 0E       		.uleb128 0xe
 2704 00a4 21       		.uleb128 0x21
 2705 00a5 00       		.byte	0
 2706 00a6 49       		.uleb128 0x49
 2707 00a7 13       		.uleb128 0x13
 2708 00a8 2F       		.uleb128 0x2f
 2709 00a9 0B       		.uleb128 0xb
 2710 00aa 00       		.byte	0
 2711 00ab 00       		.byte	0
 2712 00ac 0F       		.uleb128 0xf
 2713 00ad 04       		.uleb128 0x4
 2714 00ae 01       		.byte	0x1
 2715 00af 03       		.uleb128 0x3
 2716 00b0 0E       		.uleb128 0xe
 2717 00b1 0B       		.uleb128 0xb
 2718 00b2 0B       		.uleb128 0xb
 2719 00b3 3A       		.uleb128 0x3a
 2720 00b4 0B       		.uleb128 0xb
 2721 00b5 3B       		.uleb128 0x3b
 2722 00b6 0B       		.uleb128 0xb
 2723 00b7 01       		.uleb128 0x1
 2724 00b8 13       		.uleb128 0x13
 2725 00b9 00       		.byte	0
 2726 00ba 00       		.byte	0
 2727 00bb 10       		.uleb128 0x10
 2728 00bc 28       		.uleb128 0x28
 2729 00bd 00       		.byte	0
 2730 00be 03       		.uleb128 0x3
 2731 00bf 0E       		.uleb128 0xe
 2732 00c0 1C       		.uleb128 0x1c
 2733 00c1 0D       		.uleb128 0xd
 2734 00c2 00       		.byte	0
 2735 00c3 00       		.byte	0
 2736 00c4 11       		.uleb128 0x11
 2737 00c5 2E       		.uleb128 0x2e
 2738 00c6 01       		.byte	0x1
 2739 00c7 03       		.uleb128 0x3
 2740 00c8 0E       		.uleb128 0xe
 2741 00c9 3A       		.uleb128 0x3a
 2742 00ca 0B       		.uleb128 0xb
 2743 00cb 3B       		.uleb128 0x3b
 2744 00cc 05       		.uleb128 0x5
 2745 00cd 27       		.uleb128 0x27
 2746 00ce 19       		.uleb128 0x19
 2747 00cf 11       		.uleb128 0x11
 2748 00d0 01       		.uleb128 0x1
 2749 00d1 12       		.uleb128 0x12
 2750 00d2 06       		.uleb128 0x6
 2751 00d3 40       		.uleb128 0x40
 2752 00d4 18       		.uleb128 0x18
 2753 00d5 9742     		.uleb128 0x2117
 2754 00d7 19       		.uleb128 0x19
 2755 00d8 01       		.uleb128 0x1
 2756 00d9 13       		.uleb128 0x13
 2757 00da 00       		.byte	0
ARM GAS  C:\Users\bmt\AppData\Local\Temp\ccKVUDN8.s 			page 67


 2758 00db 00       		.byte	0
 2759 00dc 12       		.uleb128 0x12
 2760 00dd 05       		.uleb128 0x5
 2761 00de 00       		.byte	0
 2762 00df 03       		.uleb128 0x3
 2763 00e0 0E       		.uleb128 0xe
 2764 00e1 3A       		.uleb128 0x3a
 2765 00e2 0B       		.uleb128 0xb
 2766 00e3 3B       		.uleb128 0x3b
 2767 00e4 05       		.uleb128 0x5
 2768 00e5 49       		.uleb128 0x49
 2769 00e6 13       		.uleb128 0x13
 2770 00e7 02       		.uleb128 0x2
 2771 00e8 18       		.uleb128 0x18
 2772 00e9 00       		.byte	0
 2773 00ea 00       		.byte	0
 2774 00eb 13       		.uleb128 0x13
 2775 00ec 34       		.uleb128 0x34
 2776 00ed 00       		.byte	0
 2777 00ee 03       		.uleb128 0x3
 2778 00ef 0E       		.uleb128 0xe
 2779 00f0 3A       		.uleb128 0x3a
 2780 00f1 0B       		.uleb128 0xb
 2781 00f2 3B       		.uleb128 0x3b
 2782 00f3 05       		.uleb128 0x5
 2783 00f4 49       		.uleb128 0x49
 2784 00f5 13       		.uleb128 0x13
 2785 00f6 02       		.uleb128 0x2
 2786 00f7 18       		.uleb128 0x18
 2787 00f8 00       		.byte	0
 2788 00f9 00       		.byte	0
 2789 00fa 14       		.uleb128 0x14
 2790 00fb 2E       		.uleb128 0x2e
 2791 00fc 01       		.byte	0x1
 2792 00fd 03       		.uleb128 0x3
 2793 00fe 0E       		.uleb128 0xe
 2794 00ff 3A       		.uleb128 0x3a
 2795 0100 0B       		.uleb128 0xb
 2796 0101 3B       		.uleb128 0x3b
 2797 0102 05       		.uleb128 0x5
 2798 0103 27       		.uleb128 0x27
 2799 0104 19       		.uleb128 0x19
 2800 0105 11       		.uleb128 0x11
 2801 0106 01       		.uleb128 0x1
 2802 0107 12       		.uleb128 0x12
 2803 0108 06       		.uleb128 0x6
 2804 0109 40       		.uleb128 0x40
 2805 010a 18       		.uleb128 0x18
 2806 010b 9642     		.uleb128 0x2116
 2807 010d 19       		.uleb128 0x19
 2808 010e 01       		.uleb128 0x1
 2809 010f 13       		.uleb128 0x13
 2810 0110 00       		.byte	0
 2811 0111 00       		.byte	0
 2812 0112 15       		.uleb128 0x15
 2813 0113 2E       		.uleb128 0x2e
 2814 0114 01       		.byte	0x1
ARM GAS  C:\Users\bmt\AppData\Local\Temp\ccKVUDN8.s 			page 68


 2815 0115 3F       		.uleb128 0x3f
 2816 0116 19       		.uleb128 0x19
 2817 0117 03       		.uleb128 0x3
 2818 0118 0E       		.uleb128 0xe
 2819 0119 3A       		.uleb128 0x3a
 2820 011a 0B       		.uleb128 0xb
 2821 011b 3B       		.uleb128 0x3b
 2822 011c 05       		.uleb128 0x5
 2823 011d 27       		.uleb128 0x27
 2824 011e 19       		.uleb128 0x19
 2825 011f 49       		.uleb128 0x49
 2826 0120 13       		.uleb128 0x13
 2827 0121 11       		.uleb128 0x11
 2828 0122 01       		.uleb128 0x1
 2829 0123 12       		.uleb128 0x12
 2830 0124 06       		.uleb128 0x6
 2831 0125 40       		.uleb128 0x40
 2832 0126 18       		.uleb128 0x18
 2833 0127 9642     		.uleb128 0x2116
 2834 0129 19       		.uleb128 0x19
 2835 012a 01       		.uleb128 0x1
 2836 012b 13       		.uleb128 0x13
 2837 012c 00       		.byte	0
 2838 012d 00       		.byte	0
 2839 012e 16       		.uleb128 0x16
 2840 012f 05       		.uleb128 0x5
 2841 0130 00       		.byte	0
 2842 0131 03       		.uleb128 0x3
 2843 0132 08       		.uleb128 0x8
 2844 0133 3A       		.uleb128 0x3a
 2845 0134 0B       		.uleb128 0xb
 2846 0135 3B       		.uleb128 0x3b
 2847 0136 05       		.uleb128 0x5
 2848 0137 49       		.uleb128 0x49
 2849 0138 13       		.uleb128 0x13
 2850 0139 02       		.uleb128 0x2
 2851 013a 18       		.uleb128 0x18
 2852 013b 00       		.byte	0
 2853 013c 00       		.byte	0
 2854 013d 17       		.uleb128 0x17
 2855 013e 18       		.uleb128 0x18
 2856 013f 00       		.byte	0
 2857 0140 00       		.byte	0
 2858 0141 00       		.byte	0
 2859 0142 18       		.uleb128 0x18
 2860 0143 15       		.uleb128 0x15
 2861 0144 01       		.byte	0x1
 2862 0145 27       		.uleb128 0x27
 2863 0146 19       		.uleb128 0x19
 2864 0147 01       		.uleb128 0x1
 2865 0148 13       		.uleb128 0x13
 2866 0149 00       		.byte	0
 2867 014a 00       		.byte	0
 2868 014b 19       		.uleb128 0x19
 2869 014c 05       		.uleb128 0x5
 2870 014d 00       		.byte	0
 2871 014e 49       		.uleb128 0x49
ARM GAS  C:\Users\bmt\AppData\Local\Temp\ccKVUDN8.s 			page 69


 2872 014f 13       		.uleb128 0x13
 2873 0150 00       		.byte	0
 2874 0151 00       		.byte	0
 2875 0152 1A       		.uleb128 0x1a
 2876 0153 26       		.uleb128 0x26
 2877 0154 00       		.byte	0
 2878 0155 49       		.uleb128 0x49
 2879 0156 13       		.uleb128 0x13
 2880 0157 00       		.byte	0
 2881 0158 00       		.byte	0
 2882 0159 1B       		.uleb128 0x1b
 2883 015a 2E       		.uleb128 0x2e
 2884 015b 01       		.byte	0x1
 2885 015c 03       		.uleb128 0x3
 2886 015d 0E       		.uleb128 0xe
 2887 015e 3A       		.uleb128 0x3a
 2888 015f 0B       		.uleb128 0xb
 2889 0160 3B       		.uleb128 0x3b
 2890 0161 05       		.uleb128 0x5
 2891 0162 27       		.uleb128 0x27
 2892 0163 19       		.uleb128 0x19
 2893 0164 49       		.uleb128 0x49
 2894 0165 13       		.uleb128 0x13
 2895 0166 11       		.uleb128 0x11
 2896 0167 01       		.uleb128 0x1
 2897 0168 12       		.uleb128 0x12
 2898 0169 06       		.uleb128 0x6
 2899 016a 40       		.uleb128 0x40
 2900 016b 18       		.uleb128 0x18
 2901 016c 9742     		.uleb128 0x2117
 2902 016e 19       		.uleb128 0x19
 2903 016f 01       		.uleb128 0x1
 2904 0170 13       		.uleb128 0x13
 2905 0171 00       		.byte	0
 2906 0172 00       		.byte	0
 2907 0173 1C       		.uleb128 0x1c
 2908 0174 34       		.uleb128 0x34
 2909 0175 00       		.byte	0
 2910 0176 03       		.uleb128 0x3
 2911 0177 08       		.uleb128 0x8
 2912 0178 3A       		.uleb128 0x3a
 2913 0179 0B       		.uleb128 0xb
 2914 017a 3B       		.uleb128 0x3b
 2915 017b 05       		.uleb128 0x5
 2916 017c 49       		.uleb128 0x49
 2917 017d 13       		.uleb128 0x13
 2918 017e 02       		.uleb128 0x2
 2919 017f 18       		.uleb128 0x18
 2920 0180 00       		.byte	0
 2921 0181 00       		.byte	0
 2922 0182 1D       		.uleb128 0x1d
 2923 0183 2E       		.uleb128 0x2e
 2924 0184 01       		.byte	0x1
 2925 0185 03       		.uleb128 0x3
 2926 0186 0E       		.uleb128 0xe
 2927 0187 3A       		.uleb128 0x3a
 2928 0188 0B       		.uleb128 0xb
ARM GAS  C:\Users\bmt\AppData\Local\Temp\ccKVUDN8.s 			page 70


 2929 0189 3B       		.uleb128 0x3b
 2930 018a 05       		.uleb128 0x5
 2931 018b 27       		.uleb128 0x27
 2932 018c 19       		.uleb128 0x19
 2933 018d 49       		.uleb128 0x49
 2934 018e 13       		.uleb128 0x13
 2935 018f 11       		.uleb128 0x11
 2936 0190 01       		.uleb128 0x1
 2937 0191 12       		.uleb128 0x12
 2938 0192 06       		.uleb128 0x6
 2939 0193 40       		.uleb128 0x40
 2940 0194 18       		.uleb128 0x18
 2941 0195 9642     		.uleb128 0x2116
 2942 0197 19       		.uleb128 0x19
 2943 0198 01       		.uleb128 0x1
 2944 0199 13       		.uleb128 0x13
 2945 019a 00       		.byte	0
 2946 019b 00       		.byte	0
 2947 019c 1E       		.uleb128 0x1e
 2948 019d 34       		.uleb128 0x34
 2949 019e 00       		.byte	0
 2950 019f 03       		.uleb128 0x3
 2951 01a0 0E       		.uleb128 0xe
 2952 01a1 3A       		.uleb128 0x3a
 2953 01a2 0B       		.uleb128 0xb
 2954 01a3 3B       		.uleb128 0x3b
 2955 01a4 0B       		.uleb128 0xb
 2956 01a5 49       		.uleb128 0x49
 2957 01a6 13       		.uleb128 0x13
 2958 01a7 02       		.uleb128 0x2
 2959 01a8 18       		.uleb128 0x18
 2960 01a9 00       		.byte	0
 2961 01aa 00       		.byte	0
 2962 01ab 00       		.byte	0
 2963              		.section	.debug_aranges,"",%progbits
 2964 0000 4C000000 		.4byte	0x4c
 2965 0004 0200     		.2byte	0x2
 2966 0006 00000000 		.4byte	.Ldebug_info0
 2967 000a 04       		.byte	0x4
 2968 000b 00       		.byte	0
 2969 000c 0000     		.2byte	0
 2970 000e 0000     		.2byte	0
 2971 0010 00000000 		.4byte	.LFB0
 2972 0014 D4000000 		.4byte	.LFE0-.LFB0
 2973 0018 00000000 		.4byte	.LFB1
 2974 001c 08010000 		.4byte	.LFE1-.LFB1
 2975 0020 00000000 		.4byte	.LFB2
 2976 0024 30000000 		.4byte	.LFE2-.LFB2
 2977 0028 00000000 		.4byte	.LFB3
 2978 002c 2E000000 		.4byte	.LFE3-.LFB3
 2979 0030 00000000 		.4byte	.LFB4
 2980 0034 62000000 		.4byte	.LFE4-.LFB4
 2981 0038 00000000 		.4byte	.LFB5
 2982 003c 3A000000 		.4byte	.LFE5-.LFB5
 2983 0040 00000000 		.4byte	.LFB6
 2984 0044 74080000 		.4byte	.LFE6-.LFB6
 2985 0048 00000000 		.4byte	0
ARM GAS  C:\Users\bmt\AppData\Local\Temp\ccKVUDN8.s 			page 71


 2986 004c 00000000 		.4byte	0
 2987              		.section	.debug_ranges,"",%progbits
 2988              	.Ldebug_ranges0:
 2989 0000 00000000 		.4byte	.LFB0
 2990 0004 D4000000 		.4byte	.LFE0
 2991 0008 00000000 		.4byte	.LFB1
 2992 000c 08010000 		.4byte	.LFE1
 2993 0010 00000000 		.4byte	.LFB2
 2994 0014 30000000 		.4byte	.LFE2
 2995 0018 00000000 		.4byte	.LFB3
 2996 001c 2E000000 		.4byte	.LFE3
 2997 0020 00000000 		.4byte	.LFB4
 2998 0024 62000000 		.4byte	.LFE4
 2999 0028 00000000 		.4byte	.LFB5
 3000 002c 3A000000 		.4byte	.LFE5
 3001 0030 00000000 		.4byte	.LFB6
 3002 0034 74080000 		.4byte	.LFE6
 3003 0038 00000000 		.4byte	0
 3004 003c 00000000 		.4byte	0
 3005              		.section	.debug_line,"",%progbits
 3006              	.Ldebug_line0:
 3007 0000 D9020000 		.section	.debug_str,"MS",%progbits,1
 3007      0200B100 
 3007      00000201 
 3007      FB0E0D00 
 3007      01010101 
 3008              	.LASF39:
 3009 0000 43485F44 		.ascii	"CH_DOT\000"
 3009      4F5400
 3010              	.LASF60:
 3011 0007 6D735F6E 		.ascii	"ms_null\000"
 3011      756C6C00 
 3012              	.LASF44:
 3013 000f 43485F53 		.ascii	"CH_SIZE\000"
 3013      495A4500 
 3014              	.LASF22:
 3015 0017 73746174 		.ascii	"state\000"
 3015      6500
 3016              	.LASF38:
 3017 001d 43485F50 		.ascii	"CH_PERCENT\000"
 3017      45524345 
 3017      4E5400
 3018              	.LASF31:
 3019 0028 53545F44 		.ascii	"ST_DOT\000"
 3019      4F5400
 3020              	.LASF20:
 3021 002f 62756666 		.ascii	"buffer\000"
 3021      657200
 3022              	.LASF52:
 3023 0036 78737472 		.ascii	"xstrlen\000"
 3023      6C656E00 
 3024              	.LASF4:
 3025 003e 6C6C7661 		.ascii	"llvalue\000"
 3025      6C756500 
 3026              	.LASF5:
 3027 0046 6476616C 		.ascii	"dvalue\000"
 3027      756500
ARM GAS  C:\Users\bmt\AppData\Local\Temp\ccKVUDN8.s 			page 72


 3028              	.LASF43:
 3029 004d 43485F46 		.ascii	"CH_FLAG\000"
 3029      4C414700 
 3030              	.LASF36:
 3031 0055 43686172 		.ascii	"CharClass\000"
 3031      436C6173 
 3031      7300
 3032              	.LASF65:
 3033 005f 474E5520 		.ascii	"GNU C 4.9.3 20150303 (release) [ARM/embedded-4_9-br"
 3033      4320342E 
 3033      392E3320 
 3033      32303135 
 3033      30333033 
 3034 0092 616E6368 		.ascii	"anch revision 221220] -mcpu=cortex-m3 -mthumb -g -O"
 3034      20726576 
 3034      6973696F 
 3034      6E203232 
 3034      31323230 
 3035 00c5 30202D66 		.ascii	"0 -ffunction-sections -ffat-lto-objects\000"
 3035      66756E63 
 3035      74696F6E 
 3035      2D736563 
 3035      74696F6E 
 3036              	.LASF42:
 3037 00ed 43485F44 		.ascii	"CH_DIGIT\000"
 3037      49474954 
 3037      00
 3038              	.LASF12:
 3039 00f6 69506172 		.ascii	"iPart\000"
 3039      7400
 3040              	.LASF21:
 3041 00fc 72616469 		.ascii	"radix\000"
 3041      7800
 3042              	.LASF63:
 3043 0102 6D735F64 		.ascii	"ms_digits\000"
 3043      69676974 
 3043      7300
 3044              	.LASF57:
 3045 010c 78666F72 		.ascii	"xformat\000"
 3045      6D617400 
 3046              	.LASF54:
 3047 0114 6D796F75 		.ascii	"myoutchar\000"
 3047      74636861 
 3047      7200
 3048              	.LASF34:
 3049 011e 53545F54 		.ascii	"ST_TYPE\000"
 3049      59504500 
 3050              	.LASF0:
 3051 0126 5F5F676E 		.ascii	"__gnuc_va_list\000"
 3051      75635F76 
 3051      615F6C69 
 3051      737400
 3052              	.LASF33:
 3053 0135 53545F53 		.ascii	"ST_SIZE\000"
 3053      495A4500 
 3054              	.LASF27:
 3055 013d 53545F4E 		.ascii	"ST_NORMAL\000"
ARM GAS  C:\Users\bmt\AppData\Local\Temp\ccKVUDN8.s 			page 73


 3055      4F524D41 
 3055      4C00
 3056              	.LASF26:
 3057 0147 756E7369 		.ascii	"unsigned char\000"
 3057      676E6564 
 3057      20636861 
 3057      7200
 3058              	.LASF6:
 3059 0155 6C6F6E67 		.ascii	"long unsigned int\000"
 3059      20756E73 
 3059      69676E65 
 3059      6420696E 
 3059      7400
 3060              	.LASF47:
 3061 0167 756C6C6F 		.ascii	"ullong2a\000"
 3061      6E673261 
 3061      00
 3062              	.LASF51:
 3063 0170 6C697374 		.ascii	"list\000"
 3063      00
 3064              	.LASF24:
 3065 0175 756E7369 		.ascii	"unsigned int\000"
 3065      676E6564 
 3065      20696E74 
 3065      00
 3066              	.LASF29:
 3067 0182 53545F46 		.ascii	"ST_FLAG\000"
 3067      4C414700 
 3068              	.LASF48:
 3069 018a 70617261 		.ascii	"param\000"
 3069      6D00
 3070              	.LASF1:
 3071 0190 76615F6C 		.ascii	"va_list\000"
 3071      69737400 
 3072              	.LASF59:
 3073 0198 5F617267 		.ascii	"_args\000"
 3073      7300
 3074              	.LASF28:
 3075 019e 53545F50 		.ascii	"ST_PERCENT\000"
 3075      45524345 
 3075      4E5400
 3076              	.LASF19:
 3077 01a9 70726566 		.ascii	"prefix\000"
 3077      697800
 3078              	.LASF8:
 3079 01b0 646F7562 		.ascii	"double\000"
 3079      6C6500
 3080              	.LASF18:
 3081 01b7 70726566 		.ascii	"prefixlen\000"
 3081      69786C65 
 3081      6E00
 3082              	.LASF45:
 3083 01c1 43485F54 		.ascii	"CH_TYPE\000"
 3083      59504500 
 3084              	.LASF30:
 3085 01c9 53545F57 		.ascii	"ST_WIDTH\000"
 3085      49445448 
ARM GAS  C:\Users\bmt\AppData\Local\Temp\ccKVUDN8.s 			page 74


 3085      00
 3086              	.LASF66:
 3087 01d2 78666F72 		.ascii	"xformatc.c\000"
 3087      6D617463 
 3087      2E6300
 3088              	.LASF53:
 3089 01dd 6F757442 		.ascii	"outBuffer\000"
 3089      75666665 
 3089      7200
 3090              	.LASF17:
 3091 01e7 666C6167 		.ascii	"flags\000"
 3091      7300
 3092              	.LASF3:
 3093 01ed 6C76616C 		.ascii	"lvalue\000"
 3093      756500
 3094              	.LASF46:
 3095 01f4 756C6F6E 		.ascii	"ulong2a\000"
 3095      67326100 
 3096              	.LASF7:
 3097 01fc 6C6F6E67 		.ascii	"long long unsigned int\000"
 3097      206C6F6E 
 3097      6720756E 
 3097      7369676E 
 3097      65642069 
 3098              	.LASF2:
 3099 0213 5F5F6170 		.ascii	"__ap\000"
 3099      00
 3100              	.LASF56:
 3101 0218 6F757443 		.ascii	"outChars\000"
 3101      68617273 
 3101      00
 3102              	.LASF58:
 3103 0221 7876666F 		.ascii	"xvformat\000"
 3103      726D6174 
 3103      00
 3104              	.LASF25:
 3105 022a 73697A65 		.ascii	"sizetype\000"
 3105      74797065 
 3105      00
 3106              	.LASF55:
 3107 0233 746F7570 		.ascii	"toupper\000"
 3107      70657200 
 3108              	.LASF9:
 3109 023b 5F5F7661 		.ascii	"__va_list\000"
 3109      5F6C6973 
 3109      7400
 3110              	.LASF49:
 3111 0245 64696769 		.ascii	"digit\000"
 3111      7400
 3112              	.LASF23:
 3113 024b 63686172 		.ascii	"char\000"
 3113      00
 3114              	.LASF11:
 3115 0250 76616C75 		.ascii	"values\000"
 3115      657300
 3116              	.LASF40:
 3117 0257 43485F53 		.ascii	"CH_STAR\000"
ARM GAS  C:\Users\bmt\AppData\Local\Temp\ccKVUDN8.s 			page 75


 3117      54415200 
 3118              	.LASF15:
 3119 025f 77696474 		.ascii	"width\000"
 3119      6800
 3120              	.LASF16:
 3121 0265 636F756E 		.ascii	"count\000"
 3121      7400
 3122              	.LASF50:
 3123 026b 6F757463 		.ascii	"outchar\000"
 3123      68617200 
 3124              	.LASF64:
 3125 0273 666F726D 		.ascii	"formatStates\000"
 3125      61745374 
 3125      61746573 
 3125      00
 3126              	.LASF14:
 3127 0280 70726563 		.ascii	"prec\000"
 3127      00
 3128              	.LASF32:
 3129 0285 53545F50 		.ascii	"ST_PRECIS\000"
 3129      52454349 
 3129      5300
 3130              	.LASF62:
 3131 028f 6D735F66 		.ascii	"ms_false\000"
 3131      616C7365 
 3131      00
 3132              	.LASF37:
 3133 0298 43485F4F 		.ascii	"CH_OTHER\000"
 3133      54484552 
 3133      00
 3134              	.LASF61:
 3135 02a1 6D735F74 		.ascii	"ms_true\000"
 3135      72756500 
 3136              	.LASF35:
 3137 02a9 53746174 		.ascii	"State\000"
 3137      6500
 3138              	.LASF13:
 3139 02af 6C656E67 		.ascii	"length\000"
 3139      746800
 3140              	.LASF10:
 3141 02b6 70617261 		.ascii	"param_s\000"
 3141      6D5F7300 
 3142              	.LASF67:
 3143 02be 433A5C55 		.ascii	"C:\\Users\\bmt\\Documents\\GitHub\\FreeRTOS_CY8CKIT"
 3143      73657273 
 3143      5C626D74 
 3143      5C446F63 
 3143      756D656E 
 3144 02ec 5F303539 		.ascii	"_059\\FreeRTOS_Demo.cydsn\000"
 3144      5C467265 
 3144      6552544F 
 3144      535F4465 
 3144      6D6F2E63 
 3145              	.LASF41:
 3146 0305 43485F5A 		.ascii	"CH_ZERO\000"
 3146      45524F00 
 3147              		.ident	"GCC: (GNU Tools for ARM Embedded Processors) 4.9.3 20150303 (release) [ARM/embedded-4_9-br
ARM GAS  C:\Users\bmt\AppData\Local\Temp\ccKVUDN8.s 			page 76


