ARM GAS  C:\Users\bmt\AppData\Local\Temp\ccKVUDN8.s 			page 1


   1              		.syntax unified
   2              		.cpu cortex-m3
   3              		.fpu softvfp
   4              		.eabi_attribute 20, 1
   5              		.eabi_attribute 21, 1
   6              		.eabi_attribute 23, 3
   7              		.eabi_attribute 24, 1
   8              		.eabi_attribute 25, 1
   9              		.eabi_attribute 26, 1
  10              		.eabi_attribute 30, 6
  11              		.eabi_attribute 34, 1
  12              		.eabi_attribute 18, 4
  13              		.thumb
  14              		.file	"xformatc.c"
  15              		.text
  16              	.Ltext0:
  17              		.cfi_sections	.debug_frame
  18              		.section	.rodata
  19              		.align	2
  20              		.type	ms_null, %object
  21              		.size	ms_null, 7
  22              	ms_null:
  23 0000 286E756C 		.ascii	"(null)\000"
  23      6C2900
  24 0007 00       		.align	2
  25              		.type	ms_true, %object
  26              		.size	ms_true, 5
  27              	ms_true:
  28 0008 54727565 		.ascii	"True\000"
  28      00
  29 000d 000000   		.align	2
  30              		.type	ms_false, %object
  31              		.size	ms_false, 6
  32              	ms_false:
  33 0010 46616C73 		.ascii	"False\000"
  33      6500
  34 0016 0000     		.align	2
  35              		.type	ms_digits, %object
  36              		.size	ms_digits, 17
  37              	ms_digits:
  38 0018 30313233 		.ascii	"0123456789abcdef\000"
  38      34353637 
  38      38396162 
  38      63646566 
  38      00
  39 0029 000000   		.align	2
  40              		.type	formatStates, %object
  41              		.size	formatStates, 91
  42              	formatStates:
  43 002c 06       		.byte	6
  44 002d 00       		.byte	0
  45 002e 00       		.byte	0
  46 002f 06       		.byte	6
  47 0030 00       		.byte	0
  48 0031 01       		.byte	1
  49 0032 00       		.byte	0
  50 0033 00       		.byte	0
ARM GAS  C:\Users\bmt\AppData\Local\Temp\ccKVUDN8.s 			page 2


  51 0034 10       		.byte	16
  52 0035 00       		.byte	0
  53 0036 03       		.byte	3
  54 0037 06       		.byte	6
  55 0038 00       		.byte	0
  56 0039 06       		.byte	6
  57 003a 02       		.byte	2
  58 003b 10       		.byte	16
  59 003c 04       		.byte	4
  60 003d 45       		.byte	69
  61 003e 45       		.byte	69
  62 003f 45       		.byte	69
  63 0040 45       		.byte	69
  64 0041 05       		.byte	5
  65 0042 05       		.byte	5
  66 0043 05       		.byte	5
  67 0044 05       		.byte	5
  68 0045 35       		.byte	53
  69 0046 30       		.byte	48
  70 0047 00       		.byte	0
  71 0048 50       		.byte	80
  72 0049 60       		.byte	96
  73 004a 00       		.byte	0
  74 004b 00       		.byte	0
  75 004c 00       		.byte	0
  76 004d 20       		.byte	32
  77 004e 28       		.byte	40
  78 004f 38       		.byte	56
  79 0050 50       		.byte	80
  80 0051 50       		.byte	80
  81 0052 00       		.byte	0
  82 0053 00       		.byte	0
  83 0054 00       		.byte	0
  84 0055 30       		.byte	48
  85 0056 30       		.byte	48
  86 0057 30       		.byte	48
  87 0058 50       		.byte	80
  88 0059 50       		.byte	80
  89 005a 00       		.byte	0
  90 005b 00       		.byte	0
  91 005c 08       		.byte	8
  92 005d 20       		.byte	32
  93 005e 20       		.byte	32
  94 005f 28       		.byte	40
  95 0060 20       		.byte	32
  96 0061 20       		.byte	32
  97 0062 20       		.byte	32
  98 0063 00       		.byte	0
  99 0064 08       		.byte	8
 100 0065 60       		.byte	96
 101 0066 60       		.byte	96
 102 0067 60       		.byte	96
 103 0068 60       		.byte	96
 104 0069 60       		.byte	96
 105 006a 60       		.byte	96
 106 006b 00       		.byte	0
 107 006c 00       		.byte	0
ARM GAS  C:\Users\bmt\AppData\Local\Temp\ccKVUDN8.s 			page 3


 108 006d 70       		.byte	112
 109 006e 78       		.byte	120
 110 006f 78       		.byte	120
 111 0070 78       		.byte	120
 112 0071 70       		.byte	112
 113 0072 78       		.byte	120
 114 0073 00       		.byte	0
 115 0074 07       		.byte	7
 116 0075 08       		.byte	8
 117 0076 00       		.byte	0
 118 0077 00       		.byte	0
 119 0078 07       		.byte	7
 120 0079 00       		.byte	0
 121 007a 00       		.byte	0
 122 007b 08       		.byte	8
 123 007c 08       		.byte	8
 124 007d 00       		.byte	0
 125 007e 00       		.byte	0
 126 007f 08       		.byte	8
 127 0080 00       		.byte	0
 128 0081 08       		.byte	8
 129 0082 00       		.byte	0
 130 0083 00       		.byte	0
 131 0084 08       		.byte	8
 132 0085 00       		.byte	0
 133 0086 07       		.byte	7
 134 0087 00       		.section	.text.ulong2a,"ax",%progbits
 135              		.align	2
 136              		.thumb
 137              		.thumb_func
 138              		.type	ulong2a, %function
 139              	ulong2a:
 140              	.LFB0:
 141              		.file 1 "xformatc.c"
   1:xformatc.c    **** /**
   2:xformatc.c    ****  * @file	xformatc.c
   3:xformatc.c    ****  *
   4:xformatc.c    ****  * @brief	Printf C implementation.
   5:xformatc.c    ****  *
   6:xformatc.c    ****  * Tested wuth the following operating systems / compilers :
   7:xformatc.c    ****  *
   8:xformatc.c    ****  * - Visual studio 6
   9:xformatc.c    ****  * - Visual studio 2008 / Windows CE
  10:xformatc.c    ****  * - MinGw 32
  11:xformatc.c    ****  * - Linux i686
  12:xformatc.c    ****  * - Linux x86_64
  13:xformatc.c    ****  * - GCC wiith embedded ARM.
  14:xformatc.c    ****  * - Linux armel
  15:xformatc.c    ****  * - HCS08 with Freescale compiler.
  16:xformatc.c    ****  * - SDCC (Z80 and 8051)
  17:xformatc.c    ****  * 
  18:xformatc.c    ****  * @author	Mario Viara
  19:xformatc.c    ****  * 
  20:xformatc.c    ****  * 
  21:xformatc.c    ****  * @copyright	Copyright Mario Viara 2014	- License Open Source (LGPL)
  22:xformatc.c    ****  * This is a free software and is opened for education, research and commercial
  23:xformatc.c    ****  * developments under license policy of following terms:
ARM GAS  C:\Users\bmt\AppData\Local\Temp\ccKVUDN8.s 			page 4


  24:xformatc.c    ****  * 
  25:xformatc.c    ****  * - This is a free software and there is NO WARRANTY.
  26:xformatc.c    ****  * - No restriction on use. You can use, modify and redistribute it for personal,
  27:xformatc.c    ****  *	 non-profit or commercial product UNDER YOUR RESPONSIBILITY.
  28:xformatc.c    ****  * - Redistributions of source code must retain the above copyright notice.
  29:xformatc.c    ****  *
  30:xformatc.c    ****  * To contact the author send an email to mario_at_viara.eu
  31:xformatc.c    ****  *
  32:xformatc.c    ****  */
  33:xformatc.c    **** #ifdef HAVE_CONFIG_H
  34:xformatc.c    **** #include "config.h"
  35:xformatc.c    **** #endif
  36:xformatc.c    **** 
  37:xformatc.c    **** #include  "xformatc.h"
  38:xformatc.c    **** 
  39:xformatc.c    **** 
  40:xformatc.c    **** 
  41:xformatc.c    **** /**
  42:xformatc.c    ****  * Default largest int is long
  43:xformatc.c    ****  */
  44:xformatc.c    **** #ifndef	LONG
  45:xformatc.c    **** #define	LONG	long
  46:xformatc.c    **** #endif
  47:xformatc.c    **** 
  48:xformatc.c    **** /**
  49:xformatc.c    ****  * Define the double type if not defined
  50:xformatc.c    ****  */
  51:xformatc.c    **** #ifndef DOUBLE
  52:xformatc.c    **** #define DOUBLE	double
  53:xformatc.c    **** #endif
  54:xformatc.c    **** 
  55:xformatc.c    **** 
  56:xformatc.c    **** /**
  57:xformatc.c    ****  * Default long long type
  58:xformatc.c    ****  */
  59:xformatc.c    **** #ifndef LONGLONG
  60:xformatc.c    **** #define LONGLONG   long long
  61:xformatc.c    **** #endif
  62:xformatc.c    **** 
  63:xformatc.c    **** 
  64:xformatc.c    **** /**
  65:xformatc.c    ****  * Definition to convert integer part of floating point
  66:xformatc.c    ****  * number if supported we use the long long type
  67:xformatc.c    ****  */
  68:xformatc.c    **** #if XCFG_FORMAT_LONGLONG
  69:xformatc.c    **** #define	FLOAT_LONG		LONGLONG
  70:xformatc.c    **** #define FLOAT_VALUE		llvalue
  71:xformatc.c    **** #define FLOAT_TYPE		FLAG_TYPE_LONGLONG
  72:xformatc.c    **** #else
  73:xformatc.c    **** #define FLOAT_LONG		LONG
  74:xformatc.c    **** #define FLOAT_VALUE		lvalue
  75:xformatc.c    **** #define FLOAT_TYPE		FLAG_TYPE_LONG
  76:xformatc.c    **** #endif
  77:xformatc.c    **** 
  78:xformatc.c    **** /**
  79:xformatc.c    ****  * Structure with all parameter used
  80:xformatc.c    ****  */
ARM GAS  C:\Users\bmt\AppData\Local\Temp\ccKVUDN8.s 			page 5


  81:xformatc.c    **** struct param_s
  82:xformatc.c    **** {
  83:xformatc.c    **** 	/**
  84:xformatc.c    **** 	 * Buffer for current integer value and for temporary
  85:xformatc.c    **** 	 * double value defined as union to save stack.
  86:xformatc.c    **** 	 */
  87:xformatc.c    **** 	union
  88:xformatc.c    **** 	{
  89:xformatc.c    **** 		unsigned LONG		lvalue;
  90:xformatc.c    **** #if XCFG_FORMAT_LONGLONG
  91:xformatc.c    **** 		unsigned LONGLONG	llvalue;
  92:xformatc.c    **** #endif
  93:xformatc.c    **** #if XCFG_FORMAT_FLOAT
  94:xformatc.c    **** 		DOUBLE				dvalue;
  95:xformatc.c    **** #endif
  96:xformatc.c    **** 	} values;
  97:xformatc.c    **** 
  98:xformatc.c    **** 	/**
  99:xformatc.c    **** 	 * Pointer to the output buffer
 100:xformatc.c    **** 	 */
 101:xformatc.c    **** 	char*		out;
 102:xformatc.c    **** 
 103:xformatc.c    **** #if XCFG_FORMAT_FLOAT
 104:xformatc.c    **** 	/**
 105:xformatc.c    **** 	 * Floating point argument
 106:xformatc.c    **** 	 */
 107:xformatc.c    **** 	DOUBLE		dbl;
 108:xformatc.c    **** 
 109:xformatc.c    **** 	/**
 110:xformatc.c    **** 	 * Integer part of floating point
 111:xformatc.c    **** 	 */
 112:xformatc.c    **** 	unsigned FLOAT_LONG	iPart;
 113:xformatc.c    **** 
 114:xformatc.c    **** #endif
 115:xformatc.c    **** 
 116:xformatc.c    **** 	
 117:xformatc.c    **** 	/**
 118:xformatc.c    **** 	 * Current length of the output buffer
 119:xformatc.c    **** 	 */
 120:xformatc.c    **** 	int		length;
 121:xformatc.c    **** 
 122:xformatc.c    **** 	/**
 123:xformatc.c    **** 	 * Field precision
 124:xformatc.c    **** 	 */
 125:xformatc.c    **** 	int		prec;
 126:xformatc.c    **** 
 127:xformatc.c    **** 	/**
 128:xformatc.c    **** 	 * Field width
 129:xformatc.c    **** 	 */
 130:xformatc.c    **** 	int		width;
 131:xformatc.c    **** 
 132:xformatc.c    **** 
 133:xformatc.c    **** 	/**
 134:xformatc.c    **** 	 * Count the number of char emitted
 135:xformatc.c    **** 	 */
 136:xformatc.c    **** 	unsigned	count;
 137:xformatc.c    **** 
ARM GAS  C:\Users\bmt\AppData\Local\Temp\ccKVUDN8.s 			page 6


 138:xformatc.c    **** 
 139:xformatc.c    **** 	/**
 140:xformatc.c    **** 	 * Parser flags
 141:xformatc.c    **** 	 */
 142:xformatc.c    **** 	unsigned flags;
 143:xformatc.c    **** 
 144:xformatc.c    **** #define FLAG_TYPE_INT		0x0000	/* Argument is integer					*/
 145:xformatc.c    **** #define FLAG_TYPE_LONG		0x0001	/* Argument is long						*/
 146:xformatc.c    **** #define FLAG_TYPE_SIZEOF	0x0002	/* Argument is size_t					*/
 147:xformatc.c    **** #define FLAG_TYPE_LONGLONG	0x0003	/* Argument is long long				*/
 148:xformatc.c    **** #define	FLAG_TYPE_MASK		0x0003	/* Mask for field type					*/
 149:xformatc.c    **** #define FLAG_PREC			0x0004	/* Precision set						*/
 150:xformatc.c    **** #define FLAG_LEFT			0x0008	/* Left alignment						*/
 151:xformatc.c    **** #define	FLAG_BLANK			0x0010	/* Blank before positive integer number */
 152:xformatc.c    **** #define	FLAG_PREFIX			0x0020	/* Prefix required						*/
 153:xformatc.c    **** #define FLAG_PLUS			0x0040	/* Force a + before positive number		*/
 154:xformatc.c    **** #define	FLAG_UPPER			0x0080	/* Output in upper case letter			*/
 155:xformatc.c    **** #define FLAG_DECIMAL		0x0100	/* Decimal field						*/
 156:xformatc.c    **** #define FLAG_INTEGER		0x0200	/* Integer field						*/
 157:xformatc.c    **** #define FLAG_MINUS			0x0400	/* Field is negative					*/
 158:xformatc.c    **** #define FLAG_VALUE			0x0800	/* Value set							*/
 159:xformatc.c    **** #define FLAG_BUFFER			0x1000	/* Buffer set							*/
 160:xformatc.c    **** 
 161:xformatc.c    **** 	/**
 162:xformatc.c    **** 	 * Length of the prefix
 163:xformatc.c    **** 	 */
 164:xformatc.c    **** 	int		prefixlen;
 165:xformatc.c    **** 
 166:xformatc.c    **** 	/* Buffer to store the field  prefix */
 167:xformatc.c    **** 	char prefix[2];
 168:xformatc.c    **** 
 169:xformatc.c    **** 
 170:xformatc.c    **** 	/** Buffer to store the biggest integer number in binary */
 171:xformatc.c    **** #if XCFG_FORMAT_LONGLONG
 172:xformatc.c    **** 	char		buffer[sizeof(LONGLONG)*8+1];
 173:xformatc.c    **** #else
 174:xformatc.c    **** 	char		buffer[sizeof(LONG)*8+1];
 175:xformatc.c    **** #endif
 176:xformatc.c    **** 
 177:xformatc.c    **** 	/* Radix for ASCII integer conversion */
 178:xformatc.c    **** 	unsigned char	radix;
 179:xformatc.c    **** 
 180:xformatc.c    **** 	/* char used for padding */
 181:xformatc.c    **** 	char		pad;
 182:xformatc.c    **** 
 183:xformatc.c    **** 
 184:xformatc.c    **** 	/**
 185:xformatc.c    **** 	 * Current state
 186:xformatc.c    **** 	 */
 187:xformatc.c    **** 	char		state;
 188:xformatc.c    **** 
 189:xformatc.c    **** };
 190:xformatc.c    **** 
 191:xformatc.c    **** 
 192:xformatc.c    **** /**
 193:xformatc.c    ****  * Enum for the internal state machine
 194:xformatc.c    ****  */ 
ARM GAS  C:\Users\bmt\AppData\Local\Temp\ccKVUDN8.s 			page 7


 195:xformatc.c    **** enum State
 196:xformatc.c    **** {
 197:xformatc.c    **** 	/* Normal state outputting literal */
 198:xformatc.c    **** 	ST_NORMAL = 0,
 199:xformatc.c    **** 
 200:xformatc.c    **** 	/* Just read % */
 201:xformatc.c    **** 	ST_PERCENT = 1,
 202:xformatc.c    **** 
 203:xformatc.c    **** 	/* Just read flag */
 204:xformatc.c    **** 	ST_FLAG = 2,
 205:xformatc.c    **** 
 206:xformatc.c    **** 	/* Just read the width */
 207:xformatc.c    **** 	ST_WIDTH = 3,
 208:xformatc.c    **** 
 209:xformatc.c    **** 	/* Just read '.' */
 210:xformatc.c    **** 	ST_DOT= 4,
 211:xformatc.c    **** 
 212:xformatc.c    **** 	/* Just read the precision */
 213:xformatc.c    **** 	ST_PRECIS = 5,
 214:xformatc.c    **** 
 215:xformatc.c    **** 	/* Just	 read the size */
 216:xformatc.c    **** 	ST_SIZE = 6,
 217:xformatc.c    **** 
 218:xformatc.c    **** 	/* Just read the type specifier */
 219:xformatc.c    **** 	ST_TYPE = 7 
 220:xformatc.c    **** };
 221:xformatc.c    **** 
 222:xformatc.c    **** /**
 223:xformatc.c    ****  * Enum for char class
 224:xformatc.c    ****  */ 
 225:xformatc.c    **** enum CharClass
 226:xformatc.c    **** {
 227:xformatc.c    **** 	/* Other char */
 228:xformatc.c    **** 	CH_OTHER = 0,
 229:xformatc.c    **** 	/* The % char */
 230:xformatc.c    **** 	CH_PERCENT = 1,
 231:xformatc.c    **** 	/* The . char */
 232:xformatc.c    **** 	CH_DOT = 2,
 233:xformatc.c    **** 	/* The * char */
 234:xformatc.c    **** 	CH_STAR = 3,
 235:xformatc.c    **** 	/* The 0 char */
 236:xformatc.c    **** 	CH_ZERO = 4,
 237:xformatc.c    **** 	/* Digit 0-9 */
 238:xformatc.c    **** 	CH_DIGIT = 5,
 239:xformatc.c    **** 	/* Flag chars */
 240:xformatc.c    **** 	CH_FLAG = 6,
 241:xformatc.c    **** 	/* Size chars */
 242:xformatc.c    **** 	CH_SIZE = 7,
 243:xformatc.c    **** 	/* Type chars */
 244:xformatc.c    **** 	CH_TYPE = 8
 245:xformatc.c    **** };
 246:xformatc.c    **** 
 247:xformatc.c    **** 
 248:xformatc.c    **** 
 249:xformatc.c    **** /**
 250:xformatc.c    ****  * String used when %s is a null parameter
 251:xformatc.c    ****  */
ARM GAS  C:\Users\bmt\AppData\Local\Temp\ccKVUDN8.s 			page 8


 252:xformatc.c    **** static const char  ms_null[] = "(null)";
 253:xformatc.c    **** /*
 254:xformatc.c    ****  * String for true value
 255:xformatc.c    ****  */
 256:xformatc.c    **** static const char  ms_true[] = "True";
 257:xformatc.c    **** 
 258:xformatc.c    **** /**
 259:xformatc.c    ****  * String for false value
 260:xformatc.c    ****  */
 261:xformatc.c    **** static const char  ms_false[]= "False";
 262:xformatc.c    **** 
 263:xformatc.c    **** 
 264:xformatc.c    **** /*
 265:xformatc.c    ****  * Digit values
 266:xformatc.c    ****  */
 267:xformatc.c    **** static const char ms_digits[] = "0123456789abcdef";
 268:xformatc.c    ****    
 269:xformatc.c    ****    
 270:xformatc.c    **** /*
 271:xformatc.c    ****  * This table contains the next state for all char and it will be
 272:xformatc.c    ****  * generate using xformattable.c
 273:xformatc.c    ****  */
 274:xformatc.c    **** 
 275:xformatc.c    **** static const unsigned char formatStates[] =
 276:xformatc.c    **** {
 277:xformatc.c    **** 	0x06,0x00,0x00,0x06,0x00,0x01,0x00,0x00,
 278:xformatc.c    **** 	0x10,0x00,0x03,0x06,0x00,0x06,0x02,0x10,
 279:xformatc.c    **** 	0x04,0x45,0x45,0x45,0x45,0x05,0x05,0x05,
 280:xformatc.c    **** 	0x05,0x35,0x30,0x00,0x50,0x60,0x00,0x00,
 281:xformatc.c    **** 	0x00,0x20,0x28,0x38,0x50,0x50,0x00,0x00,
 282:xformatc.c    **** 	0x00,0x30,0x30,0x30,0x50,0x50,0x00,0x00,
 283:xformatc.c    **** 	0x08,0x20,0x20,0x28,0x20,0x20,0x20,0x00,
 284:xformatc.c    **** 	0x08,0x60,0x60,0x60,0x60,0x60,0x60,0x00,
 285:xformatc.c    **** 	0x00,0x70,0x78,0x78,0x78,0x70,0x78,0x00,
 286:xformatc.c    **** 	0x07,0x08,0x00,0x00,0x07,0x00,0x00,0x08,
 287:xformatc.c    **** 	0x08,0x00,0x00,0x08,0x00,0x08,0x00,0x00,
 288:xformatc.c    **** 	0x08,0x00,0x07
 289:xformatc.c    **** };
 290:xformatc.c    **** 
 291:xformatc.c    **** 
 292:xformatc.c    **** 
 293:xformatc.c    **** 
 294:xformatc.c    **** /**
 295:xformatc.c    ****  * Convert an unsigned value in one string
 296:xformatc.c    ****  *
 297:xformatc.c    ****  * All parameter are in the passed structure
 298:xformatc.c    ****  *
 299:xformatc.c    ****  * @param prec		- Minimum precision
 300:xformatc.c    ****  * @param lvalue	- Unsigned value
 301:xformatc.c    ****  * @param radix		- Radix (Supported values 2/8/10/16)
 302:xformatc.c    ****  *
 303:xformatc.c    ****  * @param out		- Buffer with the converted value.
 304:xformatc.c    ****  */
 305:xformatc.c    **** static void ulong2a(struct param_s * param)
 306:xformatc.c    **** {
 142              		.loc 1 306 0
 143              		.cfi_startproc
ARM GAS  C:\Users\bmt\AppData\Local\Temp\ccKVUDN8.s 			page 9


 144              		@ args = 0, pretend = 0, frame = 16
 145              		@ frame_needed = 1, uses_anonymous_args = 0
 146              		@ link register save eliminated.
 147 0000 80B4     		push	{r7}
 148              		.cfi_def_cfa_offset 4
 149              		.cfi_offset 7, -4
 150 0002 85B0     		sub	sp, sp, #20
 151              		.cfi_def_cfa_offset 24
 152 0004 00AF     		add	r7, sp, #0
 153              		.cfi_def_cfa_register 7
 154 0006 7860     		str	r0, [r7, #4]
 307:xformatc.c    **** 	unsigned char digit;
 308:xformatc.c    **** 	
 309:xformatc.c    **** 	while (param->prec -- > 0 ||  param->values.lvalue)
 155              		.loc 1 309 0
 156 0008 50E0     		b	.L2
 157              	.L8:
 310:xformatc.c    **** 	{
 311:xformatc.c    **** 		switch (param->radix)
 158              		.loc 1 311 0
 159 000a 7B68     		ldr	r3, [r7, #4]
 160 000c 93F87B30 		ldrb	r3, [r3, #123]	@ zero_extendqisi2
 161 0010 082B     		cmp	r3, #8
 162 0012 0FD0     		beq	.L4
 163 0014 102B     		cmp	r3, #16
 164 0016 19D0     		beq	.L5
 165 0018 022B     		cmp	r3, #2
 166 001a 23D1     		bne	.L9
 312:xformatc.c    **** 		{
 313:xformatc.c    **** 			case 2:
 314:xformatc.c    **** 				digit = param->values.lvalue & 0x01;
 167              		.loc 1 314 0
 168 001c 7B68     		ldr	r3, [r7, #4]
 169 001e 1B68     		ldr	r3, [r3]
 170 0020 DBB2     		uxtb	r3, r3
 171 0022 03F00103 		and	r3, r3, #1
 172 0026 FB73     		strb	r3, [r7, #15]
 315:xformatc.c    **** 				param->values.lvalue >>= 1;
 173              		.loc 1 315 0
 174 0028 7B68     		ldr	r3, [r7, #4]
 175 002a 1B68     		ldr	r3, [r3]
 176 002c 5A08     		lsrs	r2, r3, #1
 177 002e 7B68     		ldr	r3, [r7, #4]
 178 0030 1A60     		str	r2, [r3]
 316:xformatc.c    **** 				break;
 179              		.loc 1 316 0
 180 0032 2DE0     		b	.L7
 181              	.L4:
 317:xformatc.c    **** 
 318:xformatc.c    **** 			case 8:
 319:xformatc.c    **** 				digit = param->values.lvalue & 0x07;
 182              		.loc 1 319 0
 183 0034 7B68     		ldr	r3, [r7, #4]
 184 0036 1B68     		ldr	r3, [r3]
 185 0038 DBB2     		uxtb	r3, r3
 186 003a 03F00703 		and	r3, r3, #7
 187 003e FB73     		strb	r3, [r7, #15]
ARM GAS  C:\Users\bmt\AppData\Local\Temp\ccKVUDN8.s 			page 10


 320:xformatc.c    **** 				param->values.lvalue >>= 3;
 188              		.loc 1 320 0
 189 0040 7B68     		ldr	r3, [r7, #4]
 190 0042 1B68     		ldr	r3, [r3]
 191 0044 DA08     		lsrs	r2, r3, #3
 192 0046 7B68     		ldr	r3, [r7, #4]
 193 0048 1A60     		str	r2, [r3]
 321:xformatc.c    **** 				break;
 194              		.loc 1 321 0
 195 004a 21E0     		b	.L7
 196              	.L5:
 322:xformatc.c    **** 
 323:xformatc.c    **** 			case 16:
 324:xformatc.c    **** 				digit = param->values.lvalue & 0x0F;
 197              		.loc 1 324 0
 198 004c 7B68     		ldr	r3, [r7, #4]
 199 004e 1B68     		ldr	r3, [r3]
 200 0050 DBB2     		uxtb	r3, r3
 201 0052 03F00F03 		and	r3, r3, #15
 202 0056 FB73     		strb	r3, [r7, #15]
 325:xformatc.c    **** 				param->values.lvalue >>= 4;
 203              		.loc 1 325 0
 204 0058 7B68     		ldr	r3, [r7, #4]
 205 005a 1B68     		ldr	r3, [r3]
 206 005c 1A09     		lsrs	r2, r3, #4
 207 005e 7B68     		ldr	r3, [r7, #4]
 208 0060 1A60     		str	r2, [r3]
 326:xformatc.c    **** 				break;
 209              		.loc 1 326 0
 210 0062 15E0     		b	.L7
 211              	.L9:
 327:xformatc.c    **** 				
 328:xformatc.c    **** 			default:
 329:xformatc.c    **** 			case 10:
 330:xformatc.c    **** 				digit = param->values.lvalue % 10;
 212              		.loc 1 330 0
 213 0064 7B68     		ldr	r3, [r7, #4]
 214 0066 1968     		ldr	r1, [r3]
 215 0068 184B     		ldr	r3, .L10
 216 006a A3FB0123 		umull	r2, r3, r3, r1
 217 006e DA08     		lsrs	r2, r3, #3
 218 0070 1346     		mov	r3, r2
 219 0072 9B00     		lsls	r3, r3, #2
 220 0074 1344     		add	r3, r3, r2
 221 0076 5B00     		lsls	r3, r3, #1
 222 0078 CA1A     		subs	r2, r1, r3
 223 007a 1346     		mov	r3, r2
 224 007c FB73     		strb	r3, [r7, #15]
 331:xformatc.c    **** 				param->values.lvalue /= 10;
 225              		.loc 1 331 0
 226 007e 7B68     		ldr	r3, [r7, #4]
 227 0080 1B68     		ldr	r3, [r3]
 228 0082 124A     		ldr	r2, .L10
 229 0084 A2FB0323 		umull	r2, r3, r2, r3
 230 0088 DA08     		lsrs	r2, r3, #3
 231 008a 7B68     		ldr	r3, [r7, #4]
 232 008c 1A60     		str	r2, [r3]
ARM GAS  C:\Users\bmt\AppData\Local\Temp\ccKVUDN8.s 			page 11


 332:xformatc.c    **** 				break;
 233              		.loc 1 332 0
 234 008e 00BF     		nop
 235              	.L7:
 333:xformatc.c    **** 		}
 334:xformatc.c    **** 
 335:xformatc.c    **** 
 336:xformatc.c    **** 		*param->out -- = ms_digits[digit];
 236              		.loc 1 336 0
 237 0090 7B68     		ldr	r3, [r7, #4]
 238 0092 9B68     		ldr	r3, [r3, #8]
 239 0094 591E     		subs	r1, r3, #1
 240 0096 7A68     		ldr	r2, [r7, #4]
 241 0098 9160     		str	r1, [r2, #8]
 242 009a FA7B     		ldrb	r2, [r7, #15]	@ zero_extendqisi2
 243 009c 0C49     		ldr	r1, .L10+4
 244 009e 8A5C     		ldrb	r2, [r1, r2]	@ zero_extendqisi2
 245 00a0 1A70     		strb	r2, [r3]
 337:xformatc.c    **** 		param->length ++;
 246              		.loc 1 337 0
 247 00a2 7B68     		ldr	r3, [r7, #4]
 248 00a4 1B6A     		ldr	r3, [r3, #32]
 249 00a6 5A1C     		adds	r2, r3, #1
 250 00a8 7B68     		ldr	r3, [r7, #4]
 251 00aa 1A62     		str	r2, [r3, #32]
 252              	.L2:
 309:xformatc.c    **** 	{
 253              		.loc 1 309 0
 254 00ac 7B68     		ldr	r3, [r7, #4]
 255 00ae 5B6A     		ldr	r3, [r3, #36]
 256 00b0 591E     		subs	r1, r3, #1
 257 00b2 7A68     		ldr	r2, [r7, #4]
 258 00b4 5162     		str	r1, [r2, #36]
 259 00b6 002B     		cmp	r3, #0
 260 00b8 A7DC     		bgt	.L8
 309:xformatc.c    **** 	{
 261              		.loc 1 309 0 is_stmt 0 discriminator 1
 262 00ba 7B68     		ldr	r3, [r7, #4]
 263 00bc 1B68     		ldr	r3, [r3]
 264 00be 002B     		cmp	r3, #0
 265 00c0 A3D1     		bne	.L8
 338:xformatc.c    **** 
 339:xformatc.c    **** 	}
 340:xformatc.c    **** 
 341:xformatc.c    **** }
 266              		.loc 1 341 0 is_stmt 1
 267 00c2 1437     		adds	r7, r7, #20
 268              		.cfi_def_cfa_offset 4
 269 00c4 BD46     		mov	sp, r7
 270              		.cfi_def_cfa_register 13
 271              		@ sp needed
 272 00c6 5DF8047B 		ldr	r7, [sp], #4
 273              		.cfi_restore 7
 274              		.cfi_def_cfa_offset 0
 275 00ca 7047     		bx	lr
 276              	.L11:
 277              		.align	2
ARM GAS  C:\Users\bmt\AppData\Local\Temp\ccKVUDN8.s 			page 12


 278              	.L10:
 279 00cc CDCCCCCC 		.word	-858993459
 280 00d0 18000000 		.word	ms_digits
 281              		.cfi_endproc
 282              	.LFE0:
 283              		.size	ulong2a, .-ulong2a
 284              		.global	__aeabi_uldivmod
 285              		.section	.text.ullong2a,"ax",%progbits
 286              		.align	2
 287              		.thumb
 288              		.thumb_func
 289              		.type	ullong2a, %function
 290              	ullong2a:
 291              	.LFB1:
 342:xformatc.c    **** 
 343:xformatc.c    **** 
 344:xformatc.c    **** #if XCFG_FORMAT_LONGLONG
 345:xformatc.c    **** #ifdef XCFG_FORMAT_LONG_ARE_LONGLONG
 346:xformatc.c    **** #define	ullong2a	ulong2a
 347:xformatc.c    **** #else
 348:xformatc.c    **** static void ullong2a(struct param_s * param)
 349:xformatc.c    **** {
 292              		.loc 1 349 0
 293              		.cfi_startproc
 294              		@ args = 0, pretend = 0, frame = 16
 295              		@ frame_needed = 1, uses_anonymous_args = 0
 296 0000 2DE9B043 		push	{r4, r5, r7, r8, r9, lr}
 297              		.cfi_def_cfa_offset 24
 298              		.cfi_offset 4, -24
 299              		.cfi_offset 5, -20
 300              		.cfi_offset 7, -16
 301              		.cfi_offset 8, -12
 302              		.cfi_offset 9, -8
 303              		.cfi_offset 14, -4
 304 0004 84B0     		sub	sp, sp, #16
 305              		.cfi_def_cfa_offset 40
 306 0006 00AF     		add	r7, sp, #0
 307              		.cfi_def_cfa_register 7
 308 0008 7860     		str	r0, [r7, #4]
 350:xformatc.c    **** 	unsigned char digit;
 351:xformatc.c    **** 
 352:xformatc.c    **** 	while (param->prec -- > 0 ||  param->values.llvalue)
 309              		.loc 1 352 0
 310 000a 6BE0     		b	.L13
 311              	.L19:
 353:xformatc.c    **** 	{
 354:xformatc.c    **** 		switch (param->radix)
 312              		.loc 1 354 0
 313 000c 7B68     		ldr	r3, [r7, #4]
 314 000e 93F87B30 		ldrb	r3, [r3, #123]	@ zero_extendqisi2
 315 0012 082B     		cmp	r3, #8
 316 0014 14D0     		beq	.L15
 317 0016 102B     		cmp	r3, #16
 318 0018 24D0     		beq	.L16
 319 001a 022B     		cmp	r3, #2
 320 001c 36D1     		bne	.L20
 355:xformatc.c    **** 		{
ARM GAS  C:\Users\bmt\AppData\Local\Temp\ccKVUDN8.s 			page 13


 356:xformatc.c    **** 			case 2:
 357:xformatc.c    **** 				digit = param->values.llvalue & 0x01;
 321              		.loc 1 357 0
 322 001e 7B68     		ldr	r3, [r7, #4]
 323 0020 D3E90023 		ldrd	r2, [r3]
 324 0024 D3B2     		uxtb	r3, r2
 325 0026 03F00103 		and	r3, r3, #1
 326 002a FB73     		strb	r3, [r7, #15]
 358:xformatc.c    **** 				param->values.llvalue >>= 1;
 327              		.loc 1 358 0
 328 002c 7B68     		ldr	r3, [r7, #4]
 329 002e D3E90023 		ldrd	r2, [r3]
 330 0032 5B08     		movs	r3, r3, lsr #1
 331 0034 4FEA3202 		mov	r2, r2, rrx
 332 0038 7968     		ldr	r1, [r7, #4]
 333 003a C1E90023 		strd	r2, [r1]
 359:xformatc.c    **** 				break;
 334              		.loc 1 359 0
 335 003e 43E0     		b	.L18
 336              	.L15:
 360:xformatc.c    **** 
 361:xformatc.c    **** 			case 8:
 362:xformatc.c    **** 				digit = param->values.llvalue & 0x07;
 337              		.loc 1 362 0
 338 0040 7B68     		ldr	r3, [r7, #4]
 339 0042 D3E90023 		ldrd	r2, [r3]
 340 0046 D3B2     		uxtb	r3, r2
 341 0048 03F00703 		and	r3, r3, #7
 342 004c FB73     		strb	r3, [r7, #15]
 363:xformatc.c    **** 				param->values.llvalue >>= 3;
 343              		.loc 1 363 0
 344 004e 7B68     		ldr	r3, [r7, #4]
 345 0050 D3E90023 		ldrd	r2, [r3]
 346 0054 D408     		lsrs	r4, r2, #3
 347 0056 44EA4374 		orr	r4, r4, r3, lsl #29
 348 005a DD08     		lsrs	r5, r3, #3
 349 005c 7B68     		ldr	r3, [r7, #4]
 350 005e C3E90045 		strd	r4, [r3]
 364:xformatc.c    **** 				break;
 351              		.loc 1 364 0
 352 0062 31E0     		b	.L18
 353              	.L16:
 365:xformatc.c    **** 
 366:xformatc.c    **** 			case 16:
 367:xformatc.c    **** 				digit = param->values.llvalue & 0x0F;
 354              		.loc 1 367 0
 355 0064 7B68     		ldr	r3, [r7, #4]
 356 0066 D3E90023 		ldrd	r2, [r3]
 357 006a D3B2     		uxtb	r3, r2
 358 006c 03F00F03 		and	r3, r3, #15
 359 0070 FB73     		strb	r3, [r7, #15]
 368:xformatc.c    **** 				param->values.llvalue >>= 4;
 360              		.loc 1 368 0
 361 0072 7B68     		ldr	r3, [r7, #4]
 362 0074 D3E90023 		ldrd	r2, [r3]
 363 0078 4FEA1218 		lsr	r8, r2, #4
 364 007c 48EA0378 		orr	r8, r8, r3, lsl #28
ARM GAS  C:\Users\bmt\AppData\Local\Temp\ccKVUDN8.s 			page 14


 365 0080 4FEA1319 		lsr	r9, r3, #4
 366 0084 7B68     		ldr	r3, [r7, #4]
 367 0086 C3E90089 		strd	r8, [r3]
 369:xformatc.c    **** 				break;
 368              		.loc 1 369 0
 369 008a 1DE0     		b	.L18
 370              	.L20:
 370:xformatc.c    **** 				
 371:xformatc.c    **** 			default:
 372:xformatc.c    **** 			case 10:
 373:xformatc.c    **** 				digit = param->values.llvalue % 10;
 371              		.loc 1 373 0
 372 008c 7B68     		ldr	r3, [r7, #4]
 373 008e D3E90023 		ldrd	r2, [r3]
 374 0092 1046     		mov	r0, r2
 375 0094 1946     		mov	r1, r3
 376 0096 4FF00A02 		mov	r2, #10
 377 009a 4FF00003 		mov	r3, #0
 378 009e FFF7FEFF 		bl	__aeabi_uldivmod
 379 00a2 1346     		mov	r3, r2
 380 00a4 FB73     		strb	r3, [r7, #15]
 374:xformatc.c    **** 				param->values.llvalue /= 10;
 381              		.loc 1 374 0
 382 00a6 7B68     		ldr	r3, [r7, #4]
 383 00a8 D3E90023 		ldrd	r2, [r3]
 384 00ac 1046     		mov	r0, r2
 385 00ae 1946     		mov	r1, r3
 386 00b0 4FF00A02 		mov	r2, #10
 387 00b4 4FF00003 		mov	r3, #0
 388 00b8 FFF7FEFF 		bl	__aeabi_uldivmod
 389 00bc 0246     		mov	r2, r0
 390 00be 0B46     		mov	r3, r1
 391 00c0 7968     		ldr	r1, [r7, #4]
 392 00c2 C1E90023 		strd	r2, [r1]
 375:xformatc.c    **** 				
 376:xformatc.c    **** 				break;
 393              		.loc 1 376 0
 394 00c6 00BF     		nop
 395              	.L18:
 377:xformatc.c    **** 		}
 378:xformatc.c    **** 
 379:xformatc.c    **** 
 380:xformatc.c    **** 		*param->out -- = ms_digits[digit];
 396              		.loc 1 380 0
 397 00c8 7B68     		ldr	r3, [r7, #4]
 398 00ca 9B68     		ldr	r3, [r3, #8]
 399 00cc 591E     		subs	r1, r3, #1
 400 00ce 7A68     		ldr	r2, [r7, #4]
 401 00d0 9160     		str	r1, [r2, #8]
 402 00d2 FA7B     		ldrb	r2, [r7, #15]	@ zero_extendqisi2
 403 00d4 0B49     		ldr	r1, .L21
 404 00d6 8A5C     		ldrb	r2, [r1, r2]	@ zero_extendqisi2
 405 00d8 1A70     		strb	r2, [r3]
 381:xformatc.c    **** 		param->length ++;
 406              		.loc 1 381 0
 407 00da 7B68     		ldr	r3, [r7, #4]
 408 00dc 1B6A     		ldr	r3, [r3, #32]
ARM GAS  C:\Users\bmt\AppData\Local\Temp\ccKVUDN8.s 			page 15


 409 00de 5A1C     		adds	r2, r3, #1
 410 00e0 7B68     		ldr	r3, [r7, #4]
 411 00e2 1A62     		str	r2, [r3, #32]
 412              	.L13:
 352:xformatc.c    **** 	{
 413              		.loc 1 352 0
 414 00e4 7B68     		ldr	r3, [r7, #4]
 415 00e6 5B6A     		ldr	r3, [r3, #36]
 416 00e8 591E     		subs	r1, r3, #1
 417 00ea 7A68     		ldr	r2, [r7, #4]
 418 00ec 5162     		str	r1, [r2, #36]
 419 00ee 002B     		cmp	r3, #0
 420 00f0 8CDC     		bgt	.L19
 352:xformatc.c    **** 	{
 421              		.loc 1 352 0 is_stmt 0 discriminator 1
 422 00f2 7B68     		ldr	r3, [r7, #4]
 423 00f4 D3E90023 		ldrd	r2, [r3]
 424 00f8 1343     		orrs	r3, r2, r3
 425 00fa 87D1     		bne	.L19
 382:xformatc.c    **** 
 383:xformatc.c    **** 	}
 384:xformatc.c    **** 
 385:xformatc.c    **** }
 426              		.loc 1 385 0 is_stmt 1
 427 00fc 1037     		adds	r7, r7, #16
 428              		.cfi_def_cfa_offset 24
 429 00fe BD46     		mov	sp, r7
 430              		.cfi_def_cfa_register 13
 431              		@ sp needed
 432 0100 BDE8B083 		pop	{r4, r5, r7, r8, r9, pc}
 433              	.L22:
 434              		.align	2
 435              	.L21:
 436 0104 18000000 		.word	ms_digits
 437              		.cfi_endproc
 438              	.LFE1:
 439              		.size	ullong2a, .-ullong2a
 440              		.section	.text.xformat,"ax",%progbits
 441              		.align	2
 442              		.global	xformat
 443              		.thumb
 444              		.thumb_func
 445              		.type	xformat, %function
 446              	xformat:
 447              	.LFB2:
 386:xformatc.c    **** #endif
 387:xformatc.c    **** #endif
 388:xformatc.c    **** 
 389:xformatc.c    **** /**
 390:xformatc.c    ****  * Printf like using variable arguments.
 391:xformatc.c    ****  * 
 392:xformatc.c    ****  * @param outchar - Pointer to the function to output one new char.
 393:xformatc.c    ****  * @param arg	- Argument for the output function.
 394:xformatc.c    ****  * @param fmt	- Format options for the list of parameters.
 395:xformatc.c    ****  * @param ...	- Arguments
 396:xformatc.c    ****  *
 397:xformatc.c    ****  * @return The number of char emitted.
ARM GAS  C:\Users\bmt\AppData\Local\Temp\ccKVUDN8.s 			page 16


 398:xformatc.c    ****  * 
 399:xformatc.c    ****  * @see xvformat
 400:xformatc.c    ****  */
 401:xformatc.c    **** unsigned xformat(void (*outchar)(void *,char),void *arg,const char * fmt,...)
 402:xformatc.c    **** {
 448              		.loc 1 402 0
 449              		.cfi_startproc
 450              		@ args = 4, pretend = 8, frame = 16
 451              		@ frame_needed = 1, uses_anonymous_args = 1
 452 0000 0CB4     		push	{r2, r3}
 453              		.cfi_def_cfa_offset 8
 454              		.cfi_offset 2, -8
 455              		.cfi_offset 3, -4
 456 0002 80B5     		push	{r7, lr}
 457              		.cfi_def_cfa_offset 16
 458              		.cfi_offset 7, -16
 459              		.cfi_offset 14, -12
 460 0004 84B0     		sub	sp, sp, #16
 461              		.cfi_def_cfa_offset 32
 462 0006 00AF     		add	r7, sp, #0
 463              		.cfi_def_cfa_register 7
 464 0008 7860     		str	r0, [r7, #4]
 465 000a 3960     		str	r1, [r7]
 403:xformatc.c    **** 	va_list list;
 404:xformatc.c    **** 	unsigned count;
 405:xformatc.c    **** 
 406:xformatc.c    **** 	va_start(list,fmt);
 466              		.loc 1 406 0
 467 000c 07F11C03 		add	r3, r7, #28
 468 0010 BB60     		str	r3, [r7, #8]
 407:xformatc.c    **** 	count = xvformat(outchar,arg,fmt,list);
 469              		.loc 1 407 0
 470 0012 7868     		ldr	r0, [r7, #4]
 471 0014 3968     		ldr	r1, [r7]
 472 0016 BA69     		ldr	r2, [r7, #24]
 473 0018 BB68     		ldr	r3, [r7, #8]
 474 001a FFF7FEFF 		bl	xvformat
 475 001e F860     		str	r0, [r7, #12]
 408:xformatc.c    **** 	va_end(list);
 409:xformatc.c    **** 
 410:xformatc.c    **** 	(void)list;
 411:xformatc.c    **** 
 412:xformatc.c    **** 	return count;
 476              		.loc 1 412 0
 477 0020 FB68     		ldr	r3, [r7, #12]
 413:xformatc.c    **** }
 478              		.loc 1 413 0
 479 0022 1846     		mov	r0, r3
 480 0024 1037     		adds	r7, r7, #16
 481              		.cfi_def_cfa_offset 16
 482 0026 BD46     		mov	sp, r7
 483              		.cfi_def_cfa_register 13
 484              		@ sp needed
 485 0028 BDE88040 		pop	{r7, lr}
 486              		.cfi_restore 14
 487              		.cfi_restore 7
 488              		.cfi_def_cfa_offset 8
ARM GAS  C:\Users\bmt\AppData\Local\Temp\ccKVUDN8.s 			page 17


 489 002c 02B0     		add	sp, sp, #8
 490              		.cfi_restore 3
 491              		.cfi_restore 2
 492              		.cfi_def_cfa_offset 0
 493 002e 7047     		bx	lr
 494              		.cfi_endproc
 495              	.LFE2:
 496              		.size	xformat, .-xformat
 497              		.section	.text.xstrlen,"ax",%progbits
 498              		.align	2
 499              		.thumb
 500              		.thumb_func
 501              		.type	xstrlen, %function
 502              	xstrlen:
 503              	.LFB3:
 414:xformatc.c    **** 
 415:xformatc.c    **** 
 416:xformatc.c    **** /**
 417:xformatc.c    ****  * We do not want use any library function.
 418:xformatc.c    ****  *
 419:xformatc.c    ****  * @param s - C	 string
 420:xformatc.c    ****  * @return The length of the string
 421:xformatc.c    ****  */
 422:xformatc.c    **** static unsigned xstrlen(const char *s)
 423:xformatc.c    **** {
 504              		.loc 1 423 0
 505              		.cfi_startproc
 506              		@ args = 0, pretend = 0, frame = 16
 507              		@ frame_needed = 1, uses_anonymous_args = 0
 508              		@ link register save eliminated.
 509 0000 80B4     		push	{r7}
 510              		.cfi_def_cfa_offset 4
 511              		.cfi_offset 7, -4
 512 0002 85B0     		sub	sp, sp, #20
 513              		.cfi_def_cfa_offset 24
 514 0004 00AF     		add	r7, sp, #0
 515              		.cfi_def_cfa_register 7
 516 0006 7860     		str	r0, [r7, #4]
 424:xformatc.c    **** 	const char *i;
 425:xformatc.c    **** 
 426:xformatc.c    **** 	for (i = s ; *i ; i++)
 517              		.loc 1 426 0
 518 0008 7B68     		ldr	r3, [r7, #4]
 519 000a FB60     		str	r3, [r7, #12]
 520 000c 02E0     		b	.L26
 521              	.L27:
 522              		.loc 1 426 0 is_stmt 0 discriminator 3
 523 000e FB68     		ldr	r3, [r7, #12]
 524 0010 0133     		adds	r3, r3, #1
 525 0012 FB60     		str	r3, [r7, #12]
 526              	.L26:
 527              		.loc 1 426 0 discriminator 1
 528 0014 FB68     		ldr	r3, [r7, #12]
 529 0016 1B78     		ldrb	r3, [r3]	@ zero_extendqisi2
 530 0018 002B     		cmp	r3, #0
 531 001a F8D1     		bne	.L27
 427:xformatc.c    **** 	{
ARM GAS  C:\Users\bmt\AppData\Local\Temp\ccKVUDN8.s 			page 18


 428:xformatc.c    **** 	}
 429:xformatc.c    **** 
 430:xformatc.c    **** 	return (unsigned)(i - s);
 532              		.loc 1 430 0 is_stmt 1
 533 001c FA68     		ldr	r2, [r7, #12]
 534 001e 7B68     		ldr	r3, [r7, #4]
 535 0020 D31A     		subs	r3, r2, r3
 431:xformatc.c    **** }
 536              		.loc 1 431 0
 537 0022 1846     		mov	r0, r3
 538 0024 1437     		adds	r7, r7, #20
 539              		.cfi_def_cfa_offset 4
 540 0026 BD46     		mov	sp, r7
 541              		.cfi_def_cfa_register 13
 542              		@ sp needed
 543 0028 5DF8047B 		ldr	r7, [sp], #4
 544              		.cfi_restore 7
 545              		.cfi_def_cfa_offset 0
 546 002c 7047     		bx	lr
 547              		.cfi_endproc
 548              	.LFE3:
 549              		.size	xstrlen, .-xstrlen
 550 002e 00BF     		.section	.text.outBuffer,"ax",%progbits
 551              		.align	2
 552              		.thumb
 553              		.thumb_func
 554              		.type	outBuffer, %function
 555              	outBuffer:
 556              	.LFB4:
 432:xformatc.c    **** 
 433:xformatc.c    **** static unsigned outBuffer(void (*myoutchar)(void *arg,char),void *arg,const char *buffer,int len,un
 434:xformatc.c    **** {
 557              		.loc 1 434 0
 558              		.cfi_startproc
 559              		@ args = 4, pretend = 0, frame = 32
 560              		@ frame_needed = 1, uses_anonymous_args = 0
 561 0000 80B5     		push	{r7, lr}
 562              		.cfi_def_cfa_offset 8
 563              		.cfi_offset 7, -8
 564              		.cfi_offset 14, -4
 565 0002 88B0     		sub	sp, sp, #32
 566              		.cfi_def_cfa_offset 40
 567 0004 00AF     		add	r7, sp, #0
 568              		.cfi_def_cfa_register 7
 569 0006 F860     		str	r0, [r7, #12]
 570 0008 B960     		str	r1, [r7, #8]
 571 000a 7A60     		str	r2, [r7, #4]
 572 000c 3B60     		str	r3, [r7]
 435:xformatc.c    **** 	unsigned count = 0;
 573              		.loc 1 435 0
 574 000e 0023     		movs	r3, #0
 575 0010 FB61     		str	r3, [r7, #28]
 436:xformatc.c    **** 	int i;
 437:xformatc.c    **** 	char c;
 438:xformatc.c    **** 
 439:xformatc.c    **** 	for (i = 0; i < len ; i++)
 576              		.loc 1 439 0
ARM GAS  C:\Users\bmt\AppData\Local\Temp\ccKVUDN8.s 			page 19


 577 0012 0023     		movs	r3, #0
 578 0014 BB61     		str	r3, [r7, #24]
 579 0016 1BE0     		b	.L30
 580              	.L32:
 440:xformatc.c    **** 	{
 441:xformatc.c    **** 		c = buffer[i];
 581              		.loc 1 441 0
 582 0018 BB69     		ldr	r3, [r7, #24]
 583 001a 7A68     		ldr	r2, [r7, #4]
 584 001c 1344     		add	r3, r3, r2
 585 001e 1B78     		ldrb	r3, [r3]
 586 0020 FB75     		strb	r3, [r7, #23]
 442:xformatc.c    **** 
 443:xformatc.c    **** 		if (toupper && (c >= 'a' && c <= 'z'))
 587              		.loc 1 443 0
 588 0022 BB6A     		ldr	r3, [r7, #40]
 589 0024 002B     		cmp	r3, #0
 590 0026 08D0     		beq	.L31
 591              		.loc 1 443 0 is_stmt 0 discriminator 1
 592 0028 FB7D     		ldrb	r3, [r7, #23]	@ zero_extendqisi2
 593 002a 602B     		cmp	r3, #96
 594 002c 05D9     		bls	.L31
 595              		.loc 1 443 0 discriminator 2
 596 002e FB7D     		ldrb	r3, [r7, #23]	@ zero_extendqisi2
 597 0030 7A2B     		cmp	r3, #122
 598 0032 02D8     		bhi	.L31
 444:xformatc.c    **** 		{
 445:xformatc.c    **** 			c -= 'a' - 'A';
 599              		.loc 1 445 0 is_stmt 1
 600 0034 FB7D     		ldrb	r3, [r7, #23]
 601 0036 203B     		subs	r3, r3, #32
 602 0038 FB75     		strb	r3, [r7, #23]
 603              	.L31:
 446:xformatc.c    **** 		}
 447:xformatc.c    **** 
 448:xformatc.c    **** 		(*myoutchar)(arg,c);
 604              		.loc 1 448 0 discriminator 2
 605 003a FA7D     		ldrb	r2, [r7, #23]	@ zero_extendqisi2
 606 003c FB68     		ldr	r3, [r7, #12]
 607 003e B868     		ldr	r0, [r7, #8]
 608 0040 1146     		mov	r1, r2
 609 0042 9847     		blx	r3
 449:xformatc.c    **** 		count++;
 610              		.loc 1 449 0 discriminator 2
 611 0044 FB69     		ldr	r3, [r7, #28]
 612 0046 0133     		adds	r3, r3, #1
 613 0048 FB61     		str	r3, [r7, #28]
 439:xformatc.c    **** 	{
 614              		.loc 1 439 0 discriminator 2
 615 004a BB69     		ldr	r3, [r7, #24]
 616 004c 0133     		adds	r3, r3, #1
 617 004e BB61     		str	r3, [r7, #24]
 618              	.L30:
 439:xformatc.c    **** 	{
 619              		.loc 1 439 0 is_stmt 0 discriminator 1
 620 0050 BA69     		ldr	r2, [r7, #24]
 621 0052 3B68     		ldr	r3, [r7]
ARM GAS  C:\Users\bmt\AppData\Local\Temp\ccKVUDN8.s 			page 20


 622 0054 9A42     		cmp	r2, r3
 623 0056 DFDB     		blt	.L32
 450:xformatc.c    **** 	}
 451:xformatc.c    **** 
 452:xformatc.c    **** 	return count;
 624              		.loc 1 452 0 is_stmt 1
 625 0058 FB69     		ldr	r3, [r7, #28]
 453:xformatc.c    **** }
 626              		.loc 1 453 0
 627 005a 1846     		mov	r0, r3
 628 005c 2037     		adds	r7, r7, #32
 629              		.cfi_def_cfa_offset 8
 630 005e BD46     		mov	sp, r7
 631              		.cfi_def_cfa_register 13
 632              		@ sp needed
 633 0060 80BD     		pop	{r7, pc}
 634              		.cfi_endproc
 635              	.LFE4:
 636              		.size	outBuffer, .-outBuffer
 637 0062 00BF     		.section	.text.outChars,"ax",%progbits
 638              		.align	2
 639              		.thumb
 640              		.thumb_func
 641              		.type	outChars, %function
 642              	outChars:
 643              	.LFB5:
 454:xformatc.c    **** 
 455:xformatc.c    **** 
 456:xformatc.c    **** static unsigned outChars(void (*myoutchar)(void *arg,char),void *arg,char ch,int len)
 457:xformatc.c    **** {
 644              		.loc 1 457 0
 645              		.cfi_startproc
 646              		@ args = 0, pretend = 0, frame = 24
 647              		@ frame_needed = 1, uses_anonymous_args = 0
 648 0000 80B5     		push	{r7, lr}
 649              		.cfi_def_cfa_offset 8
 650              		.cfi_offset 7, -8
 651              		.cfi_offset 14, -4
 652 0002 86B0     		sub	sp, sp, #24
 653              		.cfi_def_cfa_offset 32
 654 0004 00AF     		add	r7, sp, #0
 655              		.cfi_def_cfa_register 7
 656 0006 F860     		str	r0, [r7, #12]
 657 0008 B960     		str	r1, [r7, #8]
 658 000a 3B60     		str	r3, [r7]
 659 000c 1346     		mov	r3, r2
 660 000e FB71     		strb	r3, [r7, #7]
 458:xformatc.c    **** 	unsigned count= 0;
 661              		.loc 1 458 0
 662 0010 0023     		movs	r3, #0
 663 0012 7B61     		str	r3, [r7, #20]
 459:xformatc.c    **** 
 460:xformatc.c    **** 	while (len-- > 0)
 664              		.loc 1 460 0
 665 0014 07E0     		b	.L35
 666              	.L36:
 461:xformatc.c    **** 	{
ARM GAS  C:\Users\bmt\AppData\Local\Temp\ccKVUDN8.s 			page 21


 462:xformatc.c    **** 		(*myoutchar)(arg,ch);
 667              		.loc 1 462 0
 668 0016 FA79     		ldrb	r2, [r7, #7]	@ zero_extendqisi2
 669 0018 FB68     		ldr	r3, [r7, #12]
 670 001a B868     		ldr	r0, [r7, #8]
 671 001c 1146     		mov	r1, r2
 672 001e 9847     		blx	r3
 463:xformatc.c    **** 		count++;
 673              		.loc 1 463 0
 674 0020 7B69     		ldr	r3, [r7, #20]
 675 0022 0133     		adds	r3, r3, #1
 676 0024 7B61     		str	r3, [r7, #20]
 677              	.L35:
 460:xformatc.c    **** 	{
 678              		.loc 1 460 0
 679 0026 3B68     		ldr	r3, [r7]
 680 0028 5A1E     		subs	r2, r3, #1
 681 002a 3A60     		str	r2, [r7]
 682 002c 002B     		cmp	r3, #0
 683 002e F2DC     		bgt	.L36
 464:xformatc.c    **** 	}
 465:xformatc.c    **** 
 466:xformatc.c    **** 	return count;
 684              		.loc 1 466 0
 685 0030 7B69     		ldr	r3, [r7, #20]
 467:xformatc.c    **** }
 686              		.loc 1 467 0
 687 0032 1846     		mov	r0, r3
 688 0034 1837     		adds	r7, r7, #24
 689              		.cfi_def_cfa_offset 8
 690 0036 BD46     		mov	sp, r7
 691              		.cfi_def_cfa_register 13
 692              		@ sp needed
 693 0038 80BD     		pop	{r7, pc}
 694              		.cfi_endproc
 695              	.LFE5:
 696              		.size	outChars, .-outChars
 697              		.global	__aeabi_ddiv
 698              		.global	__aeabi_dcmplt
 699              		.global	__aeabi_dsub
 700              		.global	__aeabi_d2lz
 701              		.global	__aeabi_l2d
 702              		.global	__aeabi_dadd
 703              		.global	__aeabi_ul2d
 704              		.global	__aeabi_dmul
 705              		.global	__aeabi_d2uiz
 706 003a 00BF     		.section	.text.xvformat,"ax",%progbits
 707              		.align	2
 708              		.global	xvformat
 709              		.thumb
 710              		.thumb_func
 711              		.type	xvformat, %function
 712              	xvformat:
 713              	.LFB6:
 468:xformatc.c    **** 
 469:xformatc.c    **** 
 470:xformatc.c    **** 
ARM GAS  C:\Users\bmt\AppData\Local\Temp\ccKVUDN8.s 			page 22


 471:xformatc.c    **** /*
 472:xformatc.c    ****  * Lint want declare list as const but list is an obscured pointer so
 473:xformatc.c    ****  * the warning is disabled.
 474:xformatc.c    ****  */
 475:xformatc.c    **** /*lint -save -e818 */
 476:xformatc.c    **** 
 477:xformatc.c    **** 
 478:xformatc.c    **** /**
 479:xformatc.c    ****  * Printf like format function.
 480:xformatc.c    ****  *
 481:xformatc.c    ****  * General format :
 482:xformatc.c    ****  * 
 483:xformatc.c    ****  * %[width][.precision][flags]type
 484:xformatc.c    ****  *
 485:xformatc.c    ****  * - width Is the minimum size of the field.
 486:xformatc.c    ****  * 
 487:xformatc.c    ****  * - precision Is the maximum size of the field.
 488:xformatc.c    ****  * 
 489:xformatc.c    ****  * Supported flags :
 490:xformatc.c    ****  * 
 491:xformatc.c    ****  * - l	With integer number the argument will be of type long.
 492:xformatc.c    ****  * - ll With integer number the argument will be of type long long.
 493:xformatc.c    ****  * -	Space for positive integer a space will be added before.
 494:xformatc.c    ****  * - z	Compatible with C99 the argument is size_t (aka sizeof(void *))
 495:xformatc.c    ****  * - +	A + sign prefix positive number.
 496:xformatc.c    ****  * - #	A prefix will be printed (o for octal,0x for hex,0b for binary)
 497:xformatc.c    ****  * - 0	Value will be padded with zero (default is spacwe)
 498:xformatc.c    ****  * - -	Left justify as default filed have rigth justification.
 499:xformatc.c    ****  * 
 500:xformatc.c    ****  * Supported type :
 501:xformatc.c    ****  * 
 502:xformatc.c    ****  * - s	Null terminated string of char.
 503:xformatc.c    ****  * - S	Null terminated string of char in upper case.
 504:xformatc.c    ****  * - i	Integer number.
 505:xformatc.c    ****  * - d	Integer number.
 506:xformatc.c    ****  * - u	Unsigned number.
 507:xformatc.c    ****  * - x	Unsigned number in hex.
 508:xformatc.c    ****  * - X	Unsigned number in hex upper case.
 509:xformatc.c    ****  * - b	Binary number
 510:xformatc.c    ****  * - o	Octal number
 511:xformatc.c    ****  * - p	Pointer will be emitted with the prefix ->
 512:xformatc.c    ****  * - P	Pointer in upper case letter.
 513:xformatc.c    ****  * - f	Floating point number.
 514:xformatc.c    ****  * - B	Boolean value printed as True / False.
 515:xformatc.c    ****  *
 516:xformatc.c    ****  * @param outchar - Pointer to the function to output one char.
 517:xformatc.c    ****  * @param arg	- Argument for the output function.
 518:xformatc.c    ****  * @param fmt	- Format options for the list of parameters.
 519:xformatc.c    ****  * @param args	- List parameters.
 520:xformatc.c    ****  *
 521:xformatc.c    ****  * @return The number of char emitted.
 522:xformatc.c    ****  */
 523:xformatc.c    **** unsigned xvformat(void (*outchar)(void *,char),void *arg,const char * fmt,va_list _args)
 524:xformatc.c    **** {
 714              		.loc 1 524 0
 715              		.cfi_startproc
 716              		@ args = 0, pretend = 0, frame = 152
ARM GAS  C:\Users\bmt\AppData\Local\Temp\ccKVUDN8.s 			page 23


 717              		@ frame_needed = 1, uses_anonymous_args = 0
 718 0000 2DE9F043 		push	{r4, r5, r6, r7, r8, r9, lr}
 719              		.cfi_def_cfa_offset 28
 720              		.cfi_offset 4, -28
 721              		.cfi_offset 5, -24
 722              		.cfi_offset 6, -20
 723              		.cfi_offset 7, -16
 724              		.cfi_offset 8, -12
 725              		.cfi_offset 9, -8
 726              		.cfi_offset 14, -4
 727 0004 A9B0     		sub	sp, sp, #164
 728              		.cfi_def_cfa_offset 192
 729 0006 02AF     		add	r7, sp, #8
 730              		.cfi_def_cfa 7, 184
 731 0008 F860     		str	r0, [r7, #12]
 732 000a B960     		str	r1, [r7, #8]
 733 000c 7A60     		str	r2, [r7, #4]
 734 000e 3B60     		str	r3, [r7]
 525:xformatc.c    **** 	XCFG_FORMAT_STATIC struct param_s param;
 526:xformatc.c    **** 	int i;
 527:xformatc.c    **** 	char c;
 528:xformatc.c    **** 	
 529:xformatc.c    **** #if XCFG_FORMAT_VA_COPY
 530:xformatc.c    **** 	va_list args;
 531:xformatc.c    **** 
 532:xformatc.c    **** 	va_copy(args,_args);
 533:xformatc.c    **** #else
 534:xformatc.c    **** #define args	_args
 535:xformatc.c    **** #endif
 536:xformatc.c    **** 
 537:xformatc.c    **** 	param.count = 0;
 735              		.loc 1 537 0
 736 0010 0023     		movs	r3, #0
 737 0012 FB63     		str	r3, [r7, #60]
 538:xformatc.c    **** 	param.state = ST_NORMAL;
 738              		.loc 1 538 0
 739 0014 0023     		movs	r3, #0
 740 0016 87F88D30 		strb	r3, [r7, #141]
 539:xformatc.c    **** 
 540:xformatc.c    **** 	while (*fmt)
 741              		.loc 1 540 0
 742 001a 00F020BC 		b	.L39
 743              	.L128:
 541:xformatc.c    **** 	{
 542:xformatc.c    **** 		c = *fmt++;
 744              		.loc 1 542 0
 745 001e 7B68     		ldr	r3, [r7, #4]
 746 0020 5A1C     		adds	r2, r3, #1
 747 0022 7A60     		str	r2, [r7, #4]
 748 0024 1B78     		ldrb	r3, [r3]
 749 0026 87F89330 		strb	r3, [r7, #147]
 543:xformatc.c    **** 
 544:xformatc.c    **** 		if (c < ' ' || c > 'z')
 750              		.loc 1 544 0
 751 002a 97F89330 		ldrb	r3, [r7, #147]	@ zero_extendqisi2
 752 002e 1F2B     		cmp	r3, #31
 753 0030 03D9     		bls	.L40
ARM GAS  C:\Users\bmt\AppData\Local\Temp\ccKVUDN8.s 			page 24


 754              		.loc 1 544 0 is_stmt 0 discriminator 1
 755 0032 97F89330 		ldrb	r3, [r7, #147]	@ zero_extendqisi2
 756 0036 7A2B     		cmp	r3, #122
 757 0038 03D9     		bls	.L41
 758              	.L40:
 545:xformatc.c    **** 			i = (int)CH_OTHER;
 759              		.loc 1 545 0 is_stmt 1
 760 003a 0023     		movs	r3, #0
 761 003c C7F89430 		str	r3, [r7, #148]
 762 0040 08E0     		b	.L42
 763              	.L41:
 546:xformatc.c    **** 		else
 547:xformatc.c    **** 			i = formatStates[c - ' '] & 0x0F;
 764              		.loc 1 547 0
 765 0042 97F89330 		ldrb	r3, [r7, #147]	@ zero_extendqisi2
 766 0046 203B     		subs	r3, r3, #32
 767 0048 C34A     		ldr	r2, .L134
 768 004a D35C     		ldrb	r3, [r2, r3]	@ zero_extendqisi2
 769 004c 03F00F03 		and	r3, r3, #15
 770 0050 C7F89430 		str	r3, [r7, #148]
 771              	.L42:
 548:xformatc.c    **** 
 549:xformatc.c    **** 		param.state = formatStates[(i << 3) + param.state] >> 4;
 772              		.loc 1 549 0
 773 0054 D7F89430 		ldr	r3, [r7, #148]
 774 0058 DB00     		lsls	r3, r3, #3
 775 005a 97F88D20 		ldrb	r2, [r7, #141]	@ zero_extendqisi2
 776 005e 1344     		add	r3, r3, r2
 777 0060 BD4A     		ldr	r2, .L134
 778 0062 D35C     		ldrb	r3, [r2, r3]	@ zero_extendqisi2
 779 0064 1B09     		lsrs	r3, r3, #4
 780 0066 DBB2     		uxtb	r3, r3
 781 0068 87F88D30 		strb	r3, [r7, #141]
 550:xformatc.c    **** 
 551:xformatc.c    **** 
 552:xformatc.c    **** 		switch (param.state)
 782              		.loc 1 552 0
 783 006c 97F88D30 		ldrb	r3, [r7, #141]	@ zero_extendqisi2
 784 0070 013B     		subs	r3, r3, #1
 785 0072 062B     		cmp	r3, #6
 786 0074 10D8     		bhi	.L43
 787 0076 01A2     		adr	r2, .L45
 788 0078 52F823F0 		ldr	pc, [r2, r3, lsl #2]
 789              		.p2align 2
 790              	.L45:
 791 007c AD000000 		.word	.L44+1
 792 0080 79010000 		.word	.L46+1
 793 0084 C9000000 		.word	.L47+1
 794 0088 5F080000 		.word	.L39+1
 795 008c F5000000 		.word	.L49+1
 796 0090 29010000 		.word	.L50+1
 797 0094 01020000 		.word	.L51+1
 798              		.p2align 1
 799              	.L43:
 553:xformatc.c    **** 		{
 554:xformatc.c    **** 			default:
 555:xformatc.c    **** 			case	ST_NORMAL:
ARM GAS  C:\Users\bmt\AppData\Local\Temp\ccKVUDN8.s 			page 25


 556:xformatc.c    **** 				(*outchar)(arg,c);
 800              		.loc 1 556 0
 801 0098 97F89320 		ldrb	r2, [r7, #147]	@ zero_extendqisi2
 802 009c FB68     		ldr	r3, [r7, #12]
 803 009e B868     		ldr	r0, [r7, #8]
 804 00a0 1146     		mov	r1, r2
 805 00a2 9847     		blx	r3
 557:xformatc.c    **** 				param.count++;
 806              		.loc 1 557 0
 807 00a4 FB6B     		ldr	r3, [r7, #60]
 808 00a6 0133     		adds	r3, r3, #1
 809 00a8 FB63     		str	r3, [r7, #60]
 558:xformatc.c    **** 				break;
 810              		.loc 1 558 0
 811 00aa D8E3     		b	.L39
 812              	.L44:
 559:xformatc.c    **** 
 560:xformatc.c    **** 			case	ST_PERCENT:
 561:xformatc.c    **** 				param.flags = param.length = param.prefixlen = param.width = param.prec = 0;
 813              		.loc 1 561 0
 814 00ac 0023     		movs	r3, #0
 815 00ae 7B63     		str	r3, [r7, #52]
 816 00b0 7B6B     		ldr	r3, [r7, #52]
 817 00b2 BB63     		str	r3, [r7, #56]
 818 00b4 BB6B     		ldr	r3, [r7, #56]
 819 00b6 7B64     		str	r3, [r7, #68]
 820 00b8 7B6C     		ldr	r3, [r7, #68]
 821 00ba 3B63     		str	r3, [r7, #48]
 822 00bc 3B6B     		ldr	r3, [r7, #48]
 823 00be 3B64     		str	r3, [r7, #64]
 562:xformatc.c    **** 				param.pad = ' ';
 824              		.loc 1 562 0
 825 00c0 2023     		movs	r3, #32
 826 00c2 87F88C30 		strb	r3, [r7, #140]
 563:xformatc.c    **** 				break;
 827              		.loc 1 563 0
 828 00c6 CAE3     		b	.L39
 829              	.L47:
 564:xformatc.c    **** 
 565:xformatc.c    **** 			case	ST_WIDTH:
 566:xformatc.c    **** 				if (c == '*')
 830              		.loc 1 566 0
 831 00c8 97F89330 		ldrb	r3, [r7, #147]	@ zero_extendqisi2
 832 00cc 2A2B     		cmp	r3, #42
 833 00ce 05D1     		bne	.L52
 567:xformatc.c    **** 					param.width = (int)va_arg(args,int);
 834              		.loc 1 567 0
 835 00d0 3B68     		ldr	r3, [r7]
 836 00d2 1A1D     		adds	r2, r3, #4
 837 00d4 3A60     		str	r2, [r7]
 838 00d6 1B68     		ldr	r3, [r3]
 839 00d8 BB63     		str	r3, [r7, #56]
 840 00da 0AE0     		b	.L53
 841              	.L52:
 568:xformatc.c    **** 				else
 569:xformatc.c    **** 					param.width = param.width * 10 + (c - '0');
 842              		.loc 1 569 0
ARM GAS  C:\Users\bmt\AppData\Local\Temp\ccKVUDN8.s 			page 26


 843 00dc BA6B     		ldr	r2, [r7, #56]
 844 00de 1346     		mov	r3, r2
 845 00e0 9B00     		lsls	r3, r3, #2
 846 00e2 1344     		add	r3, r3, r2
 847 00e4 5B00     		lsls	r3, r3, #1
 848 00e6 1A46     		mov	r2, r3
 849 00e8 97F89330 		ldrb	r3, [r7, #147]	@ zero_extendqisi2
 850 00ec 303B     		subs	r3, r3, #48
 851 00ee 1344     		add	r3, r3, r2
 852 00f0 BB63     		str	r3, [r7, #56]
 853              	.L53:
 570:xformatc.c    **** 				break;
 854              		.loc 1 570 0
 855 00f2 B4E3     		b	.L39
 856              	.L49:
 571:xformatc.c    **** 
 572:xformatc.c    **** 			case	ST_DOT:
 573:xformatc.c    **** 				break;
 574:xformatc.c    **** 
 575:xformatc.c    **** 			case	ST_PRECIS:
 576:xformatc.c    **** 				param.flags |= FLAG_PREC;
 857              		.loc 1 576 0
 858 00f4 3B6C     		ldr	r3, [r7, #64]
 859 00f6 43F00403 		orr	r3, r3, #4
 860 00fa 3B64     		str	r3, [r7, #64]
 577:xformatc.c    **** 				if (c == '*')
 861              		.loc 1 577 0
 862 00fc 97F89330 		ldrb	r3, [r7, #147]	@ zero_extendqisi2
 863 0100 2A2B     		cmp	r3, #42
 864 0102 05D1     		bne	.L54
 578:xformatc.c    **** 					param.prec = (int)va_arg(args,int);
 865              		.loc 1 578 0
 866 0104 3B68     		ldr	r3, [r7]
 867 0106 1A1D     		adds	r2, r3, #4
 868 0108 3A60     		str	r2, [r7]
 869 010a 1B68     		ldr	r3, [r3]
 870 010c 7B63     		str	r3, [r7, #52]
 871 010e 0AE0     		b	.L55
 872              	.L54:
 579:xformatc.c    **** 				else
 580:xformatc.c    **** 					param.prec = param.prec * 10 + (c - '0');
 873              		.loc 1 580 0
 874 0110 7A6B     		ldr	r2, [r7, #52]
 875 0112 1346     		mov	r3, r2
 876 0114 9B00     		lsls	r3, r3, #2
 877 0116 1344     		add	r3, r3, r2
 878 0118 5B00     		lsls	r3, r3, #1
 879 011a 1A46     		mov	r2, r3
 880 011c 97F89330 		ldrb	r3, [r7, #147]	@ zero_extendqisi2
 881 0120 303B     		subs	r3, r3, #48
 882 0122 1344     		add	r3, r3, r2
 883 0124 7B63     		str	r3, [r7, #52]
 884              	.L55:
 581:xformatc.c    **** 				break;
 885              		.loc 1 581 0
 886 0126 9AE3     		b	.L39
 887              	.L50:
ARM GAS  C:\Users\bmt\AppData\Local\Temp\ccKVUDN8.s 			page 27


 582:xformatc.c    **** 
 583:xformatc.c    **** 			case	ST_SIZE:
 584:xformatc.c    **** 				switch (c)
 888              		.loc 1 584 0
 889 0128 97F89330 		ldrb	r3, [r7, #147]	@ zero_extendqisi2
 890 012c 6C2B     		cmp	r3, #108
 891 012e 0BD0     		beq	.L57
 892 0130 7A2B     		cmp	r3, #122
 893 0132 00D0     		beq	.L58
 585:xformatc.c    **** 				{
 586:xformatc.c    **** 					default:
 587:xformatc.c    **** 						break;
 894              		.loc 1 587 0
 895 0134 1FE0     		b	.L59
 896              	.L58:
 588:xformatc.c    **** 					case 'z':
 589:xformatc.c    **** 						param.flags &= ~FLAG_TYPE_MASK;
 897              		.loc 1 589 0
 898 0136 3B6C     		ldr	r3, [r7, #64]
 899 0138 23F00303 		bic	r3, r3, #3
 900 013c 3B64     		str	r3, [r7, #64]
 590:xformatc.c    **** 						param.flags |= FLAG_TYPE_SIZEOF;
 901              		.loc 1 590 0
 902 013e 3B6C     		ldr	r3, [r7, #64]
 903 0140 43F00203 		orr	r3, r3, #2
 904 0144 3B64     		str	r3, [r7, #64]
 591:xformatc.c    **** 						break;
 905              		.loc 1 591 0
 906 0146 16E0     		b	.L59
 907              	.L57:
 592:xformatc.c    **** 
 593:xformatc.c    **** 					case 'l':
 594:xformatc.c    **** #if XCFG_FORMAT_LONGLONG
 595:xformatc.c    **** 						if ((param.flags & FLAG_TYPE_MASK) == FLAG_TYPE_LONG)
 908              		.loc 1 595 0
 909 0148 3B6C     		ldr	r3, [r7, #64]
 910 014a 03F00303 		and	r3, r3, #3
 911 014e 012B     		cmp	r3, #1
 912 0150 08D1     		bne	.L60
 596:xformatc.c    **** 						{
 597:xformatc.c    **** 							param.flags &= ~FLAG_TYPE_MASK;
 913              		.loc 1 597 0
 914 0152 3B6C     		ldr	r3, [r7, #64]
 915 0154 23F00303 		bic	r3, r3, #3
 916 0158 3B64     		str	r3, [r7, #64]
 598:xformatc.c    **** 							param.flags |=  FLAG_TYPE_LONGLONG;
 917              		.loc 1 598 0
 918 015a 3B6C     		ldr	r3, [r7, #64]
 919 015c 43F00303 		orr	r3, r3, #3
 920 0160 3B64     		str	r3, [r7, #64]
 599:xformatc.c    **** 						}
 600:xformatc.c    **** 						else
 601:xformatc.c    **** 						{
 602:xformatc.c    **** 							param.flags &= ~FLAG_TYPE_MASK;
 603:xformatc.c    **** 							param.flags |= FLAG_TYPE_LONG;
 604:xformatc.c    **** 
 605:xformatc.c    **** 						}
ARM GAS  C:\Users\bmt\AppData\Local\Temp\ccKVUDN8.s 			page 28


 606:xformatc.c    **** #else
 607:xformatc.c    **** 						param.flags &= ~FLAG_TYPE_MASK;
 608:xformatc.c    **** 						param.flags |= FLAG_TYPE_LONG;
 609:xformatc.c    **** #endif
 610:xformatc.c    **** 						break;
 921              		.loc 1 610 0
 922 0162 07E0     		b	.L132
 923              	.L60:
 602:xformatc.c    **** 							param.flags |= FLAG_TYPE_LONG;
 924              		.loc 1 602 0
 925 0164 3B6C     		ldr	r3, [r7, #64]
 926 0166 23F00303 		bic	r3, r3, #3
 927 016a 3B64     		str	r3, [r7, #64]
 603:xformatc.c    **** 
 928              		.loc 1 603 0
 929 016c 3B6C     		ldr	r3, [r7, #64]
 930 016e 43F00103 		orr	r3, r3, #1
 931 0172 3B64     		str	r3, [r7, #64]
 932              	.L132:
 933              		.loc 1 610 0
 934 0174 00BF     		nop
 935              	.L59:
 611:xformatc.c    **** 
 612:xformatc.c    **** 
 613:xformatc.c    **** 				}
 614:xformatc.c    **** 				break;
 936              		.loc 1 614 0 discriminator 1
 937 0176 72E3     		b	.L39
 938              	.L46:
 615:xformatc.c    **** 
 616:xformatc.c    **** 			case	ST_FLAG:
 617:xformatc.c    **** 				switch (c)
 939              		.loc 1 617 0
 940 0178 97F89330 		ldrb	r3, [r7, #147]	@ zero_extendqisi2
 941 017c 203B     		subs	r3, r3, #32
 942 017e 102B     		cmp	r3, #16
 943 0180 3CD8     		bhi	.L133
 944 0182 01A2     		adr	r2, .L64
 945 0184 52F823F0 		ldr	pc, [r2, r3, lsl #2]
 946              		.p2align 2
 947              	.L64:
 948 0188 DF010000 		.word	.L63+1
 949 018c FD010000 		.word	.L133+1
 950 0190 FD010000 		.word	.L133+1
 951 0194 E9010000 		.word	.L65+1
 952 0198 FD010000 		.word	.L133+1
 953 019c FD010000 		.word	.L133+1
 954 01a0 FD010000 		.word	.L133+1
 955 01a4 FD010000 		.word	.L133+1
 956 01a8 FD010000 		.word	.L133+1
 957 01ac FD010000 		.word	.L133+1
 958 01b0 FD010000 		.word	.L133+1
 959 01b4 F3010000 		.word	.L66+1
 960 01b8 FD010000 		.word	.L133+1
 961 01bc CD010000 		.word	.L67+1
 962 01c0 FD010000 		.word	.L133+1
 963 01c4 FD010000 		.word	.L133+1
ARM GAS  C:\Users\bmt\AppData\Local\Temp\ccKVUDN8.s 			page 29


 964 01c8 D7010000 		.word	.L68+1
 965              		.p2align 1
 966              	.L67:
 618:xformatc.c    **** 				{
 619:xformatc.c    **** 					default:
 620:xformatc.c    **** 						break;
 621:xformatc.c    **** 					case  '-':
 622:xformatc.c    **** 						param.flags |= FLAG_LEFT;
 967              		.loc 1 622 0
 968 01cc 3B6C     		ldr	r3, [r7, #64]
 969 01ce 43F00803 		orr	r3, r3, #8
 970 01d2 3B64     		str	r3, [r7, #64]
 623:xformatc.c    **** 						break;
 971              		.loc 1 623 0
 972 01d4 13E0     		b	.L69
 973              	.L68:
 624:xformatc.c    **** 					case  '0':
 625:xformatc.c    **** 						param.pad = '0';
 974              		.loc 1 625 0
 975 01d6 3023     		movs	r3, #48
 976 01d8 87F88C30 		strb	r3, [r7, #140]
 626:xformatc.c    **** 						break;
 977              		.loc 1 626 0
 978 01dc 0FE0     		b	.L69
 979              	.L63:
 627:xformatc.c    **** 					case ' ':
 628:xformatc.c    **** 						param.flags |= FLAG_BLANK;
 980              		.loc 1 628 0
 981 01de 3B6C     		ldr	r3, [r7, #64]
 982 01e0 43F01003 		orr	r3, r3, #16
 983 01e4 3B64     		str	r3, [r7, #64]
 629:xformatc.c    **** 						break;
 984              		.loc 1 629 0
 985 01e6 0AE0     		b	.L69
 986              	.L65:
 630:xformatc.c    **** 					case '#':
 631:xformatc.c    **** 						param.flags |= FLAG_PREFIX;
 987              		.loc 1 631 0
 988 01e8 3B6C     		ldr	r3, [r7, #64]
 989 01ea 43F02003 		orr	r3, r3, #32
 990 01ee 3B64     		str	r3, [r7, #64]
 632:xformatc.c    **** 						break;
 991              		.loc 1 632 0
 992 01f0 05E0     		b	.L69
 993              	.L66:
 633:xformatc.c    **** 					case '+':
 634:xformatc.c    **** 						param.flags |= FLAG_PLUS;
 994              		.loc 1 634 0
 995 01f2 3B6C     		ldr	r3, [r7, #64]
 996 01f4 43F04003 		orr	r3, r3, #64
 997 01f8 3B64     		str	r3, [r7, #64]
 635:xformatc.c    **** 						break;
 998              		.loc 1 635 0
 999 01fa 00E0     		b	.L69
 1000              	.L133:
 620:xformatc.c    **** 					case  '-':
 1001              		.loc 1 620 0
ARM GAS  C:\Users\bmt\AppData\Local\Temp\ccKVUDN8.s 			page 30


 1002 01fc 00BF     		nop
 1003              	.L69:
 636:xformatc.c    **** 				}
 637:xformatc.c    **** 				break;
 1004              		.loc 1 637 0 discriminator 3
 1005 01fe 2EE3     		b	.L39
 1006              	.L51:
 638:xformatc.c    **** 
 639:xformatc.c    **** 			case	ST_TYPE:
 640:xformatc.c    **** 				switch (c)
 1007              		.loc 1 640 0
 1008 0200 97F89330 		ldrb	r3, [r7, #147]	@ zero_extendqisi2
 1009 0204 423B     		subs	r3, r3, #66
 1010 0206 362B     		cmp	r3, #54
 1011 0208 70D8     		bhi	.L70
 1012 020a 01A2     		adr	r2, .L72
 1013 020c 52F823F0 		ldr	pc, [r2, r3, lsl #2]
 1014              		.p2align 2
 1015              	.L72:
 1016 0210 E1050000 		.word	.L71+1
 1017 0214 01040000 		.word	.L73+1
 1018 0218 ED020000 		.word	.L70+1
 1019 021c ED020000 		.word	.L70+1
 1020 0220 ED020000 		.word	.L70+1
 1021 0224 ED020000 		.word	.L70+1
 1022 0228 ED020000 		.word	.L70+1
 1023 022c ED020000 		.word	.L70+1
 1024 0230 ED020000 		.word	.L70+1
 1025 0234 ED020000 		.word	.L70+1
 1026 0238 ED020000 		.word	.L70+1
 1027 023c ED020000 		.word	.L70+1
 1028 0240 ED020000 		.word	.L70+1
 1029 0244 ED020000 		.word	.L70+1
 1030 0248 F3020000 		.word	.L74+1
 1031 024c ED020000 		.word	.L70+1
 1032 0250 ED020000 		.word	.L70+1
 1033 0254 D7030000 		.word	.L75+1
 1034 0258 ED020000 		.word	.L70+1
 1035 025c ED020000 		.word	.L70+1
 1036 0260 ED020000 		.word	.L70+1
 1037 0264 ED020000 		.word	.L70+1
 1038 0268 83030000 		.word	.L76+1
 1039 026c ED020000 		.word	.L70+1
 1040 0270 ED020000 		.word	.L70+1
 1041 0274 ED020000 		.word	.L70+1
 1042 0278 ED020000 		.word	.L70+1
 1043 027c ED020000 		.word	.L70+1
 1044 0280 ED020000 		.word	.L70+1
 1045 0284 ED020000 		.word	.L70+1
 1046 0288 ED020000 		.word	.L70+1
 1047 028c ED020000 		.word	.L70+1
 1048 0290 2B030000 		.word	.L77+1
 1049 0294 09040000 		.word	.L78+1
 1050 0298 B7030000 		.word	.L79+1
 1051 029c ED020000 		.word	.L70+1
 1052 02a0 25040000 		.word	.L80+1
 1053 02a4 ED020000 		.word	.L70+1
ARM GAS  C:\Users\bmt\AppData\Local\Temp\ccKVUDN8.s 			page 31


 1054 02a8 ED020000 		.word	.L70+1
 1055 02ac B7030000 		.word	.L79+1
 1056 02b0 ED020000 		.word	.L70+1
 1057 02b4 ED020000 		.word	.L70+1
 1058 02b8 ED020000 		.word	.L70+1
 1059 02bc ED020000 		.word	.L70+1
 1060 02c0 ED020000 		.word	.L70+1
 1061 02c4 5D030000 		.word	.L81+1
 1062 02c8 FB020000 		.word	.L82+1
 1063 02cc ED020000 		.word	.L70+1
 1064 02d0 ED020000 		.word	.L70+1
 1065 02d4 DF030000 		.word	.L83+1
 1066 02d8 ED020000 		.word	.L70+1
 1067 02dc C7030000 		.word	.L84+1
 1068 02e0 ED020000 		.word	.L70+1
 1069 02e4 ED020000 		.word	.L70+1
 1070 02e8 8B030000 		.word	.L85+1
 1071              		.p2align 1
 1072              	.L70:
 641:xformatc.c    **** 				{
 642:xformatc.c    **** 					default:
 643:xformatc.c    **** 						param.length = 0;
 1073              		.loc 1 643 0
 1074 02ec 0023     		movs	r3, #0
 1075 02ee 3B63     		str	r3, [r7, #48]
 644:xformatc.c    **** 						break;
 1076              		.loc 1 644 0
 1077 02f0 88E1     		b	.L86
 1078              	.L74:
 645:xformatc.c    **** 
 646:xformatc.c    **** 						/*
 647:xformatc.c    **** 						 * Pointer upper case
 648:xformatc.c    **** 						 */
 649:xformatc.c    **** 					case	'P':
 650:xformatc.c    **** 						param.flags |=  FLAG_UPPER;
 1079              		.loc 1 650 0
 1080 02f2 3B6C     		ldr	r3, [r7, #64]
 1081 02f4 43F08003 		orr	r3, r3, #128
 1082 02f8 3B64     		str	r3, [r7, #64]
 1083              	.L82:
 651:xformatc.c    **** 						/* no break */
 652:xformatc.c    **** 						/*lint -fallthrough */
 653:xformatc.c    **** 
 654:xformatc.c    **** 						/*
 655:xformatc.c    **** 						 * Pointer 
 656:xformatc.c    **** 						 */
 657:xformatc.c    **** 					case	'p':
 658:xformatc.c    **** 						param.flags &= ~FLAG_TYPE_MASK;
 1084              		.loc 1 658 0
 1085 02fa 3B6C     		ldr	r3, [r7, #64]
 1086 02fc 23F00303 		bic	r3, r3, #3
 1087 0300 3B64     		str	r3, [r7, #64]
 659:xformatc.c    **** 						param.flags |= FLAG_INTEGER | FLAG_TYPE_SIZEOF;
 1088              		.loc 1 659 0
 1089 0302 3B6C     		ldr	r3, [r7, #64]
 1090 0304 43F40073 		orr	r3, r3, #512
 1091 0308 43F00203 		orr	r3, r3, #2
ARM GAS  C:\Users\bmt\AppData\Local\Temp\ccKVUDN8.s 			page 32


 1092 030c 3B64     		str	r3, [r7, #64]
 660:xformatc.c    **** 						param.radix = 16;
 1093              		.loc 1 660 0
 1094 030e 1023     		movs	r3, #16
 1095 0310 87F88B30 		strb	r3, [r7, #139]
 661:xformatc.c    **** 						param.prec = sizeof(void *) * 2;
 1096              		.loc 1 661 0
 1097 0314 0823     		movs	r3, #8
 1098 0316 7B63     		str	r3, [r7, #52]
 662:xformatc.c    **** 						param.prefix[0] = '-';
 1099              		.loc 1 662 0
 1100 0318 2D23     		movs	r3, #45
 1101 031a 87F84830 		strb	r3, [r7, #72]
 663:xformatc.c    **** 						param.prefix[1] = '>';
 1102              		.loc 1 663 0
 1103 031e 3E23     		movs	r3, #62
 1104 0320 87F84930 		strb	r3, [r7, #73]
 664:xformatc.c    **** 						param.prefixlen = 2;
 1105              		.loc 1 664 0
 1106 0324 0223     		movs	r3, #2
 1107 0326 7B64     		str	r3, [r7, #68]
 665:xformatc.c    **** 						break;
 1108              		.loc 1 665 0
 1109 0328 6CE1     		b	.L86
 1110              	.L77:
 666:xformatc.c    **** 
 667:xformatc.c    **** 						/*
 668:xformatc.c    **** 						 * Binary number
 669:xformatc.c    **** 						 */
 670:xformatc.c    **** 					case	'b':
 671:xformatc.c    **** 						param.flags |= FLAG_INTEGER;
 1111              		.loc 1 671 0
 1112 032a 3B6C     		ldr	r3, [r7, #64]
 1113 032c 43F40073 		orr	r3, r3, #512
 1114 0330 3B64     		str	r3, [r7, #64]
 672:xformatc.c    **** 						param.radix = 2;
 1115              		.loc 1 672 0
 1116 0332 0223     		movs	r3, #2
 1117 0334 87F88B30 		strb	r3, [r7, #139]
 673:xformatc.c    **** 						if (param.flags & FLAG_PREFIX)
 1118              		.loc 1 673 0
 1119 0338 3B6C     		ldr	r3, [r7, #64]
 1120 033a 03F02003 		and	r3, r3, #32
 1121 033e 002B     		cmp	r3, #0
 1122 0340 08D0     		beq	.L87
 674:xformatc.c    **** 						{
 675:xformatc.c    **** 							param.prefix[0] = '0';
 1123              		.loc 1 675 0
 1124 0342 3023     		movs	r3, #48
 1125 0344 87F84830 		strb	r3, [r7, #72]
 676:xformatc.c    **** 							param.prefix[1] = 'b';
 1126              		.loc 1 676 0
 1127 0348 6223     		movs	r3, #98
 1128 034a 87F84930 		strb	r3, [r7, #73]
 677:xformatc.c    **** 							param.prefixlen = 2;
 1129              		.loc 1 677 0
 1130 034e 0223     		movs	r3, #2
ARM GAS  C:\Users\bmt\AppData\Local\Temp\ccKVUDN8.s 			page 33


 1131 0350 7B64     		str	r3, [r7, #68]
 678:xformatc.c    **** 						}
 679:xformatc.c    **** 						break;
 1132              		.loc 1 679 0
 1133 0352 57E1     		b	.L86
 1134              	.L87:
 1135 0354 56E1     		b	.L86
 1136              	.L135:
 1137 0356 00BF     		.align	2
 1138              	.L134:
 1139 0358 2C000000 		.word	formatStates
 1140              	.L81:
 680:xformatc.c    **** 
 681:xformatc.c    **** 						/*
 682:xformatc.c    **** 						 * Octal number
 683:xformatc.c    **** 						 */
 684:xformatc.c    **** 					case	'o':
 685:xformatc.c    **** 						param.flags |= FLAG_INTEGER;
 1141              		.loc 1 685 0
 1142 035c 3B6C     		ldr	r3, [r7, #64]
 1143 035e 43F40073 		orr	r3, r3, #512
 1144 0362 3B64     		str	r3, [r7, #64]
 686:xformatc.c    **** 						param.radix = 8;
 1145              		.loc 1 686 0
 1146 0364 0823     		movs	r3, #8
 1147 0366 87F88B30 		strb	r3, [r7, #139]
 687:xformatc.c    **** 						if (param.flags & FLAG_PREFIX)
 1148              		.loc 1 687 0
 1149 036a 3B6C     		ldr	r3, [r7, #64]
 1150 036c 03F02003 		and	r3, r3, #32
 1151 0370 002B     		cmp	r3, #0
 1152 0372 05D0     		beq	.L88
 688:xformatc.c    **** 						{
 689:xformatc.c    **** 							param.prefix[0] = '0';
 1153              		.loc 1 689 0
 1154 0374 3023     		movs	r3, #48
 1155 0376 87F84830 		strb	r3, [r7, #72]
 690:xformatc.c    **** 							param.prefixlen = 1;
 1156              		.loc 1 690 0
 1157 037a 0123     		movs	r3, #1
 1158 037c 7B64     		str	r3, [r7, #68]
 691:xformatc.c    **** 						}
 692:xformatc.c    **** 						break;
 1159              		.loc 1 692 0
 1160 037e 41E1     		b	.L86
 1161              	.L88:
 1162 0380 40E1     		b	.L86
 1163              	.L76:
 693:xformatc.c    **** 
 694:xformatc.c    **** 						/*
 695:xformatc.c    **** 						 * Hex number upper case letter.
 696:xformatc.c    **** 						 */
 697:xformatc.c    **** 					case	'X':
 698:xformatc.c    **** 						/* no break */
 699:xformatc.c    **** 						param.flags |= FLAG_UPPER;
 1164              		.loc 1 699 0
 1165 0382 3B6C     		ldr	r3, [r7, #64]
ARM GAS  C:\Users\bmt\AppData\Local\Temp\ccKVUDN8.s 			page 34


 1166 0384 43F08003 		orr	r3, r3, #128
 1167 0388 3B64     		str	r3, [r7, #64]
 1168              	.L85:
 700:xformatc.c    **** 
 701:xformatc.c    **** 						/* no break */
 702:xformatc.c    **** 
 703:xformatc.c    **** 						/* lint -fallthrough */
 704:xformatc.c    **** 
 705:xformatc.c    **** 						/*
 706:xformatc.c    **** 						 * Hex number lower case
 707:xformatc.c    **** 						 */
 708:xformatc.c    **** 					case	'x':
 709:xformatc.c    **** 						param.flags |= FLAG_INTEGER;
 1169              		.loc 1 709 0
 1170 038a 3B6C     		ldr	r3, [r7, #64]
 1171 038c 43F40073 		orr	r3, r3, #512
 1172 0390 3B64     		str	r3, [r7, #64]
 710:xformatc.c    **** 						param.radix = 16;
 1173              		.loc 1 710 0
 1174 0392 1023     		movs	r3, #16
 1175 0394 87F88B30 		strb	r3, [r7, #139]
 711:xformatc.c    **** 						if (param.flags & FLAG_PREFIX)
 1176              		.loc 1 711 0
 1177 0398 3B6C     		ldr	r3, [r7, #64]
 1178 039a 03F02003 		and	r3, r3, #32
 1179 039e 002B     		cmp	r3, #0
 1180 03a0 08D0     		beq	.L89
 712:xformatc.c    **** 						{
 713:xformatc.c    **** 							param.prefix[0] = '0';
 1181              		.loc 1 713 0
 1182 03a2 3023     		movs	r3, #48
 1183 03a4 87F84830 		strb	r3, [r7, #72]
 714:xformatc.c    **** 							param.prefix[1] = 'x';
 1184              		.loc 1 714 0
 1185 03a8 7823     		movs	r3, #120
 1186 03aa 87F84930 		strb	r3, [r7, #73]
 715:xformatc.c    **** 							param.prefixlen = 2;
 1187              		.loc 1 715 0
 1188 03ae 0223     		movs	r3, #2
 1189 03b0 7B64     		str	r3, [r7, #68]
 716:xformatc.c    **** 						}
 717:xformatc.c    **** 						break;
 1190              		.loc 1 717 0
 1191 03b2 27E1     		b	.L86
 1192              	.L89:
 1193 03b4 26E1     		b	.L86
 1194              	.L79:
 718:xformatc.c    **** 
 719:xformatc.c    **** 						/*
 720:xformatc.c    **** 						 * Integer number radix 10
 721:xformatc.c    **** 						 */
 722:xformatc.c    **** 					case	'd':
 723:xformatc.c    **** 					case	'i':
 724:xformatc.c    **** 						param.flags |= FLAG_DECIMAL|FLAG_INTEGER;
 1195              		.loc 1 724 0
 1196 03b6 3B6C     		ldr	r3, [r7, #64]
 1197 03b8 43F44073 		orr	r3, r3, #768
ARM GAS  C:\Users\bmt\AppData\Local\Temp\ccKVUDN8.s 			page 35


 1198 03bc 3B64     		str	r3, [r7, #64]
 725:xformatc.c    **** 						param.radix = 10;
 1199              		.loc 1 725 0
 1200 03be 0A23     		movs	r3, #10
 1201 03c0 87F88B30 		strb	r3, [r7, #139]
 726:xformatc.c    **** 						break;
 1202              		.loc 1 726 0
 1203 03c4 1EE1     		b	.L86
 1204              	.L84:
 727:xformatc.c    **** 
 728:xformatc.c    **** 						/*
 729:xformatc.c    **** 						 * Unsigned number
 730:xformatc.c    **** 						 */
 731:xformatc.c    **** 					case	'u':
 732:xformatc.c    **** 						param.flags |= FLAG_INTEGER;
 1205              		.loc 1 732 0
 1206 03c6 3B6C     		ldr	r3, [r7, #64]
 1207 03c8 43F40073 		orr	r3, r3, #512
 1208 03cc 3B64     		str	r3, [r7, #64]
 733:xformatc.c    **** 						param.radix = 10;
 1209              		.loc 1 733 0
 1210 03ce 0A23     		movs	r3, #10
 1211 03d0 87F88B30 		strb	r3, [r7, #139]
 734:xformatc.c    **** 						break;
 1212              		.loc 1 734 0
 1213 03d4 16E1     		b	.L86
 1214              	.L75:
 735:xformatc.c    **** 
 736:xformatc.c    **** 						/*
 737:xformatc.c    **** 						 * Upper case string
 738:xformatc.c    **** 						 */
 739:xformatc.c    **** 					case	'S':
 740:xformatc.c    **** 						param.flags |= FLAG_UPPER;
 1215              		.loc 1 740 0
 1216 03d6 3B6C     		ldr	r3, [r7, #64]
 1217 03d8 43F08003 		orr	r3, r3, #128
 1218 03dc 3B64     		str	r3, [r7, #64]
 1219              	.L83:
 741:xformatc.c    **** 						/* no break */
 742:xformatc.c    **** 						/*lint -fallthrough */
 743:xformatc.c    **** 
 744:xformatc.c    **** 						/*
 745:xformatc.c    **** 						 * Normal string
 746:xformatc.c    **** 						 */
 747:xformatc.c    **** 					case	's':
 748:xformatc.c    **** 						param.out = va_arg(args,char *);
 1220              		.loc 1 748 0
 1221 03de 3B68     		ldr	r3, [r7]
 1222 03e0 1A1D     		adds	r2, r3, #4
 1223 03e2 3A60     		str	r2, [r7]
 1224 03e4 1B68     		ldr	r3, [r3]
 1225 03e6 BB61     		str	r3, [r7, #24]
 749:xformatc.c    **** 						if (param.out == 0)
 1226              		.loc 1 749 0
 1227 03e8 BB69     		ldr	r3, [r7, #24]
 1228 03ea 002B     		cmp	r3, #0
 1229 03ec 01D1     		bne	.L90
ARM GAS  C:\Users\bmt\AppData\Local\Temp\ccKVUDN8.s 			page 36


 750:xformatc.c    **** 							param.out = (char *)ms_null;
 1230              		.loc 1 750 0
 1231 03ee A94B     		ldr	r3, .L136
 1232 03f0 BB61     		str	r3, [r7, #24]
 1233              	.L90:
 751:xformatc.c    **** 						param.length = (int)xstrlen(param.out);
 1234              		.loc 1 751 0
 1235 03f2 BB69     		ldr	r3, [r7, #24]
 1236 03f4 1846     		mov	r0, r3
 1237 03f6 FFF7FEFF 		bl	xstrlen
 1238 03fa 0346     		mov	r3, r0
 1239 03fc 3B63     		str	r3, [r7, #48]
 752:xformatc.c    **** 						break;
 1240              		.loc 1 752 0
 1241 03fe 01E1     		b	.L86
 1242              	.L73:
 753:xformatc.c    **** 
 754:xformatc.c    **** 						/*
 755:xformatc.c    **** 						 * Upper case char
 756:xformatc.c    **** 						 */
 757:xformatc.c    **** 					case	'C':
 758:xformatc.c    **** 						param.flags |= FLAG_UPPER;
 1243              		.loc 1 758 0
 1244 0400 3B6C     		ldr	r3, [r7, #64]
 1245 0402 43F08003 		orr	r3, r3, #128
 1246 0406 3B64     		str	r3, [r7, #64]
 1247              	.L78:
 759:xformatc.c    **** 						/* no break */
 760:xformatc.c    **** 						/* lint -fallthrough */
 761:xformatc.c    **** 
 762:xformatc.c    **** 						/*
 763:xformatc.c    **** 						 * Char
 764:xformatc.c    **** 						 */
 765:xformatc.c    **** 					case	'c':
 766:xformatc.c    **** 						param.out = param.buffer;
 1248              		.loc 1 766 0
 1249 0408 07F11003 		add	r3, r7, #16
 1250 040c 3A33     		adds	r3, r3, #58
 1251 040e BB61     		str	r3, [r7, #24]
 767:xformatc.c    **** 						param.buffer[0] = (char)va_arg(args,int);
 1252              		.loc 1 767 0
 1253 0410 3B68     		ldr	r3, [r7]
 1254 0412 1A1D     		adds	r2, r3, #4
 1255 0414 3A60     		str	r2, [r7]
 1256 0416 1B68     		ldr	r3, [r3]
 1257 0418 DBB2     		uxtb	r3, r3
 1258 041a 87F84A30 		strb	r3, [r7, #74]
 768:xformatc.c    **** 						param.length = 1;
 1259              		.loc 1 768 0
 1260 041e 0123     		movs	r3, #1
 1261 0420 3B63     		str	r3, [r7, #48]
 769:xformatc.c    **** 						break;
 1262              		.loc 1 769 0
 1263 0422 EFE0     		b	.L86
 1264              	.L80:
 770:xformatc.c    **** 
 771:xformatc.c    **** #if XCFG_FORMAT_FLOAT
ARM GAS  C:\Users\bmt\AppData\Local\Temp\ccKVUDN8.s 			page 37


 772:xformatc.c    **** 						/**
 773:xformatc.c    **** 						 * Floating point number
 774:xformatc.c    **** 						 */
 775:xformatc.c    **** 					case 'f':
 776:xformatc.c    **** 						if (!(param.flags & FLAG_PREC))
 1265              		.loc 1 776 0
 1266 0424 3B6C     		ldr	r3, [r7, #64]
 1267 0426 03F00403 		and	r3, r3, #4
 1268 042a 002B     		cmp	r3, #0
 1269 042c 01D1     		bne	.L91
 777:xformatc.c    **** 						{
 778:xformatc.c    **** 							param.prec = 6;
 1270              		.loc 1 778 0
 1271 042e 0623     		movs	r3, #6
 1272 0430 7B63     		str	r3, [r7, #52]
 1273              	.L91:
 779:xformatc.c    **** 						}
 780:xformatc.c    **** 
 781:xformatc.c    **** 						param.dbl = va_arg(args,DOUBLE);
 1274              		.loc 1 781 0
 1275 0432 3B68     		ldr	r3, [r7]
 1276 0434 0733     		adds	r3, r3, #7
 1277 0436 23F00703 		bic	r3, r3, #7
 1278 043a 03F10802 		add	r2, r3, #8
 1279 043e 3A60     		str	r2, [r7]
 1280 0440 D3E90023 		ldrd	r2, [r3]
 1281 0444 C7E90823 		strd	r2, [r7, #32]
 782:xformatc.c    **** 						param.values.dvalue = 0.50;
 1282              		.loc 1 782 0
 1283 0448 4FF00002 		mov	r2, #0
 1284 044c 924B     		ldr	r3, .L136+4
 1285 044e C7E90423 		strd	r2, [r7, #16]
 783:xformatc.c    **** 						for (i = 0 ; i < param.prec ; i++)
 1286              		.loc 1 783 0
 1287 0452 0023     		movs	r3, #0
 1288 0454 C7F89430 		str	r3, [r7, #148]
 1289 0458 11E0     		b	.L92
 1290              	.L93:
 784:xformatc.c    **** 							param.values.dvalue /= 10.0;
 1291              		.loc 1 784 0 discriminator 3
 1292 045a D7E90423 		ldrd	r2, [r7, #16]
 1293 045e 1046     		mov	r0, r2
 1294 0460 1946     		mov	r1, r3
 1295 0462 4FF00002 		mov	r2, #0
 1296 0466 8D4B     		ldr	r3, .L136+8
 1297 0468 FFF7FEFF 		bl	__aeabi_ddiv
 1298 046c 0246     		mov	r2, r0
 1299 046e 0B46     		mov	r3, r1
 1300 0470 C7E90423 		strd	r2, [r7, #16]
 783:xformatc.c    **** 						for (i = 0 ; i < param.prec ; i++)
 1301              		.loc 1 783 0 discriminator 3
 1302 0474 D7F89430 		ldr	r3, [r7, #148]
 1303 0478 0133     		adds	r3, r3, #1
 1304 047a C7F89430 		str	r3, [r7, #148]
 1305              	.L92:
 783:xformatc.c    **** 						for (i = 0 ; i < param.prec ; i++)
 1306              		.loc 1 783 0 is_stmt 0 discriminator 1
ARM GAS  C:\Users\bmt\AppData\Local\Temp\ccKVUDN8.s 			page 38


 1307 047e 7A6B     		ldr	r2, [r7, #52]
 1308 0480 D7F89430 		ldr	r3, [r7, #148]
 1309 0484 9A42     		cmp	r2, r3
 1310 0486 E8DC     		bgt	.L93
 785:xformatc.c    **** 
 786:xformatc.c    **** 						if (param.dbl < 0)
 1311              		.loc 1 786 0 is_stmt 1
 1312 0488 D7E90823 		ldrd	r2, [r7, #32]
 1313 048c 1046     		mov	r0, r2
 1314 048e 1946     		mov	r1, r3
 1315 0490 4FF00002 		mov	r2, #0
 1316 0494 4FF00003 		mov	r3, #0
 1317 0498 FFF7FEFF 		bl	__aeabi_dcmplt
 1318 049c 0346     		mov	r3, r0
 1319 049e 002B     		cmp	r3, #0
 1320 04a0 31D0     		beq	.L131
 787:xformatc.c    **** 						{
 788:xformatc.c    **** 							param.flags |= FLAG_MINUS;
 1321              		.loc 1 788 0
 1322 04a2 3B6C     		ldr	r3, [r7, #64]
 1323 04a4 43F48063 		orr	r3, r3, #1024
 1324 04a8 3B64     		str	r3, [r7, #64]
 789:xformatc.c    **** 							param.dbl		-= param.values.dvalue;
 1325              		.loc 1 789 0
 1326 04aa D7E90801 		ldrd	r0, [r7, #32]
 1327 04ae D7E90423 		ldrd	r2, [r7, #16]
 1328 04b2 FFF7FEFF 		bl	__aeabi_dsub
 1329 04b6 0246     		mov	r2, r0
 1330 04b8 0B46     		mov	r3, r1
 1331 04ba C7E90823 		strd	r2, [r7, #32]
 790:xformatc.c    **** 							param.iPart	   = (FLOAT_LONG)param.dbl;
 1332              		.loc 1 790 0
 1333 04be D7E90823 		ldrd	r2, [r7, #32]
 1334 04c2 1046     		mov	r0, r2
 1335 04c4 1946     		mov	r1, r3
 1336 04c6 FFF7FEFF 		bl	__aeabi_d2lz
 1337 04ca 0246     		mov	r2, r0
 1338 04cc 0B46     		mov	r3, r1
 1339 04ce C7E90A23 		strd	r2, [r7, #40]
 791:xformatc.c    **** 							param.dbl		-=	(FLOAT_LONG)param.iPart;
 1340              		.loc 1 791 0
 1341 04d2 D7E90889 		ldrd	r8, [r7, #32]
 1342 04d6 D7E90A23 		ldrd	r2, [r7, #40]
 1343 04da 1046     		mov	r0, r2
 1344 04dc 1946     		mov	r1, r3
 1345 04de FFF7FEFF 		bl	__aeabi_l2d
 1346 04e2 0246     		mov	r2, r0
 1347 04e4 0B46     		mov	r3, r1
 1348 04e6 4046     		mov	r0, r8
 1349 04e8 4946     		mov	r1, r9
 1350 04ea FFF7FEFF 		bl	__aeabi_dsub
 1351 04ee 0246     		mov	r2, r0
 1352 04f0 0B46     		mov	r3, r1
 1353 04f2 C7E90823 		strd	r2, [r7, #32]
 792:xformatc.c    **** 							param.dbl		 = - param.dbl;
 1354              		.loc 1 792 0
 1355 04f6 D7E90823 		ldrd	r2, [r7, #32]
ARM GAS  C:\Users\bmt\AppData\Local\Temp\ccKVUDN8.s 			page 39


 1356 04fa 1446     		mov	r4, r2
 1357 04fc 83F00045 		eor	r5, r3, #-2147483648
 1358 0500 C7E90845 		strd	r4, [r7, #32]
 1359 0504 25E0     		b	.L96
 1360              	.L131:
 793:xformatc.c    **** 						}
 794:xformatc.c    **** 						else
 795:xformatc.c    **** 						{
 796:xformatc.c    **** 							param.dbl += param.values.dvalue;
 1361              		.loc 1 796 0
 1362 0506 D7E90801 		ldrd	r0, [r7, #32]
 1363 050a D7E90423 		ldrd	r2, [r7, #16]
 1364 050e FFF7FEFF 		bl	__aeabi_dadd
 1365 0512 0246     		mov	r2, r0
 1366 0514 0B46     		mov	r3, r1
 1367 0516 C7E90823 		strd	r2, [r7, #32]
 797:xformatc.c    **** 							param.iPart = (FLOAT_LONG)param.dbl;
 1368              		.loc 1 797 0
 1369 051a D7E90823 		ldrd	r2, [r7, #32]
 1370 051e 1046     		mov	r0, r2
 1371 0520 1946     		mov	r1, r3
 1372 0522 FFF7FEFF 		bl	__aeabi_d2lz
 1373 0526 0246     		mov	r2, r0
 1374 0528 0B46     		mov	r3, r1
 1375 052a C7E90A23 		strd	r2, [r7, #40]
 798:xformatc.c    **** 							param.dbl -= param.iPart;
 1376              		.loc 1 798 0
 1377 052e D7E90889 		ldrd	r8, [r7, #32]
 1378 0532 D7E90A23 		ldrd	r2, [r7, #40]
 1379 0536 1046     		mov	r0, r2
 1380 0538 1946     		mov	r1, r3
 1381 053a FFF7FEFF 		bl	__aeabi_ul2d
 1382 053e 0246     		mov	r2, r0
 1383 0540 0B46     		mov	r3, r1
 1384 0542 4046     		mov	r0, r8
 1385 0544 4946     		mov	r1, r9
 1386 0546 FFF7FEFF 		bl	__aeabi_dsub
 1387 054a 0246     		mov	r2, r0
 1388 054c 0B46     		mov	r3, r1
 1389 054e C7E90823 		strd	r2, [r7, #32]
 1390              	.L96:
 799:xformatc.c    **** 						}
 800:xformatc.c    **** 
 801:xformatc.c    **** 
 802:xformatc.c    **** 						for (i = 0 ;i < param.prec	;i++)
 1391              		.loc 1 802 0
 1392 0552 0023     		movs	r3, #0
 1393 0554 C7F89430 		str	r3, [r7, #148]
 1394 0558 11E0     		b	.L97
 1395              	.L98:
 803:xformatc.c    **** 							param.dbl *= 10.0;
 1396              		.loc 1 803 0 discriminator 3
 1397 055a D7E90823 		ldrd	r2, [r7, #32]
 1398 055e 1046     		mov	r0, r2
 1399 0560 1946     		mov	r1, r3
 1400 0562 4FF00002 		mov	r2, #0
 1401 0566 4D4B     		ldr	r3, .L136+8
ARM GAS  C:\Users\bmt\AppData\Local\Temp\ccKVUDN8.s 			page 40


 1402 0568 FFF7FEFF 		bl	__aeabi_dmul
 1403 056c 0246     		mov	r2, r0
 1404 056e 0B46     		mov	r3, r1
 1405 0570 C7E90823 		strd	r2, [r7, #32]
 802:xformatc.c    **** 							param.dbl *= 10.0;
 1406              		.loc 1 802 0 discriminator 3
 1407 0574 D7F89430 		ldr	r3, [r7, #148]
 1408 0578 0133     		adds	r3, r3, #1
 1409 057a C7F89430 		str	r3, [r7, #148]
 1410              	.L97:
 802:xformatc.c    **** 							param.dbl *= 10.0;
 1411              		.loc 1 802 0 is_stmt 0 discriminator 1
 1412 057e 7A6B     		ldr	r2, [r7, #52]
 1413 0580 D7F89430 		ldr	r3, [r7, #148]
 1414 0584 9A42     		cmp	r2, r3
 1415 0586 E8DC     		bgt	.L98
 804:xformatc.c    **** 
 805:xformatc.c    **** 						param.values.lvalue = (unsigned LONG)param.dbl;
 1416              		.loc 1 805 0 is_stmt 1
 1417 0588 D7E90823 		ldrd	r2, [r7, #32]
 1418 058c 1046     		mov	r0, r2
 1419 058e 1946     		mov	r1, r3
 1420 0590 FFF7FEFF 		bl	__aeabi_d2uiz
 1421 0594 0346     		mov	r3, r0
 1422 0596 3B61     		str	r3, [r7, #16]
 806:xformatc.c    **** 
 807:xformatc.c    **** 						param.out = param.buffer + sizeof(param.buffer) - 1;
 1423              		.loc 1 807 0
 1424 0598 07F11003 		add	r3, r7, #16
 1425 059c 7A33     		adds	r3, r3, #122
 1426 059e BB61     		str	r3, [r7, #24]
 808:xformatc.c    **** 						param.radix = 10;
 1427              		.loc 1 808 0
 1428 05a0 0A23     		movs	r3, #10
 1429 05a2 87F88B30 		strb	r3, [r7, #139]
 809:xformatc.c    **** 						if (param.prec)
 1430              		.loc 1 809 0
 1431 05a6 7B6B     		ldr	r3, [r7, #52]
 1432 05a8 002B     		cmp	r3, #0
 1433 05aa 0CD0     		beq	.L99
 810:xformatc.c    **** 						{
 811:xformatc.c    **** 							ulong2a(&param);
 1434              		.loc 1 811 0
 1435 05ac 07F11003 		add	r3, r7, #16
 1436 05b0 1846     		mov	r0, r3
 1437 05b2 FFF7FEFF 		bl	ulong2a
 812:xformatc.c    **** 							*param.out -- = '.';
 1438              		.loc 1 812 0
 1439 05b6 BB69     		ldr	r3, [r7, #24]
 1440 05b8 5A1E     		subs	r2, r3, #1
 1441 05ba BA61     		str	r2, [r7, #24]
 1442 05bc 2E22     		movs	r2, #46
 1443 05be 1A70     		strb	r2, [r3]
 813:xformatc.c    **** 							param.length ++;
 1444              		.loc 1 813 0
 1445 05c0 3B6B     		ldr	r3, [r7, #48]
 1446 05c2 0133     		adds	r3, r3, #1
ARM GAS  C:\Users\bmt\AppData\Local\Temp\ccKVUDN8.s 			page 41


 1447 05c4 3B63     		str	r3, [r7, #48]
 1448              	.L99:
 814:xformatc.c    **** 						}
 815:xformatc.c    **** 						param.flags |= FLAG_INTEGER | FLAG_BUFFER |
 1449              		.loc 1 815 0
 1450 05c6 3B6C     		ldr	r3, [r7, #64]
 1451 05c8 43F4D853 		orr	r3, r3, #6912
 1452 05cc 43F00303 		orr	r3, r3, #3
 1453 05d0 3B64     		str	r3, [r7, #64]
 816:xformatc.c    **** 									   FLAG_DECIMAL | FLAG_VALUE  | FLOAT_TYPE;
 817:xformatc.c    **** 
 818:xformatc.c    **** 						param.prec = 0;
 1454              		.loc 1 818 0
 1455 05d2 0023     		movs	r3, #0
 1456 05d4 7B63     		str	r3, [r7, #52]
 819:xformatc.c    **** 						param.values.FLOAT_VALUE  = (unsigned FLOAT_LONG)param.iPart;
 1457              		.loc 1 819 0
 1458 05d6 D7E90A23 		ldrd	r2, [r7, #40]
 1459 05da C7E90423 		strd	r2, [r7, #16]
 820:xformatc.c    **** 						break;
 1460              		.loc 1 820 0
 1461 05de 11E0     		b	.L86
 1462              	.L71:
 821:xformatc.c    **** #endif
 822:xformatc.c    **** 
 823:xformatc.c    **** 						/**
 824:xformatc.c    **** 						 * Boolean value
 825:xformatc.c    **** 						 */
 826:xformatc.c    **** 					case 'B':
 827:xformatc.c    **** 						if (va_arg(args,int) != 0)
 1463              		.loc 1 827 0
 1464 05e0 3B68     		ldr	r3, [r7]
 1465 05e2 1A1D     		adds	r2, r3, #4
 1466 05e4 3A60     		str	r2, [r7]
 1467 05e6 1B68     		ldr	r3, [r3]
 1468 05e8 002B     		cmp	r3, #0
 1469 05ea 02D0     		beq	.L100
 828:xformatc.c    **** 							param.out = (char*)ms_true;
 1470              		.loc 1 828 0
 1471 05ec 2C4B     		ldr	r3, .L136+12
 1472 05ee BB61     		str	r3, [r7, #24]
 1473 05f0 01E0     		b	.L101
 1474              	.L100:
 829:xformatc.c    **** 						else
 830:xformatc.c    **** 							param.out = (char*)ms_false;
 1475              		.loc 1 830 0
 1476 05f2 2C4B     		ldr	r3, .L136+16
 1477 05f4 BB61     		str	r3, [r7, #24]
 1478              	.L101:
 831:xformatc.c    **** 
 832:xformatc.c    **** 						param.length = (int)xstrlen(param.out);
 1479              		.loc 1 832 0
 1480 05f6 BB69     		ldr	r3, [r7, #24]
 1481 05f8 1846     		mov	r0, r3
 1482 05fa FFF7FEFF 		bl	xstrlen
 1483 05fe 0346     		mov	r3, r0
 1484 0600 3B63     		str	r3, [r7, #48]
ARM GAS  C:\Users\bmt\AppData\Local\Temp\ccKVUDN8.s 			page 42


 833:xformatc.c    **** 						break;
 1485              		.loc 1 833 0
 1486 0602 00BF     		nop
 1487              	.L86:
 834:xformatc.c    **** 
 835:xformatc.c    **** 
 836:xformatc.c    **** 				}
 837:xformatc.c    **** 
 838:xformatc.c    **** 				/*
 839:xformatc.c    **** 				 * Process integer number
 840:xformatc.c    **** 				 */
 841:xformatc.c    **** 				if (param.flags & FLAG_INTEGER)
 1488              		.loc 1 841 0
 1489 0604 3B6C     		ldr	r3, [r7, #64]
 1490 0606 03F40073 		and	r3, r3, #512
 1491 060a 002B     		cmp	r3, #0
 1492 060c 00F0D880 		beq	.L102
 842:xformatc.c    **** 				{
 843:xformatc.c    **** 					if (param.prec == 0)
 1493              		.loc 1 843 0
 1494 0610 7B6B     		ldr	r3, [r7, #52]
 1495 0612 002B     		cmp	r3, #0
 1496 0614 01D1     		bne	.L103
 844:xformatc.c    **** 						param.prec = 1;
 1497              		.loc 1 844 0
 1498 0616 0123     		movs	r3, #1
 1499 0618 7B63     		str	r3, [r7, #52]
 1500              	.L103:
 845:xformatc.c    **** 
 846:xformatc.c    **** 					if (!(param.flags & FLAG_VALUE))
 1501              		.loc 1 846 0
 1502 061a 3B6C     		ldr	r3, [r7, #64]
 1503 061c 03F40063 		and	r3, r3, #2048
 1504 0620 002B     		cmp	r3, #0
 1505 0622 4DD1     		bne	.L104
 847:xformatc.c    **** 					{
 848:xformatc.c    **** 						switch (param.flags & FLAG_TYPE_MASK)
 1506              		.loc 1 848 0
 1507 0624 3B6C     		ldr	r3, [r7, #64]
 1508 0626 03F00303 		and	r3, r3, #3
 1509 062a 032B     		cmp	r3, #3
 1510 062c 48D8     		bhi	.L104
 1511 062e 01A2     		adr	r2, .L106
 1512 0630 52F823F0 		ldr	pc, [r2, r3, lsl #2]
 1513              		.p2align 2
 1514              	.L106:
 1515 0634 73060000 		.word	.L105+1
 1516 0638 51060000 		.word	.L107+1
 1517 063c 45060000 		.word	.L108+1
 1518 0640 A9060000 		.word	.L109+1
 1519              		.p2align 1
 1520              	.L108:
 849:xformatc.c    **** 						{
 850:xformatc.c    **** 							case FLAG_TYPE_SIZEOF:
 851:xformatc.c    **** 								param.values.lvalue = (unsigned LONG)va_arg(args,void *);
 1521              		.loc 1 851 0
 1522 0644 3B68     		ldr	r3, [r7]
ARM GAS  C:\Users\bmt\AppData\Local\Temp\ccKVUDN8.s 			page 43


 1523 0646 1A1D     		adds	r2, r3, #4
 1524 0648 3A60     		str	r2, [r7]
 1525 064a 1B68     		ldr	r3, [r3]
 1526 064c 3B61     		str	r3, [r7, #16]
 852:xformatc.c    **** 								break;
 1527              		.loc 1 852 0
 1528 064e 37E0     		b	.L104
 1529              	.L107:
 853:xformatc.c    **** 							case FLAG_TYPE_LONG:
 854:xformatc.c    **** 								if (param.flags & FLAG_DECIMAL)
 1530              		.loc 1 854 0
 1531 0650 3B6C     		ldr	r3, [r7, #64]
 1532 0652 03F48073 		and	r3, r3, #256
 1533 0656 002B     		cmp	r3, #0
 1534 0658 05D0     		beq	.L110
 855:xformatc.c    **** 									param.values.lvalue = (LONG)va_arg(args,long);
 1535              		.loc 1 855 0
 1536 065a 3B68     		ldr	r3, [r7]
 1537 065c 1A1D     		adds	r2, r3, #4
 1538 065e 3A60     		str	r2, [r7]
 1539 0660 1B68     		ldr	r3, [r3]
 1540 0662 3B61     		str	r3, [r7, #16]
 856:xformatc.c    **** 								else
 857:xformatc.c    **** 									param.values.lvalue = (unsigned LONG)va_arg(args,unsigned long);
 858:xformatc.c    **** 								break;
 1541              		.loc 1 858 0
 1542 0664 2CE0     		b	.L104
 1543              	.L110:
 857:xformatc.c    **** 								break;
 1544              		.loc 1 857 0
 1545 0666 3B68     		ldr	r3, [r7]
 1546 0668 1A1D     		adds	r2, r3, #4
 1547 066a 3A60     		str	r2, [r7]
 1548 066c 1B68     		ldr	r3, [r3]
 1549 066e 3B61     		str	r3, [r7, #16]
 1550              		.loc 1 858 0
 1551 0670 26E0     		b	.L104
 1552              	.L105:
 859:xformatc.c    **** 								
 860:xformatc.c    **** 							case FLAG_TYPE_INT:
 861:xformatc.c    **** 								if (param.flags & FLAG_DECIMAL)
 1553              		.loc 1 861 0
 1554 0672 3B6C     		ldr	r3, [r7, #64]
 1555 0674 03F48073 		and	r3, r3, #256
 1556 0678 002B     		cmp	r3, #0
 1557 067a 05D0     		beq	.L112
 862:xformatc.c    **** 									param.values.lvalue = (LONG)va_arg(args,int);
 1558              		.loc 1 862 0
 1559 067c 3B68     		ldr	r3, [r7]
 1560 067e 1A1D     		adds	r2, r3, #4
 1561 0680 3A60     		str	r2, [r7]
 1562 0682 1B68     		ldr	r3, [r3]
 1563 0684 3B61     		str	r3, [r7, #16]
 863:xformatc.c    **** 								else
 864:xformatc.c    **** 									param.values.lvalue = (unsigned LONG)va_arg(args,unsigned int);
 865:xformatc.c    **** 								break;
 1564              		.loc 1 865 0
ARM GAS  C:\Users\bmt\AppData\Local\Temp\ccKVUDN8.s 			page 44


 1565 0686 1BE0     		b	.L104
 1566              	.L112:
 864:xformatc.c    **** 								break;
 1567              		.loc 1 864 0
 1568 0688 3B68     		ldr	r3, [r7]
 1569 068a 1A1D     		adds	r2, r3, #4
 1570 068c 3A60     		str	r2, [r7]
 1571 068e 1B68     		ldr	r3, [r3]
 1572 0690 3B61     		str	r3, [r7, #16]
 1573              		.loc 1 865 0
 1574 0692 15E0     		b	.L104
 1575              	.L137:
 1576              		.align	2
 1577              	.L136:
 1578 0694 00000000 		.word	ms_null
 1579 0698 0000E03F 		.word	1071644672
 1580 069c 00002440 		.word	1076101120
 1581 06a0 08000000 		.word	ms_true
 1582 06a4 10000000 		.word	ms_false
 1583              	.L109:
 866:xformatc.c    **** #if XCFG_FORMAT_LONGLONG
 867:xformatc.c    **** 							case FLAG_TYPE_LONGLONG:
 868:xformatc.c    **** 								param.values.llvalue = (LONGLONG)va_arg(args,long long);
 1584              		.loc 1 868 0
 1585 06a8 3B68     		ldr	r3, [r7]
 1586 06aa 0733     		adds	r3, r3, #7
 1587 06ac 23F00703 		bic	r3, r3, #7
 1588 06b0 03F10802 		add	r2, r3, #8
 1589 06b4 3A60     		str	r2, [r7]
 1590 06b6 D3E90023 		ldrd	r2, [r3]
 1591 06ba C7E90423 		strd	r2, [r7, #16]
 869:xformatc.c    **** 								break;
 1592              		.loc 1 869 0
 1593 06be 00BF     		nop
 1594              	.L104:
 870:xformatc.c    **** #endif
 871:xformatc.c    **** 						}
 872:xformatc.c    **** 
 873:xformatc.c    **** 					}
 874:xformatc.c    **** 
 875:xformatc.c    **** 					if ((param.flags & FLAG_PREFIX) && param.values.lvalue == 0)
 1595              		.loc 1 875 0
 1596 06c0 3B6C     		ldr	r3, [r7, #64]
 1597 06c2 03F02003 		and	r3, r3, #32
 1598 06c6 002B     		cmp	r3, #0
 1599 06c8 04D0     		beq	.L114
 1600              		.loc 1 875 0 is_stmt 0 discriminator 1
 1601 06ca 3B69     		ldr	r3, [r7, #16]
 1602 06cc 002B     		cmp	r3, #0
 1603 06ce 01D1     		bne	.L114
 876:xformatc.c    **** 					{
 877:xformatc.c    **** 						param.prefixlen = 0;
 1604              		.loc 1 877 0 is_stmt 1
 1605 06d0 0023     		movs	r3, #0
 1606 06d2 7B64     		str	r3, [r7, #68]
 1607              	.L114:
 878:xformatc.c    **** 					}
ARM GAS  C:\Users\bmt\AppData\Local\Temp\ccKVUDN8.s 			page 45


 879:xformatc.c    **** 
 880:xformatc.c    **** 
 881:xformatc.c    **** 					/*
 882:xformatc.c    **** 					 * Manage signed integer
 883:xformatc.c    **** 					 */
 884:xformatc.c    **** 					if (param.flags & FLAG_DECIMAL)
 1608              		.loc 1 884 0
 1609 06d4 3B6C     		ldr	r3, [r7, #64]
 1610 06d6 03F48073 		and	r3, r3, #256
 1611 06da 002B     		cmp	r3, #0
 1612 06dc 2FD0     		beq	.L115
 885:xformatc.c    **** 					{
 886:xformatc.c    **** #if XCFG_FORMAT_LONGLONG
 887:xformatc.c    **** 						if ((param.flags & FLAG_TYPE_MASK) == FLAG_TYPE_LONGLONG)
 1613              		.loc 1 887 0
 1614 06de 3B6C     		ldr	r3, [r7, #64]
 1615 06e0 03F00303 		and	r3, r3, #3
 1616 06e4 032B     		cmp	r3, #3
 1617 06e6 11D1     		bne	.L116
 888:xformatc.c    **** 						{
 889:xformatc.c    **** 							if ((LONGLONG)param.values.llvalue < 0)
 1618              		.loc 1 889 0
 1619 06e8 D7E90423 		ldrd	r2, [r7, #16]
 1620 06ec 002A     		cmp	r2, #0
 1621 06ee 73F10003 		sbcs	r3, r3, #0
 1622 06f2 15DA     		bge	.L118
 890:xformatc.c    **** 							{
 891:xformatc.c    **** 								param.values.llvalue = ~param.values.llvalue + 1;
 1623              		.loc 1 891 0
 1624 06f4 D7E90423 		ldrd	r2, [r7, #16]
 1625 06f8 5242     		rsbs	r2, r2, #0
 1626 06fa 63EB4303 		sbc	r3, r3, r3, lsl #1
 1627 06fe C7E90423 		strd	r2, [r7, #16]
 892:xformatc.c    **** 								param.flags |= FLAG_MINUS;
 1628              		.loc 1 892 0
 1629 0702 3B6C     		ldr	r3, [r7, #64]
 1630 0704 43F48063 		orr	r3, r3, #1024
 1631 0708 3B64     		str	r3, [r7, #64]
 1632 070a 09E0     		b	.L118
 1633              	.L116:
 893:xformatc.c    **** 							}
 894:xformatc.c    **** 						}
 895:xformatc.c    **** 						else 
 896:xformatc.c    **** 						{
 897:xformatc.c    **** #endif
 898:xformatc.c    **** 							if ((LONG)param.values.lvalue < 0)
 1634              		.loc 1 898 0
 1635 070c 3B69     		ldr	r3, [r7, #16]
 1636 070e 002B     		cmp	r3, #0
 1637 0710 06DA     		bge	.L118
 899:xformatc.c    **** 							{
 900:xformatc.c    **** 								param.values.lvalue = ~param.values.lvalue + 1;
 1638              		.loc 1 900 0
 1639 0712 3B69     		ldr	r3, [r7, #16]
 1640 0714 5B42     		negs	r3, r3
 1641 0716 3B61     		str	r3, [r7, #16]
 901:xformatc.c    **** 								param.flags |= FLAG_MINUS;
ARM GAS  C:\Users\bmt\AppData\Local\Temp\ccKVUDN8.s 			page 46


 1642              		.loc 1 901 0
 1643 0718 3B6C     		ldr	r3, [r7, #64]
 1644 071a 43F48063 		orr	r3, r3, #1024
 1645 071e 3B64     		str	r3, [r7, #64]
 1646              	.L118:
 902:xformatc.c    **** 
 903:xformatc.c    **** 							}
 904:xformatc.c    **** #if XCFG_FORMAT_LONGLONG
 905:xformatc.c    **** 						}
 906:xformatc.c    **** #endif
 907:xformatc.c    **** 						if (!(param.flags & FLAG_MINUS)  && (param.flags & FLAG_BLANK))
 1647              		.loc 1 907 0
 1648 0720 3B6C     		ldr	r3, [r7, #64]
 1649 0722 03F48063 		and	r3, r3, #1024
 1650 0726 002B     		cmp	r3, #0
 1651 0728 09D1     		bne	.L115
 1652              		.loc 1 907 0 is_stmt 0 discriminator 1
 1653 072a 3B6C     		ldr	r3, [r7, #64]
 1654 072c 03F01003 		and	r3, r3, #16
 1655 0730 002B     		cmp	r3, #0
 1656 0732 04D0     		beq	.L115
 908:xformatc.c    **** 						{
 909:xformatc.c    **** 							param.prefix[0] = ' ';
 1657              		.loc 1 909 0 is_stmt 1
 1658 0734 2023     		movs	r3, #32
 1659 0736 87F84830 		strb	r3, [r7, #72]
 910:xformatc.c    **** 							param.prefixlen = 1;
 1660              		.loc 1 910 0
 1661 073a 0123     		movs	r3, #1
 1662 073c 7B64     		str	r3, [r7, #68]
 1663              	.L115:
 911:xformatc.c    **** 						}
 912:xformatc.c    **** 					}
 913:xformatc.c    **** 
 914:xformatc.c    **** 					if ((param.flags & FLAG_BUFFER) == 0)
 1664              		.loc 1 914 0
 1665 073e 3B6C     		ldr	r3, [r7, #64]
 1666 0740 03F48053 		and	r3, r3, #4096
 1667 0744 002B     		cmp	r3, #0
 1668 0746 03D1     		bne	.L119
 915:xformatc.c    **** 					{
 916:xformatc.c    **** 						param.out = param.buffer + sizeof(param.buffer) - 1;
 1669              		.loc 1 916 0
 1670 0748 07F11003 		add	r3, r7, #16
 1671 074c 7A33     		adds	r3, r3, #122
 1672 074e BB61     		str	r3, [r7, #24]
 1673              	.L119:
 917:xformatc.c    **** 					}
 918:xformatc.c    **** 
 919:xformatc.c    **** 
 920:xformatc.c    **** #if XCFG_FORMAT_LONGLONG
 921:xformatc.c    **** 					if ((param.flags & FLAG_TYPE_MASK) == FLAG_TYPE_LONGLONG)
 1674              		.loc 1 921 0
 1675 0750 3B6C     		ldr	r3, [r7, #64]
 1676 0752 03F00303 		and	r3, r3, #3
 1677 0756 032B     		cmp	r3, #3
 1678 0758 05D1     		bne	.L120
ARM GAS  C:\Users\bmt\AppData\Local\Temp\ccKVUDN8.s 			page 47


 922:xformatc.c    **** 						ullong2a(&param);
 1679              		.loc 1 922 0
 1680 075a 07F11003 		add	r3, r7, #16
 1681 075e 1846     		mov	r0, r3
 1682 0760 FFF7FEFF 		bl	ullong2a
 1683 0764 04E0     		b	.L121
 1684              	.L120:
 923:xformatc.c    **** 					else
 924:xformatc.c    **** 						ulong2a(&param);
 1685              		.loc 1 924 0
 1686 0766 07F11003 		add	r3, r7, #16
 1687 076a 1846     		mov	r0, r3
 1688 076c FFF7FEFF 		bl	ulong2a
 1689              	.L121:
 925:xformatc.c    **** #else
 926:xformatc.c    **** 
 927:xformatc.c    **** 					ulong2a(&param);
 928:xformatc.c    **** #endif
 929:xformatc.c    **** 					param.out++;
 1690              		.loc 1 929 0
 1691 0770 BB69     		ldr	r3, [r7, #24]
 1692 0772 0133     		adds	r3, r3, #1
 1693 0774 BB61     		str	r3, [r7, #24]
 930:xformatc.c    **** 
 931:xformatc.c    **** 					/*
 932:xformatc.c    **** 					 * Check if a sign is required
 933:xformatc.c    **** 					 */
 934:xformatc.c    **** 					if (param.flags & (FLAG_MINUS|FLAG_PLUS))
 1694              		.loc 1 934 0
 1695 0776 3B6C     		ldr	r3, [r7, #64]
 1696 0778 03F48863 		and	r3, r3, #1088
 1697 077c 002B     		cmp	r3, #0
 1698 077e 28D0     		beq	.L126
 935:xformatc.c    **** 					{
 936:xformatc.c    **** 						c = param.flags & FLAG_MINUS ? '-' : '+';
 1699              		.loc 1 936 0
 1700 0780 3B6C     		ldr	r3, [r7, #64]
 1701 0782 03F48063 		and	r3, r3, #1024
 1702 0786 002B     		cmp	r3, #0
 1703 0788 01D0     		beq	.L123
 1704              		.loc 1 936 0 is_stmt 0 discriminator 1
 1705 078a 2D23     		movs	r3, #45
 1706 078c 00E0     		b	.L124
 1707              	.L123:
 1708              		.loc 1 936 0 discriminator 2
 1709 078e 2B23     		movs	r3, #43
 1710              	.L124:
 1711              		.loc 1 936 0 discriminator 4
 1712 0790 87F89330 		strb	r3, [r7, #147]
 937:xformatc.c    **** 
 938:xformatc.c    **** 						if (param.pad == '0')
 1713              		.loc 1 938 0 is_stmt 1 discriminator 4
 1714 0794 97F88C30 		ldrb	r3, [r7, #140]	@ zero_extendqisi2
 1715 0798 302B     		cmp	r3, #48
 1716 079a 06D1     		bne	.L125
 939:xformatc.c    **** 						{
 940:xformatc.c    **** 							param.prefixlen = 1;
ARM GAS  C:\Users\bmt\AppData\Local\Temp\ccKVUDN8.s 			page 48


 1717              		.loc 1 940 0
 1718 079c 0123     		movs	r3, #1
 1719 079e 7B64     		str	r3, [r7, #68]
 941:xformatc.c    **** 							param.prefix[0] = c;
 1720              		.loc 1 941 0
 1721 07a0 97F89330 		ldrb	r3, [r7, #147]
 1722 07a4 87F84830 		strb	r3, [r7, #72]
 1723 07a8 13E0     		b	.L126
 1724              	.L125:
 942:xformatc.c    **** 						}
 943:xformatc.c    **** 						else
 944:xformatc.c    **** 						{
 945:xformatc.c    **** 							*--param.out = c;
 1725              		.loc 1 945 0
 1726 07aa BB69     		ldr	r3, [r7, #24]
 1727 07ac 013B     		subs	r3, r3, #1
 1728 07ae BB61     		str	r3, [r7, #24]
 1729 07b0 BB69     		ldr	r3, [r7, #24]
 1730 07b2 97F89320 		ldrb	r2, [r7, #147]
 1731 07b6 1A70     		strb	r2, [r3]
 946:xformatc.c    **** 							param.length++;
 1732              		.loc 1 946 0
 1733 07b8 3B6B     		ldr	r3, [r7, #48]
 1734 07ba 0133     		adds	r3, r3, #1
 1735 07bc 3B63     		str	r3, [r7, #48]
 1736 07be 08E0     		b	.L126
 1737              	.L102:
 947:xformatc.c    **** 						}
 948:xformatc.c    **** 					}
 949:xformatc.c    **** 
 950:xformatc.c    **** 
 951:xformatc.c    **** 				}
 952:xformatc.c    **** 				else
 953:xformatc.c    **** 				{
 954:xformatc.c    **** 					if (param.width && param.length > param.width)
 1738              		.loc 1 954 0
 1739 07c0 BB6B     		ldr	r3, [r7, #56]
 1740 07c2 002B     		cmp	r3, #0
 1741 07c4 05D0     		beq	.L126
 1742              		.loc 1 954 0 is_stmt 0 discriminator 1
 1743 07c6 3A6B     		ldr	r2, [r7, #48]
 1744 07c8 BB6B     		ldr	r3, [r7, #56]
 1745 07ca 9A42     		cmp	r2, r3
 1746 07cc 01DD     		ble	.L126
 955:xformatc.c    **** 					{
 956:xformatc.c    **** 						param.length = param.width;
 1747              		.loc 1 956 0 is_stmt 1
 1748 07ce BB6B     		ldr	r3, [r7, #56]
 1749 07d0 3B63     		str	r3, [r7, #48]
 1750              	.L126:
 957:xformatc.c    **** 					}
 958:xformatc.c    **** 
 959:xformatc.c    **** 				}
 960:xformatc.c    **** 
 961:xformatc.c    **** 				/*
 962:xformatc.c    **** 				 * Now width contain the size of the pad
 963:xformatc.c    **** 				 */
ARM GAS  C:\Users\bmt\AppData\Local\Temp\ccKVUDN8.s 			page 49


 964:xformatc.c    **** 				param.width -= (param.length + param.prefixlen);
 1751              		.loc 1 964 0
 1752 07d2 BA6B     		ldr	r2, [r7, #56]
 1753 07d4 396B     		ldr	r1, [r7, #48]
 1754 07d6 7B6C     		ldr	r3, [r7, #68]
 1755 07d8 0B44     		add	r3, r3, r1
 1756 07da D31A     		subs	r3, r2, r3
 1757 07dc BB63     		str	r3, [r7, #56]
 965:xformatc.c    **** 
 966:xformatc.c    **** 				param.count += outBuffer(outchar,arg,param.prefix,param.prefixlen,param.flags & FLAG_UPPER);
 1758              		.loc 1 966 0
 1759 07de 7E6C     		ldr	r6, [r7, #68]
 1760 07e0 3B6C     		ldr	r3, [r7, #64]
 1761 07e2 03F08003 		and	r3, r3, #128
 1762 07e6 07F11002 		add	r2, r7, #16
 1763 07ea 3832     		adds	r2, r2, #56
 1764 07ec 0093     		str	r3, [sp]
 1765 07ee F868     		ldr	r0, [r7, #12]
 1766 07f0 B968     		ldr	r1, [r7, #8]
 1767 07f2 3346     		mov	r3, r6
 1768 07f4 FFF7FEFF 		bl	outBuffer
 1769 07f8 0246     		mov	r2, r0
 1770 07fa FB6B     		ldr	r3, [r7, #60]
 1771 07fc 1344     		add	r3, r3, r2
 1772 07fe FB63     		str	r3, [r7, #60]
 967:xformatc.c    **** 				if (!(param.flags & FLAG_LEFT))
 1773              		.loc 1 967 0
 1774 0800 3B6C     		ldr	r3, [r7, #64]
 1775 0802 03F00803 		and	r3, r3, #8
 1776 0806 002B     		cmp	r3, #0
 1777 0808 0AD1     		bne	.L127
 968:xformatc.c    **** 					param.count += outChars(outchar,arg,param.pad,param.width);
 1778              		.loc 1 968 0
 1779 080a 97F88C20 		ldrb	r2, [r7, #140]	@ zero_extendqisi2
 1780 080e BB6B     		ldr	r3, [r7, #56]
 1781 0810 F868     		ldr	r0, [r7, #12]
 1782 0812 B968     		ldr	r1, [r7, #8]
 1783 0814 FFF7FEFF 		bl	outChars
 1784 0818 0246     		mov	r2, r0
 1785 081a FB6B     		ldr	r3, [r7, #60]
 1786 081c 1344     		add	r3, r3, r2
 1787 081e FB63     		str	r3, [r7, #60]
 1788              	.L127:
 969:xformatc.c    **** 				param.count += outBuffer(outchar,arg,param.out,param.length,param.flags & FLAG_UPPER);
 1789              		.loc 1 969 0
 1790 0820 BA69     		ldr	r2, [r7, #24]
 1791 0822 3E6B     		ldr	r6, [r7, #48]
 1792 0824 3B6C     		ldr	r3, [r7, #64]
 1793 0826 03F08003 		and	r3, r3, #128
 1794 082a 0093     		str	r3, [sp]
 1795 082c F868     		ldr	r0, [r7, #12]
 1796 082e B968     		ldr	r1, [r7, #8]
 1797 0830 3346     		mov	r3, r6
 1798 0832 FFF7FEFF 		bl	outBuffer
 1799 0836 0246     		mov	r2, r0
 1800 0838 FB6B     		ldr	r3, [r7, #60]
 1801 083a 1344     		add	r3, r3, r2
ARM GAS  C:\Users\bmt\AppData\Local\Temp\ccKVUDN8.s 			page 50


 1802 083c FB63     		str	r3, [r7, #60]
 970:xformatc.c    **** 				if (param.flags & FLAG_LEFT)
 1803              		.loc 1 970 0
 1804 083e 3B6C     		ldr	r3, [r7, #64]
 1805 0840 03F00803 		and	r3, r3, #8
 1806 0844 002B     		cmp	r3, #0
 1807 0846 0AD0     		beq	.L39
 971:xformatc.c    **** 					param.count += outChars(outchar,arg,param.pad,param.width);
 1808              		.loc 1 971 0
 1809 0848 97F88C20 		ldrb	r2, [r7, #140]	@ zero_extendqisi2
 1810 084c BB6B     		ldr	r3, [r7, #56]
 1811 084e F868     		ldr	r0, [r7, #12]
 1812 0850 B968     		ldr	r1, [r7, #8]
 1813 0852 FFF7FEFF 		bl	outChars
 1814 0856 0246     		mov	r2, r0
 1815 0858 FB6B     		ldr	r3, [r7, #60]
 1816 085a 1344     		add	r3, r3, r2
 1817 085c FB63     		str	r3, [r7, #60]
 1818              	.L39:
 540:xformatc.c    **** 	{
 1819              		.loc 1 540 0
 1820 085e 7B68     		ldr	r3, [r7, #4]
 1821 0860 1B78     		ldrb	r3, [r3]	@ zero_extendqisi2
 1822 0862 002B     		cmp	r3, #0
 1823 0864 7FF4DBAB 		bne	.L128
 972:xformatc.c    **** 				
 973:xformatc.c    **** 		}
 974:xformatc.c    **** 	}
 975:xformatc.c    **** 
 976:xformatc.c    **** #if XCFG_FORMAT_VA_COPY
 977:xformatc.c    **** 	va_end(args);
 978:xformatc.c    **** #endif
 979:xformatc.c    **** 
 980:xformatc.c    **** 	return param.count;
 1824              		.loc 1 980 0
 1825 0868 FB6B     		ldr	r3, [r7, #60]
 981:xformatc.c    **** }
 1826              		.loc 1 981 0
 1827 086a 1846     		mov	r0, r3
 1828 086c 9C37     		adds	r7, r7, #156
 1829              		.cfi_def_cfa_offset 28
 1830 086e BD46     		mov	sp, r7
 1831              		.cfi_def_cfa_register 13
 1832              		@ sp needed
 1833 0870 BDE8F083 		pop	{r4, r5, r6, r7, r8, r9, pc}
 1834              		.cfi_endproc
 1835              	.LFE6:
 1836              		.size	xvformat, .-xvformat
 1837              		.text
 1838              	.Letext0:
 1839              		.file 2 "c:\\program files (x86)\\cypress\\psoc creator\\4.0\\psoc creator\\import\\gnu\\arm\\4.9.
 1840              		.file 3 "<built-in>"