ARM GAS  C:\Users\THUNDE~1\AppData\Local\Temp\cceHOGtk.s 			page 1


   1              		.syntax unified
   2              		.cpu cortex-m3
   3              		.fpu softvfp
   4              		.eabi_attribute 20, 1
   5              		.eabi_attribute 21, 1
   6              		.eabi_attribute 23, 3
   7              		.eabi_attribute 24, 1
   8              		.eabi_attribute 25, 1
   9              		.eabi_attribute 26, 1
  10              		.eabi_attribute 30, 6
  11              		.eabi_attribute 34, 1
  12              		.eabi_attribute 18, 4
  13              		.thumb
  14              		.syntax unified
  15              		.file	"blocktim.c"
  16              		.text
  17              	.Ltext0:
  18              		.cfi_sections	.debug_frame
  19              		.comm	sniffIDFilter,13,4
  20              		.comm	buffer,4098,4
  21              		.comm	objectList,1704,4
  22              		.bss
  23              		.align	2
  24              	xTestQueue:
  25 0000 00000000 		.space	4
  26              		.align	2
  27              	xSecondary:
  28 0004 00000000 		.space	4
  29              		.align	2
  30              	xPrimaryCycles:
  31 0008 00000000 		.space	4
  32              		.align	2
  33              	xSecondaryCycles:
  34 000c 00000000 		.space	4
  35              		.align	2
  36              	xErrorOccurred:
  37 0010 00000000 		.space	4
  38              		.align	2
  39              	xRunIndicator:
  40 0014 00000000 		.space	4
  41              		.section	.rodata
  42              		.align	2
  43              	.LC0:
  44 0000 426C6F63 		.ascii	"Block_Time_Queue\000"
  44      6B5F5469 
  44      6D655F51 
  44      75657565 
  44      00
  45 0011 000000   		.align	2
  46              	.LC1:
  47 0014 42546573 		.ascii	"BTest1\000"
  47      743100
  48 001b 00       		.align	2
  49              	.LC2:
  50 001c 42546573 		.ascii	"BTest2\000"
  50      743200
  51              		.section	.text.vCreateBlockTimeTasks,"ax",%progbits
ARM GAS  C:\Users\THUNDE~1\AppData\Local\Temp\cceHOGtk.s 			page 2


  52              		.align	2
  53              		.global	vCreateBlockTimeTasks
  54              		.thumb
  55              		.thumb_func
  56              		.type	vCreateBlockTimeTasks, %function
  57              	vCreateBlockTimeTasks:
  58              	.LFB68:
  59              		.file 1 "..\\Common\\Minimal\\blocktim.c"
   1:..\Common\Minimal/blocktim.c **** /*
   2:..\Common\Minimal/blocktim.c ****     FreeRTOS V9.0.0 - Copyright (C) 2016 Real Time Engineers Ltd.
   3:..\Common\Minimal/blocktim.c ****     All rights reserved
   4:..\Common\Minimal/blocktim.c **** 
   5:..\Common\Minimal/blocktim.c ****     VISIT http://www.FreeRTOS.org TO ENSURE YOU ARE USING THE LATEST VERSION.
   6:..\Common\Minimal/blocktim.c **** 
   7:..\Common\Minimal/blocktim.c ****     This file is part of the FreeRTOS distribution.
   8:..\Common\Minimal/blocktim.c **** 
   9:..\Common\Minimal/blocktim.c ****     FreeRTOS is free software; you can redistribute it and/or modify it under
  10:..\Common\Minimal/blocktim.c ****     the terms of the GNU General Public License (version 2) as published by the
  11:..\Common\Minimal/blocktim.c ****     Free Software Foundation >>>> AND MODIFIED BY <<<< the FreeRTOS exception.
  12:..\Common\Minimal/blocktim.c **** 
  13:..\Common\Minimal/blocktim.c ****     ***************************************************************************
  14:..\Common\Minimal/blocktim.c ****     >>!   NOTE: The modification to the GPL is included to allow you to     !<<
  15:..\Common\Minimal/blocktim.c ****     >>!   distribute a combined work that includes FreeRTOS without being   !<<
  16:..\Common\Minimal/blocktim.c ****     >>!   obliged to provide the source code for proprietary components     !<<
  17:..\Common\Minimal/blocktim.c ****     >>!   outside of the FreeRTOS kernel.                                   !<<
  18:..\Common\Minimal/blocktim.c ****     ***************************************************************************
  19:..\Common\Minimal/blocktim.c **** 
  20:..\Common\Minimal/blocktim.c ****     FreeRTOS is distributed in the hope that it will be useful, but WITHOUT ANY
  21:..\Common\Minimal/blocktim.c ****     WARRANTY; without even the implied warranty of MERCHANTABILITY or FITNESS
  22:..\Common\Minimal/blocktim.c ****     FOR A PARTICULAR PURPOSE.  Full license text is available on the following
  23:..\Common\Minimal/blocktim.c ****     link: http://www.freertos.org/a00114.html
  24:..\Common\Minimal/blocktim.c **** 
  25:..\Common\Minimal/blocktim.c ****     ***************************************************************************
  26:..\Common\Minimal/blocktim.c ****      *                                                                       *
  27:..\Common\Minimal/blocktim.c ****      *    FreeRTOS provides completely free yet professionally developed,    *
  28:..\Common\Minimal/blocktim.c ****      *    robust, strictly quality controlled, supported, and cross          *
  29:..\Common\Minimal/blocktim.c ****      *    platform software that is more than just the market leader, it     *
  30:..\Common\Minimal/blocktim.c ****      *    is the industry's de facto standard.                               *
  31:..\Common\Minimal/blocktim.c ****      *                                                                       *
  32:..\Common\Minimal/blocktim.c ****      *    Help yourself get started quickly while simultaneously helping     *
  33:..\Common\Minimal/blocktim.c ****      *    to support the FreeRTOS project by purchasing a FreeRTOS           *
  34:..\Common\Minimal/blocktim.c ****      *    tutorial book, reference manual, or both:                          *
  35:..\Common\Minimal/blocktim.c ****      *    http://www.FreeRTOS.org/Documentation                              *
  36:..\Common\Minimal/blocktim.c ****      *                                                                       *
  37:..\Common\Minimal/blocktim.c ****     ***************************************************************************
  38:..\Common\Minimal/blocktim.c **** 
  39:..\Common\Minimal/blocktim.c ****     http://www.FreeRTOS.org/FAQHelp.html - Having a problem?  Start by reading
  40:..\Common\Minimal/blocktim.c ****     the FAQ page "My application does not run, what could be wrong?".  Have you
  41:..\Common\Minimal/blocktim.c ****     defined configASSERT()?
  42:..\Common\Minimal/blocktim.c **** 
  43:..\Common\Minimal/blocktim.c ****     http://www.FreeRTOS.org/support - In return for receiving this top quality
  44:..\Common\Minimal/blocktim.c ****     embedded software for free we request you assist our global community by
  45:..\Common\Minimal/blocktim.c ****     participating in the support forum.
  46:..\Common\Minimal/blocktim.c **** 
  47:..\Common\Minimal/blocktim.c ****     http://www.FreeRTOS.org/training - Investing in training allows your team to
  48:..\Common\Minimal/blocktim.c ****     be as productive as possible as early as possible.  Now you can receive
  49:..\Common\Minimal/blocktim.c ****     FreeRTOS training directly from Richard Barry, CEO of Real Time Engineers
ARM GAS  C:\Users\THUNDE~1\AppData\Local\Temp\cceHOGtk.s 			page 3


  50:..\Common\Minimal/blocktim.c ****     Ltd, and the world's leading authority on the world's leading RTOS.
  51:..\Common\Minimal/blocktim.c **** 
  52:..\Common\Minimal/blocktim.c ****     http://www.FreeRTOS.org/plus - A selection of FreeRTOS ecosystem products,
  53:..\Common\Minimal/blocktim.c ****     including FreeRTOS+Trace - an indispensable productivity tool, a DOS
  54:..\Common\Minimal/blocktim.c ****     compatible FAT file system, and our tiny thread aware UDP/IP stack.
  55:..\Common\Minimal/blocktim.c **** 
  56:..\Common\Minimal/blocktim.c ****     http://www.FreeRTOS.org/labs - Where new FreeRTOS products go to incubate.
  57:..\Common\Minimal/blocktim.c ****     Come and try FreeRTOS+TCP, our new open source TCP/IP stack for FreeRTOS.
  58:..\Common\Minimal/blocktim.c **** 
  59:..\Common\Minimal/blocktim.c ****     http://www.OpenRTOS.com - Real Time Engineers ltd. license FreeRTOS to High
  60:..\Common\Minimal/blocktim.c ****     Integrity Systems ltd. to sell under the OpenRTOS brand.  Low cost OpenRTOS
  61:..\Common\Minimal/blocktim.c ****     licenses offer ticketed support, indemnification and commercial middleware.
  62:..\Common\Minimal/blocktim.c **** 
  63:..\Common\Minimal/blocktim.c ****     http://www.SafeRTOS.com - High Integrity Systems also provide a safety
  64:..\Common\Minimal/blocktim.c ****     engineered and independently SIL3 certified version for use in safety and
  65:..\Common\Minimal/blocktim.c ****     mission critical applications that require provable dependability.
  66:..\Common\Minimal/blocktim.c **** 
  67:..\Common\Minimal/blocktim.c ****     1 tab == 4 spaces!
  68:..\Common\Minimal/blocktim.c **** */
  69:..\Common\Minimal/blocktim.c **** 
  70:..\Common\Minimal/blocktim.c **** /*
  71:..\Common\Minimal/blocktim.c ****  * This file contains some test scenarios that ensure tasks do not exit queue
  72:..\Common\Minimal/blocktim.c ****  * send or receive functions prematurely.  A description of the tests is
  73:..\Common\Minimal/blocktim.c ****  * included within the code.
  74:..\Common\Minimal/blocktim.c ****  */
  75:..\Common\Minimal/blocktim.c **** 
  76:..\Common\Minimal/blocktim.c **** /* Kernel includes. */
  77:..\Common\Minimal/blocktim.c **** #include "FreeRTOS.h"
  78:..\Common\Minimal/blocktim.c **** #include "task.h"
  79:..\Common\Minimal/blocktim.c **** #include "queue.h"
  80:..\Common\Minimal/blocktim.c **** 
  81:..\Common\Minimal/blocktim.c **** /* Demo includes. */
  82:..\Common\Minimal/blocktim.c **** #include "blocktim.h"
  83:..\Common\Minimal/blocktim.c **** 
  84:..\Common\Minimal/blocktim.c **** /* Task priorities.  Allow these to be overridden. */
  85:..\Common\Minimal/blocktim.c **** #ifndef bktPRIMARY_PRIORITY
  86:..\Common\Minimal/blocktim.c **** 	#define bktPRIMARY_PRIORITY		( configMAX_PRIORITIES - 3 )
  87:..\Common\Minimal/blocktim.c **** #endif
  88:..\Common\Minimal/blocktim.c **** 
  89:..\Common\Minimal/blocktim.c **** #ifndef bktSECONDARY_PRIORITY
  90:..\Common\Minimal/blocktim.c **** 	#define bktSECONDARY_PRIORITY	( configMAX_PRIORITIES - 4 )
  91:..\Common\Minimal/blocktim.c **** #endif
  92:..\Common\Minimal/blocktim.c **** 
  93:..\Common\Minimal/blocktim.c **** /* Task behaviour. */
  94:..\Common\Minimal/blocktim.c **** #define bktQUEUE_LENGTH				( 5 )
  95:..\Common\Minimal/blocktim.c **** #define bktSHORT_WAIT				pdMS_TO_TICKS( ( TickType_t ) 20 )
  96:..\Common\Minimal/blocktim.c **** #define bktPRIMARY_BLOCK_TIME		( 10 )
  97:..\Common\Minimal/blocktim.c **** #define bktALLOWABLE_MARGIN			( 15 )
  98:..\Common\Minimal/blocktim.c **** #define bktTIME_TO_BLOCK			( 175 )
  99:..\Common\Minimal/blocktim.c **** #define bktDONT_BLOCK				( ( TickType_t ) 0 )
 100:..\Common\Minimal/blocktim.c **** #define bktRUN_INDICATOR			( ( UBaseType_t ) 0x55 )
 101:..\Common\Minimal/blocktim.c **** 
 102:..\Common\Minimal/blocktim.c **** /* In case the demo does not have software timers enabled, as this file uses
 103:..\Common\Minimal/blocktim.c **** the configTIMER_TASK_PRIORITY setting. */
 104:..\Common\Minimal/blocktim.c **** #ifndef configTIMER_TASK_PRIORITY
 105:..\Common\Minimal/blocktim.c **** 	#define configTIMER_TASK_PRIORITY ( configMAX_PRIORITIES - 1 )
 106:..\Common\Minimal/blocktim.c **** #endif
ARM GAS  C:\Users\THUNDE~1\AppData\Local\Temp\cceHOGtk.s 			page 4


 107:..\Common\Minimal/blocktim.c **** 
 108:..\Common\Minimal/blocktim.c **** /*-----------------------------------------------------------*/
 109:..\Common\Minimal/blocktim.c **** 
 110:..\Common\Minimal/blocktim.c **** /*
 111:..\Common\Minimal/blocktim.c ****  * The two test tasks.  Their behaviour is commented within the functions.
 112:..\Common\Minimal/blocktim.c ****  */
 113:..\Common\Minimal/blocktim.c **** static void vPrimaryBlockTimeTestTask( void *pvParameters );
 114:..\Common\Minimal/blocktim.c **** static void vSecondaryBlockTimeTestTask( void *pvParameters );
 115:..\Common\Minimal/blocktim.c **** 
 116:..\Common\Minimal/blocktim.c **** /*
 117:..\Common\Minimal/blocktim.c ****  * Very basic tests to verify the block times are as expected.
 118:..\Common\Minimal/blocktim.c ****  */
 119:..\Common\Minimal/blocktim.c **** static void prvBasicDelayTests( void );
 120:..\Common\Minimal/blocktim.c **** 
 121:..\Common\Minimal/blocktim.c **** /*-----------------------------------------------------------*/
 122:..\Common\Minimal/blocktim.c **** 
 123:..\Common\Minimal/blocktim.c **** /* The queue on which the tasks block. */
 124:..\Common\Minimal/blocktim.c **** static QueueHandle_t xTestQueue;
 125:..\Common\Minimal/blocktim.c **** 
 126:..\Common\Minimal/blocktim.c **** /* Handle to the secondary task is required by the primary task for calls
 127:..\Common\Minimal/blocktim.c **** to vTaskSuspend/Resume(). */
 128:..\Common\Minimal/blocktim.c **** static TaskHandle_t xSecondary;
 129:..\Common\Minimal/blocktim.c **** 
 130:..\Common\Minimal/blocktim.c **** /* Used to ensure that tasks are still executing without error. */
 131:..\Common\Minimal/blocktim.c **** static volatile BaseType_t xPrimaryCycles = 0, xSecondaryCycles = 0;
 132:..\Common\Minimal/blocktim.c **** static volatile BaseType_t xErrorOccurred = pdFALSE;
 133:..\Common\Minimal/blocktim.c **** 
 134:..\Common\Minimal/blocktim.c **** /* Provides a simple mechanism for the primary task to know when the
 135:..\Common\Minimal/blocktim.c **** secondary task has executed. */
 136:..\Common\Minimal/blocktim.c **** static volatile UBaseType_t xRunIndicator;
 137:..\Common\Minimal/blocktim.c **** 
 138:..\Common\Minimal/blocktim.c **** /*-----------------------------------------------------------*/
 139:..\Common\Minimal/blocktim.c **** 
 140:..\Common\Minimal/blocktim.c **** void vCreateBlockTimeTasks( void )
 141:..\Common\Minimal/blocktim.c **** {
  60              		.loc 1 141 0
  61              		.cfi_startproc
  62              		@ args = 0, pretend = 0, frame = 0
  63              		@ frame_needed = 1, uses_anonymous_args = 0
  64 0000 80B5     		push	{r7, lr}
  65              		.cfi_def_cfa_offset 8
  66              		.cfi_offset 7, -8
  67              		.cfi_offset 14, -4
  68 0002 82B0     		sub	sp, sp, #8
  69              		.cfi_def_cfa_offset 16
  70 0004 02AF     		add	r7, sp, #8
  71              		.cfi_def_cfa 7, 8
 142:..\Common\Minimal/blocktim.c **** 	/* Create the queue on which the two tasks block. */
 143:..\Common\Minimal/blocktim.c **** 	xTestQueue = xQueueCreate( bktQUEUE_LENGTH, sizeof( BaseType_t ) );
  72              		.loc 1 143 0
  73 0006 0022     		movs	r2, #0
  74 0008 0421     		movs	r1, #4
  75 000a 0520     		movs	r0, #5
  76 000c FFF7FEFF 		bl	xQueueGenericCreate
  77 0010 0246     		mov	r2, r0
  78 0012 114B     		ldr	r3, .L4
  79 0014 1A60     		str	r2, [r3]
ARM GAS  C:\Users\THUNDE~1\AppData\Local\Temp\cceHOGtk.s 			page 5


 144:..\Common\Minimal/blocktim.c **** 
 145:..\Common\Minimal/blocktim.c **** 	if( xTestQueue != NULL )
  80              		.loc 1 145 0
  81 0016 104B     		ldr	r3, .L4
  82 0018 1B68     		ldr	r3, [r3]
  83 001a 002B     		cmp	r3, #0
  84 001c 19D0     		beq	.L3
 146:..\Common\Minimal/blocktim.c **** 	{
 147:..\Common\Minimal/blocktim.c **** 		/* vQueueAddToRegistry() adds the queue to the queue registry, if one
 148:..\Common\Minimal/blocktim.c **** 		is in use.  The queue registry is provided as a means for kernel aware
 149:..\Common\Minimal/blocktim.c **** 		debuggers to locate queues and has no purpose if a kernel aware
 150:..\Common\Minimal/blocktim.c **** 		debugger is not being used.  The call to vQueueAddToRegistry() will be
 151:..\Common\Minimal/blocktim.c **** 		removed by the pre-processor if configQUEUE_REGISTRY_SIZE is not
 152:..\Common\Minimal/blocktim.c **** 		defined or is defined to be less than 1. */
 153:..\Common\Minimal/blocktim.c **** 		vQueueAddToRegistry( xTestQueue, "Block_Time_Queue" );
  85              		.loc 1 153 0
  86 001e 0E4B     		ldr	r3, .L4
  87 0020 1B68     		ldr	r3, [r3]
  88 0022 0E49     		ldr	r1, .L4+4
  89 0024 1846     		mov	r0, r3
  90 0026 FFF7FEFF 		bl	vQueueAddToRegistry
 154:..\Common\Minimal/blocktim.c **** 
 155:..\Common\Minimal/blocktim.c **** 		/* Create the two test tasks. */
 156:..\Common\Minimal/blocktim.c **** 		xTaskCreate( vPrimaryBlockTimeTestTask, "BTest1", configMINIMAL_STACK_SIZE, NULL, bktPRIMARY_PRIO
  91              		.loc 1 156 0
  92 002a 0023     		movs	r3, #0
  93 002c 0193     		str	r3, [sp, #4]
  94 002e 0223     		movs	r3, #2
  95 0030 0093     		str	r3, [sp]
  96 0032 0023     		movs	r3, #0
  97 0034 6422     		movs	r2, #100
  98 0036 0A49     		ldr	r1, .L4+8
  99 0038 0A48     		ldr	r0, .L4+12
 100 003a FFF7FEFF 		bl	xTaskCreate
 157:..\Common\Minimal/blocktim.c **** 		xTaskCreate( vSecondaryBlockTimeTestTask, "BTest2", configMINIMAL_STACK_SIZE, NULL, bktSECONDARY_
 101              		.loc 1 157 0
 102 003e 0A4B     		ldr	r3, .L4+16
 103 0040 0193     		str	r3, [sp, #4]
 104 0042 0123     		movs	r3, #1
 105 0044 0093     		str	r3, [sp]
 106 0046 0023     		movs	r3, #0
 107 0048 6422     		movs	r2, #100
 108 004a 0849     		ldr	r1, .L4+20
 109 004c 0848     		ldr	r0, .L4+24
 110 004e FFF7FEFF 		bl	xTaskCreate
 111              	.L3:
 158:..\Common\Minimal/blocktim.c **** 	}
 159:..\Common\Minimal/blocktim.c **** }
 112              		.loc 1 159 0
 113 0052 00BF     		nop
 114 0054 BD46     		mov	sp, r7
 115              		.cfi_def_cfa_register 13
 116              		@ sp needed
 117 0056 80BD     		pop	{r7, pc}
 118              	.L5:
 119              		.align	2
 120              	.L4:
ARM GAS  C:\Users\THUNDE~1\AppData\Local\Temp\cceHOGtk.s 			page 6


 121 0058 00000000 		.word	xTestQueue
 122 005c 00000000 		.word	.LC0
 123 0060 14000000 		.word	.LC1
 124 0064 00000000 		.word	vPrimaryBlockTimeTestTask
 125 0068 04000000 		.word	xSecondary
 126 006c 1C000000 		.word	.LC2
 127 0070 00000000 		.word	vSecondaryBlockTimeTestTask
 128              		.cfi_endproc
 129              	.LFE68:
 130              		.size	vCreateBlockTimeTasks, .-vCreateBlockTimeTasks
 131              		.section	.text.vPrimaryBlockTimeTestTask,"ax",%progbits
 132              		.align	2
 133              		.thumb
 134              		.thumb_func
 135              		.type	vPrimaryBlockTimeTestTask, %function
 136              	vPrimaryBlockTimeTestTask:
 137              	.LFB69:
 160:..\Common\Minimal/blocktim.c **** /*-----------------------------------------------------------*/
 161:..\Common\Minimal/blocktim.c **** 
 162:..\Common\Minimal/blocktim.c **** static void vPrimaryBlockTimeTestTask( void *pvParameters )
 163:..\Common\Minimal/blocktim.c **** {
 138              		.loc 1 163 0
 139              		.cfi_startproc
 140              		@ args = 0, pretend = 0, frame = 32
 141              		@ frame_needed = 1, uses_anonymous_args = 0
 142 0000 80B5     		push	{r7, lr}
 143              		.cfi_def_cfa_offset 8
 144              		.cfi_offset 7, -8
 145              		.cfi_offset 14, -4
 146 0002 88B0     		sub	sp, sp, #32
 147              		.cfi_def_cfa_offset 40
 148 0004 00AF     		add	r7, sp, #0
 149              		.cfi_def_cfa_register 7
 150 0006 7860     		str	r0, [r7, #4]
 151              	.L43:
 164:..\Common\Minimal/blocktim.c **** BaseType_t xItem, xData;
 165:..\Common\Minimal/blocktim.c **** TickType_t xTimeWhenBlocking;
 166:..\Common\Minimal/blocktim.c **** TickType_t xTimeToBlock, xBlockedTime;
 167:..\Common\Minimal/blocktim.c **** 
 168:..\Common\Minimal/blocktim.c **** 	( void ) pvParameters;
 169:..\Common\Minimal/blocktim.c **** 
 170:..\Common\Minimal/blocktim.c **** 	for( ;; )
 171:..\Common\Minimal/blocktim.c **** 	{
 172:..\Common\Minimal/blocktim.c **** 		/*********************************************************************
 173:..\Common\Minimal/blocktim.c **** 		Test 0
 174:..\Common\Minimal/blocktim.c **** 
 175:..\Common\Minimal/blocktim.c **** 		Basic vTaskDelay() and vTaskDelayUntil() tests. */
 176:..\Common\Minimal/blocktim.c **** 		prvBasicDelayTests();
 152              		.loc 1 176 0
 153 0008 FFF7FEFF 		bl	prvBasicDelayTests
 177:..\Common\Minimal/blocktim.c **** 
 178:..\Common\Minimal/blocktim.c **** 
 179:..\Common\Minimal/blocktim.c **** 		/*********************************************************************
 180:..\Common\Minimal/blocktim.c **** 		Test 1
 181:..\Common\Minimal/blocktim.c **** 
 182:..\Common\Minimal/blocktim.c **** 		Simple block time wakeup test on queue receives. */
 183:..\Common\Minimal/blocktim.c **** 		for( xItem = 0; xItem < bktQUEUE_LENGTH; xItem++ )
ARM GAS  C:\Users\THUNDE~1\AppData\Local\Temp\cceHOGtk.s 			page 7


 154              		.loc 1 183 0
 155 000c 0023     		movs	r3, #0
 156 000e 3B61     		str	r3, [r7, #16]
 157 0010 2EE0     		b	.L7
 158              	.L11:
 184:..\Common\Minimal/blocktim.c **** 		{
 185:..\Common\Minimal/blocktim.c **** 			/* The queue is empty. Attempt to read from the queue using a block
 186:..\Common\Minimal/blocktim.c **** 			time.  When we wake, ensure the delta in time is as expected. */
 187:..\Common\Minimal/blocktim.c **** 			xTimeToBlock = ( TickType_t ) ( bktPRIMARY_BLOCK_TIME << xItem );
 159              		.loc 1 187 0
 160 0012 3B69     		ldr	r3, [r7, #16]
 161 0014 0A22     		movs	r2, #10
 162 0016 02FA03F3 		lsl	r3, r2, r3
 163 001a FB61     		str	r3, [r7, #28]
 188:..\Common\Minimal/blocktim.c **** 
 189:..\Common\Minimal/blocktim.c **** 			xTimeWhenBlocking = xTaskGetTickCount();
 164              		.loc 1 189 0
 165 001c FFF7FEFF 		bl	xTaskGetTickCount
 166 0020 B861     		str	r0, [r7, #24]
 190:..\Common\Minimal/blocktim.c **** 
 191:..\Common\Minimal/blocktim.c **** 			/* We should unblock after xTimeToBlock having not received
 192:..\Common\Minimal/blocktim.c **** 			anything on the queue. */
 193:..\Common\Minimal/blocktim.c **** 			if( xQueueReceive( xTestQueue, &xData, xTimeToBlock ) != errQUEUE_EMPTY )
 167              		.loc 1 193 0
 168 0022 A94B     		ldr	r3, .L44
 169 0024 1868     		ldr	r0, [r3]
 170 0026 07F10C01 		add	r1, r7, #12
 171 002a 0023     		movs	r3, #0
 172 002c FA69     		ldr	r2, [r7, #28]
 173 002e FFF7FEFF 		bl	xQueueGenericReceive
 174 0032 0346     		mov	r3, r0
 175 0034 002B     		cmp	r3, #0
 176 0036 02D0     		beq	.L8
 194:..\Common\Minimal/blocktim.c **** 			{
 195:..\Common\Minimal/blocktim.c **** 				xErrorOccurred = pdTRUE;
 177              		.loc 1 195 0
 178 0038 A44B     		ldr	r3, .L44+4
 179 003a 0122     		movs	r2, #1
 180 003c 1A60     		str	r2, [r3]
 181              	.L8:
 196:..\Common\Minimal/blocktim.c **** 			}
 197:..\Common\Minimal/blocktim.c **** 
 198:..\Common\Minimal/blocktim.c **** 			/* How long were we blocked for? */
 199:..\Common\Minimal/blocktim.c **** 			xBlockedTime = xTaskGetTickCount() - xTimeWhenBlocking;
 182              		.loc 1 199 0
 183 003e FFF7FEFF 		bl	xTaskGetTickCount
 184 0042 0246     		mov	r2, r0
 185 0044 BB69     		ldr	r3, [r7, #24]
 186 0046 D31A     		subs	r3, r2, r3
 187 0048 7B61     		str	r3, [r7, #20]
 200:..\Common\Minimal/blocktim.c **** 
 201:..\Common\Minimal/blocktim.c **** 			if( xBlockedTime < xTimeToBlock )
 188              		.loc 1 201 0
 189 004a 7A69     		ldr	r2, [r7, #20]
 190 004c FB69     		ldr	r3, [r7, #28]
 191 004e 9A42     		cmp	r2, r3
 192 0050 02D2     		bcs	.L9
ARM GAS  C:\Users\THUNDE~1\AppData\Local\Temp\cceHOGtk.s 			page 8


 202:..\Common\Minimal/blocktim.c **** 			{
 203:..\Common\Minimal/blocktim.c **** 				/* Should not have blocked for less than we requested. */
 204:..\Common\Minimal/blocktim.c **** 				xErrorOccurred = pdTRUE;
 193              		.loc 1 204 0
 194 0052 9E4B     		ldr	r3, .L44+4
 195 0054 0122     		movs	r2, #1
 196 0056 1A60     		str	r2, [r3]
 197              	.L9:
 205:..\Common\Minimal/blocktim.c **** 			}
 206:..\Common\Minimal/blocktim.c **** 
 207:..\Common\Minimal/blocktim.c **** 			if( xBlockedTime > ( xTimeToBlock + bktALLOWABLE_MARGIN ) )
 198              		.loc 1 207 0
 199 0058 FB69     		ldr	r3, [r7, #28]
 200 005a 03F10F02 		add	r2, r3, #15
 201 005e 7B69     		ldr	r3, [r7, #20]
 202 0060 9A42     		cmp	r2, r3
 203 0062 02D2     		bcs	.L10
 208:..\Common\Minimal/blocktim.c **** 			{
 209:..\Common\Minimal/blocktim.c **** 				/* Should not have blocked for longer than we requested,
 210:..\Common\Minimal/blocktim.c **** 				although we would not necessarily run as soon as we were
 211:..\Common\Minimal/blocktim.c **** 				unblocked so a margin is allowed. */
 212:..\Common\Minimal/blocktim.c **** 				xErrorOccurred = pdTRUE;
 204              		.loc 1 212 0
 205 0064 994B     		ldr	r3, .L44+4
 206 0066 0122     		movs	r2, #1
 207 0068 1A60     		str	r2, [r3]
 208              	.L10:
 183:..\Common\Minimal/blocktim.c **** 		{
 209              		.loc 1 183 0 discriminator 2
 210 006a 3B69     		ldr	r3, [r7, #16]
 211 006c 0133     		adds	r3, r3, #1
 212 006e 3B61     		str	r3, [r7, #16]
 213              	.L7:
 183:..\Common\Minimal/blocktim.c **** 		{
 214              		.loc 1 183 0 is_stmt 0 discriminator 1
 215 0070 3B69     		ldr	r3, [r7, #16]
 216 0072 042B     		cmp	r3, #4
 217 0074 CDDD     		ble	.L11
 213:..\Common\Minimal/blocktim.c **** 			}
 214:..\Common\Minimal/blocktim.c **** 		}
 215:..\Common\Minimal/blocktim.c **** 
 216:..\Common\Minimal/blocktim.c **** 		/*********************************************************************
 217:..\Common\Minimal/blocktim.c **** 		Test 2
 218:..\Common\Minimal/blocktim.c **** 
 219:..\Common\Minimal/blocktim.c **** 		Simple block time wakeup test on queue sends.
 220:..\Common\Minimal/blocktim.c **** 
 221:..\Common\Minimal/blocktim.c **** 		First fill the queue.  It should be empty so all sends should pass. */
 222:..\Common\Minimal/blocktim.c **** 		for( xItem = 0; xItem < bktQUEUE_LENGTH; xItem++ )
 218              		.loc 1 222 0 is_stmt 1
 219 0076 0023     		movs	r3, #0
 220 0078 3B61     		str	r3, [r7, #16]
 221 007a 10E0     		b	.L12
 222              	.L14:
 223:..\Common\Minimal/blocktim.c **** 		{
 224:..\Common\Minimal/blocktim.c **** 			if( xQueueSend( xTestQueue, &xItem, bktDONT_BLOCK ) != pdPASS )
 223              		.loc 1 224 0
 224 007c 924B     		ldr	r3, .L44
ARM GAS  C:\Users\THUNDE~1\AppData\Local\Temp\cceHOGtk.s 			page 9


 225 007e 1868     		ldr	r0, [r3]
 226 0080 07F11001 		add	r1, r7, #16
 227 0084 0023     		movs	r3, #0
 228 0086 0022     		movs	r2, #0
 229 0088 FFF7FEFF 		bl	xQueueGenericSend
 230 008c 0346     		mov	r3, r0
 231 008e 012B     		cmp	r3, #1
 232 0090 02D0     		beq	.L13
 225:..\Common\Minimal/blocktim.c **** 			{
 226:..\Common\Minimal/blocktim.c **** 				xErrorOccurred = pdTRUE;
 233              		.loc 1 226 0
 234 0092 8E4B     		ldr	r3, .L44+4
 235 0094 0122     		movs	r2, #1
 236 0096 1A60     		str	r2, [r3]
 237              	.L13:
 222:..\Common\Minimal/blocktim.c **** 		{
 238              		.loc 1 222 0 discriminator 2
 239 0098 3B69     		ldr	r3, [r7, #16]
 240 009a 0133     		adds	r3, r3, #1
 241 009c 3B61     		str	r3, [r7, #16]
 242              	.L12:
 222:..\Common\Minimal/blocktim.c **** 		{
 243              		.loc 1 222 0 is_stmt 0 discriminator 1
 244 009e 3B69     		ldr	r3, [r7, #16]
 245 00a0 042B     		cmp	r3, #4
 246 00a2 EBDD     		ble	.L14
 227:..\Common\Minimal/blocktim.c **** 			}
 228:..\Common\Minimal/blocktim.c **** 
 229:..\Common\Minimal/blocktim.c **** 			#if configUSE_PREEMPTION == 0
 230:..\Common\Minimal/blocktim.c **** 				taskYIELD();
 231:..\Common\Minimal/blocktim.c **** 			#endif
 232:..\Common\Minimal/blocktim.c **** 		}
 233:..\Common\Minimal/blocktim.c **** 
 234:..\Common\Minimal/blocktim.c **** 		for( xItem = 0; xItem < bktQUEUE_LENGTH; xItem++ )
 247              		.loc 1 234 0 is_stmt 1
 248 00a4 0023     		movs	r3, #0
 249 00a6 3B61     		str	r3, [r7, #16]
 250 00a8 2EE0     		b	.L15
 251              	.L19:
 235:..\Common\Minimal/blocktim.c **** 		{
 236:..\Common\Minimal/blocktim.c **** 			/* The queue is full. Attempt to write to the queue using a block
 237:..\Common\Minimal/blocktim.c **** 			time.  When we wake, ensure the delta in time is as expected. */
 238:..\Common\Minimal/blocktim.c **** 			xTimeToBlock = ( TickType_t ) ( bktPRIMARY_BLOCK_TIME << xItem );
 252              		.loc 1 238 0
 253 00aa 3B69     		ldr	r3, [r7, #16]
 254 00ac 0A22     		movs	r2, #10
 255 00ae 02FA03F3 		lsl	r3, r2, r3
 256 00b2 FB61     		str	r3, [r7, #28]
 239:..\Common\Minimal/blocktim.c **** 
 240:..\Common\Minimal/blocktim.c **** 			xTimeWhenBlocking = xTaskGetTickCount();
 257              		.loc 1 240 0
 258 00b4 FFF7FEFF 		bl	xTaskGetTickCount
 259 00b8 B861     		str	r0, [r7, #24]
 241:..\Common\Minimal/blocktim.c **** 
 242:..\Common\Minimal/blocktim.c **** 			/* We should unblock after xTimeToBlock having not received
 243:..\Common\Minimal/blocktim.c **** 			anything on the queue. */
 244:..\Common\Minimal/blocktim.c **** 			if( xQueueSend( xTestQueue, &xItem, xTimeToBlock ) != errQUEUE_FULL )
ARM GAS  C:\Users\THUNDE~1\AppData\Local\Temp\cceHOGtk.s 			page 10


 260              		.loc 1 244 0
 261 00ba 834B     		ldr	r3, .L44
 262 00bc 1868     		ldr	r0, [r3]
 263 00be 07F11001 		add	r1, r7, #16
 264 00c2 0023     		movs	r3, #0
 265 00c4 FA69     		ldr	r2, [r7, #28]
 266 00c6 FFF7FEFF 		bl	xQueueGenericSend
 267 00ca 0346     		mov	r3, r0
 268 00cc 002B     		cmp	r3, #0
 269 00ce 02D0     		beq	.L16
 245:..\Common\Minimal/blocktim.c **** 			{
 246:..\Common\Minimal/blocktim.c **** 				xErrorOccurred = pdTRUE;
 270              		.loc 1 246 0
 271 00d0 7E4B     		ldr	r3, .L44+4
 272 00d2 0122     		movs	r2, #1
 273 00d4 1A60     		str	r2, [r3]
 274              	.L16:
 247:..\Common\Minimal/blocktim.c **** 			}
 248:..\Common\Minimal/blocktim.c **** 
 249:..\Common\Minimal/blocktim.c **** 			/* How long were we blocked for? */
 250:..\Common\Minimal/blocktim.c **** 			xBlockedTime = xTaskGetTickCount() - xTimeWhenBlocking;
 275              		.loc 1 250 0
 276 00d6 FFF7FEFF 		bl	xTaskGetTickCount
 277 00da 0246     		mov	r2, r0
 278 00dc BB69     		ldr	r3, [r7, #24]
 279 00de D31A     		subs	r3, r2, r3
 280 00e0 7B61     		str	r3, [r7, #20]
 251:..\Common\Minimal/blocktim.c **** 
 252:..\Common\Minimal/blocktim.c **** 			if( xBlockedTime < xTimeToBlock )
 281              		.loc 1 252 0
 282 00e2 7A69     		ldr	r2, [r7, #20]
 283 00e4 FB69     		ldr	r3, [r7, #28]
 284 00e6 9A42     		cmp	r2, r3
 285 00e8 02D2     		bcs	.L17
 253:..\Common\Minimal/blocktim.c **** 			{
 254:..\Common\Minimal/blocktim.c **** 				/* Should not have blocked for less than we requested. */
 255:..\Common\Minimal/blocktim.c **** 				xErrorOccurred = pdTRUE;
 286              		.loc 1 255 0
 287 00ea 784B     		ldr	r3, .L44+4
 288 00ec 0122     		movs	r2, #1
 289 00ee 1A60     		str	r2, [r3]
 290              	.L17:
 256:..\Common\Minimal/blocktim.c **** 			}
 257:..\Common\Minimal/blocktim.c **** 
 258:..\Common\Minimal/blocktim.c **** 			if( xBlockedTime > ( xTimeToBlock + bktALLOWABLE_MARGIN ) )
 291              		.loc 1 258 0
 292 00f0 FB69     		ldr	r3, [r7, #28]
 293 00f2 03F10F02 		add	r2, r3, #15
 294 00f6 7B69     		ldr	r3, [r7, #20]
 295 00f8 9A42     		cmp	r2, r3
 296 00fa 02D2     		bcs	.L18
 259:..\Common\Minimal/blocktim.c **** 			{
 260:..\Common\Minimal/blocktim.c **** 				/* Should not have blocked for longer than we requested,
 261:..\Common\Minimal/blocktim.c **** 				although we would not necessarily run as soon as we were
 262:..\Common\Minimal/blocktim.c **** 				unblocked so a margin is allowed. */
 263:..\Common\Minimal/blocktim.c **** 				xErrorOccurred = pdTRUE;
 297              		.loc 1 263 0
ARM GAS  C:\Users\THUNDE~1\AppData\Local\Temp\cceHOGtk.s 			page 11


 298 00fc 734B     		ldr	r3, .L44+4
 299 00fe 0122     		movs	r2, #1
 300 0100 1A60     		str	r2, [r3]
 301              	.L18:
 234:..\Common\Minimal/blocktim.c **** 		{
 302              		.loc 1 234 0 discriminator 2
 303 0102 3B69     		ldr	r3, [r7, #16]
 304 0104 0133     		adds	r3, r3, #1
 305 0106 3B61     		str	r3, [r7, #16]
 306              	.L15:
 234:..\Common\Minimal/blocktim.c **** 		{
 307              		.loc 1 234 0 is_stmt 0 discriminator 1
 308 0108 3B69     		ldr	r3, [r7, #16]
 309 010a 042B     		cmp	r3, #4
 310 010c CDDD     		ble	.L19
 264:..\Common\Minimal/blocktim.c **** 			}
 265:..\Common\Minimal/blocktim.c **** 		}
 266:..\Common\Minimal/blocktim.c **** 
 267:..\Common\Minimal/blocktim.c **** 		/*********************************************************************
 268:..\Common\Minimal/blocktim.c **** 		Test 3
 269:..\Common\Minimal/blocktim.c **** 
 270:..\Common\Minimal/blocktim.c **** 		Wake the other task, it will block attempting to post to the queue.
 271:..\Common\Minimal/blocktim.c **** 		When we read from the queue the other task will wake, but before it
 272:..\Common\Minimal/blocktim.c **** 		can run we will post to the queue again.  When the other task runs it
 273:..\Common\Minimal/blocktim.c **** 		will find the queue still full, even though it was woken.  It should
 274:..\Common\Minimal/blocktim.c **** 		recognise that its block time has not expired and return to block for
 275:..\Common\Minimal/blocktim.c **** 		the remains of its block time.
 276:..\Common\Minimal/blocktim.c **** 
 277:..\Common\Minimal/blocktim.c **** 		Wake the other task so it blocks attempting to post to the already
 278:..\Common\Minimal/blocktim.c **** 		full queue. */
 279:..\Common\Minimal/blocktim.c **** 		xRunIndicator = 0;
 311              		.loc 1 279 0 is_stmt 1
 312 010e 704B     		ldr	r3, .L44+8
 313 0110 0022     		movs	r2, #0
 314 0112 1A60     		str	r2, [r3]
 280:..\Common\Minimal/blocktim.c **** 		vTaskResume( xSecondary );
 315              		.loc 1 280 0
 316 0114 6F4B     		ldr	r3, .L44+12
 317 0116 1B68     		ldr	r3, [r3]
 318 0118 1846     		mov	r0, r3
 319 011a FFF7FEFF 		bl	vTaskResume
 281:..\Common\Minimal/blocktim.c **** 
 282:..\Common\Minimal/blocktim.c **** 		/* We need to wait a little to ensure the other task executes. */
 283:..\Common\Minimal/blocktim.c **** 		while( xRunIndicator != bktRUN_INDICATOR )
 320              		.loc 1 283 0
 321 011e 02E0     		b	.L20
 322              	.L21:
 284:..\Common\Minimal/blocktim.c **** 		{
 285:..\Common\Minimal/blocktim.c **** 			/* The other task has not yet executed. */
 286:..\Common\Minimal/blocktim.c **** 			vTaskDelay( bktSHORT_WAIT );
 323              		.loc 1 286 0
 324 0120 1420     		movs	r0, #20
 325 0122 FFF7FEFF 		bl	vTaskDelay
 326              	.L20:
 283:..\Common\Minimal/blocktim.c **** 		{
 327              		.loc 1 283 0
 328 0126 6A4B     		ldr	r3, .L44+8
ARM GAS  C:\Users\THUNDE~1\AppData\Local\Temp\cceHOGtk.s 			page 12


 329 0128 1B68     		ldr	r3, [r3]
 330 012a 552B     		cmp	r3, #85
 331 012c F8D1     		bne	.L21
 287:..\Common\Minimal/blocktim.c **** 		}
 288:..\Common\Minimal/blocktim.c **** 		/* Make sure the other task is blocked on the queue. */
 289:..\Common\Minimal/blocktim.c **** 		vTaskDelay( bktSHORT_WAIT );
 332              		.loc 1 289 0
 333 012e 1420     		movs	r0, #20
 334 0130 FFF7FEFF 		bl	vTaskDelay
 290:..\Common\Minimal/blocktim.c **** 		xRunIndicator = 0;
 335              		.loc 1 290 0
 336 0134 664B     		ldr	r3, .L44+8
 337 0136 0022     		movs	r2, #0
 338 0138 1A60     		str	r2, [r3]
 291:..\Common\Minimal/blocktim.c **** 
 292:..\Common\Minimal/blocktim.c **** 		for( xItem = 0; xItem < bktQUEUE_LENGTH; xItem++ )
 339              		.loc 1 292 0
 340 013a 0023     		movs	r3, #0
 341 013c 3B61     		str	r3, [r7, #16]
 342 013e 38E0     		b	.L22
 343              	.L27:
 293:..\Common\Minimal/blocktim.c **** 		{
 294:..\Common\Minimal/blocktim.c **** 			/* Now when we make space on the queue the other task should wake
 295:..\Common\Minimal/blocktim.c **** 			but not execute as this task has higher priority. */
 296:..\Common\Minimal/blocktim.c **** 			if( xQueueReceive( xTestQueue, &xData, bktDONT_BLOCK ) != pdPASS )
 344              		.loc 1 296 0
 345 0140 614B     		ldr	r3, .L44
 346 0142 1868     		ldr	r0, [r3]
 347 0144 07F10C01 		add	r1, r7, #12
 348 0148 0023     		movs	r3, #0
 349 014a 0022     		movs	r2, #0
 350 014c FFF7FEFF 		bl	xQueueGenericReceive
 351 0150 0346     		mov	r3, r0
 352 0152 012B     		cmp	r3, #1
 353 0154 02D0     		beq	.L23
 297:..\Common\Minimal/blocktim.c **** 			{
 298:..\Common\Minimal/blocktim.c **** 				xErrorOccurred = pdTRUE;
 354              		.loc 1 298 0
 355 0156 5D4B     		ldr	r3, .L44+4
 356 0158 0122     		movs	r2, #1
 357 015a 1A60     		str	r2, [r3]
 358              	.L23:
 299:..\Common\Minimal/blocktim.c **** 			}
 300:..\Common\Minimal/blocktim.c **** 
 301:..\Common\Minimal/blocktim.c **** 			/* Now fill the queue again before the other task gets a chance to
 302:..\Common\Minimal/blocktim.c **** 			execute.  If the other task had executed we would find the queue
 303:..\Common\Minimal/blocktim.c **** 			full ourselves, and the other task have set xRunIndicator. */
 304:..\Common\Minimal/blocktim.c **** 			if( xQueueSend( xTestQueue, &xItem, bktDONT_BLOCK ) != pdPASS )
 359              		.loc 1 304 0
 360 015c 5A4B     		ldr	r3, .L44
 361 015e 1868     		ldr	r0, [r3]
 362 0160 07F11001 		add	r1, r7, #16
 363 0164 0023     		movs	r3, #0
 364 0166 0022     		movs	r2, #0
 365 0168 FFF7FEFF 		bl	xQueueGenericSend
 366 016c 0346     		mov	r3, r0
 367 016e 012B     		cmp	r3, #1
ARM GAS  C:\Users\THUNDE~1\AppData\Local\Temp\cceHOGtk.s 			page 13


 368 0170 02D0     		beq	.L24
 305:..\Common\Minimal/blocktim.c **** 			{
 306:..\Common\Minimal/blocktim.c **** 				xErrorOccurred = pdTRUE;
 369              		.loc 1 306 0
 370 0172 564B     		ldr	r3, .L44+4
 371 0174 0122     		movs	r2, #1
 372 0176 1A60     		str	r2, [r3]
 373              	.L24:
 307:..\Common\Minimal/blocktim.c **** 			}
 308:..\Common\Minimal/blocktim.c **** 
 309:..\Common\Minimal/blocktim.c **** 			if( xRunIndicator == bktRUN_INDICATOR )
 374              		.loc 1 309 0
 375 0178 554B     		ldr	r3, .L44+8
 376 017a 1B68     		ldr	r3, [r3]
 377 017c 552B     		cmp	r3, #85
 378 017e 02D1     		bne	.L25
 310:..\Common\Minimal/blocktim.c **** 			{
 311:..\Common\Minimal/blocktim.c **** 				/* The other task should not have executed. */
 312:..\Common\Minimal/blocktim.c **** 				xErrorOccurred = pdTRUE;
 379              		.loc 1 312 0
 380 0180 524B     		ldr	r3, .L44+4
 381 0182 0122     		movs	r2, #1
 382 0184 1A60     		str	r2, [r3]
 383              	.L25:
 313:..\Common\Minimal/blocktim.c **** 			}
 314:..\Common\Minimal/blocktim.c **** 
 315:..\Common\Minimal/blocktim.c **** 			/* Raise the priority of the other task so it executes and blocks
 316:..\Common\Minimal/blocktim.c **** 			on the queue again. */
 317:..\Common\Minimal/blocktim.c **** 			vTaskPrioritySet( xSecondary, bktPRIMARY_PRIORITY + 2 );
 384              		.loc 1 317 0
 385 0186 534B     		ldr	r3, .L44+12
 386 0188 1B68     		ldr	r3, [r3]
 387 018a 0421     		movs	r1, #4
 388 018c 1846     		mov	r0, r3
 389 018e FFF7FEFF 		bl	vTaskPrioritySet
 318:..\Common\Minimal/blocktim.c **** 
 319:..\Common\Minimal/blocktim.c **** 			/* The other task should now have re-blocked without exiting the
 320:..\Common\Minimal/blocktim.c **** 			queue function. */
 321:..\Common\Minimal/blocktim.c **** 			if( xRunIndicator == bktRUN_INDICATOR )
 390              		.loc 1 321 0
 391 0192 4F4B     		ldr	r3, .L44+8
 392 0194 1B68     		ldr	r3, [r3]
 393 0196 552B     		cmp	r3, #85
 394 0198 02D1     		bne	.L26
 322:..\Common\Minimal/blocktim.c **** 			{
 323:..\Common\Minimal/blocktim.c **** 				/* The other task should not have executed outside of the
 324:..\Common\Minimal/blocktim.c **** 				queue function. */
 325:..\Common\Minimal/blocktim.c **** 				xErrorOccurred = pdTRUE;
 395              		.loc 1 325 0
 396 019a 4C4B     		ldr	r3, .L44+4
 397 019c 0122     		movs	r2, #1
 398 019e 1A60     		str	r2, [r3]
 399              	.L26:
 326:..\Common\Minimal/blocktim.c **** 			}
 327:..\Common\Minimal/blocktim.c **** 
 328:..\Common\Minimal/blocktim.c **** 			/* Set the priority back down. */
 329:..\Common\Minimal/blocktim.c **** 			vTaskPrioritySet( xSecondary, bktSECONDARY_PRIORITY );
ARM GAS  C:\Users\THUNDE~1\AppData\Local\Temp\cceHOGtk.s 			page 14


 400              		.loc 1 329 0 discriminator 2
 401 01a0 4C4B     		ldr	r3, .L44+12
 402 01a2 1B68     		ldr	r3, [r3]
 403 01a4 0121     		movs	r1, #1
 404 01a6 1846     		mov	r0, r3
 405 01a8 FFF7FEFF 		bl	vTaskPrioritySet
 292:..\Common\Minimal/blocktim.c **** 		{
 406              		.loc 1 292 0 discriminator 2
 407 01ac 3B69     		ldr	r3, [r7, #16]
 408 01ae 0133     		adds	r3, r3, #1
 409 01b0 3B61     		str	r3, [r7, #16]
 410              	.L22:
 292:..\Common\Minimal/blocktim.c **** 		{
 411              		.loc 1 292 0 is_stmt 0 discriminator 1
 412 01b2 3B69     		ldr	r3, [r7, #16]
 413 01b4 042B     		cmp	r3, #4
 414 01b6 C3DD     		ble	.L27
 330:..\Common\Minimal/blocktim.c **** 		}
 331:..\Common\Minimal/blocktim.c **** 
 332:..\Common\Minimal/blocktim.c **** 		/* Let the other task timeout.  When it unblockes it will check that it
 333:..\Common\Minimal/blocktim.c **** 		unblocked at the correct time, then suspend itself. */
 334:..\Common\Minimal/blocktim.c **** 		while( xRunIndicator != bktRUN_INDICATOR )
 415              		.loc 1 334 0 is_stmt 1
 416 01b8 02E0     		b	.L28
 417              	.L29:
 335:..\Common\Minimal/blocktim.c **** 		{
 336:..\Common\Minimal/blocktim.c **** 			vTaskDelay( bktSHORT_WAIT );
 418              		.loc 1 336 0
 419 01ba 1420     		movs	r0, #20
 420 01bc FFF7FEFF 		bl	vTaskDelay
 421              	.L28:
 334:..\Common\Minimal/blocktim.c **** 		{
 422              		.loc 1 334 0
 423 01c0 434B     		ldr	r3, .L44+8
 424 01c2 1B68     		ldr	r3, [r3]
 425 01c4 552B     		cmp	r3, #85
 426 01c6 F8D1     		bne	.L29
 337:..\Common\Minimal/blocktim.c **** 		}
 338:..\Common\Minimal/blocktim.c **** 		vTaskDelay( bktSHORT_WAIT );
 427              		.loc 1 338 0
 428 01c8 1420     		movs	r0, #20
 429 01ca FFF7FEFF 		bl	vTaskDelay
 339:..\Common\Minimal/blocktim.c **** 		xRunIndicator = 0;
 430              		.loc 1 339 0
 431 01ce 404B     		ldr	r3, .L44+8
 432 01d0 0022     		movs	r2, #0
 433 01d2 1A60     		str	r2, [r3]
 340:..\Common\Minimal/blocktim.c **** 
 341:..\Common\Minimal/blocktim.c **** 
 342:..\Common\Minimal/blocktim.c **** 		/*********************************************************************
 343:..\Common\Minimal/blocktim.c **** 		Test 4
 344:..\Common\Minimal/blocktim.c **** 
 345:..\Common\Minimal/blocktim.c **** 		As per test 3 - but with the send and receive the other way around.
 346:..\Common\Minimal/blocktim.c **** 		The other task blocks attempting to read from the queue.
 347:..\Common\Minimal/blocktim.c **** 
 348:..\Common\Minimal/blocktim.c **** 		Empty the queue.  We should find that it is full. */
 349:..\Common\Minimal/blocktim.c **** 		for( xItem = 0; xItem < bktQUEUE_LENGTH; xItem++ )
ARM GAS  C:\Users\THUNDE~1\AppData\Local\Temp\cceHOGtk.s 			page 15


 434              		.loc 1 349 0
 435 01d4 0023     		movs	r3, #0
 436 01d6 3B61     		str	r3, [r7, #16]
 437 01d8 10E0     		b	.L30
 438              	.L32:
 350:..\Common\Minimal/blocktim.c **** 		{
 351:..\Common\Minimal/blocktim.c **** 			if( xQueueReceive( xTestQueue, &xData, bktDONT_BLOCK ) != pdPASS )
 439              		.loc 1 351 0
 440 01da 3B4B     		ldr	r3, .L44
 441 01dc 1868     		ldr	r0, [r3]
 442 01de 07F10C01 		add	r1, r7, #12
 443 01e2 0023     		movs	r3, #0
 444 01e4 0022     		movs	r2, #0
 445 01e6 FFF7FEFF 		bl	xQueueGenericReceive
 446 01ea 0346     		mov	r3, r0
 447 01ec 012B     		cmp	r3, #1
 448 01ee 02D0     		beq	.L31
 352:..\Common\Minimal/blocktim.c **** 			{
 353:..\Common\Minimal/blocktim.c **** 				xErrorOccurred = pdTRUE;
 449              		.loc 1 353 0
 450 01f0 364B     		ldr	r3, .L44+4
 451 01f2 0122     		movs	r2, #1
 452 01f4 1A60     		str	r2, [r3]
 453              	.L31:
 349:..\Common\Minimal/blocktim.c **** 		{
 454              		.loc 1 349 0 discriminator 2
 455 01f6 3B69     		ldr	r3, [r7, #16]
 456 01f8 0133     		adds	r3, r3, #1
 457 01fa 3B61     		str	r3, [r7, #16]
 458              	.L30:
 349:..\Common\Minimal/blocktim.c **** 		{
 459              		.loc 1 349 0 is_stmt 0 discriminator 1
 460 01fc 3B69     		ldr	r3, [r7, #16]
 461 01fe 042B     		cmp	r3, #4
 462 0200 EBDD     		ble	.L32
 354:..\Common\Minimal/blocktim.c **** 			}
 355:..\Common\Minimal/blocktim.c **** 		}
 356:..\Common\Minimal/blocktim.c **** 
 357:..\Common\Minimal/blocktim.c **** 		/* Wake the other task so it blocks attempting to read from  the
 358:..\Common\Minimal/blocktim.c **** 		already	empty queue. */
 359:..\Common\Minimal/blocktim.c **** 		vTaskResume( xSecondary );
 463              		.loc 1 359 0 is_stmt 1
 464 0202 344B     		ldr	r3, .L44+12
 465 0204 1B68     		ldr	r3, [r3]
 466 0206 1846     		mov	r0, r3
 467 0208 FFF7FEFF 		bl	vTaskResume
 360:..\Common\Minimal/blocktim.c **** 
 361:..\Common\Minimal/blocktim.c **** 		/* We need to wait a little to ensure the other task executes. */
 362:..\Common\Minimal/blocktim.c **** 		while( xRunIndicator != bktRUN_INDICATOR )
 468              		.loc 1 362 0
 469 020c 02E0     		b	.L33
 470              	.L34:
 363:..\Common\Minimal/blocktim.c **** 		{
 364:..\Common\Minimal/blocktim.c **** 			vTaskDelay( bktSHORT_WAIT );
 471              		.loc 1 364 0
 472 020e 1420     		movs	r0, #20
 473 0210 FFF7FEFF 		bl	vTaskDelay
ARM GAS  C:\Users\THUNDE~1\AppData\Local\Temp\cceHOGtk.s 			page 16


 474              	.L33:
 362:..\Common\Minimal/blocktim.c **** 		{
 475              		.loc 1 362 0
 476 0214 2E4B     		ldr	r3, .L44+8
 477 0216 1B68     		ldr	r3, [r3]
 478 0218 552B     		cmp	r3, #85
 479 021a F8D1     		bne	.L34
 365:..\Common\Minimal/blocktim.c **** 		}
 366:..\Common\Minimal/blocktim.c **** 		vTaskDelay( bktSHORT_WAIT );
 480              		.loc 1 366 0
 481 021c 1420     		movs	r0, #20
 482 021e FFF7FEFF 		bl	vTaskDelay
 367:..\Common\Minimal/blocktim.c **** 		xRunIndicator = 0;
 483              		.loc 1 367 0
 484 0222 2B4B     		ldr	r3, .L44+8
 485 0224 0022     		movs	r2, #0
 486 0226 1A60     		str	r2, [r3]
 368:..\Common\Minimal/blocktim.c **** 
 369:..\Common\Minimal/blocktim.c **** 		for( xItem = 0; xItem < bktQUEUE_LENGTH; xItem++ )
 487              		.loc 1 369 0
 488 0228 0023     		movs	r3, #0
 489 022a 3B61     		str	r3, [r7, #16]
 490 022c 38E0     		b	.L35
 491              	.L40:
 370:..\Common\Minimal/blocktim.c **** 		{
 371:..\Common\Minimal/blocktim.c **** 			/* Now when we place an item on the queue the other task should
 372:..\Common\Minimal/blocktim.c **** 			wake but not execute as this task has higher priority. */
 373:..\Common\Minimal/blocktim.c **** 			if( xQueueSend( xTestQueue, &xItem, bktDONT_BLOCK ) != pdPASS )
 492              		.loc 1 373 0
 493 022e 264B     		ldr	r3, .L44
 494 0230 1868     		ldr	r0, [r3]
 495 0232 07F11001 		add	r1, r7, #16
 496 0236 0023     		movs	r3, #0
 497 0238 0022     		movs	r2, #0
 498 023a FFF7FEFF 		bl	xQueueGenericSend
 499 023e 0346     		mov	r3, r0
 500 0240 012B     		cmp	r3, #1
 501 0242 02D0     		beq	.L36
 374:..\Common\Minimal/blocktim.c **** 			{
 375:..\Common\Minimal/blocktim.c **** 				xErrorOccurred = pdTRUE;
 502              		.loc 1 375 0
 503 0244 214B     		ldr	r3, .L44+4
 504 0246 0122     		movs	r2, #1
 505 0248 1A60     		str	r2, [r3]
 506              	.L36:
 376:..\Common\Minimal/blocktim.c **** 			}
 377:..\Common\Minimal/blocktim.c **** 
 378:..\Common\Minimal/blocktim.c **** 			/* Now empty the queue again before the other task gets a chance to
 379:..\Common\Minimal/blocktim.c **** 			execute.  If the other task had executed we would find the queue
 380:..\Common\Minimal/blocktim.c **** 			empty ourselves, and the other task would be suspended. */
 381:..\Common\Minimal/blocktim.c **** 			if( xQueueReceive( xTestQueue, &xData, bktDONT_BLOCK ) != pdPASS )
 507              		.loc 1 381 0
 508 024a 1F4B     		ldr	r3, .L44
 509 024c 1868     		ldr	r0, [r3]
 510 024e 07F10C01 		add	r1, r7, #12
 511 0252 0023     		movs	r3, #0
 512 0254 0022     		movs	r2, #0
ARM GAS  C:\Users\THUNDE~1\AppData\Local\Temp\cceHOGtk.s 			page 17


 513 0256 FFF7FEFF 		bl	xQueueGenericReceive
 514 025a 0346     		mov	r3, r0
 515 025c 012B     		cmp	r3, #1
 516 025e 02D0     		beq	.L37
 382:..\Common\Minimal/blocktim.c **** 			{
 383:..\Common\Minimal/blocktim.c **** 				xErrorOccurred = pdTRUE;
 517              		.loc 1 383 0
 518 0260 1A4B     		ldr	r3, .L44+4
 519 0262 0122     		movs	r2, #1
 520 0264 1A60     		str	r2, [r3]
 521              	.L37:
 384:..\Common\Minimal/blocktim.c **** 			}
 385:..\Common\Minimal/blocktim.c **** 
 386:..\Common\Minimal/blocktim.c **** 			if( xRunIndicator == bktRUN_INDICATOR )
 522              		.loc 1 386 0
 523 0266 1A4B     		ldr	r3, .L44+8
 524 0268 1B68     		ldr	r3, [r3]
 525 026a 552B     		cmp	r3, #85
 526 026c 02D1     		bne	.L38
 387:..\Common\Minimal/blocktim.c **** 			{
 388:..\Common\Minimal/blocktim.c **** 				/* The other task should not have executed. */
 389:..\Common\Minimal/blocktim.c **** 				xErrorOccurred = pdTRUE;
 527              		.loc 1 389 0
 528 026e 174B     		ldr	r3, .L44+4
 529 0270 0122     		movs	r2, #1
 530 0272 1A60     		str	r2, [r3]
 531              	.L38:
 390:..\Common\Minimal/blocktim.c **** 			}
 391:..\Common\Minimal/blocktim.c **** 
 392:..\Common\Minimal/blocktim.c **** 			/* Raise the priority of the other task so it executes and blocks
 393:..\Common\Minimal/blocktim.c **** 			on the queue again. */
 394:..\Common\Minimal/blocktim.c **** 			vTaskPrioritySet( xSecondary, bktPRIMARY_PRIORITY + 2 );
 532              		.loc 1 394 0
 533 0274 174B     		ldr	r3, .L44+12
 534 0276 1B68     		ldr	r3, [r3]
 535 0278 0421     		movs	r1, #4
 536 027a 1846     		mov	r0, r3
 537 027c FFF7FEFF 		bl	vTaskPrioritySet
 395:..\Common\Minimal/blocktim.c **** 
 396:..\Common\Minimal/blocktim.c **** 			/* The other task should now have re-blocked without exiting the
 397:..\Common\Minimal/blocktim.c **** 			queue function. */
 398:..\Common\Minimal/blocktim.c **** 			if( xRunIndicator == bktRUN_INDICATOR )
 538              		.loc 1 398 0
 539 0280 134B     		ldr	r3, .L44+8
 540 0282 1B68     		ldr	r3, [r3]
 541 0284 552B     		cmp	r3, #85
 542 0286 02D1     		bne	.L39
 399:..\Common\Minimal/blocktim.c **** 			{
 400:..\Common\Minimal/blocktim.c **** 				/* The other task should not have executed outside of the
 401:..\Common\Minimal/blocktim.c **** 				queue function. */
 402:..\Common\Minimal/blocktim.c **** 				xErrorOccurred = pdTRUE;
 543              		.loc 1 402 0
 544 0288 104B     		ldr	r3, .L44+4
 545 028a 0122     		movs	r2, #1
 546 028c 1A60     		str	r2, [r3]
 547              	.L39:
 403:..\Common\Minimal/blocktim.c **** 			}
ARM GAS  C:\Users\THUNDE~1\AppData\Local\Temp\cceHOGtk.s 			page 18


 404:..\Common\Minimal/blocktim.c **** 			vTaskPrioritySet( xSecondary, bktSECONDARY_PRIORITY );
 548              		.loc 1 404 0 discriminator 2
 549 028e 114B     		ldr	r3, .L44+12
 550 0290 1B68     		ldr	r3, [r3]
 551 0292 0121     		movs	r1, #1
 552 0294 1846     		mov	r0, r3
 553 0296 FFF7FEFF 		bl	vTaskPrioritySet
 369:..\Common\Minimal/blocktim.c **** 		{
 554              		.loc 1 369 0 discriminator 2
 555 029a 3B69     		ldr	r3, [r7, #16]
 556 029c 0133     		adds	r3, r3, #1
 557 029e 3B61     		str	r3, [r7, #16]
 558              	.L35:
 369:..\Common\Minimal/blocktim.c **** 		{
 559              		.loc 1 369 0 is_stmt 0 discriminator 1
 560 02a0 3B69     		ldr	r3, [r7, #16]
 561 02a2 042B     		cmp	r3, #4
 562 02a4 C3DD     		ble	.L40
 405:..\Common\Minimal/blocktim.c **** 		}
 406:..\Common\Minimal/blocktim.c **** 
 407:..\Common\Minimal/blocktim.c **** 		/* Let the other task timeout.  When it unblockes it will check that it
 408:..\Common\Minimal/blocktim.c **** 		unblocked at the correct time, then suspend itself. */
 409:..\Common\Minimal/blocktim.c **** 		while( xRunIndicator != bktRUN_INDICATOR )
 563              		.loc 1 409 0 is_stmt 1
 564 02a6 02E0     		b	.L41
 565              	.L42:
 410:..\Common\Minimal/blocktim.c **** 		{
 411:..\Common\Minimal/blocktim.c **** 			vTaskDelay( bktSHORT_WAIT );
 566              		.loc 1 411 0
 567 02a8 1420     		movs	r0, #20
 568 02aa FFF7FEFF 		bl	vTaskDelay
 569              	.L41:
 409:..\Common\Minimal/blocktim.c **** 		{
 570              		.loc 1 409 0
 571 02ae 084B     		ldr	r3, .L44+8
 572 02b0 1B68     		ldr	r3, [r3]
 573 02b2 552B     		cmp	r3, #85
 574 02b4 F8D1     		bne	.L42
 412:..\Common\Minimal/blocktim.c **** 		}
 413:..\Common\Minimal/blocktim.c **** 		vTaskDelay( bktSHORT_WAIT );
 575              		.loc 1 413 0
 576 02b6 1420     		movs	r0, #20
 577 02b8 FFF7FEFF 		bl	vTaskDelay
 414:..\Common\Minimal/blocktim.c **** 
 415:..\Common\Minimal/blocktim.c **** 		xPrimaryCycles++;
 578              		.loc 1 415 0
 579 02bc 064B     		ldr	r3, .L44+16
 580 02be 1B68     		ldr	r3, [r3]
 581 02c0 0133     		adds	r3, r3, #1
 582 02c2 054A     		ldr	r2, .L44+16
 583 02c4 1360     		str	r3, [r2]
 416:..\Common\Minimal/blocktim.c **** 	}
 584              		.loc 1 416 0
 585 02c6 9FE6     		b	.L43
 586              	.L45:
 587              		.align	2
 588              	.L44:
ARM GAS  C:\Users\THUNDE~1\AppData\Local\Temp\cceHOGtk.s 			page 19


 589 02c8 00000000 		.word	xTestQueue
 590 02cc 10000000 		.word	xErrorOccurred
 591 02d0 14000000 		.word	xRunIndicator
 592 02d4 04000000 		.word	xSecondary
 593 02d8 08000000 		.word	xPrimaryCycles
 594              		.cfi_endproc
 595              	.LFE69:
 596              		.size	vPrimaryBlockTimeTestTask, .-vPrimaryBlockTimeTestTask
 597              		.section	.text.vSecondaryBlockTimeTestTask,"ax",%progbits
 598              		.align	2
 599              		.thumb
 600              		.thumb_func
 601              		.type	vSecondaryBlockTimeTestTask, %function
 602              	vSecondaryBlockTimeTestTask:
 603              	.LFB70:
 417:..\Common\Minimal/blocktim.c **** }
 418:..\Common\Minimal/blocktim.c **** /*-----------------------------------------------------------*/
 419:..\Common\Minimal/blocktim.c **** 
 420:..\Common\Minimal/blocktim.c **** static void vSecondaryBlockTimeTestTask( void *pvParameters )
 421:..\Common\Minimal/blocktim.c **** {
 604              		.loc 1 421 0
 605              		.cfi_startproc
 606              		@ args = 0, pretend = 0, frame = 24
 607              		@ frame_needed = 1, uses_anonymous_args = 0
 608 0000 80B5     		push	{r7, lr}
 609              		.cfi_def_cfa_offset 8
 610              		.cfi_offset 7, -8
 611              		.cfi_offset 14, -4
 612 0002 86B0     		sub	sp, sp, #24
 613              		.cfi_def_cfa_offset 32
 614 0004 00AF     		add	r7, sp, #0
 615              		.cfi_def_cfa_register 7
 616 0006 7860     		str	r0, [r7, #4]
 617              	.L53:
 422:..\Common\Minimal/blocktim.c **** TickType_t xTimeWhenBlocking, xBlockedTime;
 423:..\Common\Minimal/blocktim.c **** BaseType_t xData;
 424:..\Common\Minimal/blocktim.c **** 
 425:..\Common\Minimal/blocktim.c **** 	( void ) pvParameters;
 426:..\Common\Minimal/blocktim.c **** 
 427:..\Common\Minimal/blocktim.c **** 	for( ;; )
 428:..\Common\Minimal/blocktim.c **** 	{
 429:..\Common\Minimal/blocktim.c **** 		/*********************************************************************
 430:..\Common\Minimal/blocktim.c **** 		Test 0, 1 and 2
 431:..\Common\Minimal/blocktim.c **** 
 432:..\Common\Minimal/blocktim.c **** 		This task does not participate in these tests. */
 433:..\Common\Minimal/blocktim.c **** 		vTaskSuspend( NULL );
 618              		.loc 1 433 0
 619 0008 0020     		movs	r0, #0
 620 000a FFF7FEFF 		bl	vTaskSuspend
 434:..\Common\Minimal/blocktim.c **** 
 435:..\Common\Minimal/blocktim.c **** 		/*********************************************************************
 436:..\Common\Minimal/blocktim.c **** 		Test 3
 437:..\Common\Minimal/blocktim.c **** 
 438:..\Common\Minimal/blocktim.c **** 		The first thing we do is attempt to read from the queue.  It should be
 439:..\Common\Minimal/blocktim.c **** 		full so we block.  Note the time before we block so we can check the
 440:..\Common\Minimal/blocktim.c **** 		wake time is as per that expected. */
 441:..\Common\Minimal/blocktim.c **** 		xTimeWhenBlocking = xTaskGetTickCount();
ARM GAS  C:\Users\THUNDE~1\AppData\Local\Temp\cceHOGtk.s 			page 20


 621              		.loc 1 441 0
 622 000e FFF7FEFF 		bl	xTaskGetTickCount
 623 0012 7861     		str	r0, [r7, #20]
 442:..\Common\Minimal/blocktim.c **** 
 443:..\Common\Minimal/blocktim.c **** 		/* We should unblock after bktTIME_TO_BLOCK having not sent anything to
 444:..\Common\Minimal/blocktim.c **** 		the queue. */
 445:..\Common\Minimal/blocktim.c **** 		xData = 0;
 624              		.loc 1 445 0
 625 0014 0023     		movs	r3, #0
 626 0016 FB60     		str	r3, [r7, #12]
 446:..\Common\Minimal/blocktim.c **** 		xRunIndicator = bktRUN_INDICATOR;
 627              		.loc 1 446 0
 628 0018 2B4B     		ldr	r3, .L54
 629 001a 5522     		movs	r2, #85
 630 001c 1A60     		str	r2, [r3]
 447:..\Common\Minimal/blocktim.c **** 		if( xQueueSend( xTestQueue, &xData, bktTIME_TO_BLOCK ) != errQUEUE_FULL )
 631              		.loc 1 447 0
 632 001e 2B4B     		ldr	r3, .L54+4
 633 0020 1868     		ldr	r0, [r3]
 634 0022 07F10C01 		add	r1, r7, #12
 635 0026 0023     		movs	r3, #0
 636 0028 AF22     		movs	r2, #175
 637 002a FFF7FEFF 		bl	xQueueGenericSend
 638 002e 0346     		mov	r3, r0
 639 0030 002B     		cmp	r3, #0
 640 0032 02D0     		beq	.L47
 448:..\Common\Minimal/blocktim.c **** 		{
 449:..\Common\Minimal/blocktim.c **** 			xErrorOccurred = pdTRUE;
 641              		.loc 1 449 0
 642 0034 264B     		ldr	r3, .L54+8
 643 0036 0122     		movs	r2, #1
 644 0038 1A60     		str	r2, [r3]
 645              	.L47:
 450:..\Common\Minimal/blocktim.c **** 		}
 451:..\Common\Minimal/blocktim.c **** 
 452:..\Common\Minimal/blocktim.c **** 		/* How long were we inside the send function? */
 453:..\Common\Minimal/blocktim.c **** 		xBlockedTime = xTaskGetTickCount() - xTimeWhenBlocking;
 646              		.loc 1 453 0
 647 003a FFF7FEFF 		bl	xTaskGetTickCount
 648 003e 0246     		mov	r2, r0
 649 0040 7B69     		ldr	r3, [r7, #20]
 650 0042 D31A     		subs	r3, r2, r3
 651 0044 3B61     		str	r3, [r7, #16]
 454:..\Common\Minimal/blocktim.c **** 
 455:..\Common\Minimal/blocktim.c **** 		/* We should not have blocked for less time than bktTIME_TO_BLOCK. */
 456:..\Common\Minimal/blocktim.c **** 		if( xBlockedTime < bktTIME_TO_BLOCK )
 652              		.loc 1 456 0
 653 0046 3B69     		ldr	r3, [r7, #16]
 654 0048 AE2B     		cmp	r3, #174
 655 004a 02D8     		bhi	.L48
 457:..\Common\Minimal/blocktim.c **** 		{
 458:..\Common\Minimal/blocktim.c **** 			xErrorOccurred = pdTRUE;
 656              		.loc 1 458 0
 657 004c 204B     		ldr	r3, .L54+8
 658 004e 0122     		movs	r2, #1
 659 0050 1A60     		str	r2, [r3]
 660              	.L48:
ARM GAS  C:\Users\THUNDE~1\AppData\Local\Temp\cceHOGtk.s 			page 21


 459:..\Common\Minimal/blocktim.c **** 		}
 460:..\Common\Minimal/blocktim.c **** 
 461:..\Common\Minimal/blocktim.c **** 		/* We should of not blocked for much longer than bktALLOWABLE_MARGIN
 462:..\Common\Minimal/blocktim.c **** 		either.  A margin is permitted as we would not necessarily run as
 463:..\Common\Minimal/blocktim.c **** 		soon as we unblocked. */
 464:..\Common\Minimal/blocktim.c **** 		if( xBlockedTime > ( bktTIME_TO_BLOCK + bktALLOWABLE_MARGIN ) )
 661              		.loc 1 464 0
 662 0052 3B69     		ldr	r3, [r7, #16]
 663 0054 BE2B     		cmp	r3, #190
 664 0056 02D9     		bls	.L49
 465:..\Common\Minimal/blocktim.c **** 		{
 466:..\Common\Minimal/blocktim.c **** 			xErrorOccurred = pdTRUE;
 665              		.loc 1 466 0
 666 0058 1D4B     		ldr	r3, .L54+8
 667 005a 0122     		movs	r2, #1
 668 005c 1A60     		str	r2, [r3]
 669              	.L49:
 467:..\Common\Minimal/blocktim.c **** 		}
 468:..\Common\Minimal/blocktim.c **** 
 469:..\Common\Minimal/blocktim.c **** 		/* Suspend ready for test 3. */
 470:..\Common\Minimal/blocktim.c **** 		xRunIndicator = bktRUN_INDICATOR;
 670              		.loc 1 470 0
 671 005e 1A4B     		ldr	r3, .L54
 672 0060 5522     		movs	r2, #85
 673 0062 1A60     		str	r2, [r3]
 471:..\Common\Minimal/blocktim.c **** 		vTaskSuspend( NULL );
 674              		.loc 1 471 0
 675 0064 0020     		movs	r0, #0
 676 0066 FFF7FEFF 		bl	vTaskSuspend
 472:..\Common\Minimal/blocktim.c **** 
 473:..\Common\Minimal/blocktim.c **** 		/*********************************************************************
 474:..\Common\Minimal/blocktim.c ****         Test 4
 475:..\Common\Minimal/blocktim.c **** 
 476:..\Common\Minimal/blocktim.c **** 		As per test three, but with the send and receive reversed. */
 477:..\Common\Minimal/blocktim.c **** 		xTimeWhenBlocking = xTaskGetTickCount();
 677              		.loc 1 477 0
 678 006a FFF7FEFF 		bl	xTaskGetTickCount
 679 006e 7861     		str	r0, [r7, #20]
 478:..\Common\Minimal/blocktim.c **** 
 479:..\Common\Minimal/blocktim.c **** 		/* We should unblock after bktTIME_TO_BLOCK having not received
 480:..\Common\Minimal/blocktim.c **** 		anything on the queue. */
 481:..\Common\Minimal/blocktim.c **** 		xRunIndicator = bktRUN_INDICATOR;
 680              		.loc 1 481 0
 681 0070 154B     		ldr	r3, .L54
 682 0072 5522     		movs	r2, #85
 683 0074 1A60     		str	r2, [r3]
 482:..\Common\Minimal/blocktim.c **** 		if( xQueueReceive( xTestQueue, &xData, bktTIME_TO_BLOCK ) != errQUEUE_EMPTY )
 684              		.loc 1 482 0
 685 0076 154B     		ldr	r3, .L54+4
 686 0078 1868     		ldr	r0, [r3]
 687 007a 07F10C01 		add	r1, r7, #12
 688 007e 0023     		movs	r3, #0
 689 0080 AF22     		movs	r2, #175
 690 0082 FFF7FEFF 		bl	xQueueGenericReceive
 691 0086 0346     		mov	r3, r0
 692 0088 002B     		cmp	r3, #0
 693 008a 02D0     		beq	.L50
ARM GAS  C:\Users\THUNDE~1\AppData\Local\Temp\cceHOGtk.s 			page 22


 483:..\Common\Minimal/blocktim.c **** 		{
 484:..\Common\Minimal/blocktim.c **** 			xErrorOccurred = pdTRUE;
 694              		.loc 1 484 0
 695 008c 104B     		ldr	r3, .L54+8
 696 008e 0122     		movs	r2, #1
 697 0090 1A60     		str	r2, [r3]
 698              	.L50:
 485:..\Common\Minimal/blocktim.c **** 		}
 486:..\Common\Minimal/blocktim.c **** 
 487:..\Common\Minimal/blocktim.c **** 		xBlockedTime = xTaskGetTickCount() - xTimeWhenBlocking;
 699              		.loc 1 487 0
 700 0092 FFF7FEFF 		bl	xTaskGetTickCount
 701 0096 0246     		mov	r2, r0
 702 0098 7B69     		ldr	r3, [r7, #20]
 703 009a D31A     		subs	r3, r2, r3
 704 009c 3B61     		str	r3, [r7, #16]
 488:..\Common\Minimal/blocktim.c **** 
 489:..\Common\Minimal/blocktim.c **** 		/* We should not have blocked for less time than bktTIME_TO_BLOCK. */
 490:..\Common\Minimal/blocktim.c **** 		if( xBlockedTime < bktTIME_TO_BLOCK )
 705              		.loc 1 490 0
 706 009e 3B69     		ldr	r3, [r7, #16]
 707 00a0 AE2B     		cmp	r3, #174
 708 00a2 02D8     		bhi	.L51
 491:..\Common\Minimal/blocktim.c **** 		{
 492:..\Common\Minimal/blocktim.c **** 			xErrorOccurred = pdTRUE;
 709              		.loc 1 492 0
 710 00a4 0A4B     		ldr	r3, .L54+8
 711 00a6 0122     		movs	r2, #1
 712 00a8 1A60     		str	r2, [r3]
 713              	.L51:
 493:..\Common\Minimal/blocktim.c **** 		}
 494:..\Common\Minimal/blocktim.c **** 
 495:..\Common\Minimal/blocktim.c **** 		/* We should of not blocked for much longer than bktALLOWABLE_MARGIN
 496:..\Common\Minimal/blocktim.c **** 		either.  A margin is permitted as we would not necessarily run as soon
 497:..\Common\Minimal/blocktim.c **** 		as we unblocked. */
 498:..\Common\Minimal/blocktim.c **** 		if( xBlockedTime > ( bktTIME_TO_BLOCK + bktALLOWABLE_MARGIN ) )
 714              		.loc 1 498 0
 715 00aa 3B69     		ldr	r3, [r7, #16]
 716 00ac BE2B     		cmp	r3, #190
 717 00ae 02D9     		bls	.L52
 499:..\Common\Minimal/blocktim.c **** 		{
 500:..\Common\Minimal/blocktim.c **** 			xErrorOccurred = pdTRUE;
 718              		.loc 1 500 0
 719 00b0 074B     		ldr	r3, .L54+8
 720 00b2 0122     		movs	r2, #1
 721 00b4 1A60     		str	r2, [r3]
 722              	.L52:
 501:..\Common\Minimal/blocktim.c **** 		}
 502:..\Common\Minimal/blocktim.c **** 
 503:..\Common\Minimal/blocktim.c **** 		xRunIndicator = bktRUN_INDICATOR;
 723              		.loc 1 503 0
 724 00b6 044B     		ldr	r3, .L54
 725 00b8 5522     		movs	r2, #85
 726 00ba 1A60     		str	r2, [r3]
 504:..\Common\Minimal/blocktim.c **** 
 505:..\Common\Minimal/blocktim.c **** 		xSecondaryCycles++;
 727              		.loc 1 505 0
ARM GAS  C:\Users\THUNDE~1\AppData\Local\Temp\cceHOGtk.s 			page 23


 728 00bc 054B     		ldr	r3, .L54+12
 729 00be 1B68     		ldr	r3, [r3]
 730 00c0 0133     		adds	r3, r3, #1
 731 00c2 044A     		ldr	r2, .L54+12
 732 00c4 1360     		str	r3, [r2]
 506:..\Common\Minimal/blocktim.c **** 	}
 733              		.loc 1 506 0
 734 00c6 9FE7     		b	.L53
 735              	.L55:
 736              		.align	2
 737              	.L54:
 738 00c8 14000000 		.word	xRunIndicator
 739 00cc 00000000 		.word	xTestQueue
 740 00d0 10000000 		.word	xErrorOccurred
 741 00d4 0C000000 		.word	xSecondaryCycles
 742              		.cfi_endproc
 743              	.LFE70:
 744              		.size	vSecondaryBlockTimeTestTask, .-vSecondaryBlockTimeTestTask
 745              		.section	.text.prvBasicDelayTests,"ax",%progbits
 746              		.align	2
 747              		.thumb
 748              		.thumb_func
 749              		.type	prvBasicDelayTests, %function
 750              	prvBasicDelayTests:
 751              	.LFB71:
 507:..\Common\Minimal/blocktim.c **** }
 508:..\Common\Minimal/blocktim.c **** /*-----------------------------------------------------------*/
 509:..\Common\Minimal/blocktim.c **** 
 510:..\Common\Minimal/blocktim.c **** static void prvBasicDelayTests( void )
 511:..\Common\Minimal/blocktim.c **** {
 752              		.loc 1 511 0
 753              		.cfi_startproc
 754              		@ args = 0, pretend = 0, frame = 32
 755              		@ frame_needed = 1, uses_anonymous_args = 0
 756 0000 80B5     		push	{r7, lr}
 757              		.cfi_def_cfa_offset 8
 758              		.cfi_offset 7, -8
 759              		.cfi_offset 14, -4
 760 0002 88B0     		sub	sp, sp, #32
 761              		.cfi_def_cfa_offset 40
 762 0004 00AF     		add	r7, sp, #0
 763              		.cfi_def_cfa_register 7
 512:..\Common\Minimal/blocktim.c **** TickType_t xPreTime, xPostTime, x, xLastUnblockTime, xExpectedUnblockTime;
 513:..\Common\Minimal/blocktim.c **** const TickType_t xPeriod = 75, xCycles = 5, xAllowableMargin = ( bktALLOWABLE_MARGIN >> 1 );
 764              		.loc 1 513 0
 765 0006 4B23     		movs	r3, #75
 766 0008 BB61     		str	r3, [r7, #24]
 767 000a 0523     		movs	r3, #5
 768 000c 7B61     		str	r3, [r7, #20]
 769 000e 0723     		movs	r3, #7
 770 0010 3B61     		str	r3, [r7, #16]
 514:..\Common\Minimal/blocktim.c **** 
 515:..\Common\Minimal/blocktim.c **** 	/* Temporarily increase priority so the timing is more accurate, but not so
 516:..\Common\Minimal/blocktim.c **** 	high as to disrupt the timer tests. */
 517:..\Common\Minimal/blocktim.c **** 	vTaskPrioritySet( NULL, configTIMER_TASK_PRIORITY - 1 );
 771              		.loc 1 517 0
 772 0012 0321     		movs	r1, #3
ARM GAS  C:\Users\THUNDE~1\AppData\Local\Temp\cceHOGtk.s 			page 24


 773 0014 0020     		movs	r0, #0
 774 0016 FFF7FEFF 		bl	vTaskPrioritySet
 518:..\Common\Minimal/blocktim.c **** 
 519:..\Common\Minimal/blocktim.c **** 	/* Crude check to too that vTaskDelay() blocks for the expected period. */
 520:..\Common\Minimal/blocktim.c **** 	xPreTime = xTaskGetTickCount();
 775              		.loc 1 520 0
 776 001a FFF7FEFF 		bl	xTaskGetTickCount
 777 001e F860     		str	r0, [r7, #12]
 521:..\Common\Minimal/blocktim.c **** 	vTaskDelay( bktTIME_TO_BLOCK );
 778              		.loc 1 521 0
 779 0020 AF20     		movs	r0, #175
 780 0022 FFF7FEFF 		bl	vTaskDelay
 522:..\Common\Minimal/blocktim.c **** 	xPostTime = xTaskGetTickCount();
 781              		.loc 1 522 0
 782 0026 FFF7FEFF 		bl	xTaskGetTickCount
 783 002a B860     		str	r0, [r7, #8]
 523:..\Common\Minimal/blocktim.c **** 
 524:..\Common\Minimal/blocktim.c **** 	/* The priority is higher, so the allowable margin is halved when compared
 525:..\Common\Minimal/blocktim.c **** 	to the other tests in this file. */
 526:..\Common\Minimal/blocktim.c **** 	if( ( xPostTime - xPreTime ) > ( bktTIME_TO_BLOCK + xAllowableMargin ) )
 784              		.loc 1 526 0
 785 002c BA68     		ldr	r2, [r7, #8]
 786 002e FB68     		ldr	r3, [r7, #12]
 787 0030 D21A     		subs	r2, r2, r3
 788 0032 3B69     		ldr	r3, [r7, #16]
 789 0034 AF33     		adds	r3, r3, #175
 790 0036 9A42     		cmp	r2, r3
 791 0038 02D9     		bls	.L57
 527:..\Common\Minimal/blocktim.c **** 	{
 528:..\Common\Minimal/blocktim.c **** 		xErrorOccurred = pdTRUE;
 792              		.loc 1 528 0
 793 003a 1B4B     		ldr	r3, .L61
 794 003c 0122     		movs	r2, #1
 795 003e 1A60     		str	r2, [r3]
 796              	.L57:
 529:..\Common\Minimal/blocktim.c **** 	}
 530:..\Common\Minimal/blocktim.c **** 
 531:..\Common\Minimal/blocktim.c **** 	/* Now crude tests to check the vTaskDelayUntil() functionality. */
 532:..\Common\Minimal/blocktim.c **** 	xPostTime = xTaskGetTickCount();
 797              		.loc 1 532 0
 798 0040 FFF7FEFF 		bl	xTaskGetTickCount
 799 0044 B860     		str	r0, [r7, #8]
 533:..\Common\Minimal/blocktim.c **** 	xLastUnblockTime = xPostTime;
 800              		.loc 1 533 0
 801 0046 BB68     		ldr	r3, [r7, #8]
 802 0048 3B60     		str	r3, [r7]
 534:..\Common\Minimal/blocktim.c **** 
 535:..\Common\Minimal/blocktim.c **** 	for( x = 0; x < xCycles; x++ )
 803              		.loc 1 535 0
 804 004a 0023     		movs	r3, #0
 805 004c FB61     		str	r3, [r7, #28]
 806 004e 1FE0     		b	.L58
 807              	.L60:
 536:..\Common\Minimal/blocktim.c **** 	{
 537:..\Common\Minimal/blocktim.c **** 		/* Calculate the next expected unblock time from the time taken before
 538:..\Common\Minimal/blocktim.c **** 		this loop was entered. */
 539:..\Common\Minimal/blocktim.c **** 		xExpectedUnblockTime = xPostTime + ( x * xPeriod );
ARM GAS  C:\Users\THUNDE~1\AppData\Local\Temp\cceHOGtk.s 			page 25


 808              		.loc 1 539 0
 809 0050 FB69     		ldr	r3, [r7, #28]
 810 0052 BA69     		ldr	r2, [r7, #24]
 811 0054 02FB03F2 		mul	r2, r2, r3
 812 0058 BB68     		ldr	r3, [r7, #8]
 813 005a 1344     		add	r3, r3, r2
 814 005c 7B60     		str	r3, [r7, #4]
 540:..\Common\Minimal/blocktim.c **** 
 541:..\Common\Minimal/blocktim.c **** 		vTaskDelayUntil( &xLastUnblockTime, xPeriod );
 815              		.loc 1 541 0
 816 005e 3B46     		mov	r3, r7
 817 0060 B969     		ldr	r1, [r7, #24]
 818 0062 1846     		mov	r0, r3
 819 0064 FFF7FEFF 		bl	vTaskDelayUntil
 542:..\Common\Minimal/blocktim.c **** 
 543:..\Common\Minimal/blocktim.c **** 		if( ( xTaskGetTickCount() - xExpectedUnblockTime ) > ( bktTIME_TO_BLOCK + xAllowableMargin ) )
 820              		.loc 1 543 0
 821 0068 FFF7FEFF 		bl	xTaskGetTickCount
 822 006c 0246     		mov	r2, r0
 823 006e 7B68     		ldr	r3, [r7, #4]
 824 0070 D21A     		subs	r2, r2, r3
 825 0072 3B69     		ldr	r3, [r7, #16]
 826 0074 AF33     		adds	r3, r3, #175
 827 0076 9A42     		cmp	r2, r3
 828 0078 02D9     		bls	.L59
 544:..\Common\Minimal/blocktim.c **** 		{
 545:..\Common\Minimal/blocktim.c **** 			xErrorOccurred = pdTRUE;
 829              		.loc 1 545 0
 830 007a 0B4B     		ldr	r3, .L61
 831 007c 0122     		movs	r2, #1
 832 007e 1A60     		str	r2, [r3]
 833              	.L59:
 546:..\Common\Minimal/blocktim.c **** 		}
 547:..\Common\Minimal/blocktim.c **** 
 548:..\Common\Minimal/blocktim.c **** 		xPrimaryCycles++;
 834              		.loc 1 548 0 discriminator 2
 835 0080 0A4B     		ldr	r3, .L61+4
 836 0082 1B68     		ldr	r3, [r3]
 837 0084 0133     		adds	r3, r3, #1
 838 0086 094A     		ldr	r2, .L61+4
 839 0088 1360     		str	r3, [r2]
 535:..\Common\Minimal/blocktim.c **** 	{
 840              		.loc 1 535 0 discriminator 2
 841 008a FB69     		ldr	r3, [r7, #28]
 842 008c 0133     		adds	r3, r3, #1
 843 008e FB61     		str	r3, [r7, #28]
 844              	.L58:
 535:..\Common\Minimal/blocktim.c **** 	{
 845              		.loc 1 535 0 is_stmt 0 discriminator 1
 846 0090 FA69     		ldr	r2, [r7, #28]
 847 0092 7B69     		ldr	r3, [r7, #20]
 848 0094 9A42     		cmp	r2, r3
 849 0096 DBD3     		bcc	.L60
 549:..\Common\Minimal/blocktim.c **** 	}
 550:..\Common\Minimal/blocktim.c **** 
 551:..\Common\Minimal/blocktim.c **** 	/* Reset to the original task priority ready for the other tests. */
 552:..\Common\Minimal/blocktim.c **** 	vTaskPrioritySet( NULL, bktPRIMARY_PRIORITY );
ARM GAS  C:\Users\THUNDE~1\AppData\Local\Temp\cceHOGtk.s 			page 26


 850              		.loc 1 552 0 is_stmt 1
 851 0098 0221     		movs	r1, #2
 852 009a 0020     		movs	r0, #0
 853 009c FFF7FEFF 		bl	vTaskPrioritySet
 553:..\Common\Minimal/blocktim.c **** }
 854              		.loc 1 553 0
 855 00a0 00BF     		nop
 856 00a2 2037     		adds	r7, r7, #32
 857              		.cfi_def_cfa_offset 8
 858 00a4 BD46     		mov	sp, r7
 859              		.cfi_def_cfa_register 13
 860              		@ sp needed
 861 00a6 80BD     		pop	{r7, pc}
 862              	.L62:
 863              		.align	2
 864              	.L61:
 865 00a8 10000000 		.word	xErrorOccurred
 866 00ac 08000000 		.word	xPrimaryCycles
 867              		.cfi_endproc
 868              	.LFE71:
 869              		.size	prvBasicDelayTests, .-prvBasicDelayTests
 870              		.section	.text.xAreBlockTimeTestTasksStillRunning,"ax",%progbits
 871              		.align	2
 872              		.global	xAreBlockTimeTestTasksStillRunning
 873              		.thumb
 874              		.thumb_func
 875              		.type	xAreBlockTimeTestTasksStillRunning, %function
 876              	xAreBlockTimeTestTasksStillRunning:
 877              	.LFB72:
 554:..\Common\Minimal/blocktim.c **** /*-----------------------------------------------------------*/
 555:..\Common\Minimal/blocktim.c **** 
 556:..\Common\Minimal/blocktim.c **** BaseType_t xAreBlockTimeTestTasksStillRunning( void )
 557:..\Common\Minimal/blocktim.c **** {
 878              		.loc 1 557 0
 879              		.cfi_startproc
 880              		@ args = 0, pretend = 0, frame = 8
 881              		@ frame_needed = 1, uses_anonymous_args = 0
 882              		@ link register save eliminated.
 883 0000 80B4     		push	{r7}
 884              		.cfi_def_cfa_offset 4
 885              		.cfi_offset 7, -4
 886 0002 83B0     		sub	sp, sp, #12
 887              		.cfi_def_cfa_offset 16
 888 0004 00AF     		add	r7, sp, #0
 889              		.cfi_def_cfa_register 7
 558:..\Common\Minimal/blocktim.c **** static BaseType_t xLastPrimaryCycleCount = 0, xLastSecondaryCycleCount = 0;
 559:..\Common\Minimal/blocktim.c **** BaseType_t xReturn = pdPASS;
 890              		.loc 1 559 0
 891 0006 0123     		movs	r3, #1
 892 0008 7B60     		str	r3, [r7, #4]
 560:..\Common\Minimal/blocktim.c **** 
 561:..\Common\Minimal/blocktim.c **** 	/* Have both tasks performed at least one cycle since this function was
 562:..\Common\Minimal/blocktim.c **** 	last called? */
 563:..\Common\Minimal/blocktim.c **** 	if( xPrimaryCycles == xLastPrimaryCycleCount )
 893              		.loc 1 563 0
 894 000a 124B     		ldr	r3, .L68
 895 000c 1A68     		ldr	r2, [r3]
ARM GAS  C:\Users\THUNDE~1\AppData\Local\Temp\cceHOGtk.s 			page 27


 896 000e 124B     		ldr	r3, .L68+4
 897 0010 1B68     		ldr	r3, [r3]
 898 0012 9A42     		cmp	r2, r3
 899 0014 01D1     		bne	.L64
 564:..\Common\Minimal/blocktim.c **** 	{
 565:..\Common\Minimal/blocktim.c **** 		xReturn = pdFAIL;
 900              		.loc 1 565 0
 901 0016 0023     		movs	r3, #0
 902 0018 7B60     		str	r3, [r7, #4]
 903              	.L64:
 566:..\Common\Minimal/blocktim.c **** 	}
 567:..\Common\Minimal/blocktim.c **** 
 568:..\Common\Minimal/blocktim.c **** 	if( xSecondaryCycles == xLastSecondaryCycleCount )
 904              		.loc 1 568 0
 905 001a 104B     		ldr	r3, .L68+8
 906 001c 1A68     		ldr	r2, [r3]
 907 001e 104B     		ldr	r3, .L68+12
 908 0020 1B68     		ldr	r3, [r3]
 909 0022 9A42     		cmp	r2, r3
 910 0024 01D1     		bne	.L65
 569:..\Common\Minimal/blocktim.c **** 	{
 570:..\Common\Minimal/blocktim.c **** 		xReturn = pdFAIL;
 911              		.loc 1 570 0
 912 0026 0023     		movs	r3, #0
 913 0028 7B60     		str	r3, [r7, #4]
 914              	.L65:
 571:..\Common\Minimal/blocktim.c **** 	}
 572:..\Common\Minimal/blocktim.c **** 
 573:..\Common\Minimal/blocktim.c **** 	if( xErrorOccurred == pdTRUE )
 915              		.loc 1 573 0
 916 002a 0E4B     		ldr	r3, .L68+16
 917 002c 1B68     		ldr	r3, [r3]
 918 002e 012B     		cmp	r3, #1
 919 0030 01D1     		bne	.L66
 574:..\Common\Minimal/blocktim.c **** 	{
 575:..\Common\Minimal/blocktim.c **** 		xReturn = pdFAIL;
 920              		.loc 1 575 0
 921 0032 0023     		movs	r3, #0
 922 0034 7B60     		str	r3, [r7, #4]
 923              	.L66:
 576:..\Common\Minimal/blocktim.c **** 	}
 577:..\Common\Minimal/blocktim.c **** 
 578:..\Common\Minimal/blocktim.c **** 	xLastSecondaryCycleCount = xSecondaryCycles;
 924              		.loc 1 578 0
 925 0036 094B     		ldr	r3, .L68+8
 926 0038 1B68     		ldr	r3, [r3]
 927 003a 094A     		ldr	r2, .L68+12
 928 003c 1360     		str	r3, [r2]
 579:..\Common\Minimal/blocktim.c **** 	xLastPrimaryCycleCount = xPrimaryCycles;
 929              		.loc 1 579 0
 930 003e 054B     		ldr	r3, .L68
 931 0040 1B68     		ldr	r3, [r3]
 932 0042 054A     		ldr	r2, .L68+4
 933 0044 1360     		str	r3, [r2]
 580:..\Common\Minimal/blocktim.c **** 
 581:..\Common\Minimal/blocktim.c **** 	return xReturn;
 934              		.loc 1 581 0
ARM GAS  C:\Users\THUNDE~1\AppData\Local\Temp\cceHOGtk.s 			page 28


 935 0046 7B68     		ldr	r3, [r7, #4]
 582:..\Common\Minimal/blocktim.c **** }
 936              		.loc 1 582 0
 937 0048 1846     		mov	r0, r3
 938 004a 0C37     		adds	r7, r7, #12
 939              		.cfi_def_cfa_offset 4
 940 004c BD46     		mov	sp, r7
 941              		.cfi_def_cfa_register 13
 942              		@ sp needed
 943 004e 80BC     		pop	{r7}
 944              		.cfi_restore 7
 945              		.cfi_def_cfa_offset 0
 946 0050 7047     		bx	lr
 947              	.L69:
 948 0052 00BF     		.align	2
 949              	.L68:
 950 0054 08000000 		.word	xPrimaryCycles
 951 0058 18000000 		.word	xLastPrimaryCycleCount.7199
 952 005c 0C000000 		.word	xSecondaryCycles
 953 0060 1C000000 		.word	xLastSecondaryCycleCount.7200
 954 0064 10000000 		.word	xErrorOccurred
 955              		.cfi_endproc
 956              	.LFE72:
 957              		.size	xAreBlockTimeTestTasksStillRunning, .-xAreBlockTimeTestTasksStillRunning
 958              		.bss
 959              		.align	2
 960              	xLastPrimaryCycleCount.7199:
 961 0018 00000000 		.space	4
 962              		.align	2
 963              	xLastSecondaryCycleCount.7200:
 964 001c 00000000 		.space	4
 965              		.text
 966              	.Letext0:
 967              		.file 2 "c:\\program files (x86)\\cypress\\psoc creator\\4.2\\psoc creator\\import\\gnu\\arm\\5.4.
 968              		.file 3 "c:\\program files (x86)\\cypress\\psoc creator\\4.2\\psoc creator\\import\\gnu\\arm\\5.4.
 969              		.file 4 ".\\Tracer/sniffPayload.h"
 970              		.file 5 ".\\Tracer/selfFIFO.h"
 971              		.file 6 "..\\Source\\portable\\GCC\\ARM_CM3/portmacro.h"
 972              		.file 7 "..\\Source\\include/task.h"
 973              		.file 8 "..\\Source\\include/queue.h"
 974              		.file 9 "Generated_Source\\PSoC5/core_cm3.h"
 975              		.file 10 ".\\Tracer/sniffTask.h"