ARM GAS  C:\Users\THUNDE~1\AppData\Local\Temp\cc2MFmny.s 			page 1


   1              		.syntax unified
   2              		.cpu cortex-m3
   3              		.fpu softvfp
   4              		.eabi_attribute 20, 1
   5              		.eabi_attribute 21, 1
   6              		.eabi_attribute 23, 3
   7              		.eabi_attribute 24, 1
   8              		.eabi_attribute 25, 1
   9              		.eabi_attribute 26, 1
  10              		.eabi_attribute 30, 6
  11              		.eabi_attribute 34, 1
  12              		.eabi_attribute 18, 4
  13              		.thumb
  14              		.syntax unified
  15              		.file	"comtest.c"
  16              		.text
  17              	.Ltext0:
  18              		.cfi_sections	.debug_frame
  19              		.comm	sniffIDFilter,13,4
  20              		.comm	buffer,4098,4
  21              		.comm	objectList,1704,4
  22              		.bss
  23              		.align	2
  24              	xPort:
  25 0000 00000000 		.space	4
  26              		.align	2
  27              	uxBaseLED:
  28 0004 00000000 		.space	4
  29              		.align	2
  30              	uxRxLoops:
  31 0008 00000000 		.space	4
  32              		.section	.rodata
  33              		.align	2
  34              	.LC0:
  35 0000 434F4D54 		.ascii	"COMTx\000"
  35      7800
  36 0006 0000     		.align	2
  37              	.LC1:
  38 0008 434F4D52 		.ascii	"COMRx\000"
  38      7800
  39              		.section	.text.vAltStartComTestTasks,"ax",%progbits
  40              		.align	2
  41              		.global	vAltStartComTestTasks
  42              		.thumb
  43              		.thumb_func
  44              		.type	vAltStartComTestTasks, %function
  45              	vAltStartComTestTasks:
  46              	.LFB68:
  47              		.file 1 "..\\Common\\Minimal\\comtest.c"
   1:..\Common\Minimal/comtest.c **** /*
   2:..\Common\Minimal/comtest.c ****     FreeRTOS V9.0.0 - Copyright (C) 2016 Real Time Engineers Ltd.
   3:..\Common\Minimal/comtest.c ****     All rights reserved
   4:..\Common\Minimal/comtest.c **** 
   5:..\Common\Minimal/comtest.c ****     VISIT http://www.FreeRTOS.org TO ENSURE YOU ARE USING THE LATEST VERSION.
   6:..\Common\Minimal/comtest.c **** 
   7:..\Common\Minimal/comtest.c ****     This file is part of the FreeRTOS distribution.
   8:..\Common\Minimal/comtest.c **** 
ARM GAS  C:\Users\THUNDE~1\AppData\Local\Temp\cc2MFmny.s 			page 2


   9:..\Common\Minimal/comtest.c ****     FreeRTOS is free software; you can redistribute it and/or modify it under
  10:..\Common\Minimal/comtest.c ****     the terms of the GNU General Public License (version 2) as published by the
  11:..\Common\Minimal/comtest.c ****     Free Software Foundation >>>> AND MODIFIED BY <<<< the FreeRTOS exception.
  12:..\Common\Minimal/comtest.c **** 
  13:..\Common\Minimal/comtest.c ****     ***************************************************************************
  14:..\Common\Minimal/comtest.c ****     >>!   NOTE: The modification to the GPL is included to allow you to     !<<
  15:..\Common\Minimal/comtest.c ****     >>!   distribute a combined work that includes FreeRTOS without being   !<<
  16:..\Common\Minimal/comtest.c ****     >>!   obliged to provide the source code for proprietary components     !<<
  17:..\Common\Minimal/comtest.c ****     >>!   outside of the FreeRTOS kernel.                                   !<<
  18:..\Common\Minimal/comtest.c ****     ***************************************************************************
  19:..\Common\Minimal/comtest.c **** 
  20:..\Common\Minimal/comtest.c ****     FreeRTOS is distributed in the hope that it will be useful, but WITHOUT ANY
  21:..\Common\Minimal/comtest.c ****     WARRANTY; without even the implied warranty of MERCHANTABILITY or FITNESS
  22:..\Common\Minimal/comtest.c ****     FOR A PARTICULAR PURPOSE.  Full license text is available on the following
  23:..\Common\Minimal/comtest.c ****     link: http://www.freertos.org/a00114.html
  24:..\Common\Minimal/comtest.c **** 
  25:..\Common\Minimal/comtest.c ****     ***************************************************************************
  26:..\Common\Minimal/comtest.c ****      *                                                                       *
  27:..\Common\Minimal/comtest.c ****      *    FreeRTOS provides completely free yet professionally developed,    *
  28:..\Common\Minimal/comtest.c ****      *    robust, strictly quality controlled, supported, and cross          *
  29:..\Common\Minimal/comtest.c ****      *    platform software that is more than just the market leader, it     *
  30:..\Common\Minimal/comtest.c ****      *    is the industry's de facto standard.                               *
  31:..\Common\Minimal/comtest.c ****      *                                                                       *
  32:..\Common\Minimal/comtest.c ****      *    Help yourself get started quickly while simultaneously helping     *
  33:..\Common\Minimal/comtest.c ****      *    to support the FreeRTOS project by purchasing a FreeRTOS           *
  34:..\Common\Minimal/comtest.c ****      *    tutorial book, reference manual, or both:                          *
  35:..\Common\Minimal/comtest.c ****      *    http://www.FreeRTOS.org/Documentation                              *
  36:..\Common\Minimal/comtest.c ****      *                                                                       *
  37:..\Common\Minimal/comtest.c ****     ***************************************************************************
  38:..\Common\Minimal/comtest.c **** 
  39:..\Common\Minimal/comtest.c ****     http://www.FreeRTOS.org/FAQHelp.html - Having a problem?  Start by reading
  40:..\Common\Minimal/comtest.c ****     the FAQ page "My application does not run, what could be wrong?".  Have you
  41:..\Common\Minimal/comtest.c ****     defined configASSERT()?
  42:..\Common\Minimal/comtest.c **** 
  43:..\Common\Minimal/comtest.c ****     http://www.FreeRTOS.org/support - In return for receiving this top quality
  44:..\Common\Minimal/comtest.c ****     embedded software for free we request you assist our global community by
  45:..\Common\Minimal/comtest.c ****     participating in the support forum.
  46:..\Common\Minimal/comtest.c **** 
  47:..\Common\Minimal/comtest.c ****     http://www.FreeRTOS.org/training - Investing in training allows your team to
  48:..\Common\Minimal/comtest.c ****     be as productive as possible as early as possible.  Now you can receive
  49:..\Common\Minimal/comtest.c ****     FreeRTOS training directly from Richard Barry, CEO of Real Time Engineers
  50:..\Common\Minimal/comtest.c ****     Ltd, and the world's leading authority on the world's leading RTOS.
  51:..\Common\Minimal/comtest.c **** 
  52:..\Common\Minimal/comtest.c ****     http://www.FreeRTOS.org/plus - A selection of FreeRTOS ecosystem products,
  53:..\Common\Minimal/comtest.c ****     including FreeRTOS+Trace - an indispensable productivity tool, a DOS
  54:..\Common\Minimal/comtest.c ****     compatible FAT file system, and our tiny thread aware UDP/IP stack.
  55:..\Common\Minimal/comtest.c **** 
  56:..\Common\Minimal/comtest.c ****     http://www.FreeRTOS.org/labs - Where new FreeRTOS products go to incubate.
  57:..\Common\Minimal/comtest.c ****     Come and try FreeRTOS+TCP, our new open source TCP/IP stack for FreeRTOS.
  58:..\Common\Minimal/comtest.c **** 
  59:..\Common\Minimal/comtest.c ****     http://www.OpenRTOS.com - Real Time Engineers ltd. license FreeRTOS to High
  60:..\Common\Minimal/comtest.c ****     Integrity Systems ltd. to sell under the OpenRTOS brand.  Low cost OpenRTOS
  61:..\Common\Minimal/comtest.c ****     licenses offer ticketed support, indemnification and commercial middleware.
  62:..\Common\Minimal/comtest.c **** 
  63:..\Common\Minimal/comtest.c ****     http://www.SafeRTOS.com - High Integrity Systems also provide a safety
  64:..\Common\Minimal/comtest.c ****     engineered and independently SIL3 certified version for use in safety and
  65:..\Common\Minimal/comtest.c ****     mission critical applications that require provable dependability.
ARM GAS  C:\Users\THUNDE~1\AppData\Local\Temp\cc2MFmny.s 			page 3


  66:..\Common\Minimal/comtest.c **** 
  67:..\Common\Minimal/comtest.c ****     1 tab == 4 spaces!
  68:..\Common\Minimal/comtest.c **** */
  69:..\Common\Minimal/comtest.c **** 
  70:..\Common\Minimal/comtest.c **** 
  71:..\Common\Minimal/comtest.c **** /*
  72:..\Common\Minimal/comtest.c ****  * This version of comtest. c is for use on systems that have limited stack
  73:..\Common\Minimal/comtest.c ****  * space and no display facilities.  The complete version can be found in
  74:..\Common\Minimal/comtest.c ****  * the Demo/Common/Full directory.
  75:..\Common\Minimal/comtest.c ****  *
  76:..\Common\Minimal/comtest.c ****  * Creates two tasks that operate on an interrupt driven serial port.  A
  77:..\Common\Minimal/comtest.c ****  * loopback connector should be used so that everything that is transmitted is
  78:..\Common\Minimal/comtest.c ****  * also received.  The serial port does not use any flow control.  On a
  79:..\Common\Minimal/comtest.c ****  * standard 9way 'D' connector pins two and three should be connected together.
  80:..\Common\Minimal/comtest.c ****  *
  81:..\Common\Minimal/comtest.c ****  * The first task posts a sequence of characters to the Tx queue, toggling an
  82:..\Common\Minimal/comtest.c ****  * LED on each successful post.  At the end of the sequence it sleeps for a
  83:..\Common\Minimal/comtest.c ****  * pseudo-random period before resending the same sequence.
  84:..\Common\Minimal/comtest.c ****  *
  85:..\Common\Minimal/comtest.c ****  * The UART Tx end interrupt is enabled whenever data is available in the Tx
  86:..\Common\Minimal/comtest.c ****  * queue.  The Tx end ISR removes a single character from the Tx queue and
  87:..\Common\Minimal/comtest.c ****  * passes it to the UART for transmission.
  88:..\Common\Minimal/comtest.c ****  *
  89:..\Common\Minimal/comtest.c ****  * The second task blocks on the Rx queue waiting for a character to become
  90:..\Common\Minimal/comtest.c ****  * available.  When the UART Rx end interrupt receives a character it places
  91:..\Common\Minimal/comtest.c ****  * it in the Rx queue, waking the second task.  The second task checks that the
  92:..\Common\Minimal/comtest.c ****  * characters removed from the Rx queue form the same sequence as those posted
  93:..\Common\Minimal/comtest.c ****  * to the Tx queue, and toggles an LED for each correct character.
  94:..\Common\Minimal/comtest.c ****  *
  95:..\Common\Minimal/comtest.c ****  * The receiving task is spawned with a higher priority than the transmitting
  96:..\Common\Minimal/comtest.c ****  * task.  The receiver will therefore wake every time a character is
  97:..\Common\Minimal/comtest.c ****  * transmitted so neither the Tx or Rx queue should ever hold more than a few
  98:..\Common\Minimal/comtest.c ****  * characters.
  99:..\Common\Minimal/comtest.c ****  *
 100:..\Common\Minimal/comtest.c ****  */
 101:..\Common\Minimal/comtest.c **** 
 102:..\Common\Minimal/comtest.c **** /* Scheduler include files. */
 103:..\Common\Minimal/comtest.c **** #include <stdlib.h>
 104:..\Common\Minimal/comtest.c **** #include "FreeRTOS.h"
 105:..\Common\Minimal/comtest.c **** #include "task.h"
 106:..\Common\Minimal/comtest.c **** 
 107:..\Common\Minimal/comtest.c **** /* Demo program include files. */
 108:..\Common\Minimal/comtest.c **** #include "serial.h"
 109:..\Common\Minimal/comtest.c **** #include "comtest.h"
 110:..\Common\Minimal/comtest.c **** #include "partest.h"
 111:..\Common\Minimal/comtest.c **** 
 112:..\Common\Minimal/comtest.c **** #define comSTACK_SIZE				configMINIMAL_STACK_SIZE
 113:..\Common\Minimal/comtest.c **** #define comTX_LED_OFFSET			( 0 )
 114:..\Common\Minimal/comtest.c **** #define comRX_LED_OFFSET			( 1 )
 115:..\Common\Minimal/comtest.c **** #define comTOTAL_PERMISSIBLE_ERRORS ( 2 )
 116:..\Common\Minimal/comtest.c **** 
 117:..\Common\Minimal/comtest.c **** /* The Tx task will transmit the sequence of characters at a pseudo random
 118:..\Common\Minimal/comtest.c **** interval.  This is the maximum and minimum block time between sends. */
 119:..\Common\Minimal/comtest.c **** #define comTX_MAX_BLOCK_TIME		( ( TickType_t ) 0x96 )
 120:..\Common\Minimal/comtest.c **** #define comTX_MIN_BLOCK_TIME		( ( TickType_t ) 0x32 )
 121:..\Common\Minimal/comtest.c **** #define comOFFSET_TIME				( ( TickType_t ) 3 )
 122:..\Common\Minimal/comtest.c **** 
ARM GAS  C:\Users\THUNDE~1\AppData\Local\Temp\cc2MFmny.s 			page 4


 123:..\Common\Minimal/comtest.c **** /* We should find that each character can be queued for Tx immediately and we
 124:..\Common\Minimal/comtest.c **** don't have to block to send. */
 125:..\Common\Minimal/comtest.c **** #define comNO_BLOCK					( ( TickType_t ) 0 )
 126:..\Common\Minimal/comtest.c **** 
 127:..\Common\Minimal/comtest.c **** /* The Rx task will block on the Rx queue for a long period. */
 128:..\Common\Minimal/comtest.c **** #define comRX_BLOCK_TIME			( ( TickType_t ) 0xffff )
 129:..\Common\Minimal/comtest.c **** 
 130:..\Common\Minimal/comtest.c **** /* The sequence transmitted is from comFIRST_BYTE to and including comLAST_BYTE. */
 131:..\Common\Minimal/comtest.c **** #define comFIRST_BYTE				( 'A' )
 132:..\Common\Minimal/comtest.c **** #define comLAST_BYTE				( 'X' )
 133:..\Common\Minimal/comtest.c **** 
 134:..\Common\Minimal/comtest.c **** #define comBUFFER_LEN				( ( UBaseType_t ) ( comLAST_BYTE - comFIRST_BYTE ) + ( UBaseType_t ) 1 )
 135:..\Common\Minimal/comtest.c **** #define comINITIAL_RX_COUNT_VALUE	( 0 )
 136:..\Common\Minimal/comtest.c **** 
 137:..\Common\Minimal/comtest.c **** /* Handle to the com port used by both tasks. */
 138:..\Common\Minimal/comtest.c **** static xComPortHandle xPort = NULL;
 139:..\Common\Minimal/comtest.c **** 
 140:..\Common\Minimal/comtest.c **** /* The transmit task as described at the top of the file. */
 141:..\Common\Minimal/comtest.c **** static portTASK_FUNCTION_PROTO( vComTxTask, pvParameters );
 142:..\Common\Minimal/comtest.c **** 
 143:..\Common\Minimal/comtest.c **** /* The receive task as described at the top of the file. */
 144:..\Common\Minimal/comtest.c **** static portTASK_FUNCTION_PROTO( vComRxTask, pvParameters );
 145:..\Common\Minimal/comtest.c **** 
 146:..\Common\Minimal/comtest.c **** /* The LED that should be toggled by the Rx and Tx tasks.  The Rx task will
 147:..\Common\Minimal/comtest.c **** toggle LED ( uxBaseLED + comRX_LED_OFFSET).  The Tx task will toggle LED
 148:..\Common\Minimal/comtest.c **** ( uxBaseLED + comTX_LED_OFFSET ). */
 149:..\Common\Minimal/comtest.c **** static UBaseType_t uxBaseLED = 0;
 150:..\Common\Minimal/comtest.c **** 
 151:..\Common\Minimal/comtest.c **** /* Check variable used to ensure no error have occurred.  The Rx task will
 152:..\Common\Minimal/comtest.c **** increment this variable after every successfully received sequence.  If at any
 153:..\Common\Minimal/comtest.c **** time the sequence is incorrect the the variable will stop being incremented. */
 154:..\Common\Minimal/comtest.c **** static volatile UBaseType_t uxRxLoops = comINITIAL_RX_COUNT_VALUE;
 155:..\Common\Minimal/comtest.c **** 
 156:..\Common\Minimal/comtest.c **** /*-----------------------------------------------------------*/
 157:..\Common\Minimal/comtest.c **** 
 158:..\Common\Minimal/comtest.c **** void vAltStartComTestTasks( UBaseType_t uxPriority, uint32_t ulBaudRate, UBaseType_t uxLED )
 159:..\Common\Minimal/comtest.c **** {
  48              		.loc 1 159 0
  49              		.cfi_startproc
  50              		@ args = 0, pretend = 0, frame = 16
  51              		@ frame_needed = 1, uses_anonymous_args = 0
  52 0000 80B5     		push	{r7, lr}
  53              		.cfi_def_cfa_offset 8
  54              		.cfi_offset 7, -8
  55              		.cfi_offset 14, -4
  56 0002 86B0     		sub	sp, sp, #24
  57              		.cfi_def_cfa_offset 32
  58 0004 02AF     		add	r7, sp, #8
  59              		.cfi_def_cfa 7, 24
  60 0006 F860     		str	r0, [r7, #12]
  61 0008 B960     		str	r1, [r7, #8]
  62 000a 7A60     		str	r2, [r7, #4]
 160:..\Common\Minimal/comtest.c **** 	/* Initialise the com port then spawn the Rx and Tx tasks. */
 161:..\Common\Minimal/comtest.c **** 	uxBaseLED = uxLED;
  63              		.loc 1 161 0
  64 000c 0F4A     		ldr	r2, .L2
  65 000e 7B68     		ldr	r3, [r7, #4]
ARM GAS  C:\Users\THUNDE~1\AppData\Local\Temp\cc2MFmny.s 			page 5


  66 0010 1360     		str	r3, [r2]
 162:..\Common\Minimal/comtest.c **** 	xSerialPortInitMinimal( ulBaudRate, comBUFFER_LEN );
  67              		.loc 1 162 0
  68 0012 1821     		movs	r1, #24
  69 0014 B868     		ldr	r0, [r7, #8]
  70 0016 FFF7FEFF 		bl	xSerialPortInitMinimal
 163:..\Common\Minimal/comtest.c **** 
 164:..\Common\Minimal/comtest.c **** 	/* The Tx task is spawned with a lower priority than the Rx task. */
 165:..\Common\Minimal/comtest.c **** 	xTaskCreate( vComTxTask, "COMTx", comSTACK_SIZE, NULL, uxPriority - 1, ( TaskHandle_t * ) NULL );
  71              		.loc 1 165 0
  72 001a FB68     		ldr	r3, [r7, #12]
  73 001c 013B     		subs	r3, r3, #1
  74 001e 0022     		movs	r2, #0
  75 0020 0192     		str	r2, [sp, #4]
  76 0022 0093     		str	r3, [sp]
  77 0024 0023     		movs	r3, #0
  78 0026 6422     		movs	r2, #100
  79 0028 0949     		ldr	r1, .L2+4
  80 002a 0A48     		ldr	r0, .L2+8
  81 002c FFF7FEFF 		bl	xTaskCreate
 166:..\Common\Minimal/comtest.c **** 	xTaskCreate( vComRxTask, "COMRx", comSTACK_SIZE, NULL, uxPriority, ( TaskHandle_t * ) NULL );
  82              		.loc 1 166 0
  83 0030 0023     		movs	r3, #0
  84 0032 0193     		str	r3, [sp, #4]
  85 0034 FB68     		ldr	r3, [r7, #12]
  86 0036 0093     		str	r3, [sp]
  87 0038 0023     		movs	r3, #0
  88 003a 6422     		movs	r2, #100
  89 003c 0649     		ldr	r1, .L2+12
  90 003e 0748     		ldr	r0, .L2+16
  91 0040 FFF7FEFF 		bl	xTaskCreate
 167:..\Common\Minimal/comtest.c **** }
  92              		.loc 1 167 0
  93 0044 00BF     		nop
  94 0046 1037     		adds	r7, r7, #16
  95              		.cfi_def_cfa_offset 8
  96 0048 BD46     		mov	sp, r7
  97              		.cfi_def_cfa_register 13
  98              		@ sp needed
  99 004a 80BD     		pop	{r7, pc}
 100              	.L3:
 101              		.align	2
 102              	.L2:
 103 004c 04000000 		.word	uxBaseLED
 104 0050 00000000 		.word	.LC0
 105 0054 00000000 		.word	vComTxTask
 106 0058 08000000 		.word	.LC1
 107 005c 00000000 		.word	vComRxTask
 108              		.cfi_endproc
 109              	.LFE68:
 110              		.size	vAltStartComTestTasks, .-vAltStartComTestTasks
 111              		.section	.text.vComTxTask,"ax",%progbits
 112              		.align	2
 113              		.thumb
 114              		.thumb_func
 115              		.type	vComTxTask, %function
 116              	vComTxTask:
ARM GAS  C:\Users\THUNDE~1\AppData\Local\Temp\cc2MFmny.s 			page 6


 117              	.LFB69:
 168:..\Common\Minimal/comtest.c **** /*-----------------------------------------------------------*/
 169:..\Common\Minimal/comtest.c **** 
 170:..\Common\Minimal/comtest.c **** static portTASK_FUNCTION( vComTxTask, pvParameters )
 171:..\Common\Minimal/comtest.c **** {
 118              		.loc 1 171 0
 119              		.cfi_startproc
 120              		@ args = 0, pretend = 0, frame = 16
 121              		@ frame_needed = 1, uses_anonymous_args = 0
 122 0000 80B5     		push	{r7, lr}
 123              		.cfi_def_cfa_offset 8
 124              		.cfi_offset 7, -8
 125              		.cfi_offset 14, -4
 126 0002 84B0     		sub	sp, sp, #16
 127              		.cfi_def_cfa_offset 24
 128 0004 00AF     		add	r7, sp, #0
 129              		.cfi_def_cfa_register 7
 130 0006 7860     		str	r0, [r7, #4]
 131              	.L9:
 172:..\Common\Minimal/comtest.c **** char cByteToSend;
 173:..\Common\Minimal/comtest.c **** TickType_t xTimeToWait;
 174:..\Common\Minimal/comtest.c **** 
 175:..\Common\Minimal/comtest.c **** 	/* Just to stop compiler warnings. */
 176:..\Common\Minimal/comtest.c **** 	( void ) pvParameters;
 177:..\Common\Minimal/comtest.c **** 
 178:..\Common\Minimal/comtest.c **** 	for( ;; )
 179:..\Common\Minimal/comtest.c **** 	{
 180:..\Common\Minimal/comtest.c **** 		/* Simply transmit a sequence of characters from comFIRST_BYTE to
 181:..\Common\Minimal/comtest.c **** 		comLAST_BYTE. */
 182:..\Common\Minimal/comtest.c **** 		for( cByteToSend = comFIRST_BYTE; cByteToSend <= comLAST_BYTE; cByteToSend++ )
 132              		.loc 1 182 0
 133 0008 4123     		movs	r3, #65
 134 000a FB73     		strb	r3, [r7, #15]
 135 000c 12E0     		b	.L5
 136              	.L7:
 183:..\Common\Minimal/comtest.c **** 		{
 184:..\Common\Minimal/comtest.c **** 			if( xSerialPutChar( xPort, cByteToSend, comNO_BLOCK ) == pdPASS )
 137              		.loc 1 184 0
 138 000e 1A4B     		ldr	r3, .L10
 139 0010 1B68     		ldr	r3, [r3]
 140 0012 97F90F10 		ldrsb	r1, [r7, #15]
 141 0016 0022     		movs	r2, #0
 142 0018 1846     		mov	r0, r3
 143 001a FFF7FEFF 		bl	xSerialPutChar
 144 001e 0346     		mov	r3, r0
 145 0020 012B     		cmp	r3, #1
 146 0022 04D1     		bne	.L6
 185:..\Common\Minimal/comtest.c **** 			{
 186:..\Common\Minimal/comtest.c **** 				vParTestToggleLED( uxBaseLED + comTX_LED_OFFSET );
 147              		.loc 1 186 0
 148 0024 154B     		ldr	r3, .L10+4
 149 0026 1B68     		ldr	r3, [r3]
 150 0028 1846     		mov	r0, r3
 151 002a FFF7FEFF 		bl	vParTestToggleLED
 152              	.L6:
 182:..\Common\Minimal/comtest.c **** 		{
 153              		.loc 1 182 0 discriminator 2
ARM GAS  C:\Users\THUNDE~1\AppData\Local\Temp\cc2MFmny.s 			page 7


 154 002e FB7B     		ldrb	r3, [r7, #15]	@ zero_extendqisi2
 155 0030 0133     		adds	r3, r3, #1
 156 0032 FB73     		strb	r3, [r7, #15]
 157              	.L5:
 182:..\Common\Minimal/comtest.c **** 		{
 158              		.loc 1 182 0 is_stmt 0 discriminator 1
 159 0034 FB7B     		ldrb	r3, [r7, #15]	@ zero_extendqisi2
 160 0036 582B     		cmp	r3, #88
 161 0038 E9D9     		bls	.L7
 187:..\Common\Minimal/comtest.c **** 			}
 188:..\Common\Minimal/comtest.c **** 		}
 189:..\Common\Minimal/comtest.c **** 
 190:..\Common\Minimal/comtest.c **** 		/* Turn the LED off while we are not doing anything. */
 191:..\Common\Minimal/comtest.c **** 		vParTestSetLED( uxBaseLED + comTX_LED_OFFSET, pdFALSE );
 162              		.loc 1 191 0 is_stmt 1
 163 003a 104B     		ldr	r3, .L10+4
 164 003c 1B68     		ldr	r3, [r3]
 165 003e 0021     		movs	r1, #0
 166 0040 1846     		mov	r0, r3
 167 0042 FFF7FEFF 		bl	vParTestSetLED
 192:..\Common\Minimal/comtest.c **** 
 193:..\Common\Minimal/comtest.c **** 		/* We have posted all the characters in the string - wait before
 194:..\Common\Minimal/comtest.c **** 		re-sending.  Wait a pseudo-random time as this will provide a better
 195:..\Common\Minimal/comtest.c **** 		test. */
 196:..\Common\Minimal/comtest.c **** 		xTimeToWait = xTaskGetTickCount() + comOFFSET_TIME;
 168              		.loc 1 196 0
 169 0046 FFF7FEFF 		bl	xTaskGetTickCount
 170 004a 0346     		mov	r3, r0
 171 004c 0333     		adds	r3, r3, #3
 172 004e BB60     		str	r3, [r7, #8]
 197:..\Common\Minimal/comtest.c **** 
 198:..\Common\Minimal/comtest.c **** 		/* Make sure we don't wait too long... */
 199:..\Common\Minimal/comtest.c **** 		xTimeToWait %= comTX_MAX_BLOCK_TIME;
 173              		.loc 1 199 0
 174 0050 BB68     		ldr	r3, [r7, #8]
 175 0052 0B4A     		ldr	r2, .L10+8
 176 0054 A2FB0312 		umull	r1, r2, r2, r3
 177 0058 1209     		lsrs	r2, r2, #4
 178 005a 9621     		movs	r1, #150
 179 005c 01FB02F2 		mul	r2, r1, r2
 180 0060 9B1A     		subs	r3, r3, r2
 181 0062 BB60     		str	r3, [r7, #8]
 200:..\Common\Minimal/comtest.c **** 
 201:..\Common\Minimal/comtest.c **** 		/* ...but we do want to wait. */
 202:..\Common\Minimal/comtest.c **** 		if( xTimeToWait < comTX_MIN_BLOCK_TIME )
 182              		.loc 1 202 0
 183 0064 BB68     		ldr	r3, [r7, #8]
 184 0066 312B     		cmp	r3, #49
 185 0068 01D8     		bhi	.L8
 203:..\Common\Minimal/comtest.c **** 		{
 204:..\Common\Minimal/comtest.c **** 			xTimeToWait = comTX_MIN_BLOCK_TIME;
 186              		.loc 1 204 0
 187 006a 3223     		movs	r3, #50
 188 006c BB60     		str	r3, [r7, #8]
 189              	.L8:
 205:..\Common\Minimal/comtest.c **** 		}
 206:..\Common\Minimal/comtest.c **** 
ARM GAS  C:\Users\THUNDE~1\AppData\Local\Temp\cc2MFmny.s 			page 8


 207:..\Common\Minimal/comtest.c **** 		vTaskDelay( xTimeToWait );
 190              		.loc 1 207 0
 191 006e B868     		ldr	r0, [r7, #8]
 192 0070 FFF7FEFF 		bl	vTaskDelay
 208:..\Common\Minimal/comtest.c **** 	}
 193              		.loc 1 208 0
 194 0074 C8E7     		b	.L9
 195              	.L11:
 196 0076 00BF     		.align	2
 197              	.L10:
 198 0078 00000000 		.word	xPort
 199 007c 04000000 		.word	uxBaseLED
 200 0080 B5814E1B 		.word	458129845
 201              		.cfi_endproc
 202              	.LFE69:
 203              		.size	vComTxTask, .-vComTxTask
 204              		.section	.text.vComRxTask,"ax",%progbits
 205              		.align	2
 206              		.thumb
 207              		.thumb_func
 208              		.type	vComRxTask, %function
 209              	vComRxTask:
 210              	.LFB70:
 209:..\Common\Minimal/comtest.c **** } /*lint !e715 !e818 pvParameters is required for a task function even if it is not referenced. */
 210:..\Common\Minimal/comtest.c **** /*-----------------------------------------------------------*/
 211:..\Common\Minimal/comtest.c **** 
 212:..\Common\Minimal/comtest.c **** static portTASK_FUNCTION( vComRxTask, pvParameters )
 213:..\Common\Minimal/comtest.c **** {
 211              		.loc 1 213 0
 212              		.cfi_startproc
 213              		@ args = 0, pretend = 0, frame = 24
 214              		@ frame_needed = 1, uses_anonymous_args = 0
 215 0000 80B5     		push	{r7, lr}
 216              		.cfi_def_cfa_offset 8
 217              		.cfi_offset 7, -8
 218              		.cfi_offset 14, -4
 219 0002 86B0     		sub	sp, sp, #24
 220              		.cfi_def_cfa_offset 32
 221 0004 00AF     		add	r7, sp, #0
 222              		.cfi_def_cfa_register 7
 223 0006 7860     		str	r0, [r7, #4]
 214:..\Common\Minimal/comtest.c **** signed char cExpectedByte, cByteRxed;
 215:..\Common\Minimal/comtest.c **** BaseType_t xResyncRequired = pdFALSE, xErrorOccurred = pdFALSE;
 224              		.loc 1 215 0
 225 0008 0023     		movs	r3, #0
 226 000a 3B61     		str	r3, [r7, #16]
 227 000c 0023     		movs	r3, #0
 228 000e FB60     		str	r3, [r7, #12]
 229              	.L22:
 216:..\Common\Minimal/comtest.c **** 
 217:..\Common\Minimal/comtest.c **** 	/* Just to stop compiler warnings. */
 218:..\Common\Minimal/comtest.c **** 	( void ) pvParameters;
 219:..\Common\Minimal/comtest.c **** 
 220:..\Common\Minimal/comtest.c **** 	for( ;; )
 221:..\Common\Minimal/comtest.c **** 	{
 222:..\Common\Minimal/comtest.c **** 		/* We expect to receive the characters from comFIRST_BYTE to
 223:..\Common\Minimal/comtest.c **** 		comLAST_BYTE in an incrementing order.  Loop to receive each byte. */
ARM GAS  C:\Users\THUNDE~1\AppData\Local\Temp\cc2MFmny.s 			page 9


 224:..\Common\Minimal/comtest.c **** 		for( cExpectedByte = comFIRST_BYTE; cExpectedByte <= comLAST_BYTE; cExpectedByte++ )
 230              		.loc 1 224 0
 231 0010 4123     		movs	r3, #65
 232 0012 FB75     		strb	r3, [r7, #23]
 233 0014 21E0     		b	.L13
 234              	.L17:
 225:..\Common\Minimal/comtest.c **** 		{
 226:..\Common\Minimal/comtest.c **** 			/* Block on the queue that contains received bytes until a byte is
 227:..\Common\Minimal/comtest.c **** 			available. */
 228:..\Common\Minimal/comtest.c **** 			if( xSerialGetChar( xPort, &cByteRxed, comRX_BLOCK_TIME ) )
 235              		.loc 1 228 0
 236 0016 264B     		ldr	r3, .L23
 237 0018 1B68     		ldr	r3, [r3]
 238 001a 07F10B01 		add	r1, r7, #11
 239 001e 4FF6FF72 		movw	r2, #65535
 240 0022 1846     		mov	r0, r3
 241 0024 FFF7FEFF 		bl	xSerialGetChar
 242 0028 0346     		mov	r3, r0
 243 002a 002B     		cmp	r3, #0
 244 002c 0FD0     		beq	.L14
 229:..\Common\Minimal/comtest.c **** 			{
 230:..\Common\Minimal/comtest.c **** 				/* Was this the byte we were expecting?  If so, toggle the LED,
 231:..\Common\Minimal/comtest.c **** 				otherwise we are out on sync and should break out of the loop
 232:..\Common\Minimal/comtest.c **** 				until the expected character sequence is about to restart. */
 233:..\Common\Minimal/comtest.c **** 				if( cByteRxed == cExpectedByte )
 245              		.loc 1 233 0
 246 002e 97F90B30 		ldrsb	r3, [r7, #11]
 247 0032 97F91720 		ldrsb	r2, [r7, #23]
 248 0036 9A42     		cmp	r2, r3
 249 0038 06D1     		bne	.L15
 234:..\Common\Minimal/comtest.c **** 				{
 235:..\Common\Minimal/comtest.c **** 					vParTestToggleLED( uxBaseLED + comRX_LED_OFFSET );
 250              		.loc 1 235 0
 251 003a 1E4B     		ldr	r3, .L23+4
 252 003c 1B68     		ldr	r3, [r3]
 253 003e 0133     		adds	r3, r3, #1
 254 0040 1846     		mov	r0, r3
 255 0042 FFF7FEFF 		bl	vParTestToggleLED
 256 0046 02E0     		b	.L14
 257              	.L15:
 236:..\Common\Minimal/comtest.c **** 				}
 237:..\Common\Minimal/comtest.c **** 				else
 238:..\Common\Minimal/comtest.c **** 				{
 239:..\Common\Minimal/comtest.c **** 					xResyncRequired = pdTRUE;
 258              		.loc 1 239 0
 259 0048 0123     		movs	r3, #1
 260 004a 3B61     		str	r3, [r7, #16]
 240:..\Common\Minimal/comtest.c **** 					break; /*lint !e960 Non-switch break allowed. */
 261              		.loc 1 240 0
 262 004c 09E0     		b	.L16
 263              	.L14:
 224:..\Common\Minimal/comtest.c **** 		{
 264              		.loc 1 224 0 discriminator 2
 265 004e 97F91730 		ldrsb	r3, [r7, #23]
 266 0052 DBB2     		uxtb	r3, r3
 267 0054 0133     		adds	r3, r3, #1
 268 0056 DBB2     		uxtb	r3, r3
ARM GAS  C:\Users\THUNDE~1\AppData\Local\Temp\cc2MFmny.s 			page 10


 269 0058 FB75     		strb	r3, [r7, #23]
 270              	.L13:
 224:..\Common\Minimal/comtest.c **** 		{
 271              		.loc 1 224 0 is_stmt 0 discriminator 1
 272 005a 97F91730 		ldrsb	r3, [r7, #23]
 273 005e 582B     		cmp	r3, #88
 274 0060 D9DD     		ble	.L17
 275              	.L16:
 241:..\Common\Minimal/comtest.c **** 				}
 242:..\Common\Minimal/comtest.c **** 			}
 243:..\Common\Minimal/comtest.c **** 		}
 244:..\Common\Minimal/comtest.c **** 
 245:..\Common\Minimal/comtest.c **** 		/* Turn the LED off while we are not doing anything. */
 246:..\Common\Minimal/comtest.c **** 		vParTestSetLED( uxBaseLED + comRX_LED_OFFSET, pdFALSE );
 276              		.loc 1 246 0 is_stmt 1
 277 0062 144B     		ldr	r3, .L23+4
 278 0064 1B68     		ldr	r3, [r3]
 279 0066 0133     		adds	r3, r3, #1
 280 0068 0021     		movs	r1, #0
 281 006a 1846     		mov	r0, r3
 282 006c FFF7FEFF 		bl	vParTestSetLED
 247:..\Common\Minimal/comtest.c **** 
 248:..\Common\Minimal/comtest.c **** 		/* Did we break out of the loop because the characters were received in
 249:..\Common\Minimal/comtest.c **** 		an unexpected order?  If so wait here until the character sequence is
 250:..\Common\Minimal/comtest.c **** 		about to restart. */
 251:..\Common\Minimal/comtest.c **** 		if( xResyncRequired == pdTRUE )
 283              		.loc 1 251 0
 284 0070 3B69     		ldr	r3, [r7, #16]
 285 0072 012B     		cmp	r3, #1
 286 0074 13D1     		bne	.L18
 252:..\Common\Minimal/comtest.c **** 		{
 253:..\Common\Minimal/comtest.c **** 			while( cByteRxed != comLAST_BYTE )
 287              		.loc 1 253 0
 288 0076 08E0     		b	.L19
 289              	.L20:
 254:..\Common\Minimal/comtest.c **** 			{
 255:..\Common\Minimal/comtest.c **** 				/* Block until the next char is available. */
 256:..\Common\Minimal/comtest.c **** 				xSerialGetChar( xPort, &cByteRxed, comRX_BLOCK_TIME );
 290              		.loc 1 256 0
 291 0078 0D4B     		ldr	r3, .L23
 292 007a 1B68     		ldr	r3, [r3]
 293 007c 07F10B01 		add	r1, r7, #11
 294 0080 4FF6FF72 		movw	r2, #65535
 295 0084 1846     		mov	r0, r3
 296 0086 FFF7FEFF 		bl	xSerialGetChar
 297              	.L19:
 253:..\Common\Minimal/comtest.c **** 			{
 298              		.loc 1 253 0
 299 008a 97F90B30 		ldrsb	r3, [r7, #11]
 300 008e 582B     		cmp	r3, #88
 301 0090 F2D1     		bne	.L20
 257:..\Common\Minimal/comtest.c **** 			}
 258:..\Common\Minimal/comtest.c **** 
 259:..\Common\Minimal/comtest.c **** 			/* Note that an error occurred which caused us to have to resync.
 260:..\Common\Minimal/comtest.c **** 			We use this to stop incrementing the loop counter so
 261:..\Common\Minimal/comtest.c **** 			sAreComTestTasksStillRunning() will return false - indicating an
 262:..\Common\Minimal/comtest.c **** 			error. */
ARM GAS  C:\Users\THUNDE~1\AppData\Local\Temp\cc2MFmny.s 			page 11


 263:..\Common\Minimal/comtest.c **** 			xErrorOccurred++;
 302              		.loc 1 263 0
 303 0092 FB68     		ldr	r3, [r7, #12]
 304 0094 0133     		adds	r3, r3, #1
 305 0096 FB60     		str	r3, [r7, #12]
 264:..\Common\Minimal/comtest.c **** 
 265:..\Common\Minimal/comtest.c **** 			/* We have now resynced with the Tx task and can continue. */
 266:..\Common\Minimal/comtest.c **** 			xResyncRequired = pdFALSE;
 306              		.loc 1 266 0
 307 0098 0023     		movs	r3, #0
 308 009a 3B61     		str	r3, [r7, #16]
 309 009c B8E7     		b	.L22
 310              	.L18:
 267:..\Common\Minimal/comtest.c **** 		}
 268:..\Common\Minimal/comtest.c **** 		else
 269:..\Common\Minimal/comtest.c **** 		{
 270:..\Common\Minimal/comtest.c **** 			if( xErrorOccurred < comTOTAL_PERMISSIBLE_ERRORS )
 311              		.loc 1 270 0
 312 009e FB68     		ldr	r3, [r7, #12]
 313 00a0 012B     		cmp	r3, #1
 314 00a2 B5DC     		bgt	.L22
 271:..\Common\Minimal/comtest.c **** 			{
 272:..\Common\Minimal/comtest.c **** 				/* Increment the count of successful loops.  As error
 273:..\Common\Minimal/comtest.c **** 				occurring (i.e. an unexpected character being received) will
 274:..\Common\Minimal/comtest.c **** 				prevent this counter being incremented for the rest of the
 275:..\Common\Minimal/comtest.c **** 				execution.   Don't worry about mutual exclusion on this
 276:..\Common\Minimal/comtest.c **** 				variable - it doesn't really matter as we just want it
 277:..\Common\Minimal/comtest.c **** 				to change. */
 278:..\Common\Minimal/comtest.c **** 				uxRxLoops++;
 315              		.loc 1 278 0
 316 00a4 044B     		ldr	r3, .L23+8
 317 00a6 1B68     		ldr	r3, [r3]
 318 00a8 0133     		adds	r3, r3, #1
 319 00aa 034A     		ldr	r2, .L23+8
 320 00ac 1360     		str	r3, [r2]
 279:..\Common\Minimal/comtest.c **** 			}
 280:..\Common\Minimal/comtest.c **** 		}
 281:..\Common\Minimal/comtest.c **** 	}
 321              		.loc 1 281 0
 322 00ae AFE7     		b	.L22
 323              	.L24:
 324              		.align	2
 325              	.L23:
 326 00b0 00000000 		.word	xPort
 327 00b4 04000000 		.word	uxBaseLED
 328 00b8 08000000 		.word	uxRxLoops
 329              		.cfi_endproc
 330              	.LFE70:
 331              		.size	vComRxTask, .-vComRxTask
 332              		.section	.text.xAreComTestTasksStillRunning,"ax",%progbits
 333              		.align	2
 334              		.global	xAreComTestTasksStillRunning
 335              		.thumb
 336              		.thumb_func
 337              		.type	xAreComTestTasksStillRunning, %function
 338              	xAreComTestTasksStillRunning:
 339              	.LFB71:
ARM GAS  C:\Users\THUNDE~1\AppData\Local\Temp\cc2MFmny.s 			page 12


 282:..\Common\Minimal/comtest.c **** } /*lint !e715 !e818 pvParameters is required for a task function even if it is not referenced. */
 283:..\Common\Minimal/comtest.c **** /*-----------------------------------------------------------*/
 284:..\Common\Minimal/comtest.c **** 
 285:..\Common\Minimal/comtest.c **** BaseType_t xAreComTestTasksStillRunning( void )
 286:..\Common\Minimal/comtest.c **** {
 340              		.loc 1 286 0
 341              		.cfi_startproc
 342              		@ args = 0, pretend = 0, frame = 8
 343              		@ frame_needed = 1, uses_anonymous_args = 0
 344              		@ link register save eliminated.
 345 0000 80B4     		push	{r7}
 346              		.cfi_def_cfa_offset 4
 347              		.cfi_offset 7, -4
 348 0002 83B0     		sub	sp, sp, #12
 349              		.cfi_def_cfa_offset 16
 350 0004 00AF     		add	r7, sp, #0
 351              		.cfi_def_cfa_register 7
 287:..\Common\Minimal/comtest.c **** BaseType_t xReturn;
 288:..\Common\Minimal/comtest.c **** 
 289:..\Common\Minimal/comtest.c **** 	/* If the count of successful reception loops has not changed than at
 290:..\Common\Minimal/comtest.c **** 	some time an error occurred (i.e. a character was received out of sequence)
 291:..\Common\Minimal/comtest.c **** 	and we will return false. */
 292:..\Common\Minimal/comtest.c **** 	if( uxRxLoops == comINITIAL_RX_COUNT_VALUE )
 352              		.loc 1 292 0
 353 0006 094B     		ldr	r3, .L29
 354 0008 1B68     		ldr	r3, [r3]
 355 000a 002B     		cmp	r3, #0
 356 000c 02D1     		bne	.L26
 293:..\Common\Minimal/comtest.c **** 	{
 294:..\Common\Minimal/comtest.c **** 		xReturn = pdFALSE;
 357              		.loc 1 294 0
 358 000e 0023     		movs	r3, #0
 359 0010 7B60     		str	r3, [r7, #4]
 360 0012 01E0     		b	.L27
 361              	.L26:
 295:..\Common\Minimal/comtest.c **** 	}
 296:..\Common\Minimal/comtest.c **** 	else
 297:..\Common\Minimal/comtest.c **** 	{
 298:..\Common\Minimal/comtest.c **** 		xReturn = pdTRUE;
 362              		.loc 1 298 0
 363 0014 0123     		movs	r3, #1
 364 0016 7B60     		str	r3, [r7, #4]
 365              	.L27:
 299:..\Common\Minimal/comtest.c **** 	}
 300:..\Common\Minimal/comtest.c **** 
 301:..\Common\Minimal/comtest.c **** 	/* Reset the count of successful Rx loops.  When this function is called
 302:..\Common\Minimal/comtest.c **** 	again we expect this to have been incremented. */
 303:..\Common\Minimal/comtest.c **** 	uxRxLoops = comINITIAL_RX_COUNT_VALUE;
 366              		.loc 1 303 0
 367 0018 044B     		ldr	r3, .L29
 368 001a 0022     		movs	r2, #0
 369 001c 1A60     		str	r2, [r3]
 304:..\Common\Minimal/comtest.c **** 
 305:..\Common\Minimal/comtest.c **** 	return xReturn;
 370              		.loc 1 305 0
 371 001e 7B68     		ldr	r3, [r7, #4]
 306:..\Common\Minimal/comtest.c **** }
ARM GAS  C:\Users\THUNDE~1\AppData\Local\Temp\cc2MFmny.s 			page 13


 372              		.loc 1 306 0
 373 0020 1846     		mov	r0, r3
 374 0022 0C37     		adds	r7, r7, #12
 375              		.cfi_def_cfa_offset 4
 376 0024 BD46     		mov	sp, r7
 377              		.cfi_def_cfa_register 13
 378              		@ sp needed
 379 0026 80BC     		pop	{r7}
 380              		.cfi_restore 7
 381              		.cfi_def_cfa_offset 0
 382 0028 7047     		bx	lr
 383              	.L30:
 384 002a 00BF     		.align	2
 385              	.L29:
 386 002c 08000000 		.word	uxRxLoops
 387              		.cfi_endproc
 388              	.LFE71:
 389              		.size	xAreComTestTasksStillRunning, .-xAreComTestTasksStillRunning
 390              		.text
 391              	.Letext0:
 392              		.file 2 "c:\\program files (x86)\\cypress\\psoc creator\\4.2\\psoc creator\\import\\gnu\\arm\\5.4.
 393              		.file 3 "c:\\program files (x86)\\cypress\\psoc creator\\4.2\\psoc creator\\import\\gnu\\arm\\5.4.
 394              		.file 4 ".\\Tracer/sniffPayload.h"
 395              		.file 5 ".\\Tracer/selfFIFO.h"
 396              		.file 6 "..\\Source\\portable\\GCC\\ARM_CM3/portmacro.h"
 397              		.file 7 "..\\Source\\include/task.h"
 398              		.file 8 "..\\Common\\include/serial.h"
 399              		.file 9 "Generated_Source\\PSoC5/core_cm3.h"
 400              		.file 10 ".\\Tracer/sniffTask.h"