ARM GAS  C:\Users\THUNDE~1\AppData\Local\Temp\ccIwloQN.s 			page 1


   1              		.syntax unified
   2              		.cpu cortex-m3
   3              		.fpu softvfp
   4              		.eabi_attribute 20, 1
   5              		.eabi_attribute 21, 1
   6              		.eabi_attribute 23, 3
   7              		.eabi_attribute 24, 1
   8              		.eabi_attribute 25, 1
   9              		.eabi_attribute 26, 1
  10              		.eabi_attribute 30, 6
  11              		.eabi_attribute 34, 1
  12              		.eabi_attribute 18, 4
  13              		.thumb
  14              		.syntax unified
  15              		.file	"countsem.c"
  16              		.text
  17              	.Ltext0:
  18              		.cfi_sections	.debug_frame
  19              		.comm	sniffIDFilter,13,4
  20              		.comm	buffer,4098,4
  21              		.comm	objectList,1704,4
  22              		.bss
  23              		.align	2
  24              	xErrorDetected:
  25 0000 00000000 		.space	4
  26              		.align	2
  27              	xParameters:
  28 0004 00000000 		.space	24
  28      00000000 
  28      00000000 
  28      00000000 
  28      00000000 
  29              		.section	.rodata
  30              		.align	2
  31              	.LC0:
  32 0000 436F756E 		.ascii	"Counting_Sem_1\000"
  32      74696E67 
  32      5F53656D 
  32      5F3100
  33 000f 00       		.align	2
  34              	.LC1:
  35 0010 436F756E 		.ascii	"Counting_Sem_2\000"
  35      74696E67 
  35      5F53656D 
  35      5F3200
  36 001f 00       		.align	2
  37              	.LC2:
  38 0020 434E5431 		.ascii	"CNT1\000"
  38      00
  39 0025 000000   		.align	2
  40              	.LC3:
  41 0028 434E5432 		.ascii	"CNT2\000"
  41      00
  42              		.section	.text.vStartCountingSemaphoreTasks,"ax",%progbits
  43              		.align	2
  44              		.global	vStartCountingSemaphoreTasks
  45              		.thumb
ARM GAS  C:\Users\THUNDE~1\AppData\Local\Temp\ccIwloQN.s 			page 2


  46              		.thumb_func
  47              		.type	vStartCountingSemaphoreTasks, %function
  48              	vStartCountingSemaphoreTasks:
  49              	.LFB68:
  50              		.file 1 "..\\Common\\Minimal\\countsem.c"
   1:..\Common\Minimal/countsem.c **** /*
   2:..\Common\Minimal/countsem.c ****     FreeRTOS V9.0.0 - Copyright (C) 2016 Real Time Engineers Ltd.
   3:..\Common\Minimal/countsem.c ****     All rights reserved
   4:..\Common\Minimal/countsem.c **** 
   5:..\Common\Minimal/countsem.c ****     VISIT http://www.FreeRTOS.org TO ENSURE YOU ARE USING THE LATEST VERSION.
   6:..\Common\Minimal/countsem.c **** 
   7:..\Common\Minimal/countsem.c ****     This file is part of the FreeRTOS distribution.
   8:..\Common\Minimal/countsem.c **** 
   9:..\Common\Minimal/countsem.c ****     FreeRTOS is free software; you can redistribute it and/or modify it under
  10:..\Common\Minimal/countsem.c ****     the terms of the GNU General Public License (version 2) as published by the
  11:..\Common\Minimal/countsem.c ****     Free Software Foundation >>>> AND MODIFIED BY <<<< the FreeRTOS exception.
  12:..\Common\Minimal/countsem.c **** 
  13:..\Common\Minimal/countsem.c ****     ***************************************************************************
  14:..\Common\Minimal/countsem.c ****     >>!   NOTE: The modification to the GPL is included to allow you to     !<<
  15:..\Common\Minimal/countsem.c ****     >>!   distribute a combined work that includes FreeRTOS without being   !<<
  16:..\Common\Minimal/countsem.c ****     >>!   obliged to provide the source code for proprietary components     !<<
  17:..\Common\Minimal/countsem.c ****     >>!   outside of the FreeRTOS kernel.                                   !<<
  18:..\Common\Minimal/countsem.c ****     ***************************************************************************
  19:..\Common\Minimal/countsem.c **** 
  20:..\Common\Minimal/countsem.c ****     FreeRTOS is distributed in the hope that it will be useful, but WITHOUT ANY
  21:..\Common\Minimal/countsem.c ****     WARRANTY; without even the implied warranty of MERCHANTABILITY or FITNESS
  22:..\Common\Minimal/countsem.c ****     FOR A PARTICULAR PURPOSE.  Full license text is available on the following
  23:..\Common\Minimal/countsem.c ****     link: http://www.freertos.org/a00114.html
  24:..\Common\Minimal/countsem.c **** 
  25:..\Common\Minimal/countsem.c ****     ***************************************************************************
  26:..\Common\Minimal/countsem.c ****      *                                                                       *
  27:..\Common\Minimal/countsem.c ****      *    FreeRTOS provides completely free yet professionally developed,    *
  28:..\Common\Minimal/countsem.c ****      *    robust, strictly quality controlled, supported, and cross          *
  29:..\Common\Minimal/countsem.c ****      *    platform software that is more than just the market leader, it     *
  30:..\Common\Minimal/countsem.c ****      *    is the industry's de facto standard.                               *
  31:..\Common\Minimal/countsem.c ****      *                                                                       *
  32:..\Common\Minimal/countsem.c ****      *    Help yourself get started quickly while simultaneously helping     *
  33:..\Common\Minimal/countsem.c ****      *    to support the FreeRTOS project by purchasing a FreeRTOS           *
  34:..\Common\Minimal/countsem.c ****      *    tutorial book, reference manual, or both:                          *
  35:..\Common\Minimal/countsem.c ****      *    http://www.FreeRTOS.org/Documentation                              *
  36:..\Common\Minimal/countsem.c ****      *                                                                       *
  37:..\Common\Minimal/countsem.c ****     ***************************************************************************
  38:..\Common\Minimal/countsem.c **** 
  39:..\Common\Minimal/countsem.c ****     http://www.FreeRTOS.org/FAQHelp.html - Having a problem?  Start by reading
  40:..\Common\Minimal/countsem.c ****     the FAQ page "My application does not run, what could be wrong?".  Have you
  41:..\Common\Minimal/countsem.c ****     defined configASSERT()?
  42:..\Common\Minimal/countsem.c **** 
  43:..\Common\Minimal/countsem.c ****     http://www.FreeRTOS.org/support - In return for receiving this top quality
  44:..\Common\Minimal/countsem.c ****     embedded software for free we request you assist our global community by
  45:..\Common\Minimal/countsem.c ****     participating in the support forum.
  46:..\Common\Minimal/countsem.c **** 
  47:..\Common\Minimal/countsem.c ****     http://www.FreeRTOS.org/training - Investing in training allows your team to
  48:..\Common\Minimal/countsem.c ****     be as productive as possible as early as possible.  Now you can receive
  49:..\Common\Minimal/countsem.c ****     FreeRTOS training directly from Richard Barry, CEO of Real Time Engineers
  50:..\Common\Minimal/countsem.c ****     Ltd, and the world's leading authority on the world's leading RTOS.
  51:..\Common\Minimal/countsem.c **** 
  52:..\Common\Minimal/countsem.c ****     http://www.FreeRTOS.org/plus - A selection of FreeRTOS ecosystem products,
ARM GAS  C:\Users\THUNDE~1\AppData\Local\Temp\ccIwloQN.s 			page 3


  53:..\Common\Minimal/countsem.c ****     including FreeRTOS+Trace - an indispensable productivity tool, a DOS
  54:..\Common\Minimal/countsem.c ****     compatible FAT file system, and our tiny thread aware UDP/IP stack.
  55:..\Common\Minimal/countsem.c **** 
  56:..\Common\Minimal/countsem.c ****     http://www.FreeRTOS.org/labs - Where new FreeRTOS products go to incubate.
  57:..\Common\Minimal/countsem.c ****     Come and try FreeRTOS+TCP, our new open source TCP/IP stack for FreeRTOS.
  58:..\Common\Minimal/countsem.c **** 
  59:..\Common\Minimal/countsem.c ****     http://www.OpenRTOS.com - Real Time Engineers ltd. license FreeRTOS to High
  60:..\Common\Minimal/countsem.c ****     Integrity Systems ltd. to sell under the OpenRTOS brand.  Low cost OpenRTOS
  61:..\Common\Minimal/countsem.c ****     licenses offer ticketed support, indemnification and commercial middleware.
  62:..\Common\Minimal/countsem.c **** 
  63:..\Common\Minimal/countsem.c ****     http://www.SafeRTOS.com - High Integrity Systems also provide a safety
  64:..\Common\Minimal/countsem.c ****     engineered and independently SIL3 certified version for use in safety and
  65:..\Common\Minimal/countsem.c ****     mission critical applications that require provable dependability.
  66:..\Common\Minimal/countsem.c **** 
  67:..\Common\Minimal/countsem.c ****     1 tab == 4 spaces!
  68:..\Common\Minimal/countsem.c **** */
  69:..\Common\Minimal/countsem.c **** 
  70:..\Common\Minimal/countsem.c **** 
  71:..\Common\Minimal/countsem.c **** /*
  72:..\Common\Minimal/countsem.c ****  * Simple demonstration of the usage of counting semaphore.
  73:..\Common\Minimal/countsem.c ****  */
  74:..\Common\Minimal/countsem.c **** 
  75:..\Common\Minimal/countsem.c **** /* Scheduler include files. */
  76:..\Common\Minimal/countsem.c **** #include "FreeRTOS.h"
  77:..\Common\Minimal/countsem.c **** #include "task.h"
  78:..\Common\Minimal/countsem.c **** #include "semphr.h"
  79:..\Common\Minimal/countsem.c **** 
  80:..\Common\Minimal/countsem.c **** /* Demo program include files. */
  81:..\Common\Minimal/countsem.c **** #include "countsem.h"
  82:..\Common\Minimal/countsem.c **** 
  83:..\Common\Minimal/countsem.c **** /* The maximum count value that the semaphore used for the demo can hold. */
  84:..\Common\Minimal/countsem.c **** #define countMAX_COUNT_VALUE	( 200 )
  85:..\Common\Minimal/countsem.c **** 
  86:..\Common\Minimal/countsem.c **** /* Constants used to indicate whether or not the semaphore should have been
  87:..\Common\Minimal/countsem.c **** created with its maximum count value, or its minimum count value.  These
  88:..\Common\Minimal/countsem.c **** numbers are used to ensure that the pointers passed in as the task parameters
  89:..\Common\Minimal/countsem.c **** are valid. */
  90:..\Common\Minimal/countsem.c **** #define countSTART_AT_MAX_COUNT	( 0xaa )
  91:..\Common\Minimal/countsem.c **** #define countSTART_AT_ZERO		( 0x55 )
  92:..\Common\Minimal/countsem.c **** 
  93:..\Common\Minimal/countsem.c **** /* Two tasks are created for the test.  One uses a semaphore created with its
  94:..\Common\Minimal/countsem.c **** count value set to the maximum, and one with the count value set to zero. */
  95:..\Common\Minimal/countsem.c **** #define countNUM_TEST_TASKS		( 2 )
  96:..\Common\Minimal/countsem.c **** #define countDONT_BLOCK			( 0 )
  97:..\Common\Minimal/countsem.c **** 
  98:..\Common\Minimal/countsem.c **** /*-----------------------------------------------------------*/
  99:..\Common\Minimal/countsem.c **** 
 100:..\Common\Minimal/countsem.c **** /* Flag that will be latched to pdTRUE should any unexpected behaviour be
 101:..\Common\Minimal/countsem.c **** detected in any of the tasks. */
 102:..\Common\Minimal/countsem.c **** static volatile BaseType_t xErrorDetected = pdFALSE;
 103:..\Common\Minimal/countsem.c **** 
 104:..\Common\Minimal/countsem.c **** /*-----------------------------------------------------------*/
 105:..\Common\Minimal/countsem.c **** 
 106:..\Common\Minimal/countsem.c **** /*
 107:..\Common\Minimal/countsem.c ****  * The demo task.  This simply counts the semaphore up to its maximum value,
 108:..\Common\Minimal/countsem.c ****  * the counts it back down again.  The result of each semaphore 'give' and
 109:..\Common\Minimal/countsem.c ****  * 'take' is inspected, with an error being flagged if it is found not to be
ARM GAS  C:\Users\THUNDE~1\AppData\Local\Temp\ccIwloQN.s 			page 4


 110:..\Common\Minimal/countsem.c ****  * the expected result.
 111:..\Common\Minimal/countsem.c ****  */
 112:..\Common\Minimal/countsem.c **** static void prvCountingSemaphoreTask( void *pvParameters );
 113:..\Common\Minimal/countsem.c **** 
 114:..\Common\Minimal/countsem.c **** /*
 115:..\Common\Minimal/countsem.c ****  * Utility function to increment the semaphore count value up from zero to
 116:..\Common\Minimal/countsem.c ****  * countMAX_COUNT_VALUE.
 117:..\Common\Minimal/countsem.c ****  */
 118:..\Common\Minimal/countsem.c **** static void prvIncrementSemaphoreCount( SemaphoreHandle_t xSemaphore, UBaseType_t *puxLoopCounter )
 119:..\Common\Minimal/countsem.c **** 
 120:..\Common\Minimal/countsem.c **** /*
 121:..\Common\Minimal/countsem.c ****  * Utility function to decrement the semaphore count value up from
 122:..\Common\Minimal/countsem.c ****  * countMAX_COUNT_VALUE to zero.
 123:..\Common\Minimal/countsem.c ****  */
 124:..\Common\Minimal/countsem.c **** static void prvDecrementSemaphoreCount( SemaphoreHandle_t xSemaphore, UBaseType_t *puxLoopCounter )
 125:..\Common\Minimal/countsem.c **** 
 126:..\Common\Minimal/countsem.c **** /*-----------------------------------------------------------*/
 127:..\Common\Minimal/countsem.c **** 
 128:..\Common\Minimal/countsem.c **** /* The structure that is passed into the task as the task parameter. */
 129:..\Common\Minimal/countsem.c **** typedef struct COUNT_SEM_STRUCT
 130:..\Common\Minimal/countsem.c **** {
 131:..\Common\Minimal/countsem.c **** 	/* The semaphore to be used for the demo. */
 132:..\Common\Minimal/countsem.c **** 	SemaphoreHandle_t xSemaphore;
 133:..\Common\Minimal/countsem.c **** 
 134:..\Common\Minimal/countsem.c **** 	/* Set to countSTART_AT_MAX_COUNT if the semaphore should be created with
 135:..\Common\Minimal/countsem.c **** 	its count value set to its max count value, or countSTART_AT_ZERO if it
 136:..\Common\Minimal/countsem.c **** 	should have been created with its count value set to 0. */
 137:..\Common\Minimal/countsem.c **** 	UBaseType_t uxExpectedStartCount;
 138:..\Common\Minimal/countsem.c **** 
 139:..\Common\Minimal/countsem.c **** 	/* Incremented on each cycle of the demo task.  Used to detect a stalled
 140:..\Common\Minimal/countsem.c **** 	task. */
 141:..\Common\Minimal/countsem.c **** 	UBaseType_t uxLoopCounter;
 142:..\Common\Minimal/countsem.c **** } xCountSemStruct;
 143:..\Common\Minimal/countsem.c **** 
 144:..\Common\Minimal/countsem.c **** /* Two structures are defined, one is passed to each test task. */
 145:..\Common\Minimal/countsem.c **** static volatile xCountSemStruct xParameters[ countNUM_TEST_TASKS ];
 146:..\Common\Minimal/countsem.c **** 
 147:..\Common\Minimal/countsem.c **** /*-----------------------------------------------------------*/
 148:..\Common\Minimal/countsem.c **** 
 149:..\Common\Minimal/countsem.c **** void vStartCountingSemaphoreTasks( void )
 150:..\Common\Minimal/countsem.c **** {
  51              		.loc 1 150 0
  52              		.cfi_startproc
  53              		@ args = 0, pretend = 0, frame = 0
  54              		@ frame_needed = 1, uses_anonymous_args = 0
  55 0000 80B5     		push	{r7, lr}
  56              		.cfi_def_cfa_offset 8
  57              		.cfi_offset 7, -8
  58              		.cfi_offset 14, -4
  59 0002 82B0     		sub	sp, sp, #8
  60              		.cfi_def_cfa_offset 16
  61 0004 02AF     		add	r7, sp, #8
  62              		.cfi_def_cfa 7, 8
 151:..\Common\Minimal/countsem.c **** 	/* Create the semaphores that we are going to use for the test/demo.  The
 152:..\Common\Minimal/countsem.c **** 	first should be created such that it starts at its maximum count value,
 153:..\Common\Minimal/countsem.c **** 	the second should be created such that it starts with a count value of zero. */
 154:..\Common\Minimal/countsem.c **** 	xParameters[ 0 ].xSemaphore = xSemaphoreCreateCounting( countMAX_COUNT_VALUE, countMAX_COUNT_VALUE
ARM GAS  C:\Users\THUNDE~1\AppData\Local\Temp\ccIwloQN.s 			page 5


  63              		.loc 1 154 0
  64 0006 C821     		movs	r1, #200
  65 0008 C820     		movs	r0, #200
  66 000a FFF7FEFF 		bl	xQueueCreateCountingSemaphore
  67 000e 0246     		mov	r2, r0
  68 0010 1F4B     		ldr	r3, .L5
  69 0012 1A60     		str	r2, [r3]
 155:..\Common\Minimal/countsem.c **** 	xParameters[ 0 ].uxExpectedStartCount = countSTART_AT_MAX_COUNT;
  70              		.loc 1 155 0
  71 0014 1E4B     		ldr	r3, .L5
  72 0016 AA22     		movs	r2, #170
  73 0018 5A60     		str	r2, [r3, #4]
 156:..\Common\Minimal/countsem.c **** 	xParameters[ 0 ].uxLoopCounter = 0;
  74              		.loc 1 156 0
  75 001a 1D4B     		ldr	r3, .L5
  76 001c 0022     		movs	r2, #0
  77 001e 9A60     		str	r2, [r3, #8]
 157:..\Common\Minimal/countsem.c **** 
 158:..\Common\Minimal/countsem.c **** 	xParameters[ 1 ].xSemaphore = xSemaphoreCreateCounting( countMAX_COUNT_VALUE, 0 );
  78              		.loc 1 158 0
  79 0020 0021     		movs	r1, #0
  80 0022 C820     		movs	r0, #200
  81 0024 FFF7FEFF 		bl	xQueueCreateCountingSemaphore
  82 0028 0246     		mov	r2, r0
  83 002a 194B     		ldr	r3, .L5
  84 002c DA60     		str	r2, [r3, #12]
 159:..\Common\Minimal/countsem.c **** 	xParameters[ 1 ].uxExpectedStartCount = 0;
  85              		.loc 1 159 0
  86 002e 184B     		ldr	r3, .L5
  87 0030 0022     		movs	r2, #0
  88 0032 1A61     		str	r2, [r3, #16]
 160:..\Common\Minimal/countsem.c **** 	xParameters[ 1 ].uxLoopCounter = 0;
  89              		.loc 1 160 0
  90 0034 164B     		ldr	r3, .L5
  91 0036 0022     		movs	r2, #0
  92 0038 5A61     		str	r2, [r3, #20]
 161:..\Common\Minimal/countsem.c **** 
 162:..\Common\Minimal/countsem.c **** 	/* Were the semaphores created? */
 163:..\Common\Minimal/countsem.c **** 	if( ( xParameters[ 0 ].xSemaphore != NULL ) || ( xParameters[ 1 ].xSemaphore != NULL ) )
  93              		.loc 1 163 0
  94 003a 154B     		ldr	r3, .L5
  95 003c 1B68     		ldr	r3, [r3]
  96 003e 002B     		cmp	r3, #0
  97 0040 03D1     		bne	.L2
  98              		.loc 1 163 0 is_stmt 0 discriminator 1
  99 0042 134B     		ldr	r3, .L5
 100 0044 DB68     		ldr	r3, [r3, #12]
 101 0046 002B     		cmp	r3, #0
 102 0048 1FD0     		beq	.L4
 103              	.L2:
 164:..\Common\Minimal/countsem.c **** 	{
 165:..\Common\Minimal/countsem.c **** 		/* vQueueAddToRegistry() adds the semaphore to the registry, if one is
 166:..\Common\Minimal/countsem.c **** 		in use.  The registry is provided as a means for kernel aware
 167:..\Common\Minimal/countsem.c **** 		debuggers to locate semaphores and has no purpose if a kernel aware
 168:..\Common\Minimal/countsem.c **** 		debugger is not being used.  The call to vQueueAddToRegistry() will be
 169:..\Common\Minimal/countsem.c **** 		removed by the pre-processor if configQUEUE_REGISTRY_SIZE is not
 170:..\Common\Minimal/countsem.c **** 		defined or is defined to be less than 1. */
ARM GAS  C:\Users\THUNDE~1\AppData\Local\Temp\ccIwloQN.s 			page 6


 171:..\Common\Minimal/countsem.c **** 		vQueueAddToRegistry( ( QueueHandle_t ) xParameters[ 0 ].xSemaphore, "Counting_Sem_1" );
 104              		.loc 1 171 0 is_stmt 1
 105 004a 114B     		ldr	r3, .L5
 106 004c 1B68     		ldr	r3, [r3]
 107 004e 1149     		ldr	r1, .L5+4
 108 0050 1846     		mov	r0, r3
 109 0052 FFF7FEFF 		bl	vQueueAddToRegistry
 172:..\Common\Minimal/countsem.c **** 		vQueueAddToRegistry( ( QueueHandle_t ) xParameters[ 1 ].xSemaphore, "Counting_Sem_2" );
 110              		.loc 1 172 0
 111 0056 0E4B     		ldr	r3, .L5
 112 0058 DB68     		ldr	r3, [r3, #12]
 113 005a 0F49     		ldr	r1, .L5+8
 114 005c 1846     		mov	r0, r3
 115 005e FFF7FEFF 		bl	vQueueAddToRegistry
 173:..\Common\Minimal/countsem.c **** 
 174:..\Common\Minimal/countsem.c **** 		/* Create the demo tasks, passing in the semaphore to use as the parameter. */
 175:..\Common\Minimal/countsem.c **** 		xTaskCreate( prvCountingSemaphoreTask, "CNT1", configMINIMAL_STACK_SIZE, ( void * ) &( xParameter
 116              		.loc 1 175 0
 117 0062 0023     		movs	r3, #0
 118 0064 0193     		str	r3, [sp, #4]
 119 0066 0023     		movs	r3, #0
 120 0068 0093     		str	r3, [sp]
 121 006a 094B     		ldr	r3, .L5
 122 006c 6422     		movs	r2, #100
 123 006e 0B49     		ldr	r1, .L5+12
 124 0070 0B48     		ldr	r0, .L5+16
 125 0072 FFF7FEFF 		bl	xTaskCreate
 176:..\Common\Minimal/countsem.c **** 		xTaskCreate( prvCountingSemaphoreTask, "CNT2", configMINIMAL_STACK_SIZE, ( void * ) &( xParameter
 126              		.loc 1 176 0
 127 0076 0023     		movs	r3, #0
 128 0078 0193     		str	r3, [sp, #4]
 129 007a 0023     		movs	r3, #0
 130 007c 0093     		str	r3, [sp]
 131 007e 094B     		ldr	r3, .L5+20
 132 0080 6422     		movs	r2, #100
 133 0082 0949     		ldr	r1, .L5+24
 134 0084 0648     		ldr	r0, .L5+16
 135 0086 FFF7FEFF 		bl	xTaskCreate
 136              	.L4:
 177:..\Common\Minimal/countsem.c **** 	}
 178:..\Common\Minimal/countsem.c **** }
 137              		.loc 1 178 0
 138 008a 00BF     		nop
 139 008c BD46     		mov	sp, r7
 140              		.cfi_def_cfa_register 13
 141              		@ sp needed
 142 008e 80BD     		pop	{r7, pc}
 143              	.L6:
 144              		.align	2
 145              	.L5:
 146 0090 04000000 		.word	xParameters
 147 0094 00000000 		.word	.LC0
 148 0098 10000000 		.word	.LC1
 149 009c 20000000 		.word	.LC2
 150 00a0 00000000 		.word	prvCountingSemaphoreTask
 151 00a4 10000000 		.word	xParameters+12
 152 00a8 28000000 		.word	.LC3
ARM GAS  C:\Users\THUNDE~1\AppData\Local\Temp\ccIwloQN.s 			page 7


 153              		.cfi_endproc
 154              	.LFE68:
 155              		.size	vStartCountingSemaphoreTasks, .-vStartCountingSemaphoreTasks
 156              		.section	.text.prvDecrementSemaphoreCount,"ax",%progbits
 157              		.align	2
 158              		.thumb
 159              		.thumb_func
 160              		.type	prvDecrementSemaphoreCount, %function
 161              	prvDecrementSemaphoreCount:
 162              	.LFB69:
 179:..\Common\Minimal/countsem.c **** /*-----------------------------------------------------------*/
 180:..\Common\Minimal/countsem.c **** 
 181:..\Common\Minimal/countsem.c **** static void prvDecrementSemaphoreCount( SemaphoreHandle_t xSemaphore, UBaseType_t *puxLoopCounter )
 182:..\Common\Minimal/countsem.c **** {
 163              		.loc 1 182 0
 164              		.cfi_startproc
 165              		@ args = 0, pretend = 0, frame = 16
 166              		@ frame_needed = 1, uses_anonymous_args = 0
 167 0000 80B5     		push	{r7, lr}
 168              		.cfi_def_cfa_offset 8
 169              		.cfi_offset 7, -8
 170              		.cfi_offset 14, -4
 171 0002 84B0     		sub	sp, sp, #16
 172              		.cfi_def_cfa_offset 24
 173 0004 00AF     		add	r7, sp, #0
 174              		.cfi_def_cfa_register 7
 175 0006 7860     		str	r0, [r7, #4]
 176 0008 3960     		str	r1, [r7]
 183:..\Common\Minimal/countsem.c **** UBaseType_t ux;
 184:..\Common\Minimal/countsem.c **** 
 185:..\Common\Minimal/countsem.c **** 	/* If the semaphore count is at its maximum then we should not be able to
 186:..\Common\Minimal/countsem.c **** 	'give' the semaphore. */
 187:..\Common\Minimal/countsem.c **** 	if( xSemaphoreGive( xSemaphore ) == pdPASS )
 177              		.loc 1 187 0
 178 000a 0023     		movs	r3, #0
 179 000c 0022     		movs	r2, #0
 180 000e 0021     		movs	r1, #0
 181 0010 7868     		ldr	r0, [r7, #4]
 182 0012 FFF7FEFF 		bl	xQueueGenericSend
 183 0016 0346     		mov	r3, r0
 184 0018 012B     		cmp	r3, #1
 185 001a 02D1     		bne	.L8
 188:..\Common\Minimal/countsem.c **** 	{
 189:..\Common\Minimal/countsem.c **** 		xErrorDetected = pdTRUE;
 186              		.loc 1 189 0
 187 001c 164B     		ldr	r3, .L14
 188 001e 0122     		movs	r2, #1
 189 0020 1A60     		str	r2, [r3]
 190              	.L8:
 190:..\Common\Minimal/countsem.c **** 	}
 191:..\Common\Minimal/countsem.c **** 
 192:..\Common\Minimal/countsem.c **** 	/* We should be able to 'take' the semaphore countMAX_COUNT_VALUE times. */
 193:..\Common\Minimal/countsem.c **** 	for( ux = 0; ux < countMAX_COUNT_VALUE; ux++ )
 191              		.loc 1 193 0
 192 0022 0023     		movs	r3, #0
 193 0024 FB60     		str	r3, [r7, #12]
 194 0026 13E0     		b	.L9
ARM GAS  C:\Users\THUNDE~1\AppData\Local\Temp\ccIwloQN.s 			page 8


 195              	.L11:
 194:..\Common\Minimal/countsem.c **** 	{
 195:..\Common\Minimal/countsem.c **** 		configASSERT( uxSemaphoreGetCount( xSemaphore ) == ( countMAX_COUNT_VALUE - ux ) );
 196:..\Common\Minimal/countsem.c **** 
 197:..\Common\Minimal/countsem.c **** 		if( xSemaphoreTake( xSemaphore, countDONT_BLOCK ) != pdPASS )
 196              		.loc 1 197 0
 197 0028 0023     		movs	r3, #0
 198 002a 0022     		movs	r2, #0
 199 002c 0021     		movs	r1, #0
 200 002e 7868     		ldr	r0, [r7, #4]
 201 0030 FFF7FEFF 		bl	xQueueGenericReceive
 202 0034 0346     		mov	r3, r0
 203 0036 012B     		cmp	r3, #1
 204 0038 02D0     		beq	.L10
 198:..\Common\Minimal/countsem.c **** 		{
 199:..\Common\Minimal/countsem.c **** 			/* We expected to be able to take the semaphore. */
 200:..\Common\Minimal/countsem.c **** 			xErrorDetected = pdTRUE;
 205              		.loc 1 200 0
 206 003a 0F4B     		ldr	r3, .L14
 207 003c 0122     		movs	r2, #1
 208 003e 1A60     		str	r2, [r3]
 209              	.L10:
 201:..\Common\Minimal/countsem.c **** 		}
 202:..\Common\Minimal/countsem.c **** 
 203:..\Common\Minimal/countsem.c **** 		( *puxLoopCounter )++;
 210              		.loc 1 203 0 discriminator 2
 211 0040 3B68     		ldr	r3, [r7]
 212 0042 1B68     		ldr	r3, [r3]
 213 0044 5A1C     		adds	r2, r3, #1
 214 0046 3B68     		ldr	r3, [r7]
 215 0048 1A60     		str	r2, [r3]
 193:..\Common\Minimal/countsem.c **** 	{
 216              		.loc 1 193 0 discriminator 2
 217 004a FB68     		ldr	r3, [r7, #12]
 218 004c 0133     		adds	r3, r3, #1
 219 004e FB60     		str	r3, [r7, #12]
 220              	.L9:
 193:..\Common\Minimal/countsem.c **** 	{
 221              		.loc 1 193 0 is_stmt 0 discriminator 1
 222 0050 FB68     		ldr	r3, [r7, #12]
 223 0052 C72B     		cmp	r3, #199
 224 0054 E8D9     		bls	.L11
 204:..\Common\Minimal/countsem.c **** 	}
 205:..\Common\Minimal/countsem.c **** 
 206:..\Common\Minimal/countsem.c **** 	#if configUSE_PREEMPTION == 0
 207:..\Common\Minimal/countsem.c **** 		taskYIELD();
 208:..\Common\Minimal/countsem.c **** 	#endif
 209:..\Common\Minimal/countsem.c **** 
 210:..\Common\Minimal/countsem.c **** 	/* If the semaphore count is zero then we should not be able to	'take'
 211:..\Common\Minimal/countsem.c **** 	the semaphore. */
 212:..\Common\Minimal/countsem.c **** 	configASSERT( uxSemaphoreGetCount( xSemaphore ) == 0 );
 213:..\Common\Minimal/countsem.c **** 	if( xSemaphoreTake( xSemaphore, countDONT_BLOCK ) == pdPASS )
 225              		.loc 1 213 0 is_stmt 1
 226 0056 0023     		movs	r3, #0
 227 0058 0022     		movs	r2, #0
 228 005a 0021     		movs	r1, #0
 229 005c 7868     		ldr	r0, [r7, #4]
ARM GAS  C:\Users\THUNDE~1\AppData\Local\Temp\ccIwloQN.s 			page 9


 230 005e FFF7FEFF 		bl	xQueueGenericReceive
 231 0062 0346     		mov	r3, r0
 232 0064 012B     		cmp	r3, #1
 233 0066 02D1     		bne	.L13
 214:..\Common\Minimal/countsem.c **** 	{
 215:..\Common\Minimal/countsem.c **** 		xErrorDetected = pdTRUE;
 234              		.loc 1 215 0
 235 0068 034B     		ldr	r3, .L14
 236 006a 0122     		movs	r2, #1
 237 006c 1A60     		str	r2, [r3]
 238              	.L13:
 216:..\Common\Minimal/countsem.c **** 	}
 217:..\Common\Minimal/countsem.c **** }
 239              		.loc 1 217 0
 240 006e 00BF     		nop
 241 0070 1037     		adds	r7, r7, #16
 242              		.cfi_def_cfa_offset 8
 243 0072 BD46     		mov	sp, r7
 244              		.cfi_def_cfa_register 13
 245              		@ sp needed
 246 0074 80BD     		pop	{r7, pc}
 247              	.L15:
 248 0076 00BF     		.align	2
 249              	.L14:
 250 0078 00000000 		.word	xErrorDetected
 251              		.cfi_endproc
 252              	.LFE69:
 253              		.size	prvDecrementSemaphoreCount, .-prvDecrementSemaphoreCount
 254              		.section	.text.prvIncrementSemaphoreCount,"ax",%progbits
 255              		.align	2
 256              		.thumb
 257              		.thumb_func
 258              		.type	prvIncrementSemaphoreCount, %function
 259              	prvIncrementSemaphoreCount:
 260              	.LFB70:
 218:..\Common\Minimal/countsem.c **** /*-----------------------------------------------------------*/
 219:..\Common\Minimal/countsem.c **** 
 220:..\Common\Minimal/countsem.c **** static void prvIncrementSemaphoreCount( SemaphoreHandle_t xSemaphore, UBaseType_t *puxLoopCounter )
 221:..\Common\Minimal/countsem.c **** {
 261              		.loc 1 221 0
 262              		.cfi_startproc
 263              		@ args = 0, pretend = 0, frame = 16
 264              		@ frame_needed = 1, uses_anonymous_args = 0
 265 0000 80B5     		push	{r7, lr}
 266              		.cfi_def_cfa_offset 8
 267              		.cfi_offset 7, -8
 268              		.cfi_offset 14, -4
 269 0002 84B0     		sub	sp, sp, #16
 270              		.cfi_def_cfa_offset 24
 271 0004 00AF     		add	r7, sp, #0
 272              		.cfi_def_cfa_register 7
 273 0006 7860     		str	r0, [r7, #4]
 274 0008 3960     		str	r1, [r7]
 222:..\Common\Minimal/countsem.c **** UBaseType_t ux;
 223:..\Common\Minimal/countsem.c **** 
 224:..\Common\Minimal/countsem.c **** 	/* If the semaphore count is zero then we should not be able to	'take'
 225:..\Common\Minimal/countsem.c **** 	the semaphore. */
ARM GAS  C:\Users\THUNDE~1\AppData\Local\Temp\ccIwloQN.s 			page 10


 226:..\Common\Minimal/countsem.c **** 	if( xSemaphoreTake( xSemaphore, countDONT_BLOCK ) == pdPASS )
 275              		.loc 1 226 0
 276 000a 0023     		movs	r3, #0
 277 000c 0022     		movs	r2, #0
 278 000e 0021     		movs	r1, #0
 279 0010 7868     		ldr	r0, [r7, #4]
 280 0012 FFF7FEFF 		bl	xQueueGenericReceive
 281 0016 0346     		mov	r3, r0
 282 0018 012B     		cmp	r3, #1
 283 001a 02D1     		bne	.L17
 227:..\Common\Minimal/countsem.c **** 	{
 228:..\Common\Minimal/countsem.c **** 		xErrorDetected = pdTRUE;
 284              		.loc 1 228 0
 285 001c 164B     		ldr	r3, .L23
 286 001e 0122     		movs	r2, #1
 287 0020 1A60     		str	r2, [r3]
 288              	.L17:
 229:..\Common\Minimal/countsem.c **** 	}
 230:..\Common\Minimal/countsem.c **** 
 231:..\Common\Minimal/countsem.c **** 	/* We should be able to 'give' the semaphore countMAX_COUNT_VALUE times. */
 232:..\Common\Minimal/countsem.c **** 	for( ux = 0; ux < countMAX_COUNT_VALUE; ux++ )
 289              		.loc 1 232 0
 290 0022 0023     		movs	r3, #0
 291 0024 FB60     		str	r3, [r7, #12]
 292 0026 13E0     		b	.L18
 293              	.L20:
 233:..\Common\Minimal/countsem.c **** 	{
 234:..\Common\Minimal/countsem.c **** 		configASSERT( uxSemaphoreGetCount( xSemaphore ) == ux );
 235:..\Common\Minimal/countsem.c **** 
 236:..\Common\Minimal/countsem.c **** 		if( xSemaphoreGive( xSemaphore ) != pdPASS )
 294              		.loc 1 236 0
 295 0028 0023     		movs	r3, #0
 296 002a 0022     		movs	r2, #0
 297 002c 0021     		movs	r1, #0
 298 002e 7868     		ldr	r0, [r7, #4]
 299 0030 FFF7FEFF 		bl	xQueueGenericSend
 300 0034 0346     		mov	r3, r0
 301 0036 012B     		cmp	r3, #1
 302 0038 02D0     		beq	.L19
 237:..\Common\Minimal/countsem.c **** 		{
 238:..\Common\Minimal/countsem.c **** 			/* We expected to be able to take the semaphore. */
 239:..\Common\Minimal/countsem.c **** 			xErrorDetected = pdTRUE;
 303              		.loc 1 239 0
 304 003a 0F4B     		ldr	r3, .L23
 305 003c 0122     		movs	r2, #1
 306 003e 1A60     		str	r2, [r3]
 307              	.L19:
 240:..\Common\Minimal/countsem.c **** 		}
 241:..\Common\Minimal/countsem.c **** 
 242:..\Common\Minimal/countsem.c **** 		( *puxLoopCounter )++;
 308              		.loc 1 242 0 discriminator 2
 309 0040 3B68     		ldr	r3, [r7]
 310 0042 1B68     		ldr	r3, [r3]
 311 0044 5A1C     		adds	r2, r3, #1
 312 0046 3B68     		ldr	r3, [r7]
 313 0048 1A60     		str	r2, [r3]
 232:..\Common\Minimal/countsem.c **** 	{
ARM GAS  C:\Users\THUNDE~1\AppData\Local\Temp\ccIwloQN.s 			page 11


 314              		.loc 1 232 0 discriminator 2
 315 004a FB68     		ldr	r3, [r7, #12]
 316 004c 0133     		adds	r3, r3, #1
 317 004e FB60     		str	r3, [r7, #12]
 318              	.L18:
 232:..\Common\Minimal/countsem.c **** 	{
 319              		.loc 1 232 0 is_stmt 0 discriminator 1
 320 0050 FB68     		ldr	r3, [r7, #12]
 321 0052 C72B     		cmp	r3, #199
 322 0054 E8D9     		bls	.L20
 243:..\Common\Minimal/countsem.c **** 	}
 244:..\Common\Minimal/countsem.c **** 
 245:..\Common\Minimal/countsem.c **** 	#if configUSE_PREEMPTION == 0
 246:..\Common\Minimal/countsem.c **** 		taskYIELD();
 247:..\Common\Minimal/countsem.c **** 	#endif
 248:..\Common\Minimal/countsem.c **** 
 249:..\Common\Minimal/countsem.c **** 	/* If the semaphore count is at its maximum then we should not be able to
 250:..\Common\Minimal/countsem.c **** 	'give' the semaphore. */
 251:..\Common\Minimal/countsem.c **** 	if( xSemaphoreGive( xSemaphore ) == pdPASS )
 323              		.loc 1 251 0 is_stmt 1
 324 0056 0023     		movs	r3, #0
 325 0058 0022     		movs	r2, #0
 326 005a 0021     		movs	r1, #0
 327 005c 7868     		ldr	r0, [r7, #4]
 328 005e FFF7FEFF 		bl	xQueueGenericSend
 329 0062 0346     		mov	r3, r0
 330 0064 012B     		cmp	r3, #1
 331 0066 02D1     		bne	.L22
 252:..\Common\Minimal/countsem.c **** 	{
 253:..\Common\Minimal/countsem.c **** 		xErrorDetected = pdTRUE;
 332              		.loc 1 253 0
 333 0068 034B     		ldr	r3, .L23
 334 006a 0122     		movs	r2, #1
 335 006c 1A60     		str	r2, [r3]
 336              	.L22:
 254:..\Common\Minimal/countsem.c **** 	}
 255:..\Common\Minimal/countsem.c **** }
 337              		.loc 1 255 0
 338 006e 00BF     		nop
 339 0070 1037     		adds	r7, r7, #16
 340              		.cfi_def_cfa_offset 8
 341 0072 BD46     		mov	sp, r7
 342              		.cfi_def_cfa_register 13
 343              		@ sp needed
 344 0074 80BD     		pop	{r7, pc}
 345              	.L24:
 346 0076 00BF     		.align	2
 347              	.L23:
 348 0078 00000000 		.word	xErrorDetected
 349              		.cfi_endproc
 350              	.LFE70:
 351              		.size	prvIncrementSemaphoreCount, .-prvIncrementSemaphoreCount
 352              		.section	.text.prvCountingSemaphoreTask,"ax",%progbits
 353              		.align	2
 354              		.thumb
 355              		.thumb_func
 356              		.type	prvCountingSemaphoreTask, %function
ARM GAS  C:\Users\THUNDE~1\AppData\Local\Temp\ccIwloQN.s 			page 12


 357              	prvCountingSemaphoreTask:
 358              	.LFB71:
 256:..\Common\Minimal/countsem.c **** /*-----------------------------------------------------------*/
 257:..\Common\Minimal/countsem.c **** 
 258:..\Common\Minimal/countsem.c **** static void prvCountingSemaphoreTask( void *pvParameters )
 259:..\Common\Minimal/countsem.c **** {
 359              		.loc 1 259 0
 360              		.cfi_startproc
 361              		@ args = 0, pretend = 0, frame = 16
 362              		@ frame_needed = 1, uses_anonymous_args = 0
 363 0000 80B5     		push	{r7, lr}
 364              		.cfi_def_cfa_offset 8
 365              		.cfi_offset 7, -8
 366              		.cfi_offset 14, -4
 367 0002 84B0     		sub	sp, sp, #16
 368              		.cfi_def_cfa_offset 24
 369 0004 00AF     		add	r7, sp, #0
 370              		.cfi_def_cfa_register 7
 371 0006 7860     		str	r0, [r7, #4]
 260:..\Common\Minimal/countsem.c **** xCountSemStruct *pxParameter;
 261:..\Common\Minimal/countsem.c **** 
 262:..\Common\Minimal/countsem.c **** 	#ifdef USE_STDIO
 263:..\Common\Minimal/countsem.c **** 	void vPrintDisplayMessage( const char * const * ppcMessageToSend );
 264:..\Common\Minimal/countsem.c **** 
 265:..\Common\Minimal/countsem.c **** 		const char * const pcTaskStartMsg = "Counting semaphore demo started.\r\n";
 266:..\Common\Minimal/countsem.c **** 
 267:..\Common\Minimal/countsem.c **** 		/* Queue a message for printing to say the task has started. */
 268:..\Common\Minimal/countsem.c **** 		vPrintDisplayMessage( &pcTaskStartMsg );
 269:..\Common\Minimal/countsem.c **** 	#endif
 270:..\Common\Minimal/countsem.c **** 
 271:..\Common\Minimal/countsem.c **** 	/* The semaphore to be used was passed as the parameter. */
 272:..\Common\Minimal/countsem.c **** 	pxParameter = ( xCountSemStruct * ) pvParameters;
 372              		.loc 1 272 0
 373 0008 7B68     		ldr	r3, [r7, #4]
 374 000a FB60     		str	r3, [r7, #12]
 273:..\Common\Minimal/countsem.c **** 
 274:..\Common\Minimal/countsem.c **** 	/* Did we expect to find the semaphore already at its max count value, or
 275:..\Common\Minimal/countsem.c **** 	at zero? */
 276:..\Common\Minimal/countsem.c **** 	if( pxParameter->uxExpectedStartCount == countSTART_AT_MAX_COUNT )
 375              		.loc 1 276 0
 376 000c FB68     		ldr	r3, [r7, #12]
 377 000e 5B68     		ldr	r3, [r3, #4]
 378 0010 AA2B     		cmp	r3, #170
 379 0012 07D1     		bne	.L26
 277:..\Common\Minimal/countsem.c **** 	{
 278:..\Common\Minimal/countsem.c **** 		prvDecrementSemaphoreCount( pxParameter->xSemaphore, &( pxParameter->uxLoopCounter ) );
 380              		.loc 1 278 0
 381 0014 FB68     		ldr	r3, [r7, #12]
 382 0016 1A68     		ldr	r2, [r3]
 383 0018 FB68     		ldr	r3, [r7, #12]
 384 001a 0833     		adds	r3, r3, #8
 385 001c 1946     		mov	r1, r3
 386 001e 1046     		mov	r0, r2
 387 0020 FFF7FEFF 		bl	prvDecrementSemaphoreCount
 388              	.L26:
 279:..\Common\Minimal/countsem.c **** 	}
 280:..\Common\Minimal/countsem.c **** 
ARM GAS  C:\Users\THUNDE~1\AppData\Local\Temp\ccIwloQN.s 			page 13


 281:..\Common\Minimal/countsem.c **** 	/* Now we expect the semaphore count to be 0, so this time there is an
 282:..\Common\Minimal/countsem.c **** 	error if we can take the semaphore. */
 283:..\Common\Minimal/countsem.c **** 	if( xSemaphoreTake( pxParameter->xSemaphore, 0 ) == pdPASS )
 389              		.loc 1 283 0
 390 0024 FB68     		ldr	r3, [r7, #12]
 391 0026 1868     		ldr	r0, [r3]
 392 0028 0023     		movs	r3, #0
 393 002a 0022     		movs	r2, #0
 394 002c 0021     		movs	r1, #0
 395 002e FFF7FEFF 		bl	xQueueGenericReceive
 396 0032 0346     		mov	r3, r0
 397 0034 012B     		cmp	r3, #1
 398 0036 02D1     		bne	.L27
 284:..\Common\Minimal/countsem.c **** 	{
 285:..\Common\Minimal/countsem.c **** 		xErrorDetected = pdTRUE;
 399              		.loc 1 285 0
 400 0038 094B     		ldr	r3, .L28
 401 003a 0122     		movs	r2, #1
 402 003c 1A60     		str	r2, [r3]
 403              	.L27:
 286:..\Common\Minimal/countsem.c **** 	}
 287:..\Common\Minimal/countsem.c **** 
 288:..\Common\Minimal/countsem.c **** 	for( ;; )
 289:..\Common\Minimal/countsem.c **** 	{
 290:..\Common\Minimal/countsem.c **** 		prvIncrementSemaphoreCount( pxParameter->xSemaphore, &( pxParameter->uxLoopCounter ) );
 404              		.loc 1 290 0 discriminator 1
 405 003e FB68     		ldr	r3, [r7, #12]
 406 0040 1A68     		ldr	r2, [r3]
 407 0042 FB68     		ldr	r3, [r7, #12]
 408 0044 0833     		adds	r3, r3, #8
 409 0046 1946     		mov	r1, r3
 410 0048 1046     		mov	r0, r2
 411 004a FFF7FEFF 		bl	prvIncrementSemaphoreCount
 291:..\Common\Minimal/countsem.c **** 		prvDecrementSemaphoreCount( pxParameter->xSemaphore, &( pxParameter->uxLoopCounter ) );
 412              		.loc 1 291 0 discriminator 1
 413 004e FB68     		ldr	r3, [r7, #12]
 414 0050 1A68     		ldr	r2, [r3]
 415 0052 FB68     		ldr	r3, [r7, #12]
 416 0054 0833     		adds	r3, r3, #8
 417 0056 1946     		mov	r1, r3
 418 0058 1046     		mov	r0, r2
 419 005a FFF7FEFF 		bl	prvDecrementSemaphoreCount
 292:..\Common\Minimal/countsem.c **** 	}
 420              		.loc 1 292 0 discriminator 1
 421 005e EEE7     		b	.L27
 422              	.L29:
 423              		.align	2
 424              	.L28:
 425 0060 00000000 		.word	xErrorDetected
 426              		.cfi_endproc
 427              	.LFE71:
 428              		.size	prvCountingSemaphoreTask, .-prvCountingSemaphoreTask
 429              		.section	.text.xAreCountingSemaphoreTasksStillRunning,"ax",%progbits
 430              		.align	2
 431              		.global	xAreCountingSemaphoreTasksStillRunning
 432              		.thumb
 433              		.thumb_func
ARM GAS  C:\Users\THUNDE~1\AppData\Local\Temp\ccIwloQN.s 			page 14


 434              		.type	xAreCountingSemaphoreTasksStillRunning, %function
 435              	xAreCountingSemaphoreTasksStillRunning:
 436              	.LFB72:
 293:..\Common\Minimal/countsem.c **** }
 294:..\Common\Minimal/countsem.c **** /*-----------------------------------------------------------*/
 295:..\Common\Minimal/countsem.c **** 
 296:..\Common\Minimal/countsem.c **** BaseType_t xAreCountingSemaphoreTasksStillRunning( void )
 297:..\Common\Minimal/countsem.c **** {
 437              		.loc 1 297 0
 438              		.cfi_startproc
 439              		@ args = 0, pretend = 0, frame = 8
 440              		@ frame_needed = 1, uses_anonymous_args = 0
 441              		@ link register save eliminated.
 442 0000 80B4     		push	{r7}
 443              		.cfi_def_cfa_offset 4
 444              		.cfi_offset 7, -4
 445 0002 83B0     		sub	sp, sp, #12
 446              		.cfi_def_cfa_offset 16
 447 0004 00AF     		add	r7, sp, #0
 448              		.cfi_def_cfa_register 7
 298:..\Common\Minimal/countsem.c **** static UBaseType_t uxLastCount0 = 0, uxLastCount1 = 0;
 299:..\Common\Minimal/countsem.c **** BaseType_t xReturn = pdPASS;
 449              		.loc 1 299 0
 450 0006 0123     		movs	r3, #1
 451 0008 7B60     		str	r3, [r7, #4]
 300:..\Common\Minimal/countsem.c **** 
 301:..\Common\Minimal/countsem.c **** 	/* Return fail if any 'give' or 'take' did not result in the expected
 302:..\Common\Minimal/countsem.c **** 	behaviour. */
 303:..\Common\Minimal/countsem.c **** 	if( xErrorDetected != pdFALSE )
 452              		.loc 1 303 0
 453 000a 134B     		ldr	r3, .L37
 454 000c 1B68     		ldr	r3, [r3]
 455 000e 002B     		cmp	r3, #0
 456 0010 01D0     		beq	.L31
 304:..\Common\Minimal/countsem.c **** 	{
 305:..\Common\Minimal/countsem.c **** 		xReturn = pdFAIL;
 457              		.loc 1 305 0
 458 0012 0023     		movs	r3, #0
 459 0014 7B60     		str	r3, [r7, #4]
 460              	.L31:
 306:..\Common\Minimal/countsem.c **** 	}
 307:..\Common\Minimal/countsem.c **** 
 308:..\Common\Minimal/countsem.c **** 	/* Return fail if either task is not still incrementing its loop counter. */
 309:..\Common\Minimal/countsem.c **** 	if( uxLastCount0 == xParameters[ 0 ].uxLoopCounter )
 461              		.loc 1 309 0
 462 0016 114B     		ldr	r3, .L37+4
 463 0018 9A68     		ldr	r2, [r3, #8]
 464 001a 114B     		ldr	r3, .L37+8
 465 001c 1B68     		ldr	r3, [r3]
 466 001e 9A42     		cmp	r2, r3
 467 0020 02D1     		bne	.L32
 310:..\Common\Minimal/countsem.c **** 	{
 311:..\Common\Minimal/countsem.c **** 		xReturn = pdFAIL;
 468              		.loc 1 311 0
 469 0022 0023     		movs	r3, #0
 470 0024 7B60     		str	r3, [r7, #4]
 471 0026 03E0     		b	.L33
ARM GAS  C:\Users\THUNDE~1\AppData\Local\Temp\ccIwloQN.s 			page 15


 472              	.L32:
 312:..\Common\Minimal/countsem.c **** 	}
 313:..\Common\Minimal/countsem.c **** 	else
 314:..\Common\Minimal/countsem.c **** 	{
 315:..\Common\Minimal/countsem.c **** 		uxLastCount0 = xParameters[ 0 ].uxLoopCounter;
 473              		.loc 1 315 0
 474 0028 0C4B     		ldr	r3, .L37+4
 475 002a 9B68     		ldr	r3, [r3, #8]
 476 002c 0C4A     		ldr	r2, .L37+8
 477 002e 1360     		str	r3, [r2]
 478              	.L33:
 316:..\Common\Minimal/countsem.c **** 	}
 317:..\Common\Minimal/countsem.c **** 
 318:..\Common\Minimal/countsem.c **** 	if( uxLastCount1 == xParameters[ 1 ].uxLoopCounter )
 479              		.loc 1 318 0
 480 0030 0A4B     		ldr	r3, .L37+4
 481 0032 5A69     		ldr	r2, [r3, #20]
 482 0034 0B4B     		ldr	r3, .L37+12
 483 0036 1B68     		ldr	r3, [r3]
 484 0038 9A42     		cmp	r2, r3
 485 003a 02D1     		bne	.L34
 319:..\Common\Minimal/countsem.c **** 	{
 320:..\Common\Minimal/countsem.c **** 		xReturn = pdFAIL;
 486              		.loc 1 320 0
 487 003c 0023     		movs	r3, #0
 488 003e 7B60     		str	r3, [r7, #4]
 489 0040 03E0     		b	.L35
 490              	.L34:
 321:..\Common\Minimal/countsem.c **** 	}
 322:..\Common\Minimal/countsem.c **** 	else
 323:..\Common\Minimal/countsem.c **** 	{
 324:..\Common\Minimal/countsem.c **** 		uxLastCount1 = xParameters[ 1 ].uxLoopCounter;
 491              		.loc 1 324 0
 492 0042 064B     		ldr	r3, .L37+4
 493 0044 5B69     		ldr	r3, [r3, #20]
 494 0046 074A     		ldr	r2, .L37+12
 495 0048 1360     		str	r3, [r2]
 496              	.L35:
 325:..\Common\Minimal/countsem.c **** 	}
 326:..\Common\Minimal/countsem.c **** 
 327:..\Common\Minimal/countsem.c **** 	return xReturn;
 497              		.loc 1 327 0
 498 004a 7B68     		ldr	r3, [r7, #4]
 328:..\Common\Minimal/countsem.c **** }
 499              		.loc 1 328 0
 500 004c 1846     		mov	r0, r3
 501 004e 0C37     		adds	r7, r7, #12
 502              		.cfi_def_cfa_offset 4
 503 0050 BD46     		mov	sp, r7
 504              		.cfi_def_cfa_register 13
 505              		@ sp needed
 506 0052 80BC     		pop	{r7}
 507              		.cfi_restore 7
 508              		.cfi_def_cfa_offset 0
 509 0054 7047     		bx	lr
 510              	.L38:
 511 0056 00BF     		.align	2
ARM GAS  C:\Users\THUNDE~1\AppData\Local\Temp\ccIwloQN.s 			page 16


 512              	.L37:
 513 0058 00000000 		.word	xErrorDetected
 514 005c 04000000 		.word	xParameters
 515 0060 1C000000 		.word	uxLastCount0.7164
 516 0064 20000000 		.word	uxLastCount1.7165
 517              		.cfi_endproc
 518              	.LFE72:
 519              		.size	xAreCountingSemaphoreTasksStillRunning, .-xAreCountingSemaphoreTasksStillRunning
 520              		.bss
 521              		.align	2
 522              	uxLastCount0.7164:
 523 001c 00000000 		.space	4
 524              		.align	2
 525              	uxLastCount1.7165:
 526 0020 00000000 		.space	4
 527              		.text
 528              	.Letext0:
 529              		.file 2 "c:\\program files (x86)\\cypress\\psoc creator\\4.2\\psoc creator\\import\\gnu\\arm\\5.4.
 530              		.file 3 "c:\\program files (x86)\\cypress\\psoc creator\\4.2\\psoc creator\\import\\gnu\\arm\\5.4.
 531              		.file 4 ".\\Tracer/sniffPayload.h"
 532              		.file 5 ".\\Tracer/selfFIFO.h"
 533              		.file 6 "..\\Source\\portable\\GCC\\ARM_CM3/portmacro.h"
 534              		.file 7 "..\\Source\\include/queue.h"
 535              		.file 8 "..\\Source\\include/semphr.h"
 536              		.file 9 "Generated_Source\\PSoC5/core_cm3.h"
 537              		.file 10 ".\\Tracer/sniffTask.h"