ARM GAS  C:\Users\THUNDE~1\AppData\Local\Temp\ccFIS02E.s 			page 1


   1              		.syntax unified
   2              		.cpu cortex-m3
   3              		.fpu softvfp
   4              		.eabi_attribute 20, 1
   5              		.eabi_attribute 21, 1
   6              		.eabi_attribute 23, 3
   7              		.eabi_attribute 24, 1
   8              		.eabi_attribute 25, 1
   9              		.eabi_attribute 26, 1
  10              		.eabi_attribute 30, 6
  11              		.eabi_attribute 34, 1
  12              		.eabi_attribute 18, 4
  13              		.thumb
  14              		.syntax unified
  15              		.file	"GenQTest.c"
  16              		.text
  17              	.Ltext0:
  18              		.cfi_sections	.debug_frame
  19              		.comm	sniffIDFilter,13,4
  20              		.comm	buffer,4098,4
  21              		.comm	objectList,1704,4
  22              		.bss
  23              		.align	2
  24              	xErrorDetected:
  25 0000 00000000 		.space	4
  26              		.align	2
  27              	ulLoopCounter:
  28 0004 00000000 		.space	4
  29              		.align	2
  30              	ulLoopCounter2:
  31 0008 00000000 		.space	4
  32              		.align	2
  33              	ulGuardedVariable:
  34 000c 00000000 		.space	4
  35              		.align	2
  36              	xHighPriorityMutexTask:
  37 0010 00000000 		.space	4
  38              		.align	2
  39              	xMediumPriorityMutexTask:
  40 0014 00000000 		.space	4
  41              		.section	.rodata
  42              		.align	2
  43              	.LC0:
  44 0000 47656E5F 		.ascii	"Gen_Queue_Test\000"
  44      51756575 
  44      655F5465 
  44      737400
  45 000f 00       		.align	2
  46              	.LC1:
  47 0010 47656E51 		.ascii	"GenQ\000"
  47      00
  48 0015 000000   		.align	2
  49              	.LC2:
  50 0018 47656E5F 		.ascii	"Gen_Queue_Mutex\000"
  50      51756575 
  50      655F4D75 
  50      74657800 
ARM GAS  C:\Users\THUNDE~1\AppData\Local\Temp\ccFIS02E.s 			page 2


  51              		.align	2
  52              	.LC3:
  53 0028 4D754C6F 		.ascii	"MuLow\000"
  53      7700
  54 002e 0000     		.align	2
  55              	.LC4:
  56 0030 4D754D65 		.ascii	"MuMed\000"
  56      6400
  57 0036 0000     		.align	2
  58              	.LC5:
  59 0038 4D754869 		.ascii	"MuHigh\000"
  59      676800
  60              		.section	.text.vStartGenericQueueTasks,"ax",%progbits
  61              		.align	2
  62              		.global	vStartGenericQueueTasks
  63              		.thumb
  64              		.thumb_func
  65              		.type	vStartGenericQueueTasks, %function
  66              	vStartGenericQueueTasks:
  67              	.LFB68:
  68              		.file 1 "..\\Common\\Minimal\\GenQTest.c"
   1:..\Common\Minimal/GenQTest.c **** /*
   2:..\Common\Minimal/GenQTest.c ****     FreeRTOS V9.0.0 - Copyright (C) 2016 Real Time Engineers Ltd.
   3:..\Common\Minimal/GenQTest.c ****     All rights reserved
   4:..\Common\Minimal/GenQTest.c **** 
   5:..\Common\Minimal/GenQTest.c ****     VISIT http://www.FreeRTOS.org TO ENSURE YOU ARE USING THE LATEST VERSION.
   6:..\Common\Minimal/GenQTest.c **** 
   7:..\Common\Minimal/GenQTest.c ****     This file is part of the FreeRTOS distribution.
   8:..\Common\Minimal/GenQTest.c **** 
   9:..\Common\Minimal/GenQTest.c ****     FreeRTOS is free software; you can redistribute it and/or modify it under
  10:..\Common\Minimal/GenQTest.c ****     the terms of the GNU General Public License (version 2) as published by the
  11:..\Common\Minimal/GenQTest.c ****     Free Software Foundation >>>> AND MODIFIED BY <<<< the FreeRTOS exception.
  12:..\Common\Minimal/GenQTest.c **** 
  13:..\Common\Minimal/GenQTest.c ****     ***************************************************************************
  14:..\Common\Minimal/GenQTest.c ****     >>!   NOTE: The modification to the GPL is included to allow you to     !<<
  15:..\Common\Minimal/GenQTest.c ****     >>!   distribute a combined work that includes FreeRTOS without being   !<<
  16:..\Common\Minimal/GenQTest.c ****     >>!   obliged to provide the source code for proprietary components     !<<
  17:..\Common\Minimal/GenQTest.c ****     >>!   outside of the FreeRTOS kernel.                                   !<<
  18:..\Common\Minimal/GenQTest.c ****     ***************************************************************************
  19:..\Common\Minimal/GenQTest.c **** 
  20:..\Common\Minimal/GenQTest.c ****     FreeRTOS is distributed in the hope that it will be useful, but WITHOUT ANY
  21:..\Common\Minimal/GenQTest.c ****     WARRANTY; without even the implied warranty of MERCHANTABILITY or FITNESS
  22:..\Common\Minimal/GenQTest.c ****     FOR A PARTICULAR PURPOSE.  Full license text is available on the following
  23:..\Common\Minimal/GenQTest.c ****     link: http://www.freertos.org/a00114.html
  24:..\Common\Minimal/GenQTest.c **** 
  25:..\Common\Minimal/GenQTest.c ****     ***************************************************************************
  26:..\Common\Minimal/GenQTest.c ****      *                                                                       *
  27:..\Common\Minimal/GenQTest.c ****      *    FreeRTOS provides completely free yet professionally developed,    *
  28:..\Common\Minimal/GenQTest.c ****      *    robust, strictly quality controlled, supported, and cross          *
  29:..\Common\Minimal/GenQTest.c ****      *    platform software that is more than just the market leader, it     *
  30:..\Common\Minimal/GenQTest.c ****      *    is the industry's de facto standard.                               *
  31:..\Common\Minimal/GenQTest.c ****      *                                                                       *
  32:..\Common\Minimal/GenQTest.c ****      *    Help yourself get started quickly while simultaneously helping     *
  33:..\Common\Minimal/GenQTest.c ****      *    to support the FreeRTOS project by purchasing a FreeRTOS           *
  34:..\Common\Minimal/GenQTest.c ****      *    tutorial book, reference manual, or both:                          *
  35:..\Common\Minimal/GenQTest.c ****      *    http://www.FreeRTOS.org/Documentation                              *
  36:..\Common\Minimal/GenQTest.c ****      *                                                                       *
ARM GAS  C:\Users\THUNDE~1\AppData\Local\Temp\ccFIS02E.s 			page 3


  37:..\Common\Minimal/GenQTest.c ****     ***************************************************************************
  38:..\Common\Minimal/GenQTest.c **** 
  39:..\Common\Minimal/GenQTest.c ****     http://www.FreeRTOS.org/FAQHelp.html - Having a problem?  Start by reading
  40:..\Common\Minimal/GenQTest.c ****     the FAQ page "My application does not run, what could be wrong?".  Have you
  41:..\Common\Minimal/GenQTest.c ****     defined configASSERT()?
  42:..\Common\Minimal/GenQTest.c **** 
  43:..\Common\Minimal/GenQTest.c ****     http://www.FreeRTOS.org/support - In return for receiving this top quality
  44:..\Common\Minimal/GenQTest.c ****     embedded software for free we request you assist our global community by
  45:..\Common\Minimal/GenQTest.c ****     participating in the support forum.
  46:..\Common\Minimal/GenQTest.c **** 
  47:..\Common\Minimal/GenQTest.c ****     http://www.FreeRTOS.org/training - Investing in training allows your team to
  48:..\Common\Minimal/GenQTest.c ****     be as productive as possible as early as possible.  Now you can receive
  49:..\Common\Minimal/GenQTest.c ****     FreeRTOS training directly from Richard Barry, CEO of Real Time Engineers
  50:..\Common\Minimal/GenQTest.c ****     Ltd, and the world's leading authority on the world's leading RTOS.
  51:..\Common\Minimal/GenQTest.c **** 
  52:..\Common\Minimal/GenQTest.c ****     http://www.FreeRTOS.org/plus - A selection of FreeRTOS ecosystem products,
  53:..\Common\Minimal/GenQTest.c ****     including FreeRTOS+Trace - an indispensable productivity tool, a DOS
  54:..\Common\Minimal/GenQTest.c ****     compatible FAT file system, and our tiny thread aware UDP/IP stack.
  55:..\Common\Minimal/GenQTest.c **** 
  56:..\Common\Minimal/GenQTest.c ****     http://www.FreeRTOS.org/labs - Where new FreeRTOS products go to incubate.
  57:..\Common\Minimal/GenQTest.c ****     Come and try FreeRTOS+TCP, our new open source TCP/IP stack for FreeRTOS.
  58:..\Common\Minimal/GenQTest.c **** 
  59:..\Common\Minimal/GenQTest.c ****     http://www.OpenRTOS.com - Real Time Engineers ltd. license FreeRTOS to High
  60:..\Common\Minimal/GenQTest.c ****     Integrity Systems ltd. to sell under the OpenRTOS brand.  Low cost OpenRTOS
  61:..\Common\Minimal/GenQTest.c ****     licenses offer ticketed support, indemnification and commercial middleware.
  62:..\Common\Minimal/GenQTest.c **** 
  63:..\Common\Minimal/GenQTest.c ****     http://www.SafeRTOS.com - High Integrity Systems also provide a safety
  64:..\Common\Minimal/GenQTest.c ****     engineered and independently SIL3 certified version for use in safety and
  65:..\Common\Minimal/GenQTest.c ****     mission critical applications that require provable dependability.
  66:..\Common\Minimal/GenQTest.c **** 
  67:..\Common\Minimal/GenQTest.c ****     1 tab == 4 spaces!
  68:..\Common\Minimal/GenQTest.c **** */
  69:..\Common\Minimal/GenQTest.c **** 
  70:..\Common\Minimal/GenQTest.c **** 
  71:..\Common\Minimal/GenQTest.c **** /*
  72:..\Common\Minimal/GenQTest.c ****  * Tests the extra queue functionality introduced in FreeRTOS.org V4.5.0 -
  73:..\Common\Minimal/GenQTest.c ****  * including xQueueSendToFront(), xQueueSendToBack(), xQueuePeek() and
  74:..\Common\Minimal/GenQTest.c ****  * mutex behaviour.
  75:..\Common\Minimal/GenQTest.c ****  *
  76:..\Common\Minimal/GenQTest.c ****  * See the comments above the prvSendFrontAndBackTest() and
  77:..\Common\Minimal/GenQTest.c ****  * prvLowPriorityMutexTask() prototypes below for more information.
  78:..\Common\Minimal/GenQTest.c ****  */
  79:..\Common\Minimal/GenQTest.c **** 
  80:..\Common\Minimal/GenQTest.c **** /* Standard includes. */
  81:..\Common\Minimal/GenQTest.c **** #include <stdlib.h>
  82:..\Common\Minimal/GenQTest.c **** 
  83:..\Common\Minimal/GenQTest.c **** /* Scheduler include files. */
  84:..\Common\Minimal/GenQTest.c **** #include "FreeRTOS.h"
  85:..\Common\Minimal/GenQTest.c **** #include "task.h"
  86:..\Common\Minimal/GenQTest.c **** #include "queue.h"
  87:..\Common\Minimal/GenQTest.c **** #include "semphr.h"
  88:..\Common\Minimal/GenQTest.c **** 
  89:..\Common\Minimal/GenQTest.c **** /* Demo program include files. */
  90:..\Common\Minimal/GenQTest.c **** #include "GenQTest.h"
  91:..\Common\Minimal/GenQTest.c **** 
  92:..\Common\Minimal/GenQTest.c **** #define genqQUEUE_LENGTH		( 5 )
  93:..\Common\Minimal/GenQTest.c **** #define intsemNO_BLOCK			( 0 )
ARM GAS  C:\Users\THUNDE~1\AppData\Local\Temp\ccFIS02E.s 			page 4


  94:..\Common\Minimal/GenQTest.c **** 
  95:..\Common\Minimal/GenQTest.c **** #define genqMUTEX_LOW_PRIORITY		( tskIDLE_PRIORITY )
  96:..\Common\Minimal/GenQTest.c **** #define genqMUTEX_TEST_PRIORITY		( tskIDLE_PRIORITY + 1 )
  97:..\Common\Minimal/GenQTest.c **** #define genqMUTEX_MEDIUM_PRIORITY	( tskIDLE_PRIORITY + 2 )
  98:..\Common\Minimal/GenQTest.c **** #define genqMUTEX_HIGH_PRIORITY		( tskIDLE_PRIORITY + 3 )
  99:..\Common\Minimal/GenQTest.c **** 
 100:..\Common\Minimal/GenQTest.c **** /*-----------------------------------------------------------*/
 101:..\Common\Minimal/GenQTest.c **** 
 102:..\Common\Minimal/GenQTest.c **** /*
 103:..\Common\Minimal/GenQTest.c ****  * Tests the behaviour of the xQueueSendToFront() and xQueueSendToBack()
 104:..\Common\Minimal/GenQTest.c ****  * macros by using both to fill a queue, then reading from the queue to
 105:..\Common\Minimal/GenQTest.c ****  * check the resultant queue order is as expected.  Queue data is also
 106:..\Common\Minimal/GenQTest.c ****  * peeked.
 107:..\Common\Minimal/GenQTest.c ****  */
 108:..\Common\Minimal/GenQTest.c **** static void prvSendFrontAndBackTest( void *pvParameters );
 109:..\Common\Minimal/GenQTest.c **** 
 110:..\Common\Minimal/GenQTest.c **** /*
 111:..\Common\Minimal/GenQTest.c ****  * The following three tasks are used to demonstrate the mutex behaviour.
 112:..\Common\Minimal/GenQTest.c ****  * Each task is given a different priority to demonstrate the priority
 113:..\Common\Minimal/GenQTest.c ****  * inheritance mechanism.
 114:..\Common\Minimal/GenQTest.c ****  *
 115:..\Common\Minimal/GenQTest.c ****  * The low priority task obtains a mutex.  After this a high priority task
 116:..\Common\Minimal/GenQTest.c ****  * attempts to obtain the same mutex, causing its priority to be inherited
 117:..\Common\Minimal/GenQTest.c ****  * by the low priority task.  The task with the inherited high priority then
 118:..\Common\Minimal/GenQTest.c ****  * resumes a medium priority task to ensure it is not blocked by the medium
 119:..\Common\Minimal/GenQTest.c ****  * priority task while it holds the inherited high priority.  Once the mutex
 120:..\Common\Minimal/GenQTest.c ****  * is returned the task with the inherited priority returns to its original
 121:..\Common\Minimal/GenQTest.c ****  * low priority, and is therefore immediately preempted by first the high
 122:..\Common\Minimal/GenQTest.c ****  * priority task and then the medium priority task before it can continue.
 123:..\Common\Minimal/GenQTest.c ****  */
 124:..\Common\Minimal/GenQTest.c **** static void prvLowPriorityMutexTask( void *pvParameters );
 125:..\Common\Minimal/GenQTest.c **** static void prvMediumPriorityMutexTask( void *pvParameters );
 126:..\Common\Minimal/GenQTest.c **** static void prvHighPriorityMutexTask( void *pvParameters );
 127:..\Common\Minimal/GenQTest.c **** 
 128:..\Common\Minimal/GenQTest.c **** /*-----------------------------------------------------------*/
 129:..\Common\Minimal/GenQTest.c **** 
 130:..\Common\Minimal/GenQTest.c **** /* Flag that will be latched to pdTRUE should any unexpected behaviour be
 131:..\Common\Minimal/GenQTest.c **** detected in any of the tasks. */
 132:..\Common\Minimal/GenQTest.c **** static volatile BaseType_t xErrorDetected = pdFALSE;
 133:..\Common\Minimal/GenQTest.c **** 
 134:..\Common\Minimal/GenQTest.c **** /* Counters that are incremented on each cycle of a test.  This is used to
 135:..\Common\Minimal/GenQTest.c **** detect a stalled task - a test that is no longer running. */
 136:..\Common\Minimal/GenQTest.c **** static volatile uint32_t ulLoopCounter = 0;
 137:..\Common\Minimal/GenQTest.c **** static volatile uint32_t ulLoopCounter2 = 0;
 138:..\Common\Minimal/GenQTest.c **** 
 139:..\Common\Minimal/GenQTest.c **** /* The variable that is guarded by the mutex in the mutex demo tasks. */
 140:..\Common\Minimal/GenQTest.c **** static volatile uint32_t ulGuardedVariable = 0;
 141:..\Common\Minimal/GenQTest.c **** 
 142:..\Common\Minimal/GenQTest.c **** /* Handles used in the mutex test to suspend and resume the high and medium
 143:..\Common\Minimal/GenQTest.c **** priority mutex test tasks. */
 144:..\Common\Minimal/GenQTest.c **** static TaskHandle_t xHighPriorityMutexTask, xMediumPriorityMutexTask;
 145:..\Common\Minimal/GenQTest.c **** 
 146:..\Common\Minimal/GenQTest.c **** /*-----------------------------------------------------------*/
 147:..\Common\Minimal/GenQTest.c **** 
 148:..\Common\Minimal/GenQTest.c **** void vStartGenericQueueTasks( UBaseType_t uxPriority )
 149:..\Common\Minimal/GenQTest.c **** {
  69              		.loc 1 149 0
ARM GAS  C:\Users\THUNDE~1\AppData\Local\Temp\ccFIS02E.s 			page 5


  70              		.cfi_startproc
  71              		@ args = 0, pretend = 0, frame = 16
  72              		@ frame_needed = 1, uses_anonymous_args = 0
  73 0000 80B5     		push	{r7, lr}
  74              		.cfi_def_cfa_offset 8
  75              		.cfi_offset 7, -8
  76              		.cfi_offset 14, -4
  77 0002 86B0     		sub	sp, sp, #24
  78              		.cfi_def_cfa_offset 32
  79 0004 02AF     		add	r7, sp, #8
  80              		.cfi_def_cfa 7, 24
  81 0006 7860     		str	r0, [r7, #4]
 150:..\Common\Minimal/GenQTest.c **** QueueHandle_t xQueue;
 151:..\Common\Minimal/GenQTest.c **** SemaphoreHandle_t xMutex;
 152:..\Common\Minimal/GenQTest.c **** 
 153:..\Common\Minimal/GenQTest.c **** 	/* Create the queue that we are going to use for the
 154:..\Common\Minimal/GenQTest.c **** 	prvSendFrontAndBackTest demo. */
 155:..\Common\Minimal/GenQTest.c **** 	xQueue = xQueueCreate( genqQUEUE_LENGTH, sizeof( uint32_t ) );
  82              		.loc 1 155 0
  83 0008 0022     		movs	r2, #0
  84 000a 0421     		movs	r1, #4
  85 000c 0520     		movs	r0, #5
  86 000e FFF7FEFF 		bl	xQueueGenericCreate
  87 0012 F860     		str	r0, [r7, #12]
 156:..\Common\Minimal/GenQTest.c **** 
 157:..\Common\Minimal/GenQTest.c **** 	if( xQueue != NULL )
  88              		.loc 1 157 0
  89 0014 FB68     		ldr	r3, [r7, #12]
  90 0016 002B     		cmp	r3, #0
  91 0018 0DD0     		beq	.L2
 158:..\Common\Minimal/GenQTest.c **** 	{
 159:..\Common\Minimal/GenQTest.c **** 		/* vQueueAddToRegistry() adds the queue to the queue registry, if one
 160:..\Common\Minimal/GenQTest.c **** 		is in use.  The queue registry is provided as a means for kernel aware
 161:..\Common\Minimal/GenQTest.c **** 		debuggers to locate queues and has no purpose if a kernel aware debugger
 162:..\Common\Minimal/GenQTest.c **** 		is not being used.  The call to vQueueAddToRegistry() will be removed
 163:..\Common\Minimal/GenQTest.c **** 		by the pre-processor if configQUEUE_REGISTRY_SIZE is not defined or is
 164:..\Common\Minimal/GenQTest.c **** 		defined to be less than 1. */
 165:..\Common\Minimal/GenQTest.c **** 		vQueueAddToRegistry( xQueue, "Gen_Queue_Test" );
  92              		.loc 1 165 0
  93 001a 1D49     		ldr	r1, .L5
  94 001c F868     		ldr	r0, [r7, #12]
  95 001e FFF7FEFF 		bl	vQueueAddToRegistry
 166:..\Common\Minimal/GenQTest.c **** 
 167:..\Common\Minimal/GenQTest.c **** 		/* Create the demo task and pass it the queue just created.  We are
 168:..\Common\Minimal/GenQTest.c **** 		passing the queue handle by value so it does not matter that it is
 169:..\Common\Minimal/GenQTest.c **** 		declared on the stack here. */
 170:..\Common\Minimal/GenQTest.c **** 		xTaskCreate( prvSendFrontAndBackTest, "GenQ", configMINIMAL_STACK_SIZE, ( void * ) xQueue, uxPrio
  96              		.loc 1 170 0
  97 0022 0023     		movs	r3, #0
  98 0024 0193     		str	r3, [sp, #4]
  99 0026 7B68     		ldr	r3, [r7, #4]
 100 0028 0093     		str	r3, [sp]
 101 002a FB68     		ldr	r3, [r7, #12]
 102 002c 6422     		movs	r2, #100
 103 002e 1949     		ldr	r1, .L5+4
 104 0030 1948     		ldr	r0, .L5+8
 105 0032 FFF7FEFF 		bl	xTaskCreate
ARM GAS  C:\Users\THUNDE~1\AppData\Local\Temp\ccFIS02E.s 			page 6


 106              	.L2:
 171:..\Common\Minimal/GenQTest.c **** 	}
 172:..\Common\Minimal/GenQTest.c **** 
 173:..\Common\Minimal/GenQTest.c **** 	/* Create the mutex used by the prvMutexTest task. */
 174:..\Common\Minimal/GenQTest.c **** 	xMutex = xSemaphoreCreateMutex();
 107              		.loc 1 174 0
 108 0036 0120     		movs	r0, #1
 109 0038 FFF7FEFF 		bl	xQueueCreateMutex
 110 003c B860     		str	r0, [r7, #8]
 175:..\Common\Minimal/GenQTest.c **** 
 176:..\Common\Minimal/GenQTest.c **** 	if( xMutex != NULL )
 111              		.loc 1 176 0
 112 003e BB68     		ldr	r3, [r7, #8]
 113 0040 002B     		cmp	r3, #0
 114 0042 21D0     		beq	.L4
 177:..\Common\Minimal/GenQTest.c **** 	{
 178:..\Common\Minimal/GenQTest.c **** 		/* vQueueAddToRegistry() adds the mutex to the registry, if one is
 179:..\Common\Minimal/GenQTest.c **** 		in use.  The registry is provided as a means for kernel aware
 180:..\Common\Minimal/GenQTest.c **** 		debuggers to locate mutexes and has no purpose if a kernel aware
 181:..\Common\Minimal/GenQTest.c **** 		debugger is not being used.  The call to vQueueAddToRegistry() will be
 182:..\Common\Minimal/GenQTest.c **** 		removed by the pre-processor if configQUEUE_REGISTRY_SIZE is not
 183:..\Common\Minimal/GenQTest.c **** 		defined or is defined to be less than 1. */
 184:..\Common\Minimal/GenQTest.c **** 		vQueueAddToRegistry( ( QueueHandle_t ) xMutex, "Gen_Queue_Mutex" );
 115              		.loc 1 184 0
 116 0044 1549     		ldr	r1, .L5+12
 117 0046 B868     		ldr	r0, [r7, #8]
 118 0048 FFF7FEFF 		bl	vQueueAddToRegistry
 185:..\Common\Minimal/GenQTest.c **** 
 186:..\Common\Minimal/GenQTest.c **** 		/* Create the mutex demo tasks and pass it the mutex just created.  We
 187:..\Common\Minimal/GenQTest.c **** 		are passing the mutex handle by value so it does not matter that it is
 188:..\Common\Minimal/GenQTest.c **** 		declared on the stack here. */
 189:..\Common\Minimal/GenQTest.c **** 		xTaskCreate( prvLowPriorityMutexTask, "MuLow", configMINIMAL_STACK_SIZE, ( void * ) xMutex, genqM
 119              		.loc 1 189 0
 120 004c 0023     		movs	r3, #0
 121 004e 0193     		str	r3, [sp, #4]
 122 0050 0023     		movs	r3, #0
 123 0052 0093     		str	r3, [sp]
 124 0054 BB68     		ldr	r3, [r7, #8]
 125 0056 6422     		movs	r2, #100
 126 0058 1149     		ldr	r1, .L5+16
 127 005a 1248     		ldr	r0, .L5+20
 128 005c FFF7FEFF 		bl	xTaskCreate
 190:..\Common\Minimal/GenQTest.c **** 		xTaskCreate( prvMediumPriorityMutexTask, "MuMed", configMINIMAL_STACK_SIZE, NULL, genqMUTEX_MEDIU
 129              		.loc 1 190 0
 130 0060 114B     		ldr	r3, .L5+24
 131 0062 0193     		str	r3, [sp, #4]
 132 0064 0223     		movs	r3, #2
 133 0066 0093     		str	r3, [sp]
 134 0068 0023     		movs	r3, #0
 135 006a 6422     		movs	r2, #100
 136 006c 0F49     		ldr	r1, .L5+28
 137 006e 1048     		ldr	r0, .L5+32
 138 0070 FFF7FEFF 		bl	xTaskCreate
 191:..\Common\Minimal/GenQTest.c **** 		xTaskCreate( prvHighPriorityMutexTask, "MuHigh", configMINIMAL_STACK_SIZE, ( void * ) xMutex, gen
 139              		.loc 1 191 0
 140 0074 0F4B     		ldr	r3, .L5+36
 141 0076 0193     		str	r3, [sp, #4]
ARM GAS  C:\Users\THUNDE~1\AppData\Local\Temp\ccFIS02E.s 			page 7


 142 0078 0323     		movs	r3, #3
 143 007a 0093     		str	r3, [sp]
 144 007c BB68     		ldr	r3, [r7, #8]
 145 007e 6422     		movs	r2, #100
 146 0080 0D49     		ldr	r1, .L5+40
 147 0082 0E48     		ldr	r0, .L5+44
 148 0084 FFF7FEFF 		bl	xTaskCreate
 149              	.L4:
 192:..\Common\Minimal/GenQTest.c **** 	}
 193:..\Common\Minimal/GenQTest.c **** }
 150              		.loc 1 193 0
 151 0088 00BF     		nop
 152 008a 1037     		adds	r7, r7, #16
 153              		.cfi_def_cfa_offset 8
 154 008c BD46     		mov	sp, r7
 155              		.cfi_def_cfa_register 13
 156              		@ sp needed
 157 008e 80BD     		pop	{r7, pc}
 158              	.L6:
 159              		.align	2
 160              	.L5:
 161 0090 00000000 		.word	.LC0
 162 0094 10000000 		.word	.LC1
 163 0098 00000000 		.word	prvSendFrontAndBackTest
 164 009c 18000000 		.word	.LC2
 165 00a0 28000000 		.word	.LC3
 166 00a4 00000000 		.word	prvLowPriorityMutexTask
 167 00a8 14000000 		.word	xMediumPriorityMutexTask
 168 00ac 30000000 		.word	.LC4
 169 00b0 00000000 		.word	prvMediumPriorityMutexTask
 170 00b4 10000000 		.word	xHighPriorityMutexTask
 171 00b8 38000000 		.word	.LC5
 172 00bc 00000000 		.word	prvHighPriorityMutexTask
 173              		.cfi_endproc
 174              	.LFE68:
 175              		.size	vStartGenericQueueTasks, .-vStartGenericQueueTasks
 176              		.section	.text.prvSendFrontAndBackTest,"ax",%progbits
 177              		.align	2
 178              		.thumb
 179              		.thumb_func
 180              		.type	prvSendFrontAndBackTest, %function
 181              	prvSendFrontAndBackTest:
 182              	.LFB69:
 194:..\Common\Minimal/GenQTest.c **** /*-----------------------------------------------------------*/
 195:..\Common\Minimal/GenQTest.c **** 
 196:..\Common\Minimal/GenQTest.c **** static void prvSendFrontAndBackTest( void *pvParameters )
 197:..\Common\Minimal/GenQTest.c **** {
 183              		.loc 1 197 0
 184              		.cfi_startproc
 185              		@ args = 0, pretend = 0, frame = 24
 186              		@ frame_needed = 1, uses_anonymous_args = 0
 187 0000 80B5     		push	{r7, lr}
 188              		.cfi_def_cfa_offset 8
 189              		.cfi_offset 7, -8
 190              		.cfi_offset 14, -4
 191 0002 86B0     		sub	sp, sp, #24
 192              		.cfi_def_cfa_offset 32
ARM GAS  C:\Users\THUNDE~1\AppData\Local\Temp\ccFIS02E.s 			page 8


 193 0004 00AF     		add	r7, sp, #0
 194              		.cfi_def_cfa_register 7
 195 0006 7860     		str	r0, [r7, #4]
 198:..\Common\Minimal/GenQTest.c **** uint32_t ulData, ulData2;
 199:..\Common\Minimal/GenQTest.c **** QueueHandle_t xQueue;
 200:..\Common\Minimal/GenQTest.c **** 
 201:..\Common\Minimal/GenQTest.c **** 	#ifdef USE_STDIO
 202:..\Common\Minimal/GenQTest.c **** 	void vPrintDisplayMessage( const char * const * ppcMessageToSend );
 203:..\Common\Minimal/GenQTest.c **** 
 204:..\Common\Minimal/GenQTest.c **** 		const char * const pcTaskStartMsg = "Queue SendToFront/SendToBack/Peek test started.\r\n";
 205:..\Common\Minimal/GenQTest.c **** 
 206:..\Common\Minimal/GenQTest.c **** 		/* Queue a message for printing to say the task has started. */
 207:..\Common\Minimal/GenQTest.c **** 		vPrintDisplayMessage( &pcTaskStartMsg );
 208:..\Common\Minimal/GenQTest.c **** 	#endif
 209:..\Common\Minimal/GenQTest.c **** 
 210:..\Common\Minimal/GenQTest.c **** 	xQueue = ( QueueHandle_t ) pvParameters;
 196              		.loc 1 210 0
 197 0008 7B68     		ldr	r3, [r7, #4]
 198 000a 7B61     		str	r3, [r7, #20]
 199              	.L43:
 211:..\Common\Minimal/GenQTest.c **** 
 212:..\Common\Minimal/GenQTest.c **** 	for( ;; )
 213:..\Common\Minimal/GenQTest.c **** 	{
 214:..\Common\Minimal/GenQTest.c **** 		/* The queue is empty, so sending an item to the back of the queue
 215:..\Common\Minimal/GenQTest.c **** 		should have the same efect as sending it to the front of the queue.
 216:..\Common\Minimal/GenQTest.c **** 
 217:..\Common\Minimal/GenQTest.c **** 		First send to the front and check everything is as expected. */
 218:..\Common\Minimal/GenQTest.c **** 		xQueueSendToFront( xQueue, ( void * ) &ulLoopCounter, intsemNO_BLOCK );
 200              		.loc 1 218 0
 201 000c 0123     		movs	r3, #1
 202 000e 0022     		movs	r2, #0
 203 0010 A249     		ldr	r1, .L44
 204 0012 7869     		ldr	r0, [r7, #20]
 205 0014 FFF7FEFF 		bl	xQueueGenericSend
 219:..\Common\Minimal/GenQTest.c **** 
 220:..\Common\Minimal/GenQTest.c **** 		if( uxQueueMessagesWaiting( xQueue ) != 1 )
 206              		.loc 1 220 0
 207 0018 7869     		ldr	r0, [r7, #20]
 208 001a FFF7FEFF 		bl	uxQueueMessagesWaiting
 209 001e 0346     		mov	r3, r0
 210 0020 012B     		cmp	r3, #1
 211 0022 02D0     		beq	.L8
 221:..\Common\Minimal/GenQTest.c **** 		{
 222:..\Common\Minimal/GenQTest.c **** 			xErrorDetected = pdTRUE;
 212              		.loc 1 222 0
 213 0024 9E4B     		ldr	r3, .L44+4
 214 0026 0122     		movs	r2, #1
 215 0028 1A60     		str	r2, [r3]
 216              	.L8:
 223:..\Common\Minimal/GenQTest.c **** 		}
 224:..\Common\Minimal/GenQTest.c **** 
 225:..\Common\Minimal/GenQTest.c **** 		if( xQueueReceive( xQueue, ( void * ) &ulData, intsemNO_BLOCK ) != pdPASS )
 217              		.loc 1 225 0
 218 002a 07F11001 		add	r1, r7, #16
 219 002e 0023     		movs	r3, #0
 220 0030 0022     		movs	r2, #0
 221 0032 7869     		ldr	r0, [r7, #20]
ARM GAS  C:\Users\THUNDE~1\AppData\Local\Temp\ccFIS02E.s 			page 9


 222 0034 FFF7FEFF 		bl	xQueueGenericReceive
 223 0038 0346     		mov	r3, r0
 224 003a 012B     		cmp	r3, #1
 225 003c 02D0     		beq	.L9
 226:..\Common\Minimal/GenQTest.c **** 		{
 227:..\Common\Minimal/GenQTest.c **** 			xErrorDetected = pdTRUE;
 226              		.loc 1 227 0
 227 003e 984B     		ldr	r3, .L44+4
 228 0040 0122     		movs	r2, #1
 229 0042 1A60     		str	r2, [r3]
 230              	.L9:
 228:..\Common\Minimal/GenQTest.c **** 		}
 229:..\Common\Minimal/GenQTest.c **** 
 230:..\Common\Minimal/GenQTest.c **** 		/* The data we sent to the queue should equal the data we just received
 231:..\Common\Minimal/GenQTest.c **** 		from the queue. */
 232:..\Common\Minimal/GenQTest.c **** 		if( ulLoopCounter != ulData )
 231              		.loc 1 232 0
 232 0044 954B     		ldr	r3, .L44
 233 0046 1A68     		ldr	r2, [r3]
 234 0048 3B69     		ldr	r3, [r7, #16]
 235 004a 9A42     		cmp	r2, r3
 236 004c 02D0     		beq	.L10
 233:..\Common\Minimal/GenQTest.c **** 		{
 234:..\Common\Minimal/GenQTest.c **** 			xErrorDetected = pdTRUE;
 237              		.loc 1 234 0
 238 004e 944B     		ldr	r3, .L44+4
 239 0050 0122     		movs	r2, #1
 240 0052 1A60     		str	r2, [r3]
 241              	.L10:
 235:..\Common\Minimal/GenQTest.c **** 		}
 236:..\Common\Minimal/GenQTest.c **** 
 237:..\Common\Minimal/GenQTest.c **** 		/* Then do the same, sending the data to the back, checking everything
 238:..\Common\Minimal/GenQTest.c **** 		is as expected. */
 239:..\Common\Minimal/GenQTest.c **** 		if( uxQueueMessagesWaiting( xQueue ) != 0 )
 242              		.loc 1 239 0
 243 0054 7869     		ldr	r0, [r7, #20]
 244 0056 FFF7FEFF 		bl	uxQueueMessagesWaiting
 245 005a 0346     		mov	r3, r0
 246 005c 002B     		cmp	r3, #0
 247 005e 02D0     		beq	.L11
 240:..\Common\Minimal/GenQTest.c **** 		{
 241:..\Common\Minimal/GenQTest.c **** 			xErrorDetected = pdTRUE;
 248              		.loc 1 241 0
 249 0060 8F4B     		ldr	r3, .L44+4
 250 0062 0122     		movs	r2, #1
 251 0064 1A60     		str	r2, [r3]
 252              	.L11:
 242:..\Common\Minimal/GenQTest.c **** 		}
 243:..\Common\Minimal/GenQTest.c **** 
 244:..\Common\Minimal/GenQTest.c **** 		xQueueSendToBack( xQueue, ( void * ) &ulLoopCounter, intsemNO_BLOCK );
 253              		.loc 1 244 0
 254 0066 0023     		movs	r3, #0
 255 0068 0022     		movs	r2, #0
 256 006a 8C49     		ldr	r1, .L44
 257 006c 7869     		ldr	r0, [r7, #20]
 258 006e FFF7FEFF 		bl	xQueueGenericSend
 245:..\Common\Minimal/GenQTest.c **** 
ARM GAS  C:\Users\THUNDE~1\AppData\Local\Temp\ccFIS02E.s 			page 10


 246:..\Common\Minimal/GenQTest.c **** 		if( uxQueueMessagesWaiting( xQueue ) != 1 )
 259              		.loc 1 246 0
 260 0072 7869     		ldr	r0, [r7, #20]
 261 0074 FFF7FEFF 		bl	uxQueueMessagesWaiting
 262 0078 0346     		mov	r3, r0
 263 007a 012B     		cmp	r3, #1
 264 007c 02D0     		beq	.L12
 247:..\Common\Minimal/GenQTest.c **** 		{
 248:..\Common\Minimal/GenQTest.c **** 			xErrorDetected = pdTRUE;
 265              		.loc 1 248 0
 266 007e 884B     		ldr	r3, .L44+4
 267 0080 0122     		movs	r2, #1
 268 0082 1A60     		str	r2, [r3]
 269              	.L12:
 249:..\Common\Minimal/GenQTest.c **** 		}
 250:..\Common\Minimal/GenQTest.c **** 
 251:..\Common\Minimal/GenQTest.c **** 		if( xQueueReceive( xQueue, ( void * ) &ulData, intsemNO_BLOCK ) != pdPASS )
 270              		.loc 1 251 0
 271 0084 07F11001 		add	r1, r7, #16
 272 0088 0023     		movs	r3, #0
 273 008a 0022     		movs	r2, #0
 274 008c 7869     		ldr	r0, [r7, #20]
 275 008e FFF7FEFF 		bl	xQueueGenericReceive
 276 0092 0346     		mov	r3, r0
 277 0094 012B     		cmp	r3, #1
 278 0096 02D0     		beq	.L13
 252:..\Common\Minimal/GenQTest.c **** 		{
 253:..\Common\Minimal/GenQTest.c **** 			xErrorDetected = pdTRUE;
 279              		.loc 1 253 0
 280 0098 814B     		ldr	r3, .L44+4
 281 009a 0122     		movs	r2, #1
 282 009c 1A60     		str	r2, [r3]
 283              	.L13:
 254:..\Common\Minimal/GenQTest.c **** 		}
 255:..\Common\Minimal/GenQTest.c **** 
 256:..\Common\Minimal/GenQTest.c **** 		if( uxQueueMessagesWaiting( xQueue ) != 0 )
 284              		.loc 1 256 0
 285 009e 7869     		ldr	r0, [r7, #20]
 286 00a0 FFF7FEFF 		bl	uxQueueMessagesWaiting
 287 00a4 0346     		mov	r3, r0
 288 00a6 002B     		cmp	r3, #0
 289 00a8 02D0     		beq	.L14
 257:..\Common\Minimal/GenQTest.c **** 		{
 258:..\Common\Minimal/GenQTest.c **** 			xErrorDetected = pdTRUE;
 290              		.loc 1 258 0
 291 00aa 7D4B     		ldr	r3, .L44+4
 292 00ac 0122     		movs	r2, #1
 293 00ae 1A60     		str	r2, [r3]
 294              	.L14:
 259:..\Common\Minimal/GenQTest.c **** 		}
 260:..\Common\Minimal/GenQTest.c **** 
 261:..\Common\Minimal/GenQTest.c **** 		/* The data we sent to the queue should equal the data we just received
 262:..\Common\Minimal/GenQTest.c **** 		from the queue. */
 263:..\Common\Minimal/GenQTest.c **** 		if( ulLoopCounter != ulData )
 295              		.loc 1 263 0
 296 00b0 7A4B     		ldr	r3, .L44
 297 00b2 1A68     		ldr	r2, [r3]
ARM GAS  C:\Users\THUNDE~1\AppData\Local\Temp\ccFIS02E.s 			page 11


 298 00b4 3B69     		ldr	r3, [r7, #16]
 299 00b6 9A42     		cmp	r2, r3
 300 00b8 02D0     		beq	.L15
 264:..\Common\Minimal/GenQTest.c **** 		{
 265:..\Common\Minimal/GenQTest.c **** 			xErrorDetected = pdTRUE;
 301              		.loc 1 265 0
 302 00ba 794B     		ldr	r3, .L44+4
 303 00bc 0122     		movs	r2, #1
 304 00be 1A60     		str	r2, [r3]
 305              	.L15:
 266:..\Common\Minimal/GenQTest.c **** 		}
 267:..\Common\Minimal/GenQTest.c **** 
 268:..\Common\Minimal/GenQTest.c **** 		#if configUSE_PREEMPTION == 0
 269:..\Common\Minimal/GenQTest.c **** 			taskYIELD();
 270:..\Common\Minimal/GenQTest.c **** 		#endif
 271:..\Common\Minimal/GenQTest.c **** 
 272:..\Common\Minimal/GenQTest.c **** 
 273:..\Common\Minimal/GenQTest.c **** 
 274:..\Common\Minimal/GenQTest.c **** 		/* Place 2, 3, 4 into the queue, adding items to the back of the queue. */
 275:..\Common\Minimal/GenQTest.c **** 		for( ulData = 2; ulData < 5; ulData++ )
 306              		.loc 1 275 0
 307 00c0 0223     		movs	r3, #2
 308 00c2 3B61     		str	r3, [r7, #16]
 309 00c4 09E0     		b	.L16
 310              	.L17:
 276:..\Common\Minimal/GenQTest.c **** 		{
 277:..\Common\Minimal/GenQTest.c **** 			xQueueSendToBack( xQueue, ( void * ) &ulData, intsemNO_BLOCK );
 311              		.loc 1 277 0 discriminator 3
 312 00c6 07F11001 		add	r1, r7, #16
 313 00ca 0023     		movs	r3, #0
 314 00cc 0022     		movs	r2, #0
 315 00ce 7869     		ldr	r0, [r7, #20]
 316 00d0 FFF7FEFF 		bl	xQueueGenericSend
 275:..\Common\Minimal/GenQTest.c **** 		{
 317              		.loc 1 275 0 discriminator 3
 318 00d4 3B69     		ldr	r3, [r7, #16]
 319 00d6 0133     		adds	r3, r3, #1
 320 00d8 3B61     		str	r3, [r7, #16]
 321              	.L16:
 275:..\Common\Minimal/GenQTest.c **** 		{
 322              		.loc 1 275 0 is_stmt 0 discriminator 1
 323 00da 3B69     		ldr	r3, [r7, #16]
 324 00dc 042B     		cmp	r3, #4
 325 00de F2D9     		bls	.L17
 278:..\Common\Minimal/GenQTest.c **** 		}
 279:..\Common\Minimal/GenQTest.c **** 
 280:..\Common\Minimal/GenQTest.c **** 		/* Now the order in the queue should be 2, 3, 4, with 2 being the first
 281:..\Common\Minimal/GenQTest.c **** 		thing to be read out.  Now add 1 then 0 to the front of the queue. */
 282:..\Common\Minimal/GenQTest.c **** 		if( uxQueueMessagesWaiting( xQueue ) != 3 )
 326              		.loc 1 282 0 is_stmt 1
 327 00e0 7869     		ldr	r0, [r7, #20]
 328 00e2 FFF7FEFF 		bl	uxQueueMessagesWaiting
 329 00e6 0346     		mov	r3, r0
 330 00e8 032B     		cmp	r3, #3
 331 00ea 02D0     		beq	.L18
 283:..\Common\Minimal/GenQTest.c **** 		{
 284:..\Common\Minimal/GenQTest.c **** 			xErrorDetected = pdTRUE;
ARM GAS  C:\Users\THUNDE~1\AppData\Local\Temp\ccFIS02E.s 			page 12


 332              		.loc 1 284 0
 333 00ec 6C4B     		ldr	r3, .L44+4
 334 00ee 0122     		movs	r2, #1
 335 00f0 1A60     		str	r2, [r3]
 336              	.L18:
 285:..\Common\Minimal/GenQTest.c **** 		}
 286:..\Common\Minimal/GenQTest.c **** 		ulData = 1;
 337              		.loc 1 286 0
 338 00f2 0123     		movs	r3, #1
 339 00f4 3B61     		str	r3, [r7, #16]
 287:..\Common\Minimal/GenQTest.c **** 		xQueueSendToFront( xQueue, ( void * ) &ulData, intsemNO_BLOCK );
 340              		.loc 1 287 0
 341 00f6 07F11001 		add	r1, r7, #16
 342 00fa 0123     		movs	r3, #1
 343 00fc 0022     		movs	r2, #0
 344 00fe 7869     		ldr	r0, [r7, #20]
 345 0100 FFF7FEFF 		bl	xQueueGenericSend
 288:..\Common\Minimal/GenQTest.c **** 		ulData = 0;
 346              		.loc 1 288 0
 347 0104 0023     		movs	r3, #0
 348 0106 3B61     		str	r3, [r7, #16]
 289:..\Common\Minimal/GenQTest.c **** 		xQueueSendToFront( xQueue, ( void * ) &ulData, intsemNO_BLOCK );
 349              		.loc 1 289 0
 350 0108 07F11001 		add	r1, r7, #16
 351 010c 0123     		movs	r3, #1
 352 010e 0022     		movs	r2, #0
 353 0110 7869     		ldr	r0, [r7, #20]
 354 0112 FFF7FEFF 		bl	xQueueGenericSend
 290:..\Common\Minimal/GenQTest.c **** 
 291:..\Common\Minimal/GenQTest.c **** 		/* Now the queue should be full, and when we read the data out we
 292:..\Common\Minimal/GenQTest.c **** 		should receive 0, 1, 2, 3, 4. */
 293:..\Common\Minimal/GenQTest.c **** 		if( uxQueueMessagesWaiting( xQueue ) != 5 )
 355              		.loc 1 293 0
 356 0116 7869     		ldr	r0, [r7, #20]
 357 0118 FFF7FEFF 		bl	uxQueueMessagesWaiting
 358 011c 0346     		mov	r3, r0
 359 011e 052B     		cmp	r3, #5
 360 0120 02D0     		beq	.L19
 294:..\Common\Minimal/GenQTest.c **** 		{
 295:..\Common\Minimal/GenQTest.c **** 			xErrorDetected = pdTRUE;
 361              		.loc 1 295 0
 362 0122 5F4B     		ldr	r3, .L44+4
 363 0124 0122     		movs	r2, #1
 364 0126 1A60     		str	r2, [r3]
 365              	.L19:
 296:..\Common\Minimal/GenQTest.c **** 		}
 297:..\Common\Minimal/GenQTest.c **** 
 298:..\Common\Minimal/GenQTest.c **** 		if( xQueueSendToFront( xQueue, ( void * ) &ulData, intsemNO_BLOCK ) != errQUEUE_FULL )
 366              		.loc 1 298 0
 367 0128 07F11001 		add	r1, r7, #16
 368 012c 0123     		movs	r3, #1
 369 012e 0022     		movs	r2, #0
 370 0130 7869     		ldr	r0, [r7, #20]
 371 0132 FFF7FEFF 		bl	xQueueGenericSend
 372 0136 0346     		mov	r3, r0
 373 0138 002B     		cmp	r3, #0
 374 013a 02D0     		beq	.L20
ARM GAS  C:\Users\THUNDE~1\AppData\Local\Temp\ccFIS02E.s 			page 13


 299:..\Common\Minimal/GenQTest.c **** 		{
 300:..\Common\Minimal/GenQTest.c **** 			xErrorDetected = pdTRUE;
 375              		.loc 1 300 0
 376 013c 584B     		ldr	r3, .L44+4
 377 013e 0122     		movs	r2, #1
 378 0140 1A60     		str	r2, [r3]
 379              	.L20:
 301:..\Common\Minimal/GenQTest.c **** 		}
 302:..\Common\Minimal/GenQTest.c **** 
 303:..\Common\Minimal/GenQTest.c **** 		if( xQueueSendToBack( xQueue, ( void * ) &ulData, intsemNO_BLOCK ) != errQUEUE_FULL )
 380              		.loc 1 303 0
 381 0142 07F11001 		add	r1, r7, #16
 382 0146 0023     		movs	r3, #0
 383 0148 0022     		movs	r2, #0
 384 014a 7869     		ldr	r0, [r7, #20]
 385 014c FFF7FEFF 		bl	xQueueGenericSend
 386 0150 0346     		mov	r3, r0
 387 0152 002B     		cmp	r3, #0
 388 0154 02D0     		beq	.L21
 304:..\Common\Minimal/GenQTest.c **** 		{
 305:..\Common\Minimal/GenQTest.c **** 			xErrorDetected = pdTRUE;
 389              		.loc 1 305 0
 390 0156 524B     		ldr	r3, .L44+4
 391 0158 0122     		movs	r2, #1
 392 015a 1A60     		str	r2, [r3]
 393              	.L21:
 306:..\Common\Minimal/GenQTest.c **** 		}
 307:..\Common\Minimal/GenQTest.c **** 
 308:..\Common\Minimal/GenQTest.c **** 		#if configUSE_PREEMPTION == 0
 309:..\Common\Minimal/GenQTest.c **** 			taskYIELD();
 310:..\Common\Minimal/GenQTest.c **** 		#endif
 311:..\Common\Minimal/GenQTest.c **** 
 312:..\Common\Minimal/GenQTest.c **** 		/* Check the data we read out is in the expected order. */
 313:..\Common\Minimal/GenQTest.c **** 		for( ulData = 0; ulData < genqQUEUE_LENGTH; ulData++ )
 394              		.loc 1 313 0
 395 015c 0023     		movs	r3, #0
 396 015e 3B61     		str	r3, [r7, #16]
 397 0160 2DE0     		b	.L22
 398              	.L27:
 314:..\Common\Minimal/GenQTest.c **** 		{
 315:..\Common\Minimal/GenQTest.c **** 			/* Try peeking the data first. */
 316:..\Common\Minimal/GenQTest.c **** 			if( xQueuePeek( xQueue, &ulData2, intsemNO_BLOCK ) != pdPASS )
 399              		.loc 1 316 0
 400 0162 07F10C01 		add	r1, r7, #12
 401 0166 0123     		movs	r3, #1
 402 0168 0022     		movs	r2, #0
 403 016a 7869     		ldr	r0, [r7, #20]
 404 016c FFF7FEFF 		bl	xQueueGenericReceive
 405 0170 0346     		mov	r3, r0
 406 0172 012B     		cmp	r3, #1
 407 0174 02D0     		beq	.L23
 317:..\Common\Minimal/GenQTest.c **** 			{
 318:..\Common\Minimal/GenQTest.c **** 				xErrorDetected = pdTRUE;
 408              		.loc 1 318 0
 409 0176 4A4B     		ldr	r3, .L44+4
 410 0178 0122     		movs	r2, #1
 411 017a 1A60     		str	r2, [r3]
ARM GAS  C:\Users\THUNDE~1\AppData\Local\Temp\ccFIS02E.s 			page 14


 412              	.L23:
 319:..\Common\Minimal/GenQTest.c **** 			}
 320:..\Common\Minimal/GenQTest.c **** 
 321:..\Common\Minimal/GenQTest.c **** 			if( ulData != ulData2 )
 413              		.loc 1 321 0
 414 017c 3A69     		ldr	r2, [r7, #16]
 415 017e FB68     		ldr	r3, [r7, #12]
 416 0180 9A42     		cmp	r2, r3
 417 0182 02D0     		beq	.L24
 322:..\Common\Minimal/GenQTest.c **** 			{
 323:..\Common\Minimal/GenQTest.c **** 				xErrorDetected = pdTRUE;
 418              		.loc 1 323 0
 419 0184 464B     		ldr	r3, .L44+4
 420 0186 0122     		movs	r2, #1
 421 0188 1A60     		str	r2, [r3]
 422              	.L24:
 324:..\Common\Minimal/GenQTest.c **** 			}
 325:..\Common\Minimal/GenQTest.c **** 
 326:..\Common\Minimal/GenQTest.c **** 
 327:..\Common\Minimal/GenQTest.c **** 			/* Now try receiving the data for real.  The value should be the
 328:..\Common\Minimal/GenQTest.c **** 			same.  Clobber the value first so we know we really received it. */
 329:..\Common\Minimal/GenQTest.c **** 			ulData2 = ~ulData2;
 423              		.loc 1 329 0
 424 018a FB68     		ldr	r3, [r7, #12]
 425 018c DB43     		mvns	r3, r3
 426 018e FB60     		str	r3, [r7, #12]
 330:..\Common\Minimal/GenQTest.c **** 			if( xQueueReceive( xQueue, &ulData2, intsemNO_BLOCK ) != pdPASS )
 427              		.loc 1 330 0
 428 0190 07F10C01 		add	r1, r7, #12
 429 0194 0023     		movs	r3, #0
 430 0196 0022     		movs	r2, #0
 431 0198 7869     		ldr	r0, [r7, #20]
 432 019a FFF7FEFF 		bl	xQueueGenericReceive
 433 019e 0346     		mov	r3, r0
 434 01a0 012B     		cmp	r3, #1
 435 01a2 02D0     		beq	.L25
 331:..\Common\Minimal/GenQTest.c **** 			{
 332:..\Common\Minimal/GenQTest.c **** 				xErrorDetected = pdTRUE;
 436              		.loc 1 332 0
 437 01a4 3E4B     		ldr	r3, .L44+4
 438 01a6 0122     		movs	r2, #1
 439 01a8 1A60     		str	r2, [r3]
 440              	.L25:
 333:..\Common\Minimal/GenQTest.c **** 			}
 334:..\Common\Minimal/GenQTest.c **** 
 335:..\Common\Minimal/GenQTest.c **** 			if( ulData != ulData2 )
 441              		.loc 1 335 0
 442 01aa 3A69     		ldr	r2, [r7, #16]
 443 01ac FB68     		ldr	r3, [r7, #12]
 444 01ae 9A42     		cmp	r2, r3
 445 01b0 02D0     		beq	.L26
 336:..\Common\Minimal/GenQTest.c **** 			{
 337:..\Common\Minimal/GenQTest.c **** 				xErrorDetected = pdTRUE;
 446              		.loc 1 337 0
 447 01b2 3B4B     		ldr	r3, .L44+4
 448 01b4 0122     		movs	r2, #1
 449 01b6 1A60     		str	r2, [r3]
ARM GAS  C:\Users\THUNDE~1\AppData\Local\Temp\ccFIS02E.s 			page 15


 450              	.L26:
 313:..\Common\Minimal/GenQTest.c **** 		{
 451              		.loc 1 313 0 discriminator 2
 452 01b8 3B69     		ldr	r3, [r7, #16]
 453 01ba 0133     		adds	r3, r3, #1
 454 01bc 3B61     		str	r3, [r7, #16]
 455              	.L22:
 313:..\Common\Minimal/GenQTest.c **** 		{
 456              		.loc 1 313 0 is_stmt 0 discriminator 1
 457 01be 3B69     		ldr	r3, [r7, #16]
 458 01c0 042B     		cmp	r3, #4
 459 01c2 CED9     		bls	.L27
 338:..\Common\Minimal/GenQTest.c **** 			}
 339:..\Common\Minimal/GenQTest.c **** 		}
 340:..\Common\Minimal/GenQTest.c **** 
 341:..\Common\Minimal/GenQTest.c **** 		/* The queue should now be empty again. */
 342:..\Common\Minimal/GenQTest.c **** 		if( uxQueueMessagesWaiting( xQueue ) != 0 )
 460              		.loc 1 342 0 is_stmt 1
 461 01c4 7869     		ldr	r0, [r7, #20]
 462 01c6 FFF7FEFF 		bl	uxQueueMessagesWaiting
 463 01ca 0346     		mov	r3, r0
 464 01cc 002B     		cmp	r3, #0
 465 01ce 02D0     		beq	.L28
 343:..\Common\Minimal/GenQTest.c **** 		{
 344:..\Common\Minimal/GenQTest.c **** 			xErrorDetected = pdTRUE;
 466              		.loc 1 344 0
 467 01d0 334B     		ldr	r3, .L44+4
 468 01d2 0122     		movs	r2, #1
 469 01d4 1A60     		str	r2, [r3]
 470              	.L28:
 345:..\Common\Minimal/GenQTest.c **** 		}
 346:..\Common\Minimal/GenQTest.c **** 
 347:..\Common\Minimal/GenQTest.c **** 		#if configUSE_PREEMPTION == 0
 348:..\Common\Minimal/GenQTest.c **** 			taskYIELD();
 349:..\Common\Minimal/GenQTest.c **** 		#endif
 350:..\Common\Minimal/GenQTest.c **** 
 351:..\Common\Minimal/GenQTest.c **** 
 352:..\Common\Minimal/GenQTest.c **** 		/* Our queue is empty once more, add 10, 11 to the back. */
 353:..\Common\Minimal/GenQTest.c **** 		ulData = 10;
 471              		.loc 1 353 0
 472 01d6 0A23     		movs	r3, #10
 473 01d8 3B61     		str	r3, [r7, #16]
 354:..\Common\Minimal/GenQTest.c **** 		if( xQueueSend( xQueue, &ulData, intsemNO_BLOCK ) != pdPASS )
 474              		.loc 1 354 0
 475 01da 07F11001 		add	r1, r7, #16
 476 01de 0023     		movs	r3, #0
 477 01e0 0022     		movs	r2, #0
 478 01e2 7869     		ldr	r0, [r7, #20]
 479 01e4 FFF7FEFF 		bl	xQueueGenericSend
 480 01e8 0346     		mov	r3, r0
 481 01ea 012B     		cmp	r3, #1
 482 01ec 02D0     		beq	.L29
 355:..\Common\Minimal/GenQTest.c **** 		{
 356:..\Common\Minimal/GenQTest.c **** 			xErrorDetected = pdTRUE;
 483              		.loc 1 356 0
 484 01ee 2C4B     		ldr	r3, .L44+4
 485 01f0 0122     		movs	r2, #1
ARM GAS  C:\Users\THUNDE~1\AppData\Local\Temp\ccFIS02E.s 			page 16


 486 01f2 1A60     		str	r2, [r3]
 487              	.L29:
 357:..\Common\Minimal/GenQTest.c **** 		}
 358:..\Common\Minimal/GenQTest.c **** 		ulData = 11;
 488              		.loc 1 358 0
 489 01f4 0B23     		movs	r3, #11
 490 01f6 3B61     		str	r3, [r7, #16]
 359:..\Common\Minimal/GenQTest.c **** 		if( xQueueSend( xQueue, &ulData, intsemNO_BLOCK ) != pdPASS )
 491              		.loc 1 359 0
 492 01f8 07F11001 		add	r1, r7, #16
 493 01fc 0023     		movs	r3, #0
 494 01fe 0022     		movs	r2, #0
 495 0200 7869     		ldr	r0, [r7, #20]
 496 0202 FFF7FEFF 		bl	xQueueGenericSend
 497 0206 0346     		mov	r3, r0
 498 0208 012B     		cmp	r3, #1
 499 020a 02D0     		beq	.L30
 360:..\Common\Minimal/GenQTest.c **** 		{
 361:..\Common\Minimal/GenQTest.c **** 			xErrorDetected = pdTRUE;
 500              		.loc 1 361 0
 501 020c 244B     		ldr	r3, .L44+4
 502 020e 0122     		movs	r2, #1
 503 0210 1A60     		str	r2, [r3]
 504              	.L30:
 362:..\Common\Minimal/GenQTest.c **** 		}
 363:..\Common\Minimal/GenQTest.c **** 
 364:..\Common\Minimal/GenQTest.c **** 		if( uxQueueMessagesWaiting( xQueue ) != 2 )
 505              		.loc 1 364 0
 506 0212 7869     		ldr	r0, [r7, #20]
 507 0214 FFF7FEFF 		bl	uxQueueMessagesWaiting
 508 0218 0346     		mov	r3, r0
 509 021a 022B     		cmp	r3, #2
 510 021c 02D0     		beq	.L31
 365:..\Common\Minimal/GenQTest.c **** 		{
 366:..\Common\Minimal/GenQTest.c **** 			xErrorDetected = pdTRUE;
 511              		.loc 1 366 0
 512 021e 204B     		ldr	r3, .L44+4
 513 0220 0122     		movs	r2, #1
 514 0222 1A60     		str	r2, [r3]
 515              	.L31:
 367:..\Common\Minimal/GenQTest.c **** 		}
 368:..\Common\Minimal/GenQTest.c **** 
 369:..\Common\Minimal/GenQTest.c **** 		/* Now we should have 10, 11 in the queue.  Add 7, 8, 9 to the
 370:..\Common\Minimal/GenQTest.c **** 		front. */
 371:..\Common\Minimal/GenQTest.c **** 		for( ulData = 9; ulData >= 7; ulData-- )
 516              		.loc 1 371 0
 517 0224 0923     		movs	r3, #9
 518 0226 3B61     		str	r3, [r7, #16]
 519 0228 0FE0     		b	.L32
 520              	.L34:
 372:..\Common\Minimal/GenQTest.c **** 		{
 373:..\Common\Minimal/GenQTest.c **** 			if( xQueueSendToFront( xQueue, ( void * ) &ulData, intsemNO_BLOCK ) != pdPASS )
 521              		.loc 1 373 0
 522 022a 07F11001 		add	r1, r7, #16
 523 022e 0123     		movs	r3, #1
 524 0230 0022     		movs	r2, #0
 525 0232 7869     		ldr	r0, [r7, #20]
ARM GAS  C:\Users\THUNDE~1\AppData\Local\Temp\ccFIS02E.s 			page 17


 526 0234 FFF7FEFF 		bl	xQueueGenericSend
 527 0238 0346     		mov	r3, r0
 528 023a 012B     		cmp	r3, #1
 529 023c 02D0     		beq	.L33
 374:..\Common\Minimal/GenQTest.c **** 			{
 375:..\Common\Minimal/GenQTest.c **** 				xErrorDetected = pdTRUE;
 530              		.loc 1 375 0
 531 023e 184B     		ldr	r3, .L44+4
 532 0240 0122     		movs	r2, #1
 533 0242 1A60     		str	r2, [r3]
 534              	.L33:
 371:..\Common\Minimal/GenQTest.c **** 		{
 535              		.loc 1 371 0 discriminator 2
 536 0244 3B69     		ldr	r3, [r7, #16]
 537 0246 013B     		subs	r3, r3, #1
 538 0248 3B61     		str	r3, [r7, #16]
 539              	.L32:
 371:..\Common\Minimal/GenQTest.c **** 		{
 540              		.loc 1 371 0 is_stmt 0 discriminator 1
 541 024a 3B69     		ldr	r3, [r7, #16]
 542 024c 062B     		cmp	r3, #6
 543 024e ECD8     		bhi	.L34
 376:..\Common\Minimal/GenQTest.c **** 			}
 377:..\Common\Minimal/GenQTest.c **** 		}
 378:..\Common\Minimal/GenQTest.c **** 
 379:..\Common\Minimal/GenQTest.c **** 		/* Now check that the queue is full, and that receiving data provides
 380:..\Common\Minimal/GenQTest.c **** 		the expected sequence of 7, 8, 9, 10, 11. */
 381:..\Common\Minimal/GenQTest.c **** 		if( uxQueueMessagesWaiting( xQueue ) != 5 )
 544              		.loc 1 381 0 is_stmt 1
 545 0250 7869     		ldr	r0, [r7, #20]
 546 0252 FFF7FEFF 		bl	uxQueueMessagesWaiting
 547 0256 0346     		mov	r3, r0
 548 0258 052B     		cmp	r3, #5
 549 025a 02D0     		beq	.L35
 382:..\Common\Minimal/GenQTest.c **** 		{
 383:..\Common\Minimal/GenQTest.c **** 			xErrorDetected = pdTRUE;
 550              		.loc 1 383 0
 551 025c 104B     		ldr	r3, .L44+4
 552 025e 0122     		movs	r2, #1
 553 0260 1A60     		str	r2, [r3]
 554              	.L35:
 384:..\Common\Minimal/GenQTest.c **** 		}
 385:..\Common\Minimal/GenQTest.c **** 
 386:..\Common\Minimal/GenQTest.c **** 		if( xQueueSendToFront( xQueue, ( void * ) &ulData, intsemNO_BLOCK ) != errQUEUE_FULL )
 555              		.loc 1 386 0
 556 0262 07F11001 		add	r1, r7, #16
 557 0266 0123     		movs	r3, #1
 558 0268 0022     		movs	r2, #0
 559 026a 7869     		ldr	r0, [r7, #20]
 560 026c FFF7FEFF 		bl	xQueueGenericSend
 561 0270 0346     		mov	r3, r0
 562 0272 002B     		cmp	r3, #0
 563 0274 02D0     		beq	.L36
 387:..\Common\Minimal/GenQTest.c **** 		{
 388:..\Common\Minimal/GenQTest.c **** 			xErrorDetected = pdTRUE;
 564              		.loc 1 388 0
 565 0276 0A4B     		ldr	r3, .L44+4
ARM GAS  C:\Users\THUNDE~1\AppData\Local\Temp\ccFIS02E.s 			page 18


 566 0278 0122     		movs	r2, #1
 567 027a 1A60     		str	r2, [r3]
 568              	.L36:
 389:..\Common\Minimal/GenQTest.c **** 		}
 390:..\Common\Minimal/GenQTest.c **** 
 391:..\Common\Minimal/GenQTest.c **** 		if( xQueueSendToBack( xQueue, ( void * ) &ulData, intsemNO_BLOCK ) != errQUEUE_FULL )
 569              		.loc 1 391 0
 570 027c 07F11001 		add	r1, r7, #16
 571 0280 0023     		movs	r3, #0
 572 0282 0022     		movs	r2, #0
 573 0284 7869     		ldr	r0, [r7, #20]
 574 0286 FFF7FEFF 		bl	xQueueGenericSend
 575 028a 0346     		mov	r3, r0
 576 028c 002B     		cmp	r3, #0
 577 028e 02D0     		beq	.L37
 392:..\Common\Minimal/GenQTest.c **** 		{
 393:..\Common\Minimal/GenQTest.c **** 			xErrorDetected = pdTRUE;
 578              		.loc 1 393 0
 579 0290 034B     		ldr	r3, .L44+4
 580 0292 0122     		movs	r2, #1
 581 0294 1A60     		str	r2, [r3]
 582              	.L37:
 394:..\Common\Minimal/GenQTest.c **** 		}
 395:..\Common\Minimal/GenQTest.c **** 
 396:..\Common\Minimal/GenQTest.c **** 		#if configUSE_PREEMPTION == 0
 397:..\Common\Minimal/GenQTest.c **** 			taskYIELD();
 398:..\Common\Minimal/GenQTest.c **** 		#endif
 399:..\Common\Minimal/GenQTest.c **** 
 400:..\Common\Minimal/GenQTest.c **** 		/* Check the data we read out is in the expected order. */
 401:..\Common\Minimal/GenQTest.c **** 		for( ulData = 7; ulData < ( 7 + genqQUEUE_LENGTH ); ulData++ )
 583              		.loc 1 401 0
 584 0296 0723     		movs	r3, #7
 585 0298 3B61     		str	r3, [r7, #16]
 586 029a 1AE0     		b	.L38
 587              	.L45:
 588              		.align	2
 589              	.L44:
 590 029c 04000000 		.word	ulLoopCounter
 591 02a0 00000000 		.word	xErrorDetected
 592              	.L41:
 402:..\Common\Minimal/GenQTest.c **** 		{
 403:..\Common\Minimal/GenQTest.c **** 			if( xQueueReceive( xQueue, &ulData2, intsemNO_BLOCK ) != pdPASS )
 593              		.loc 1 403 0
 594 02a4 07F10C01 		add	r1, r7, #12
 595 02a8 0023     		movs	r3, #0
 596 02aa 0022     		movs	r2, #0
 597 02ac 7869     		ldr	r0, [r7, #20]
 598 02ae FFF7FEFF 		bl	xQueueGenericReceive
 599 02b2 0346     		mov	r3, r0
 600 02b4 012B     		cmp	r3, #1
 601 02b6 02D0     		beq	.L39
 404:..\Common\Minimal/GenQTest.c **** 			{
 405:..\Common\Minimal/GenQTest.c **** 				xErrorDetected = pdTRUE;
 602              		.loc 1 405 0
 603 02b8 0F4B     		ldr	r3, .L46
 604 02ba 0122     		movs	r2, #1
 605 02bc 1A60     		str	r2, [r3]
ARM GAS  C:\Users\THUNDE~1\AppData\Local\Temp\ccFIS02E.s 			page 19


 606              	.L39:
 406:..\Common\Minimal/GenQTest.c **** 			}
 407:..\Common\Minimal/GenQTest.c **** 
 408:..\Common\Minimal/GenQTest.c **** 			if( ulData != ulData2 )
 607              		.loc 1 408 0
 608 02be 3A69     		ldr	r2, [r7, #16]
 609 02c0 FB68     		ldr	r3, [r7, #12]
 610 02c2 9A42     		cmp	r2, r3
 611 02c4 02D0     		beq	.L40
 409:..\Common\Minimal/GenQTest.c **** 			{
 410:..\Common\Minimal/GenQTest.c **** 				xErrorDetected = pdTRUE;
 612              		.loc 1 410 0
 613 02c6 0C4B     		ldr	r3, .L46
 614 02c8 0122     		movs	r2, #1
 615 02ca 1A60     		str	r2, [r3]
 616              	.L40:
 401:..\Common\Minimal/GenQTest.c **** 		{
 617              		.loc 1 401 0 discriminator 2
 618 02cc 3B69     		ldr	r3, [r7, #16]
 619 02ce 0133     		adds	r3, r3, #1
 620 02d0 3B61     		str	r3, [r7, #16]
 621              	.L38:
 401:..\Common\Minimal/GenQTest.c **** 		{
 622              		.loc 1 401 0 is_stmt 0 discriminator 1
 623 02d2 3B69     		ldr	r3, [r7, #16]
 624 02d4 0B2B     		cmp	r3, #11
 625 02d6 E5D9     		bls	.L41
 411:..\Common\Minimal/GenQTest.c **** 			}
 412:..\Common\Minimal/GenQTest.c **** 		}
 413:..\Common\Minimal/GenQTest.c **** 
 414:..\Common\Minimal/GenQTest.c **** 		if( uxQueueMessagesWaiting( xQueue ) != 0 )
 626              		.loc 1 414 0 is_stmt 1
 627 02d8 7869     		ldr	r0, [r7, #20]
 628 02da FFF7FEFF 		bl	uxQueueMessagesWaiting
 629 02de 0346     		mov	r3, r0
 630 02e0 002B     		cmp	r3, #0
 631 02e2 02D0     		beq	.L42
 415:..\Common\Minimal/GenQTest.c **** 		{
 416:..\Common\Minimal/GenQTest.c **** 			xErrorDetected = pdTRUE;
 632              		.loc 1 416 0
 633 02e4 044B     		ldr	r3, .L46
 634 02e6 0122     		movs	r2, #1
 635 02e8 1A60     		str	r2, [r3]
 636              	.L42:
 417:..\Common\Minimal/GenQTest.c **** 		}
 418:..\Common\Minimal/GenQTest.c **** 
 419:..\Common\Minimal/GenQTest.c **** 		ulLoopCounter++;
 637              		.loc 1 419 0
 638 02ea 044B     		ldr	r3, .L46+4
 639 02ec 1B68     		ldr	r3, [r3]
 640 02ee 0133     		adds	r3, r3, #1
 641 02f0 024A     		ldr	r2, .L46+4
 642 02f2 1360     		str	r3, [r2]
 420:..\Common\Minimal/GenQTest.c **** 	}
 643              		.loc 1 420 0
 644 02f4 8AE6     		b	.L43
 645              	.L47:
ARM GAS  C:\Users\THUNDE~1\AppData\Local\Temp\ccFIS02E.s 			page 20


 646 02f6 00BF     		.align	2
 647              	.L46:
 648 02f8 00000000 		.word	xErrorDetected
 649 02fc 04000000 		.word	ulLoopCounter
 650              		.cfi_endproc
 651              	.LFE69:
 652              		.size	prvSendFrontAndBackTest, .-prvSendFrontAndBackTest
 653              		.section	.text.prvTakeTwoMutexesReturnInDifferentOrder,"ax",%progbits
 654              		.align	2
 655              		.thumb
 656              		.thumb_func
 657              		.type	prvTakeTwoMutexesReturnInDifferentOrder, %function
 658              	prvTakeTwoMutexesReturnInDifferentOrder:
 659              	.LFB70:
 421:..\Common\Minimal/GenQTest.c **** }
 422:..\Common\Minimal/GenQTest.c **** /*-----------------------------------------------------------*/
 423:..\Common\Minimal/GenQTest.c **** 
 424:..\Common\Minimal/GenQTest.c **** static void prvTakeTwoMutexesReturnInDifferentOrder( SemaphoreHandle_t xMutex, SemaphoreHandle_t xL
 425:..\Common\Minimal/GenQTest.c **** {
 660              		.loc 1 425 0
 661              		.cfi_startproc
 662              		@ args = 0, pretend = 0, frame = 8
 663              		@ frame_needed = 1, uses_anonymous_args = 0
 664 0000 80B5     		push	{r7, lr}
 665              		.cfi_def_cfa_offset 8
 666              		.cfi_offset 7, -8
 667              		.cfi_offset 14, -4
 668 0002 82B0     		sub	sp, sp, #8
 669              		.cfi_def_cfa_offset 16
 670 0004 00AF     		add	r7, sp, #0
 671              		.cfi_def_cfa_register 7
 672 0006 7860     		str	r0, [r7, #4]
 673 0008 3960     		str	r1, [r7]
 426:..\Common\Minimal/GenQTest.c **** 	/* Take the mutex.  It should be available now. */
 427:..\Common\Minimal/GenQTest.c **** 	if( xSemaphoreTake( xMutex, intsemNO_BLOCK ) != pdPASS )
 674              		.loc 1 427 0
 675 000a 0023     		movs	r3, #0
 676 000c 0022     		movs	r2, #0
 677 000e 0021     		movs	r1, #0
 678 0010 7868     		ldr	r0, [r7, #4]
 679 0012 FFF7FEFF 		bl	xQueueGenericReceive
 680 0016 0346     		mov	r3, r0
 681 0018 012B     		cmp	r3, #1
 682 001a 02D0     		beq	.L49
 428:..\Common\Minimal/GenQTest.c **** 	{
 429:..\Common\Minimal/GenQTest.c **** 		xErrorDetected = pdTRUE;
 683              		.loc 1 429 0
 684 001c 404B     		ldr	r3, .L61
 685 001e 0122     		movs	r2, #1
 686 0020 1A60     		str	r2, [r3]
 687              	.L49:
 430:..\Common\Minimal/GenQTest.c **** 	}
 431:..\Common\Minimal/GenQTest.c **** 
 432:..\Common\Minimal/GenQTest.c **** 	/* Set the guarded variable to a known start value. */
 433:..\Common\Minimal/GenQTest.c **** 	ulGuardedVariable = 0;
 688              		.loc 1 433 0
 689 0022 404B     		ldr	r3, .L61+4
ARM GAS  C:\Users\THUNDE~1\AppData\Local\Temp\ccFIS02E.s 			page 21


 690 0024 0022     		movs	r2, #0
 691 0026 1A60     		str	r2, [r3]
 434:..\Common\Minimal/GenQTest.c **** 
 435:..\Common\Minimal/GenQTest.c **** 	/* This task's priority should be as per that assigned when the task was
 436:..\Common\Minimal/GenQTest.c **** 	created. */
 437:..\Common\Minimal/GenQTest.c **** 	if( uxTaskPriorityGet( NULL ) != genqMUTEX_LOW_PRIORITY )
 692              		.loc 1 437 0
 693 0028 0020     		movs	r0, #0
 694 002a FFF7FEFF 		bl	uxTaskPriorityGet
 695 002e 0346     		mov	r3, r0
 696 0030 002B     		cmp	r3, #0
 697 0032 02D0     		beq	.L50
 438:..\Common\Minimal/GenQTest.c **** 	{
 439:..\Common\Minimal/GenQTest.c **** 		xErrorDetected = pdTRUE;
 698              		.loc 1 439 0
 699 0034 3A4B     		ldr	r3, .L61
 700 0036 0122     		movs	r2, #1
 701 0038 1A60     		str	r2, [r3]
 702              	.L50:
 440:..\Common\Minimal/GenQTest.c **** 	}
 441:..\Common\Minimal/GenQTest.c **** 
 442:..\Common\Minimal/GenQTest.c **** 	/* Now unsuspend the high priority task.  This will attempt to take the
 443:..\Common\Minimal/GenQTest.c **** 	mutex, and block when it finds it cannot obtain it. */
 444:..\Common\Minimal/GenQTest.c **** 	vTaskResume( xHighPriorityMutexTask );
 703              		.loc 1 444 0
 704 003a 3B4B     		ldr	r3, .L61+8
 705 003c 1B68     		ldr	r3, [r3]
 706 003e 1846     		mov	r0, r3
 707 0040 FFF7FEFF 		bl	vTaskResume
 445:..\Common\Minimal/GenQTest.c **** 
 446:..\Common\Minimal/GenQTest.c **** 	#if configUSE_PREEMPTION == 0
 447:..\Common\Minimal/GenQTest.c **** 		taskYIELD();
 448:..\Common\Minimal/GenQTest.c **** 	#endif
 449:..\Common\Minimal/GenQTest.c **** 
 450:..\Common\Minimal/GenQTest.c **** 	/* Ensure the task is reporting its priority as blocked and not
 451:..\Common\Minimal/GenQTest.c **** 	suspended (as it would have done in versions up to V7.5.3). */
 452:..\Common\Minimal/GenQTest.c **** 	#if( INCLUDE_eTaskGetState == 1 )
 453:..\Common\Minimal/GenQTest.c **** 	{
 454:..\Common\Minimal/GenQTest.c **** 		configASSERT( eTaskGetState( xHighPriorityMutexTask ) == eBlocked );
 455:..\Common\Minimal/GenQTest.c **** 	}
 456:..\Common\Minimal/GenQTest.c **** 	#endif /* INCLUDE_eTaskGetState */
 457:..\Common\Minimal/GenQTest.c **** 
 458:..\Common\Minimal/GenQTest.c **** 	/* The priority of the high priority task should now have been inherited
 459:..\Common\Minimal/GenQTest.c **** 	as by now it will have attempted to get the mutex. */
 460:..\Common\Minimal/GenQTest.c **** 	if( uxTaskPriorityGet( NULL ) != genqMUTEX_HIGH_PRIORITY )
 708              		.loc 1 460 0
 709 0044 0020     		movs	r0, #0
 710 0046 FFF7FEFF 		bl	uxTaskPriorityGet
 711 004a 0346     		mov	r3, r0
 712 004c 032B     		cmp	r3, #3
 713 004e 02D0     		beq	.L51
 461:..\Common\Minimal/GenQTest.c **** 	{
 462:..\Common\Minimal/GenQTest.c **** 		xErrorDetected = pdTRUE;
 714              		.loc 1 462 0
 715 0050 334B     		ldr	r3, .L61
 716 0052 0122     		movs	r2, #1
 717 0054 1A60     		str	r2, [r3]
ARM GAS  C:\Users\THUNDE~1\AppData\Local\Temp\ccFIS02E.s 			page 22


 718              	.L51:
 463:..\Common\Minimal/GenQTest.c **** 	}
 464:..\Common\Minimal/GenQTest.c **** 
 465:..\Common\Minimal/GenQTest.c **** 	/* Attempt to set the priority of this task to the test priority -
 466:..\Common\Minimal/GenQTest.c **** 	between the	idle priority and the medium/high test priorities, but the
 467:..\Common\Minimal/GenQTest.c **** 	actual priority should remain at the high priority. */
 468:..\Common\Minimal/GenQTest.c **** 	vTaskPrioritySet( NULL, genqMUTEX_TEST_PRIORITY );
 719              		.loc 1 468 0
 720 0056 0121     		movs	r1, #1
 721 0058 0020     		movs	r0, #0
 722 005a FFF7FEFF 		bl	vTaskPrioritySet
 469:..\Common\Minimal/GenQTest.c **** 	if( uxTaskPriorityGet( NULL ) != genqMUTEX_HIGH_PRIORITY )
 723              		.loc 1 469 0
 724 005e 0020     		movs	r0, #0
 725 0060 FFF7FEFF 		bl	uxTaskPriorityGet
 726 0064 0346     		mov	r3, r0
 727 0066 032B     		cmp	r3, #3
 728 0068 02D0     		beq	.L52
 470:..\Common\Minimal/GenQTest.c **** 	{
 471:..\Common\Minimal/GenQTest.c **** 		xErrorDetected = pdTRUE;
 729              		.loc 1 471 0
 730 006a 2D4B     		ldr	r3, .L61
 731 006c 0122     		movs	r2, #1
 732 006e 1A60     		str	r2, [r3]
 733              	.L52:
 472:..\Common\Minimal/GenQTest.c **** 	}
 473:..\Common\Minimal/GenQTest.c **** 
 474:..\Common\Minimal/GenQTest.c **** 	/* Now unsuspend the medium priority task.  This should not run as the
 475:..\Common\Minimal/GenQTest.c **** 	inherited priority of this task is above that of the medium priority
 476:..\Common\Minimal/GenQTest.c **** 	task. */
 477:..\Common\Minimal/GenQTest.c **** 	vTaskResume( xMediumPriorityMutexTask );
 734              		.loc 1 477 0
 735 0070 2E4B     		ldr	r3, .L61+12
 736 0072 1B68     		ldr	r3, [r3]
 737 0074 1846     		mov	r0, r3
 738 0076 FFF7FEFF 		bl	vTaskResume
 478:..\Common\Minimal/GenQTest.c **** 
 479:..\Common\Minimal/GenQTest.c **** 	/* If the medium priority task did run then it will have incremented the
 480:..\Common\Minimal/GenQTest.c **** 	guarded variable. */
 481:..\Common\Minimal/GenQTest.c **** 	if( ulGuardedVariable != 0 )
 739              		.loc 1 481 0
 740 007a 2A4B     		ldr	r3, .L61+4
 741 007c 1B68     		ldr	r3, [r3]
 742 007e 002B     		cmp	r3, #0
 743 0080 02D0     		beq	.L53
 482:..\Common\Minimal/GenQTest.c **** 	{
 483:..\Common\Minimal/GenQTest.c **** 		xErrorDetected = pdTRUE;
 744              		.loc 1 483 0
 745 0082 274B     		ldr	r3, .L61
 746 0084 0122     		movs	r2, #1
 747 0086 1A60     		str	r2, [r3]
 748              	.L53:
 484:..\Common\Minimal/GenQTest.c **** 	}
 485:..\Common\Minimal/GenQTest.c **** 
 486:..\Common\Minimal/GenQTest.c **** 	/* Take the local mutex too, so two mutexes are now held. */
 487:..\Common\Minimal/GenQTest.c **** 	if( xSemaphoreTake( xLocalMutex, intsemNO_BLOCK ) != pdPASS )
 749              		.loc 1 487 0
ARM GAS  C:\Users\THUNDE~1\AppData\Local\Temp\ccFIS02E.s 			page 23


 750 0088 0023     		movs	r3, #0
 751 008a 0022     		movs	r2, #0
 752 008c 0021     		movs	r1, #0
 753 008e 3868     		ldr	r0, [r7]
 754 0090 FFF7FEFF 		bl	xQueueGenericReceive
 755 0094 0346     		mov	r3, r0
 756 0096 012B     		cmp	r3, #1
 757 0098 02D0     		beq	.L54
 488:..\Common\Minimal/GenQTest.c **** 	{
 489:..\Common\Minimal/GenQTest.c **** 		xErrorDetected = pdTRUE;
 758              		.loc 1 489 0
 759 009a 214B     		ldr	r3, .L61
 760 009c 0122     		movs	r2, #1
 761 009e 1A60     		str	r2, [r3]
 762              	.L54:
 490:..\Common\Minimal/GenQTest.c **** 	}
 491:..\Common\Minimal/GenQTest.c **** 
 492:..\Common\Minimal/GenQTest.c **** 	/* When the semaphore is given back the priority of this task should not
 493:..\Common\Minimal/GenQTest.c **** 	yet be disinherited because the local mutex is still held.  This is a
 494:..\Common\Minimal/GenQTest.c **** 	simplification to allow FreeRTOS to be integrated with middleware that
 495:..\Common\Minimal/GenQTest.c **** 	attempts to hold multiple mutexes without bloating the code with complex
 496:..\Common\Minimal/GenQTest.c **** 	algorithms.  It is possible that the high priority mutex task will
 497:..\Common\Minimal/GenQTest.c **** 	execute as it shares a priority with this task. */
 498:..\Common\Minimal/GenQTest.c **** 	if( xSemaphoreGive( xMutex ) != pdPASS )
 763              		.loc 1 498 0
 764 00a0 0023     		movs	r3, #0
 765 00a2 0022     		movs	r2, #0
 766 00a4 0021     		movs	r1, #0
 767 00a6 7868     		ldr	r0, [r7, #4]
 768 00a8 FFF7FEFF 		bl	xQueueGenericSend
 769 00ac 0346     		mov	r3, r0
 770 00ae 012B     		cmp	r3, #1
 771 00b0 02D0     		beq	.L55
 499:..\Common\Minimal/GenQTest.c **** 	{
 500:..\Common\Minimal/GenQTest.c **** 		xErrorDetected = pdTRUE;
 772              		.loc 1 500 0
 773 00b2 1B4B     		ldr	r3, .L61
 774 00b4 0122     		movs	r2, #1
 775 00b6 1A60     		str	r2, [r3]
 776              	.L55:
 501:..\Common\Minimal/GenQTest.c **** 	}
 502:..\Common\Minimal/GenQTest.c **** 
 503:..\Common\Minimal/GenQTest.c **** 	#if configUSE_PREEMPTION == 0
 504:..\Common\Minimal/GenQTest.c **** 		taskYIELD();
 505:..\Common\Minimal/GenQTest.c **** 	#endif
 506:..\Common\Minimal/GenQTest.c **** 
 507:..\Common\Minimal/GenQTest.c **** 	/* The guarded variable is only incremented by the medium priority task,
 508:..\Common\Minimal/GenQTest.c **** 	which still should not have executed as this task should remain at the
 509:..\Common\Minimal/GenQTest.c **** 	higher priority, ensure this is the case. */
 510:..\Common\Minimal/GenQTest.c **** 	if( ulGuardedVariable != 0 )
 777              		.loc 1 510 0
 778 00b8 1A4B     		ldr	r3, .L61+4
 779 00ba 1B68     		ldr	r3, [r3]
 780 00bc 002B     		cmp	r3, #0
 781 00be 02D0     		beq	.L56
 511:..\Common\Minimal/GenQTest.c **** 	{
 512:..\Common\Minimal/GenQTest.c **** 		xErrorDetected = pdTRUE;
ARM GAS  C:\Users\THUNDE~1\AppData\Local\Temp\ccFIS02E.s 			page 24


 782              		.loc 1 512 0
 783 00c0 174B     		ldr	r3, .L61
 784 00c2 0122     		movs	r2, #1
 785 00c4 1A60     		str	r2, [r3]
 786              	.L56:
 513:..\Common\Minimal/GenQTest.c **** 	}
 514:..\Common\Minimal/GenQTest.c **** 
 515:..\Common\Minimal/GenQTest.c **** 	if( uxTaskPriorityGet( NULL ) != genqMUTEX_HIGH_PRIORITY )
 787              		.loc 1 515 0
 788 00c6 0020     		movs	r0, #0
 789 00c8 FFF7FEFF 		bl	uxTaskPriorityGet
 790 00cc 0346     		mov	r3, r0
 791 00ce 032B     		cmp	r3, #3
 792 00d0 02D0     		beq	.L57
 516:..\Common\Minimal/GenQTest.c **** 	{
 517:..\Common\Minimal/GenQTest.c **** 		xErrorDetected = pdTRUE;
 793              		.loc 1 517 0
 794 00d2 134B     		ldr	r3, .L61
 795 00d4 0122     		movs	r2, #1
 796 00d6 1A60     		str	r2, [r3]
 797              	.L57:
 518:..\Common\Minimal/GenQTest.c **** 	}
 519:..\Common\Minimal/GenQTest.c **** 
 520:..\Common\Minimal/GenQTest.c **** 	/* Now also give back the local mutex, taking the held count back to 0.
 521:..\Common\Minimal/GenQTest.c **** 	This time the priority of this task should be disinherited back to the
 522:..\Common\Minimal/GenQTest.c **** 	priority to which it was set while the mutex was held.  This means
 523:..\Common\Minimal/GenQTest.c **** 	the medium priority task should execute and increment the guarded
 524:..\Common\Minimal/GenQTest.c **** 	variable.   When this task next	runs both the high and medium priority
 525:..\Common\Minimal/GenQTest.c **** 	tasks will have been suspended again. */
 526:..\Common\Minimal/GenQTest.c **** 	if( xSemaphoreGive( xLocalMutex ) != pdPASS )
 798              		.loc 1 526 0
 799 00d8 0023     		movs	r3, #0
 800 00da 0022     		movs	r2, #0
 801 00dc 0021     		movs	r1, #0
 802 00de 3868     		ldr	r0, [r7]
 803 00e0 FFF7FEFF 		bl	xQueueGenericSend
 804 00e4 0346     		mov	r3, r0
 805 00e6 012B     		cmp	r3, #1
 806 00e8 02D0     		beq	.L58
 527:..\Common\Minimal/GenQTest.c **** 	{
 528:..\Common\Minimal/GenQTest.c **** 		xErrorDetected = pdTRUE;
 807              		.loc 1 528 0
 808 00ea 0D4B     		ldr	r3, .L61
 809 00ec 0122     		movs	r2, #1
 810 00ee 1A60     		str	r2, [r3]
 811              	.L58:
 529:..\Common\Minimal/GenQTest.c **** 	}
 530:..\Common\Minimal/GenQTest.c **** 
 531:..\Common\Minimal/GenQTest.c **** 	#if configUSE_PREEMPTION == 0
 532:..\Common\Minimal/GenQTest.c **** 		taskYIELD();
 533:..\Common\Minimal/GenQTest.c **** 	#endif
 534:..\Common\Minimal/GenQTest.c **** 
 535:..\Common\Minimal/GenQTest.c **** 	/* Check the guarded variable did indeed increment... */
 536:..\Common\Minimal/GenQTest.c **** 	if( ulGuardedVariable != 1 )
 812              		.loc 1 536 0
 813 00f0 0C4B     		ldr	r3, .L61+4
 814 00f2 1B68     		ldr	r3, [r3]
ARM GAS  C:\Users\THUNDE~1\AppData\Local\Temp\ccFIS02E.s 			page 25


 815 00f4 012B     		cmp	r3, #1
 816 00f6 02D0     		beq	.L59
 537:..\Common\Minimal/GenQTest.c **** 	{
 538:..\Common\Minimal/GenQTest.c **** 		xErrorDetected = pdTRUE;
 817              		.loc 1 538 0
 818 00f8 094B     		ldr	r3, .L61
 819 00fa 0122     		movs	r2, #1
 820 00fc 1A60     		str	r2, [r3]
 821              	.L59:
 539:..\Common\Minimal/GenQTest.c **** 	}
 540:..\Common\Minimal/GenQTest.c **** 
 541:..\Common\Minimal/GenQTest.c **** 	/* ... and that the priority of this task has been disinherited to
 542:..\Common\Minimal/GenQTest.c **** 	genqMUTEX_TEST_PRIORITY. */
 543:..\Common\Minimal/GenQTest.c **** 	if( uxTaskPriorityGet( NULL ) != genqMUTEX_TEST_PRIORITY )
 822              		.loc 1 543 0
 823 00fe 0020     		movs	r0, #0
 824 0100 FFF7FEFF 		bl	uxTaskPriorityGet
 825 0104 0346     		mov	r3, r0
 826 0106 012B     		cmp	r3, #1
 827 0108 02D0     		beq	.L60
 544:..\Common\Minimal/GenQTest.c **** 	{
 545:..\Common\Minimal/GenQTest.c **** 		xErrorDetected = pdTRUE;
 828              		.loc 1 545 0
 829 010a 054B     		ldr	r3, .L61
 830 010c 0122     		movs	r2, #1
 831 010e 1A60     		str	r2, [r3]
 832              	.L60:
 546:..\Common\Minimal/GenQTest.c **** 	}
 547:..\Common\Minimal/GenQTest.c **** 
 548:..\Common\Minimal/GenQTest.c **** 	/* Set the priority of this task back to its original value, ready for
 549:..\Common\Minimal/GenQTest.c **** 	the next loop around this test. */
 550:..\Common\Minimal/GenQTest.c **** 	vTaskPrioritySet( NULL, genqMUTEX_LOW_PRIORITY );
 833              		.loc 1 550 0
 834 0110 0021     		movs	r1, #0
 835 0112 0020     		movs	r0, #0
 836 0114 FFF7FEFF 		bl	vTaskPrioritySet
 551:..\Common\Minimal/GenQTest.c **** }
 837              		.loc 1 551 0
 838 0118 00BF     		nop
 839 011a 0837     		adds	r7, r7, #8
 840              		.cfi_def_cfa_offset 8
 841 011c BD46     		mov	sp, r7
 842              		.cfi_def_cfa_register 13
 843              		@ sp needed
 844 011e 80BD     		pop	{r7, pc}
 845              	.L62:
 846              		.align	2
 847              	.L61:
 848 0120 00000000 		.word	xErrorDetected
 849 0124 0C000000 		.word	ulGuardedVariable
 850 0128 10000000 		.word	xHighPriorityMutexTask
 851 012c 14000000 		.word	xMediumPriorityMutexTask
 852              		.cfi_endproc
 853              	.LFE70:
 854              		.size	prvTakeTwoMutexesReturnInDifferentOrder, .-prvTakeTwoMutexesReturnInDifferentOrder
 855              		.section	.text.prvTakeTwoMutexesReturnInSameOrder,"ax",%progbits
 856              		.align	2
ARM GAS  C:\Users\THUNDE~1\AppData\Local\Temp\ccFIS02E.s 			page 26


 857              		.thumb
 858              		.thumb_func
 859              		.type	prvTakeTwoMutexesReturnInSameOrder, %function
 860              	prvTakeTwoMutexesReturnInSameOrder:
 861              	.LFB71:
 552:..\Common\Minimal/GenQTest.c **** /*-----------------------------------------------------------*/
 553:..\Common\Minimal/GenQTest.c **** 
 554:..\Common\Minimal/GenQTest.c **** static void prvTakeTwoMutexesReturnInSameOrder( SemaphoreHandle_t xMutex, SemaphoreHandle_t xLocalM
 555:..\Common\Minimal/GenQTest.c **** {
 862              		.loc 1 555 0
 863              		.cfi_startproc
 864              		@ args = 0, pretend = 0, frame = 8
 865              		@ frame_needed = 1, uses_anonymous_args = 0
 866 0000 80B5     		push	{r7, lr}
 867              		.cfi_def_cfa_offset 8
 868              		.cfi_offset 7, -8
 869              		.cfi_offset 14, -4
 870 0002 82B0     		sub	sp, sp, #8
 871              		.cfi_def_cfa_offset 16
 872 0004 00AF     		add	r7, sp, #0
 873              		.cfi_def_cfa_register 7
 874 0006 7860     		str	r0, [r7, #4]
 875 0008 3960     		str	r1, [r7]
 556:..\Common\Minimal/GenQTest.c **** 	/* Take the mutex.  It should be available now. */
 557:..\Common\Minimal/GenQTest.c **** 	if( xSemaphoreTake( xMutex, intsemNO_BLOCK ) != pdPASS )
 876              		.loc 1 557 0
 877 000a 0023     		movs	r3, #0
 878 000c 0022     		movs	r2, #0
 879 000e 0021     		movs	r1, #0
 880 0010 7868     		ldr	r0, [r7, #4]
 881 0012 FFF7FEFF 		bl	xQueueGenericReceive
 882 0016 0346     		mov	r3, r0
 883 0018 012B     		cmp	r3, #1
 884 001a 02D0     		beq	.L64
 558:..\Common\Minimal/GenQTest.c **** 	{
 559:..\Common\Minimal/GenQTest.c **** 		xErrorDetected = pdTRUE;
 885              		.loc 1 559 0
 886 001c 384B     		ldr	r3, .L76
 887 001e 0122     		movs	r2, #1
 888 0020 1A60     		str	r2, [r3]
 889              	.L64:
 560:..\Common\Minimal/GenQTest.c **** 	}
 561:..\Common\Minimal/GenQTest.c **** 
 562:..\Common\Minimal/GenQTest.c **** 	/* Set the guarded variable to a known start value. */
 563:..\Common\Minimal/GenQTest.c **** 	ulGuardedVariable = 0;
 890              		.loc 1 563 0
 891 0022 384B     		ldr	r3, .L76+4
 892 0024 0022     		movs	r2, #0
 893 0026 1A60     		str	r2, [r3]
 564:..\Common\Minimal/GenQTest.c **** 
 565:..\Common\Minimal/GenQTest.c **** 	/* This task's priority should be as per that assigned when the task was
 566:..\Common\Minimal/GenQTest.c **** 	created. */
 567:..\Common\Minimal/GenQTest.c **** 	if( uxTaskPriorityGet( NULL ) != genqMUTEX_LOW_PRIORITY )
 894              		.loc 1 567 0
 895 0028 0020     		movs	r0, #0
 896 002a FFF7FEFF 		bl	uxTaskPriorityGet
 897 002e 0346     		mov	r3, r0
ARM GAS  C:\Users\THUNDE~1\AppData\Local\Temp\ccFIS02E.s 			page 27


 898 0030 002B     		cmp	r3, #0
 899 0032 02D0     		beq	.L65
 568:..\Common\Minimal/GenQTest.c **** 	{
 569:..\Common\Minimal/GenQTest.c **** 		xErrorDetected = pdTRUE;
 900              		.loc 1 569 0
 901 0034 324B     		ldr	r3, .L76
 902 0036 0122     		movs	r2, #1
 903 0038 1A60     		str	r2, [r3]
 904              	.L65:
 570:..\Common\Minimal/GenQTest.c **** 	}
 571:..\Common\Minimal/GenQTest.c **** 
 572:..\Common\Minimal/GenQTest.c **** 	/* Now unsuspend the high priority task.  This will attempt to take the
 573:..\Common\Minimal/GenQTest.c **** 	mutex, and block when it finds it cannot obtain it. */
 574:..\Common\Minimal/GenQTest.c **** 	vTaskResume( xHighPriorityMutexTask );
 905              		.loc 1 574 0
 906 003a 334B     		ldr	r3, .L76+8
 907 003c 1B68     		ldr	r3, [r3]
 908 003e 1846     		mov	r0, r3
 909 0040 FFF7FEFF 		bl	vTaskResume
 575:..\Common\Minimal/GenQTest.c **** 
 576:..\Common\Minimal/GenQTest.c **** 	#if configUSE_PREEMPTION == 0
 577:..\Common\Minimal/GenQTest.c **** 		taskYIELD();
 578:..\Common\Minimal/GenQTest.c **** 	#endif
 579:..\Common\Minimal/GenQTest.c **** 
 580:..\Common\Minimal/GenQTest.c **** 	/* Ensure the task is reporting its priority as blocked and not
 581:..\Common\Minimal/GenQTest.c **** 	suspended (as it would have done in versions up to V7.5.3). */
 582:..\Common\Minimal/GenQTest.c **** 	#if( INCLUDE_eTaskGetState == 1 )
 583:..\Common\Minimal/GenQTest.c **** 	{
 584:..\Common\Minimal/GenQTest.c **** 		configASSERT( eTaskGetState( xHighPriorityMutexTask ) == eBlocked );
 585:..\Common\Minimal/GenQTest.c **** 	}
 586:..\Common\Minimal/GenQTest.c **** 	#endif /* INCLUDE_eTaskGetState */
 587:..\Common\Minimal/GenQTest.c **** 
 588:..\Common\Minimal/GenQTest.c **** 	/* The priority of the high priority task should now have been inherited
 589:..\Common\Minimal/GenQTest.c **** 	as by now it will have attempted to get the mutex. */
 590:..\Common\Minimal/GenQTest.c **** 	if( uxTaskPriorityGet( NULL ) != genqMUTEX_HIGH_PRIORITY )
 910              		.loc 1 590 0
 911 0044 0020     		movs	r0, #0
 912 0046 FFF7FEFF 		bl	uxTaskPriorityGet
 913 004a 0346     		mov	r3, r0
 914 004c 032B     		cmp	r3, #3
 915 004e 02D0     		beq	.L66
 591:..\Common\Minimal/GenQTest.c **** 	{
 592:..\Common\Minimal/GenQTest.c **** 		xErrorDetected = pdTRUE;
 916              		.loc 1 592 0
 917 0050 2B4B     		ldr	r3, .L76
 918 0052 0122     		movs	r2, #1
 919 0054 1A60     		str	r2, [r3]
 920              	.L66:
 593:..\Common\Minimal/GenQTest.c **** 	}
 594:..\Common\Minimal/GenQTest.c **** 
 595:..\Common\Minimal/GenQTest.c **** 	/* Now unsuspend the medium priority task.  This should not run as the
 596:..\Common\Minimal/GenQTest.c **** 	inherited priority of this task is above that of the medium priority
 597:..\Common\Minimal/GenQTest.c **** 	task. */
 598:..\Common\Minimal/GenQTest.c **** 	vTaskResume( xMediumPriorityMutexTask );
 921              		.loc 1 598 0
 922 0056 2D4B     		ldr	r3, .L76+12
 923 0058 1B68     		ldr	r3, [r3]
ARM GAS  C:\Users\THUNDE~1\AppData\Local\Temp\ccFIS02E.s 			page 28


 924 005a 1846     		mov	r0, r3
 925 005c FFF7FEFF 		bl	vTaskResume
 599:..\Common\Minimal/GenQTest.c **** 
 600:..\Common\Minimal/GenQTest.c **** 	/* If the medium priority task did run then it will have incremented the
 601:..\Common\Minimal/GenQTest.c **** 	guarded variable. */
 602:..\Common\Minimal/GenQTest.c **** 	if( ulGuardedVariable != 0 )
 926              		.loc 1 602 0
 927 0060 284B     		ldr	r3, .L76+4
 928 0062 1B68     		ldr	r3, [r3]
 929 0064 002B     		cmp	r3, #0
 930 0066 02D0     		beq	.L67
 603:..\Common\Minimal/GenQTest.c **** 	{
 604:..\Common\Minimal/GenQTest.c **** 		xErrorDetected = pdTRUE;
 931              		.loc 1 604 0
 932 0068 254B     		ldr	r3, .L76
 933 006a 0122     		movs	r2, #1
 934 006c 1A60     		str	r2, [r3]
 935              	.L67:
 605:..\Common\Minimal/GenQTest.c **** 	}
 606:..\Common\Minimal/GenQTest.c **** 
 607:..\Common\Minimal/GenQTest.c **** 	/* Take the local mutex too, so two mutexes are now held. */
 608:..\Common\Minimal/GenQTest.c **** 	if( xSemaphoreTake( xLocalMutex, intsemNO_BLOCK ) != pdPASS )
 936              		.loc 1 608 0
 937 006e 0023     		movs	r3, #0
 938 0070 0022     		movs	r2, #0
 939 0072 0021     		movs	r1, #0
 940 0074 3868     		ldr	r0, [r7]
 941 0076 FFF7FEFF 		bl	xQueueGenericReceive
 942 007a 0346     		mov	r3, r0
 943 007c 012B     		cmp	r3, #1
 944 007e 02D0     		beq	.L68
 609:..\Common\Minimal/GenQTest.c **** 	{
 610:..\Common\Minimal/GenQTest.c **** 		xErrorDetected = pdTRUE;
 945              		.loc 1 610 0
 946 0080 1F4B     		ldr	r3, .L76
 947 0082 0122     		movs	r2, #1
 948 0084 1A60     		str	r2, [r3]
 949              	.L68:
 611:..\Common\Minimal/GenQTest.c **** 	}
 612:..\Common\Minimal/GenQTest.c **** 
 613:..\Common\Minimal/GenQTest.c **** 	/* When the local semaphore is given back the priority of this task should
 614:..\Common\Minimal/GenQTest.c **** 	not	yet be disinherited because the shared mutex is still held.  This is a
 615:..\Common\Minimal/GenQTest.c **** 	simplification to allow FreeRTOS to be integrated with middleware that
 616:..\Common\Minimal/GenQTest.c **** 	attempts to hold multiple mutexes without bloating the code with complex
 617:..\Common\Minimal/GenQTest.c **** 	algorithms.  It is possible that the high priority mutex task will
 618:..\Common\Minimal/GenQTest.c **** 	execute as it shares a priority with this task. */
 619:..\Common\Minimal/GenQTest.c **** 	if( xSemaphoreGive( xLocalMutex ) != pdPASS )
 950              		.loc 1 619 0
 951 0086 0023     		movs	r3, #0
 952 0088 0022     		movs	r2, #0
 953 008a 0021     		movs	r1, #0
 954 008c 3868     		ldr	r0, [r7]
 955 008e FFF7FEFF 		bl	xQueueGenericSend
 956 0092 0346     		mov	r3, r0
 957 0094 012B     		cmp	r3, #1
 958 0096 02D0     		beq	.L69
 620:..\Common\Minimal/GenQTest.c **** 	{
ARM GAS  C:\Users\THUNDE~1\AppData\Local\Temp\ccFIS02E.s 			page 29


 621:..\Common\Minimal/GenQTest.c **** 		xErrorDetected = pdTRUE;
 959              		.loc 1 621 0
 960 0098 194B     		ldr	r3, .L76
 961 009a 0122     		movs	r2, #1
 962 009c 1A60     		str	r2, [r3]
 963              	.L69:
 622:..\Common\Minimal/GenQTest.c **** 	}
 623:..\Common\Minimal/GenQTest.c **** 
 624:..\Common\Minimal/GenQTest.c **** 	#if configUSE_PREEMPTION == 0
 625:..\Common\Minimal/GenQTest.c **** 		taskYIELD();
 626:..\Common\Minimal/GenQTest.c **** 	#endif
 627:..\Common\Minimal/GenQTest.c **** 
 628:..\Common\Minimal/GenQTest.c **** 	/* The guarded variable is only incremented by the medium priority task,
 629:..\Common\Minimal/GenQTest.c **** 	which still should not have executed as this task should remain at the
 630:..\Common\Minimal/GenQTest.c **** 	higher priority, ensure this is the case. */
 631:..\Common\Minimal/GenQTest.c **** 	if( ulGuardedVariable != 0 )
 964              		.loc 1 631 0
 965 009e 194B     		ldr	r3, .L76+4
 966 00a0 1B68     		ldr	r3, [r3]
 967 00a2 002B     		cmp	r3, #0
 968 00a4 02D0     		beq	.L70
 632:..\Common\Minimal/GenQTest.c **** 	{
 633:..\Common\Minimal/GenQTest.c **** 		xErrorDetected = pdTRUE;
 969              		.loc 1 633 0
 970 00a6 164B     		ldr	r3, .L76
 971 00a8 0122     		movs	r2, #1
 972 00aa 1A60     		str	r2, [r3]
 973              	.L70:
 634:..\Common\Minimal/GenQTest.c **** 	}
 635:..\Common\Minimal/GenQTest.c **** 
 636:..\Common\Minimal/GenQTest.c **** 	if( uxTaskPriorityGet( NULL ) != genqMUTEX_HIGH_PRIORITY )
 974              		.loc 1 636 0
 975 00ac 0020     		movs	r0, #0
 976 00ae FFF7FEFF 		bl	uxTaskPriorityGet
 977 00b2 0346     		mov	r3, r0
 978 00b4 032B     		cmp	r3, #3
 979 00b6 02D0     		beq	.L71
 637:..\Common\Minimal/GenQTest.c **** 	{
 638:..\Common\Minimal/GenQTest.c **** 		xErrorDetected = pdTRUE;
 980              		.loc 1 638 0
 981 00b8 114B     		ldr	r3, .L76
 982 00ba 0122     		movs	r2, #1
 983 00bc 1A60     		str	r2, [r3]
 984              	.L71:
 639:..\Common\Minimal/GenQTest.c **** 	}
 640:..\Common\Minimal/GenQTest.c **** 
 641:..\Common\Minimal/GenQTest.c **** 	/* Now also give back the shared mutex, taking the held count back to 0.
 642:..\Common\Minimal/GenQTest.c **** 	This time the priority of this task should be disinherited back to the
 643:..\Common\Minimal/GenQTest.c **** 	priority at which it was created.  This means the medium priority task
 644:..\Common\Minimal/GenQTest.c **** 	should execute and increment the guarded variable.  When this task next runs
 645:..\Common\Minimal/GenQTest.c **** 	both the high and medium priority tasks will have been suspended again. */
 646:..\Common\Minimal/GenQTest.c **** 	if( xSemaphoreGive( xMutex ) != pdPASS )
 985              		.loc 1 646 0
 986 00be 0023     		movs	r3, #0
 987 00c0 0022     		movs	r2, #0
 988 00c2 0021     		movs	r1, #0
 989 00c4 7868     		ldr	r0, [r7, #4]
ARM GAS  C:\Users\THUNDE~1\AppData\Local\Temp\ccFIS02E.s 			page 30


 990 00c6 FFF7FEFF 		bl	xQueueGenericSend
 991 00ca 0346     		mov	r3, r0
 992 00cc 012B     		cmp	r3, #1
 993 00ce 02D0     		beq	.L72
 647:..\Common\Minimal/GenQTest.c **** 	{
 648:..\Common\Minimal/GenQTest.c **** 		xErrorDetected = pdTRUE;
 994              		.loc 1 648 0
 995 00d0 0B4B     		ldr	r3, .L76
 996 00d2 0122     		movs	r2, #1
 997 00d4 1A60     		str	r2, [r3]
 998              	.L72:
 649:..\Common\Minimal/GenQTest.c **** 	}
 650:..\Common\Minimal/GenQTest.c **** 
 651:..\Common\Minimal/GenQTest.c **** 	#if configUSE_PREEMPTION == 0
 652:..\Common\Minimal/GenQTest.c **** 		taskYIELD();
 653:..\Common\Minimal/GenQTest.c **** 	#endif
 654:..\Common\Minimal/GenQTest.c **** 
 655:..\Common\Minimal/GenQTest.c **** 	/* Check the guarded variable did indeed increment... */
 656:..\Common\Minimal/GenQTest.c **** 	if( ulGuardedVariable != 1 )
 999              		.loc 1 656 0
 1000 00d6 0B4B     		ldr	r3, .L76+4
 1001 00d8 1B68     		ldr	r3, [r3]
 1002 00da 012B     		cmp	r3, #1
 1003 00dc 02D0     		beq	.L73
 657:..\Common\Minimal/GenQTest.c **** 	{
 658:..\Common\Minimal/GenQTest.c **** 		xErrorDetected = pdTRUE;
 1004              		.loc 1 658 0
 1005 00de 084B     		ldr	r3, .L76
 1006 00e0 0122     		movs	r2, #1
 1007 00e2 1A60     		str	r2, [r3]
 1008              	.L73:
 659:..\Common\Minimal/GenQTest.c **** 	}
 660:..\Common\Minimal/GenQTest.c **** 
 661:..\Common\Minimal/GenQTest.c **** 	/* ... and that the priority of this task has been disinherited to
 662:..\Common\Minimal/GenQTest.c **** 	genqMUTEX_LOW_PRIORITY. */
 663:..\Common\Minimal/GenQTest.c **** 	if( uxTaskPriorityGet( NULL ) != genqMUTEX_LOW_PRIORITY )
 1009              		.loc 1 663 0
 1010 00e4 0020     		movs	r0, #0
 1011 00e6 FFF7FEFF 		bl	uxTaskPriorityGet
 1012 00ea 0346     		mov	r3, r0
 1013 00ec 002B     		cmp	r3, #0
 1014 00ee 02D0     		beq	.L75
 664:..\Common\Minimal/GenQTest.c **** 	{
 665:..\Common\Minimal/GenQTest.c **** 		xErrorDetected = pdTRUE;
 1015              		.loc 1 665 0
 1016 00f0 034B     		ldr	r3, .L76
 1017 00f2 0122     		movs	r2, #1
 1018 00f4 1A60     		str	r2, [r3]
 1019              	.L75:
 666:..\Common\Minimal/GenQTest.c **** 	}
 667:..\Common\Minimal/GenQTest.c **** }
 1020              		.loc 1 667 0
 1021 00f6 00BF     		nop
 1022 00f8 0837     		adds	r7, r7, #8
 1023              		.cfi_def_cfa_offset 8
 1024 00fa BD46     		mov	sp, r7
 1025              		.cfi_def_cfa_register 13
ARM GAS  C:\Users\THUNDE~1\AppData\Local\Temp\ccFIS02E.s 			page 31


 1026              		@ sp needed
 1027 00fc 80BD     		pop	{r7, pc}
 1028              	.L77:
 1029 00fe 00BF     		.align	2
 1030              	.L76:
 1031 0100 00000000 		.word	xErrorDetected
 1032 0104 0C000000 		.word	ulGuardedVariable
 1033 0108 10000000 		.word	xHighPriorityMutexTask
 1034 010c 14000000 		.word	xMediumPriorityMutexTask
 1035              		.cfi_endproc
 1036              	.LFE71:
 1037              		.size	prvTakeTwoMutexesReturnInSameOrder, .-prvTakeTwoMutexesReturnInSameOrder
 1038              		.section	.text.prvLowPriorityMutexTask,"ax",%progbits
 1039              		.align	2
 1040              		.thumb
 1041              		.thumb_func
 1042              		.type	prvLowPriorityMutexTask, %function
 1043              	prvLowPriorityMutexTask:
 1044              	.LFB72:
 668:..\Common\Minimal/GenQTest.c **** /*-----------------------------------------------------------*/
 669:..\Common\Minimal/GenQTest.c **** 
 670:..\Common\Minimal/GenQTest.c **** static void prvLowPriorityMutexTask( void *pvParameters )
 671:..\Common\Minimal/GenQTest.c **** {
 1045              		.loc 1 671 0
 1046              		.cfi_startproc
 1047              		@ args = 0, pretend = 0, frame = 16
 1048              		@ frame_needed = 1, uses_anonymous_args = 0
 1049 0000 80B5     		push	{r7, lr}
 1050              		.cfi_def_cfa_offset 8
 1051              		.cfi_offset 7, -8
 1052              		.cfi_offset 14, -4
 1053 0002 84B0     		sub	sp, sp, #16
 1054              		.cfi_def_cfa_offset 24
 1055 0004 00AF     		add	r7, sp, #0
 1056              		.cfi_def_cfa_register 7
 1057 0006 7860     		str	r0, [r7, #4]
 672:..\Common\Minimal/GenQTest.c **** SemaphoreHandle_t xMutex = ( SemaphoreHandle_t ) pvParameters, xLocalMutex;
 1058              		.loc 1 672 0
 1059 0008 7B68     		ldr	r3, [r7, #4]
 1060 000a FB60     		str	r3, [r7, #12]
 673:..\Common\Minimal/GenQTest.c **** 
 674:..\Common\Minimal/GenQTest.c **** 	#ifdef USE_STDIO
 675:..\Common\Minimal/GenQTest.c **** 	void vPrintDisplayMessage( const char * const * ppcMessageToSend );
 676:..\Common\Minimal/GenQTest.c **** 
 677:..\Common\Minimal/GenQTest.c **** 		const char * const pcTaskStartMsg = "Mutex with priority inheritance test started.\r\n";
 678:..\Common\Minimal/GenQTest.c **** 
 679:..\Common\Minimal/GenQTest.c **** 		/* Queue a message for printing to say the task has started. */
 680:..\Common\Minimal/GenQTest.c **** 		vPrintDisplayMessage( &pcTaskStartMsg );
 681:..\Common\Minimal/GenQTest.c **** 	#endif
 682:..\Common\Minimal/GenQTest.c **** 
 683:..\Common\Minimal/GenQTest.c **** 	/* The local mutex is used to check the 'mutexs held' count. */
 684:..\Common\Minimal/GenQTest.c **** 	xLocalMutex = xSemaphoreCreateMutex();
 1061              		.loc 1 684 0
 1062 000c 0120     		movs	r0, #1
 1063 000e FFF7FEFF 		bl	xQueueCreateMutex
 1064 0012 B860     		str	r0, [r7, #8]
 1065              	.L79:
ARM GAS  C:\Users\THUNDE~1\AppData\Local\Temp\ccFIS02E.s 			page 32


 685:..\Common\Minimal/GenQTest.c **** 	configASSERT( xLocalMutex );
 686:..\Common\Minimal/GenQTest.c **** 
 687:..\Common\Minimal/GenQTest.c **** 	for( ;; )
 688:..\Common\Minimal/GenQTest.c **** 	{
 689:..\Common\Minimal/GenQTest.c **** 		/* The first tests exercise the priority inheritance when two mutexes
 690:..\Common\Minimal/GenQTest.c **** 		are taken then returned in a different order to which they were
 691:..\Common\Minimal/GenQTest.c **** 		taken. */
 692:..\Common\Minimal/GenQTest.c **** 		prvTakeTwoMutexesReturnInDifferentOrder( xMutex, xLocalMutex );
 1066              		.loc 1 692 0 discriminator 1
 1067 0014 B968     		ldr	r1, [r7, #8]
 1068 0016 F868     		ldr	r0, [r7, #12]
 1069 0018 FFF7FEFF 		bl	prvTakeTwoMutexesReturnInDifferentOrder
 693:..\Common\Minimal/GenQTest.c **** 
 694:..\Common\Minimal/GenQTest.c **** 		/* Just to show this task is still running. */
 695:..\Common\Minimal/GenQTest.c **** 		ulLoopCounter2++;
 1070              		.loc 1 695 0 discriminator 1
 1071 001c 074B     		ldr	r3, .L80
 1072 001e 1B68     		ldr	r3, [r3]
 1073 0020 0133     		adds	r3, r3, #1
 1074 0022 064A     		ldr	r2, .L80
 1075 0024 1360     		str	r3, [r2]
 696:..\Common\Minimal/GenQTest.c **** 
 697:..\Common\Minimal/GenQTest.c **** 		#if configUSE_PREEMPTION == 0
 698:..\Common\Minimal/GenQTest.c **** 			taskYIELD();
 699:..\Common\Minimal/GenQTest.c **** 		#endif
 700:..\Common\Minimal/GenQTest.c **** 
 701:..\Common\Minimal/GenQTest.c **** 		/* The second tests exercise the priority inheritance when two mutexes
 702:..\Common\Minimal/GenQTest.c **** 		are taken then returned in the same order in which they were taken. */
 703:..\Common\Minimal/GenQTest.c **** 		prvTakeTwoMutexesReturnInSameOrder( xMutex, xLocalMutex );
 1076              		.loc 1 703 0 discriminator 1
 1077 0026 B968     		ldr	r1, [r7, #8]
 1078 0028 F868     		ldr	r0, [r7, #12]
 1079 002a FFF7FEFF 		bl	prvTakeTwoMutexesReturnInSameOrder
 704:..\Common\Minimal/GenQTest.c **** 
 705:..\Common\Minimal/GenQTest.c **** 		/* Just to show this task is still running. */
 706:..\Common\Minimal/GenQTest.c **** 		ulLoopCounter2++;
 1080              		.loc 1 706 0 discriminator 1
 1081 002e 034B     		ldr	r3, .L80
 1082 0030 1B68     		ldr	r3, [r3]
 1083 0032 0133     		adds	r3, r3, #1
 1084 0034 014A     		ldr	r2, .L80
 1085 0036 1360     		str	r3, [r2]
 707:..\Common\Minimal/GenQTest.c **** 
 708:..\Common\Minimal/GenQTest.c **** 		#if configUSE_PREEMPTION == 0
 709:..\Common\Minimal/GenQTest.c **** 			taskYIELD();
 710:..\Common\Minimal/GenQTest.c **** 		#endif
 711:..\Common\Minimal/GenQTest.c **** 	}
 1086              		.loc 1 711 0 discriminator 1
 1087 0038 ECE7     		b	.L79
 1088              	.L81:
 1089 003a 00BF     		.align	2
 1090              	.L80:
 1091 003c 08000000 		.word	ulLoopCounter2
 1092              		.cfi_endproc
 1093              	.LFE72:
 1094              		.size	prvLowPriorityMutexTask, .-prvLowPriorityMutexTask
 1095              		.section	.text.prvMediumPriorityMutexTask,"ax",%progbits
ARM GAS  C:\Users\THUNDE~1\AppData\Local\Temp\ccFIS02E.s 			page 33


 1096              		.align	2
 1097              		.thumb
 1098              		.thumb_func
 1099              		.type	prvMediumPriorityMutexTask, %function
 1100              	prvMediumPriorityMutexTask:
 1101              	.LFB73:
 712:..\Common\Minimal/GenQTest.c **** }
 713:..\Common\Minimal/GenQTest.c **** /*-----------------------------------------------------------*/
 714:..\Common\Minimal/GenQTest.c **** 
 715:..\Common\Minimal/GenQTest.c **** static void prvMediumPriorityMutexTask( void *pvParameters )
 716:..\Common\Minimal/GenQTest.c **** {
 1102              		.loc 1 716 0
 1103              		.cfi_startproc
 1104              		@ args = 0, pretend = 0, frame = 8
 1105              		@ frame_needed = 1, uses_anonymous_args = 0
 1106 0000 80B5     		push	{r7, lr}
 1107              		.cfi_def_cfa_offset 8
 1108              		.cfi_offset 7, -8
 1109              		.cfi_offset 14, -4
 1110 0002 82B0     		sub	sp, sp, #8
 1111              		.cfi_def_cfa_offset 16
 1112 0004 00AF     		add	r7, sp, #0
 1113              		.cfi_def_cfa_register 7
 1114 0006 7860     		str	r0, [r7, #4]
 1115              	.L83:
 717:..\Common\Minimal/GenQTest.c **** 	( void ) pvParameters;
 718:..\Common\Minimal/GenQTest.c **** 
 719:..\Common\Minimal/GenQTest.c **** 	for( ;; )
 720:..\Common\Minimal/GenQTest.c **** 	{
 721:..\Common\Minimal/GenQTest.c **** 		/* The medium priority task starts by suspending itself.  The low
 722:..\Common\Minimal/GenQTest.c **** 		priority task will unsuspend this task when required. */
 723:..\Common\Minimal/GenQTest.c **** 		vTaskSuspend( NULL );
 1116              		.loc 1 723 0 discriminator 1
 1117 0008 0020     		movs	r0, #0
 1118 000a FFF7FEFF 		bl	vTaskSuspend
 724:..\Common\Minimal/GenQTest.c **** 
 725:..\Common\Minimal/GenQTest.c **** 		/* When this task unsuspends all it does is increment the guarded
 726:..\Common\Minimal/GenQTest.c **** 		variable, this is so the low priority task knows that it has
 727:..\Common\Minimal/GenQTest.c **** 		executed. */
 728:..\Common\Minimal/GenQTest.c **** 		ulGuardedVariable++;
 1119              		.loc 1 728 0 discriminator 1
 1120 000e 034B     		ldr	r3, .L84
 1121 0010 1B68     		ldr	r3, [r3]
 1122 0012 0133     		adds	r3, r3, #1
 1123 0014 014A     		ldr	r2, .L84
 1124 0016 1360     		str	r3, [r2]
 729:..\Common\Minimal/GenQTest.c **** 	}
 1125              		.loc 1 729 0 discriminator 1
 1126 0018 F6E7     		b	.L83
 1127              	.L85:
 1128 001a 00BF     		.align	2
 1129              	.L84:
 1130 001c 0C000000 		.word	ulGuardedVariable
 1131              		.cfi_endproc
 1132              	.LFE73:
 1133              		.size	prvMediumPriorityMutexTask, .-prvMediumPriorityMutexTask
 1134              		.section	.text.prvHighPriorityMutexTask,"ax",%progbits
ARM GAS  C:\Users\THUNDE~1\AppData\Local\Temp\ccFIS02E.s 			page 34


 1135              		.align	2
 1136              		.thumb
 1137              		.thumb_func
 1138              		.type	prvHighPriorityMutexTask, %function
 1139              	prvHighPriorityMutexTask:
 1140              	.LFB74:
 730:..\Common\Minimal/GenQTest.c **** }
 731:..\Common\Minimal/GenQTest.c **** /*-----------------------------------------------------------*/
 732:..\Common\Minimal/GenQTest.c **** 
 733:..\Common\Minimal/GenQTest.c **** static void prvHighPriorityMutexTask( void *pvParameters )
 734:..\Common\Minimal/GenQTest.c **** {
 1141              		.loc 1 734 0
 1142              		.cfi_startproc
 1143              		@ args = 0, pretend = 0, frame = 16
 1144              		@ frame_needed = 1, uses_anonymous_args = 0
 1145 0000 80B5     		push	{r7, lr}
 1146              		.cfi_def_cfa_offset 8
 1147              		.cfi_offset 7, -8
 1148              		.cfi_offset 14, -4
 1149 0002 84B0     		sub	sp, sp, #16
 1150              		.cfi_def_cfa_offset 24
 1151 0004 00AF     		add	r7, sp, #0
 1152              		.cfi_def_cfa_register 7
 1153 0006 7860     		str	r0, [r7, #4]
 735:..\Common\Minimal/GenQTest.c **** SemaphoreHandle_t xMutex = ( SemaphoreHandle_t ) pvParameters;
 1154              		.loc 1 735 0
 1155 0008 7B68     		ldr	r3, [r7, #4]
 1156 000a FB60     		str	r3, [r7, #12]
 1157              	.L89:
 736:..\Common\Minimal/GenQTest.c **** 
 737:..\Common\Minimal/GenQTest.c **** 	for( ;; )
 738:..\Common\Minimal/GenQTest.c **** 	{
 739:..\Common\Minimal/GenQTest.c **** 		/* The high priority task starts by suspending itself.  The low
 740:..\Common\Minimal/GenQTest.c **** 		priority task will unsuspend this task when required. */
 741:..\Common\Minimal/GenQTest.c **** 		vTaskSuspend( NULL );
 1158              		.loc 1 741 0
 1159 000c 0020     		movs	r0, #0
 1160 000e FFF7FEFF 		bl	vTaskSuspend
 742:..\Common\Minimal/GenQTest.c **** 
 743:..\Common\Minimal/GenQTest.c **** 		/* When this task unsuspends all it does is attempt to obtain
 744:..\Common\Minimal/GenQTest.c **** 		the mutex.  It should find the mutex is not available so a
 745:..\Common\Minimal/GenQTest.c **** 		block time is specified. */
 746:..\Common\Minimal/GenQTest.c **** 		if( xSemaphoreTake( xMutex, portMAX_DELAY ) != pdPASS )
 1161              		.loc 1 746 0
 1162 0012 0023     		movs	r3, #0
 1163 0014 4FF0FF32 		mov	r2, #-1
 1164 0018 0021     		movs	r1, #0
 1165 001a F868     		ldr	r0, [r7, #12]
 1166 001c FFF7FEFF 		bl	xQueueGenericReceive
 1167 0020 0346     		mov	r3, r0
 1168 0022 012B     		cmp	r3, #1
 1169 0024 02D0     		beq	.L87
 747:..\Common\Minimal/GenQTest.c **** 		{
 748:..\Common\Minimal/GenQTest.c **** 			xErrorDetected = pdTRUE;
 1170              		.loc 1 748 0
 1171 0026 084B     		ldr	r3, .L90
 1172 0028 0122     		movs	r2, #1
ARM GAS  C:\Users\THUNDE~1\AppData\Local\Temp\ccFIS02E.s 			page 35


 1173 002a 1A60     		str	r2, [r3]
 1174              	.L87:
 749:..\Common\Minimal/GenQTest.c **** 		}
 750:..\Common\Minimal/GenQTest.c **** 
 751:..\Common\Minimal/GenQTest.c **** 		/* When the mutex is eventually obtained it is just given back before
 752:..\Common\Minimal/GenQTest.c **** 		returning to suspend ready for the next cycle. */
 753:..\Common\Minimal/GenQTest.c **** 		if( xSemaphoreGive( xMutex ) != pdPASS )
 1175              		.loc 1 753 0
 1176 002c 0023     		movs	r3, #0
 1177 002e 0022     		movs	r2, #0
 1178 0030 0021     		movs	r1, #0
 1179 0032 F868     		ldr	r0, [r7, #12]
 1180 0034 FFF7FEFF 		bl	xQueueGenericSend
 1181 0038 0346     		mov	r3, r0
 1182 003a 012B     		cmp	r3, #1
 1183 003c E6D0     		beq	.L89
 754:..\Common\Minimal/GenQTest.c **** 		{
 755:..\Common\Minimal/GenQTest.c **** 			xErrorDetected = pdTRUE;
 1184              		.loc 1 755 0
 1185 003e 024B     		ldr	r3, .L90
 1186 0040 0122     		movs	r2, #1
 1187 0042 1A60     		str	r2, [r3]
 756:..\Common\Minimal/GenQTest.c **** 		}
 757:..\Common\Minimal/GenQTest.c **** 	}
 1188              		.loc 1 757 0
 1189 0044 E2E7     		b	.L89
 1190              	.L91:
 1191 0046 00BF     		.align	2
 1192              	.L90:
 1193 0048 00000000 		.word	xErrorDetected
 1194              		.cfi_endproc
 1195              	.LFE74:
 1196              		.size	prvHighPriorityMutexTask, .-prvHighPriorityMutexTask
 1197              		.section	.text.xAreGenericQueueTasksStillRunning,"ax",%progbits
 1198              		.align	2
 1199              		.global	xAreGenericQueueTasksStillRunning
 1200              		.thumb
 1201              		.thumb_func
 1202              		.type	xAreGenericQueueTasksStillRunning, %function
 1203              	xAreGenericQueueTasksStillRunning:
 1204              	.LFB75:
 758:..\Common\Minimal/GenQTest.c **** }
 759:..\Common\Minimal/GenQTest.c **** /*-----------------------------------------------------------*/
 760:..\Common\Minimal/GenQTest.c **** 
 761:..\Common\Minimal/GenQTest.c **** 
 762:..\Common\Minimal/GenQTest.c **** /* This is called to check that all the created tasks are still running. */
 763:..\Common\Minimal/GenQTest.c **** BaseType_t xAreGenericQueueTasksStillRunning( void )
 764:..\Common\Minimal/GenQTest.c **** {
 1205              		.loc 1 764 0
 1206              		.cfi_startproc
 1207              		@ args = 0, pretend = 0, frame = 0
 1208              		@ frame_needed = 1, uses_anonymous_args = 0
 1209              		@ link register save eliminated.
 1210 0000 80B4     		push	{r7}
 1211              		.cfi_def_cfa_offset 4
 1212              		.cfi_offset 7, -4
 1213 0002 00AF     		add	r7, sp, #0
ARM GAS  C:\Users\THUNDE~1\AppData\Local\Temp\ccFIS02E.s 			page 36


 1214              		.cfi_def_cfa_register 7
 765:..\Common\Minimal/GenQTest.c **** static uint32_t ulLastLoopCounter = 0, ulLastLoopCounter2 = 0;
 766:..\Common\Minimal/GenQTest.c **** 
 767:..\Common\Minimal/GenQTest.c **** 	/* If the demo task is still running then we expect the loop counters to
 768:..\Common\Minimal/GenQTest.c **** 	have incremented since this function was last called. */
 769:..\Common\Minimal/GenQTest.c **** 	if( ulLastLoopCounter == ulLoopCounter )
 1215              		.loc 1 769 0
 1216 0004 124B     		ldr	r3, .L96
 1217 0006 1A68     		ldr	r2, [r3]
 1218 0008 124B     		ldr	r3, .L96+4
 1219 000a 1B68     		ldr	r3, [r3]
 1220 000c 9A42     		cmp	r2, r3
 1221 000e 02D1     		bne	.L93
 770:..\Common\Minimal/GenQTest.c **** 	{
 771:..\Common\Minimal/GenQTest.c **** 		xErrorDetected = pdTRUE;
 1222              		.loc 1 771 0
 1223 0010 114B     		ldr	r3, .L96+8
 1224 0012 0122     		movs	r2, #1
 1225 0014 1A60     		str	r2, [r3]
 1226              	.L93:
 772:..\Common\Minimal/GenQTest.c **** 	}
 773:..\Common\Minimal/GenQTest.c **** 
 774:..\Common\Minimal/GenQTest.c **** 	if( ulLastLoopCounter2 == ulLoopCounter2 )
 1227              		.loc 1 774 0
 1228 0016 114B     		ldr	r3, .L96+12
 1229 0018 1A68     		ldr	r2, [r3]
 1230 001a 114B     		ldr	r3, .L96+16
 1231 001c 1B68     		ldr	r3, [r3]
 1232 001e 9A42     		cmp	r2, r3
 1233 0020 02D1     		bne	.L94
 775:..\Common\Minimal/GenQTest.c **** 	{
 776:..\Common\Minimal/GenQTest.c **** 		xErrorDetected = pdTRUE;
 1234              		.loc 1 776 0
 1235 0022 0D4B     		ldr	r3, .L96+8
 1236 0024 0122     		movs	r2, #1
 1237 0026 1A60     		str	r2, [r3]
 1238              	.L94:
 777:..\Common\Minimal/GenQTest.c **** 	}
 778:..\Common\Minimal/GenQTest.c **** 
 779:..\Common\Minimal/GenQTest.c **** 	ulLastLoopCounter = ulLoopCounter;
 1239              		.loc 1 779 0
 1240 0028 0A4B     		ldr	r3, .L96+4
 1241 002a 1B68     		ldr	r3, [r3]
 1242 002c 084A     		ldr	r2, .L96
 1243 002e 1360     		str	r3, [r2]
 780:..\Common\Minimal/GenQTest.c **** 	ulLastLoopCounter2 = ulLoopCounter2;
 1244              		.loc 1 780 0
 1245 0030 0B4B     		ldr	r3, .L96+16
 1246 0032 1B68     		ldr	r3, [r3]
 1247 0034 094A     		ldr	r2, .L96+12
 1248 0036 1360     		str	r3, [r2]
 781:..\Common\Minimal/GenQTest.c **** 
 782:..\Common\Minimal/GenQTest.c **** 	/* Errors detected in the task itself will have latched xErrorDetected
 783:..\Common\Minimal/GenQTest.c **** 	to true. */
 784:..\Common\Minimal/GenQTest.c **** 
 785:..\Common\Minimal/GenQTest.c **** 	return ( BaseType_t ) !xErrorDetected;
 1249              		.loc 1 785 0
ARM GAS  C:\Users\THUNDE~1\AppData\Local\Temp\ccFIS02E.s 			page 37


 1250 0038 074B     		ldr	r3, .L96+8
 1251 003a 1B68     		ldr	r3, [r3]
 1252 003c 002B     		cmp	r3, #0
 1253 003e 0CBF     		ite	eq
 1254 0040 0123     		moveq	r3, #1
 1255 0042 0023     		movne	r3, #0
 1256 0044 DBB2     		uxtb	r3, r3
 786:..\Common\Minimal/GenQTest.c **** }
 1257              		.loc 1 786 0
 1258 0046 1846     		mov	r0, r3
 1259 0048 BD46     		mov	sp, r7
 1260              		.cfi_def_cfa_register 13
 1261              		@ sp needed
 1262 004a 80BC     		pop	{r7}
 1263              		.cfi_restore 7
 1264              		.cfi_def_cfa_offset 0
 1265 004c 7047     		bx	lr
 1266              	.L97:
 1267 004e 00BF     		.align	2
 1268              	.L96:
 1269 0050 18000000 		.word	ulLastLoopCounter.7598
 1270 0054 04000000 		.word	ulLoopCounter
 1271 0058 00000000 		.word	xErrorDetected
 1272 005c 1C000000 		.word	ulLastLoopCounter2.7599
 1273 0060 08000000 		.word	ulLoopCounter2
 1274              		.cfi_endproc
 1275              	.LFE75:
 1276              		.size	xAreGenericQueueTasksStillRunning, .-xAreGenericQueueTasksStillRunning
 1277              		.bss
 1278              		.align	2
 1279              	ulLastLoopCounter.7598:
 1280 0018 00000000 		.space	4
 1281              		.align	2
 1282              	ulLastLoopCounter2.7599:
 1283 001c 00000000 		.space	4
 1284              		.text
 1285              	.Letext0:
 1286              		.file 2 "c:\\program files (x86)\\cypress\\psoc creator\\4.2\\psoc creator\\import\\gnu\\arm\\5.4.
 1287              		.file 3 "c:\\program files (x86)\\cypress\\psoc creator\\4.2\\psoc creator\\import\\gnu\\arm\\5.4.
 1288              		.file 4 ".\\Tracer/sniffPayload.h"
 1289              		.file 5 ".\\Tracer/selfFIFO.h"
 1290              		.file 6 "..\\Source\\portable\\GCC\\ARM_CM3/portmacro.h"
 1291              		.file 7 "..\\Source\\include/task.h"
 1292              		.file 8 "..\\Source\\include/queue.h"
 1293              		.file 9 "..\\Source\\include/semphr.h"
 1294              		.file 10 "Generated_Source\\PSoC5/core_cm3.h"
 1295              		.file 11 ".\\Tracer/sniffTask.h"