ARM GAS  C:\Users\THUNDE~1\AppData\Local\Temp\cczrSOdX.s 			page 1


   1              		.syntax unified
   2              		.cpu cortex-m3
   3              		.fpu softvfp
   4              		.eabi_attribute 20, 1
   5              		.eabi_attribute 21, 1
   6              		.eabi_attribute 23, 3
   7              		.eabi_attribute 24, 1
   8              		.eabi_attribute 25, 1
   9              		.eabi_attribute 26, 1
  10              		.eabi_attribute 30, 6
  11              		.eabi_attribute 34, 1
  12              		.eabi_attribute 18, 4
  13              		.thumb
  14              		.syntax unified
  15              		.file	"integer.c"
  16              		.text
  17              	.Ltext0:
  18              		.cfi_sections	.debug_frame
  19              		.comm	sniffIDFilter,13,4
  20              		.comm	buffer,4098,4
  21              		.comm	objectList,1704,4
  22              		.bss
  23              		.align	2
  24              	xTaskCheck:
  25 0000 00000000 		.space	4
  26              		.section	.rodata
  27              		.align	2
  28              	.LC0:
  29 0000 496E744D 		.ascii	"IntMath\000"
  29      61746800 
  30              		.section	.text.vStartIntegerMathTasks,"ax",%progbits
  31              		.align	2
  32              		.global	vStartIntegerMathTasks
  33              		.thumb
  34              		.thumb_func
  35              		.type	vStartIntegerMathTasks, %function
  36              	vStartIntegerMathTasks:
  37              	.LFB68:
  38              		.file 1 "..\\Common\\Minimal\\integer.c"
   1:..\Common\Minimal/integer.c **** /*
   2:..\Common\Minimal/integer.c ****     FreeRTOS V9.0.0 - Copyright (C) 2016 Real Time Engineers Ltd.
   3:..\Common\Minimal/integer.c ****     All rights reserved
   4:..\Common\Minimal/integer.c **** 
   5:..\Common\Minimal/integer.c ****     VISIT http://www.FreeRTOS.org TO ENSURE YOU ARE USING THE LATEST VERSION.
   6:..\Common\Minimal/integer.c **** 
   7:..\Common\Minimal/integer.c ****     This file is part of the FreeRTOS distribution.
   8:..\Common\Minimal/integer.c **** 
   9:..\Common\Minimal/integer.c ****     FreeRTOS is free software; you can redistribute it and/or modify it under
  10:..\Common\Minimal/integer.c ****     the terms of the GNU General Public License (version 2) as published by the
  11:..\Common\Minimal/integer.c ****     Free Software Foundation >>>> AND MODIFIED BY <<<< the FreeRTOS exception.
  12:..\Common\Minimal/integer.c **** 
  13:..\Common\Minimal/integer.c ****     ***************************************************************************
  14:..\Common\Minimal/integer.c ****     >>!   NOTE: The modification to the GPL is included to allow you to     !<<
  15:..\Common\Minimal/integer.c ****     >>!   distribute a combined work that includes FreeRTOS without being   !<<
  16:..\Common\Minimal/integer.c ****     >>!   obliged to provide the source code for proprietary components     !<<
  17:..\Common\Minimal/integer.c ****     >>!   outside of the FreeRTOS kernel.                                   !<<
  18:..\Common\Minimal/integer.c ****     ***************************************************************************
ARM GAS  C:\Users\THUNDE~1\AppData\Local\Temp\cczrSOdX.s 			page 2


  19:..\Common\Minimal/integer.c **** 
  20:..\Common\Minimal/integer.c ****     FreeRTOS is distributed in the hope that it will be useful, but WITHOUT ANY
  21:..\Common\Minimal/integer.c ****     WARRANTY; without even the implied warranty of MERCHANTABILITY or FITNESS
  22:..\Common\Minimal/integer.c ****     FOR A PARTICULAR PURPOSE.  Full license text is available on the following
  23:..\Common\Minimal/integer.c ****     link: http://www.freertos.org/a00114.html
  24:..\Common\Minimal/integer.c **** 
  25:..\Common\Minimal/integer.c ****     ***************************************************************************
  26:..\Common\Minimal/integer.c ****      *                                                                       *
  27:..\Common\Minimal/integer.c ****      *    FreeRTOS provides completely free yet professionally developed,    *
  28:..\Common\Minimal/integer.c ****      *    robust, strictly quality controlled, supported, and cross          *
  29:..\Common\Minimal/integer.c ****      *    platform software that is more than just the market leader, it     *
  30:..\Common\Minimal/integer.c ****      *    is the industry's de facto standard.                               *
  31:..\Common\Minimal/integer.c ****      *                                                                       *
  32:..\Common\Minimal/integer.c ****      *    Help yourself get started quickly while simultaneously helping     *
  33:..\Common\Minimal/integer.c ****      *    to support the FreeRTOS project by purchasing a FreeRTOS           *
  34:..\Common\Minimal/integer.c ****      *    tutorial book, reference manual, or both:                          *
  35:..\Common\Minimal/integer.c ****      *    http://www.FreeRTOS.org/Documentation                              *
  36:..\Common\Minimal/integer.c ****      *                                                                       *
  37:..\Common\Minimal/integer.c ****     ***************************************************************************
  38:..\Common\Minimal/integer.c **** 
  39:..\Common\Minimal/integer.c ****     http://www.FreeRTOS.org/FAQHelp.html - Having a problem?  Start by reading
  40:..\Common\Minimal/integer.c ****     the FAQ page "My application does not run, what could be wrong?".  Have you
  41:..\Common\Minimal/integer.c ****     defined configASSERT()?
  42:..\Common\Minimal/integer.c **** 
  43:..\Common\Minimal/integer.c ****     http://www.FreeRTOS.org/support - In return for receiving this top quality
  44:..\Common\Minimal/integer.c ****     embedded software for free we request you assist our global community by
  45:..\Common\Minimal/integer.c ****     participating in the support forum.
  46:..\Common\Minimal/integer.c **** 
  47:..\Common\Minimal/integer.c ****     http://www.FreeRTOS.org/training - Investing in training allows your team to
  48:..\Common\Minimal/integer.c ****     be as productive as possible as early as possible.  Now you can receive
  49:..\Common\Minimal/integer.c ****     FreeRTOS training directly from Richard Barry, CEO of Real Time Engineers
  50:..\Common\Minimal/integer.c ****     Ltd, and the world's leading authority on the world's leading RTOS.
  51:..\Common\Minimal/integer.c **** 
  52:..\Common\Minimal/integer.c ****     http://www.FreeRTOS.org/plus - A selection of FreeRTOS ecosystem products,
  53:..\Common\Minimal/integer.c ****     including FreeRTOS+Trace - an indispensable productivity tool, a DOS
  54:..\Common\Minimal/integer.c ****     compatible FAT file system, and our tiny thread aware UDP/IP stack.
  55:..\Common\Minimal/integer.c **** 
  56:..\Common\Minimal/integer.c ****     http://www.FreeRTOS.org/labs - Where new FreeRTOS products go to incubate.
  57:..\Common\Minimal/integer.c ****     Come and try FreeRTOS+TCP, our new open source TCP/IP stack for FreeRTOS.
  58:..\Common\Minimal/integer.c **** 
  59:..\Common\Minimal/integer.c ****     http://www.OpenRTOS.com - Real Time Engineers ltd. license FreeRTOS to High
  60:..\Common\Minimal/integer.c ****     Integrity Systems ltd. to sell under the OpenRTOS brand.  Low cost OpenRTOS
  61:..\Common\Minimal/integer.c ****     licenses offer ticketed support, indemnification and commercial middleware.
  62:..\Common\Minimal/integer.c **** 
  63:..\Common\Minimal/integer.c ****     http://www.SafeRTOS.com - High Integrity Systems also provide a safety
  64:..\Common\Minimal/integer.c ****     engineered and independently SIL3 certified version for use in safety and
  65:..\Common\Minimal/integer.c ****     mission critical applications that require provable dependability.
  66:..\Common\Minimal/integer.c **** 
  67:..\Common\Minimal/integer.c ****     1 tab == 4 spaces!
  68:..\Common\Minimal/integer.c **** */
  69:..\Common\Minimal/integer.c **** 
  70:..\Common\Minimal/integer.c **** /*
  71:..\Common\Minimal/integer.c ****  * Creates one or more tasks that repeatedly perform a set of integer
  72:..\Common\Minimal/integer.c ****  * calculations.  The result of each run-time calculation is compared to the 
  73:..\Common\Minimal/integer.c ****  * known expected result - with a mismatch being indicative of an error in the
  74:..\Common\Minimal/integer.c ****  * context switch mechanism.
  75:..\Common\Minimal/integer.c ****  */
ARM GAS  C:\Users\THUNDE~1\AppData\Local\Temp\cczrSOdX.s 			page 3


  76:..\Common\Minimal/integer.c **** 
  77:..\Common\Minimal/integer.c **** #include <stdlib.h>
  78:..\Common\Minimal/integer.c **** 
  79:..\Common\Minimal/integer.c **** /* Scheduler include files. */
  80:..\Common\Minimal/integer.c **** #include "FreeRTOS.h"
  81:..\Common\Minimal/integer.c **** #include "task.h"
  82:..\Common\Minimal/integer.c **** 
  83:..\Common\Minimal/integer.c **** /* Demo program include files. */
  84:..\Common\Minimal/integer.c **** #include "integer.h"
  85:..\Common\Minimal/integer.c **** 
  86:..\Common\Minimal/integer.c **** /* The constants used in the calculation. */
  87:..\Common\Minimal/integer.c **** #define intgCONST1				( ( long ) 123 )
  88:..\Common\Minimal/integer.c **** #define intgCONST2				( ( long ) 234567 )
  89:..\Common\Minimal/integer.c **** #define intgCONST3				( ( long ) -3 )
  90:..\Common\Minimal/integer.c **** #define intgCONST4				( ( long ) 7 )
  91:..\Common\Minimal/integer.c **** #define intgEXPECTED_ANSWER		( ( ( intgCONST1 + intgCONST2 ) * intgCONST3 ) / intgCONST4 )
  92:..\Common\Minimal/integer.c **** 
  93:..\Common\Minimal/integer.c **** #define intgSTACK_SIZE			configMINIMAL_STACK_SIZE
  94:..\Common\Minimal/integer.c **** 
  95:..\Common\Minimal/integer.c **** /* As this is the minimal version, we will only create one task. */
  96:..\Common\Minimal/integer.c **** #define intgNUMBER_OF_TASKS		( 1 )
  97:..\Common\Minimal/integer.c **** 
  98:..\Common\Minimal/integer.c **** /* The task function.  Repeatedly performs a 32 bit calculation, checking the
  99:..\Common\Minimal/integer.c **** result against the expected result.  If the result is incorrect then the
 100:..\Common\Minimal/integer.c **** context switch must have caused some corruption. */
 101:..\Common\Minimal/integer.c **** static portTASK_FUNCTION_PROTO( vCompeteingIntMathTask, pvParameters );
 102:..\Common\Minimal/integer.c **** 
 103:..\Common\Minimal/integer.c **** /* Variables that are set to true within the calculation task to indicate
 104:..\Common\Minimal/integer.c **** that the task is still executing.  The check task sets the variable back to
 105:..\Common\Minimal/integer.c **** false, flagging an error if the variable is still false the next time it
 106:..\Common\Minimal/integer.c **** is called. */
 107:..\Common\Minimal/integer.c **** static volatile BaseType_t xTaskCheck[ intgNUMBER_OF_TASKS ] = { ( BaseType_t ) pdFALSE };
 108:..\Common\Minimal/integer.c **** 
 109:..\Common\Minimal/integer.c **** /*-----------------------------------------------------------*/
 110:..\Common\Minimal/integer.c **** 
 111:..\Common\Minimal/integer.c **** void vStartIntegerMathTasks( UBaseType_t uxPriority )
 112:..\Common\Minimal/integer.c **** {
  39              		.loc 1 112 0
  40              		.cfi_startproc
  41              		@ args = 0, pretend = 0, frame = 16
  42              		@ frame_needed = 1, uses_anonymous_args = 0
  43 0000 80B5     		push	{r7, lr}
  44              		.cfi_def_cfa_offset 8
  45              		.cfi_offset 7, -8
  46              		.cfi_offset 14, -4
  47 0002 86B0     		sub	sp, sp, #24
  48              		.cfi_def_cfa_offset 32
  49 0004 02AF     		add	r7, sp, #8
  50              		.cfi_def_cfa 7, 24
  51 0006 7860     		str	r0, [r7, #4]
 113:..\Common\Minimal/integer.c **** short sTask;
 114:..\Common\Minimal/integer.c **** 
 115:..\Common\Minimal/integer.c **** 	for( sTask = 0; sTask < intgNUMBER_OF_TASKS; sTask++ )
  52              		.loc 1 115 0
  53 0008 0023     		movs	r3, #0
  54 000a FB81     		strh	r3, [r7, #14]	@ movhi
  55 000c 14E0     		b	.L2
ARM GAS  C:\Users\THUNDE~1\AppData\Local\Temp\cczrSOdX.s 			page 4


  56              	.L3:
 116:..\Common\Minimal/integer.c **** 	{
 117:..\Common\Minimal/integer.c **** 		xTaskCreate( vCompeteingIntMathTask, "IntMath", intgSTACK_SIZE, ( void * ) &( xTaskCheck[ sTask ]
  57              		.loc 1 117 0 discriminator 3
  58 000e B7F90E30 		ldrsh	r3, [r7, #14]
  59 0012 9B00     		lsls	r3, r3, #2
  60 0014 0C4A     		ldr	r2, .L4
  61 0016 1A44     		add	r2, r2, r3
  62 0018 0023     		movs	r3, #0
  63 001a 0193     		str	r3, [sp, #4]
  64 001c 7B68     		ldr	r3, [r7, #4]
  65 001e 0093     		str	r3, [sp]
  66 0020 1346     		mov	r3, r2
  67 0022 6422     		movs	r2, #100
  68 0024 0949     		ldr	r1, .L4+4
  69 0026 0A48     		ldr	r0, .L4+8
  70 0028 FFF7FEFF 		bl	xTaskCreate
 115:..\Common\Minimal/integer.c **** 	{
  71              		.loc 1 115 0 discriminator 3
  72 002c B7F90E30 		ldrsh	r3, [r7, #14]
  73 0030 9BB2     		uxth	r3, r3
  74 0032 0133     		adds	r3, r3, #1
  75 0034 9BB2     		uxth	r3, r3
  76 0036 FB81     		strh	r3, [r7, #14]	@ movhi
  77              	.L2:
 115:..\Common\Minimal/integer.c **** 	{
  78              		.loc 1 115 0 is_stmt 0 discriminator 1
  79 0038 B7F90E30 		ldrsh	r3, [r7, #14]
  80 003c 002B     		cmp	r3, #0
  81 003e E6DD     		ble	.L3
 118:..\Common\Minimal/integer.c **** 	}
 119:..\Common\Minimal/integer.c **** }
  82              		.loc 1 119 0 is_stmt 1
  83 0040 00BF     		nop
  84 0042 1037     		adds	r7, r7, #16
  85              		.cfi_def_cfa_offset 8
  86 0044 BD46     		mov	sp, r7
  87              		.cfi_def_cfa_register 13
  88              		@ sp needed
  89 0046 80BD     		pop	{r7, pc}
  90              	.L5:
  91              		.align	2
  92              	.L4:
  93 0048 00000000 		.word	xTaskCheck
  94 004c 00000000 		.word	.LC0
  95 0050 00000000 		.word	vCompeteingIntMathTask
  96              		.cfi_endproc
  97              	.LFE68:
  98              		.size	vStartIntegerMathTasks, .-vStartIntegerMathTasks
  99              		.section	.text.vCompeteingIntMathTask,"ax",%progbits
 100              		.align	2
 101              		.thumb
 102              		.thumb_func
 103              		.type	vCompeteingIntMathTask, %function
 104              	vCompeteingIntMathTask:
 105              	.LFB69:
 120:..\Common\Minimal/integer.c **** /*-----------------------------------------------------------*/
ARM GAS  C:\Users\THUNDE~1\AppData\Local\Temp\cczrSOdX.s 			page 5


 121:..\Common\Minimal/integer.c **** 
 122:..\Common\Minimal/integer.c **** static portTASK_FUNCTION( vCompeteingIntMathTask, pvParameters )
 123:..\Common\Minimal/integer.c **** {
 106              		.loc 1 123 0
 107              		.cfi_startproc
 108              		@ args = 0, pretend = 0, frame = 24
 109              		@ frame_needed = 1, uses_anonymous_args = 0
 110 0000 80B5     		push	{r7, lr}
 111              		.cfi_def_cfa_offset 8
 112              		.cfi_offset 7, -8
 113              		.cfi_offset 14, -4
 114 0002 86B0     		sub	sp, sp, #24
 115              		.cfi_def_cfa_offset 32
 116 0004 00AF     		add	r7, sp, #0
 117              		.cfi_def_cfa_register 7
 118 0006 7860     		str	r0, [r7, #4]
 124:..\Common\Minimal/integer.c **** /* These variables are all effectively set to constants so they are volatile to
 125:..\Common\Minimal/integer.c **** ensure the compiler does not just get rid of them. */
 126:..\Common\Minimal/integer.c **** volatile long lValue;
 127:..\Common\Minimal/integer.c **** short sError = pdFALSE;
 119              		.loc 1 127 0
 120 0008 0023     		movs	r3, #0
 121 000a FB82     		strh	r3, [r7, #22]	@ movhi
 128:..\Common\Minimal/integer.c **** volatile BaseType_t *pxTaskHasExecuted;
 129:..\Common\Minimal/integer.c **** 
 130:..\Common\Minimal/integer.c **** 	/* Set a pointer to the variable we are going to set to true each
 131:..\Common\Minimal/integer.c **** 	iteration.  This is also a good test of the parameter passing mechanism
 132:..\Common\Minimal/integer.c **** 	within each port. */
 133:..\Common\Minimal/integer.c **** 	pxTaskHasExecuted = ( volatile BaseType_t * ) pvParameters;
 122              		.loc 1 133 0
 123 000c 7B68     		ldr	r3, [r7, #4]
 124 000e 3B61     		str	r3, [r7, #16]
 125              	.L9:
 134:..\Common\Minimal/integer.c **** 
 135:..\Common\Minimal/integer.c **** 	/* Keep performing a calculation and checking the result against a constant. */
 136:..\Common\Minimal/integer.c **** 	for( ;; )
 137:..\Common\Minimal/integer.c **** 	{
 138:..\Common\Minimal/integer.c **** 		/* Perform the calculation.  This will store partial value in
 139:..\Common\Minimal/integer.c **** 		registers, resulting in a good test of the context switch mechanism. */
 140:..\Common\Minimal/integer.c **** 		lValue = intgCONST1;
 126              		.loc 1 140 0
 127 0010 7B23     		movs	r3, #123
 128 0012 FB60     		str	r3, [r7, #12]
 141:..\Common\Minimal/integer.c **** 		lValue += intgCONST2;
 129              		.loc 1 141 0
 130 0014 FB68     		ldr	r3, [r7, #12]
 131 0016 03F56533 		add	r3, r3, #234496
 132 001a 4733     		adds	r3, r3, #71
 133 001c FB60     		str	r3, [r7, #12]
 142:..\Common\Minimal/integer.c **** 
 143:..\Common\Minimal/integer.c **** 		/* Yield in case cooperative scheduling is being used. */
 144:..\Common\Minimal/integer.c **** 		#if configUSE_PREEMPTION == 0
 145:..\Common\Minimal/integer.c **** 		{
 146:..\Common\Minimal/integer.c **** 			taskYIELD();
 147:..\Common\Minimal/integer.c **** 		}
 148:..\Common\Minimal/integer.c **** 		#endif
 149:..\Common\Minimal/integer.c **** 
ARM GAS  C:\Users\THUNDE~1\AppData\Local\Temp\cczrSOdX.s 			page 6


 150:..\Common\Minimal/integer.c **** 		/* Finish off the calculation. */
 151:..\Common\Minimal/integer.c **** 		lValue *= intgCONST3;
 134              		.loc 1 151 0
 135 001e FB68     		ldr	r3, [r7, #12]
 136 0020 1A46     		mov	r2, r3
 137 0022 9B00     		lsls	r3, r3, #2
 138 0024 D31A     		subs	r3, r2, r3
 139 0026 FB60     		str	r3, [r7, #12]
 152:..\Common\Minimal/integer.c **** 		lValue /= intgCONST4;
 140              		.loc 1 152 0
 141 0028 FB68     		ldr	r3, [r7, #12]
 142 002a 0D4A     		ldr	r2, .L10
 143 002c 82FB0312 		smull	r1, r2, r2, r3
 144 0030 1A44     		add	r2, r2, r3
 145 0032 9210     		asrs	r2, r2, #2
 146 0034 DB17     		asrs	r3, r3, #31
 147 0036 D31A     		subs	r3, r2, r3
 148 0038 FB60     		str	r3, [r7, #12]
 153:..\Common\Minimal/integer.c **** 
 154:..\Common\Minimal/integer.c **** 		/* If the calculation is found to be incorrect we stop setting the 
 155:..\Common\Minimal/integer.c **** 		TaskHasExecuted variable so the check task can see an error has 
 156:..\Common\Minimal/integer.c **** 		occurred. */
 157:..\Common\Minimal/integer.c **** 		if( lValue != intgEXPECTED_ANSWER ) /*lint !e774 volatile used to prevent this being optimised ou
 149              		.loc 1 157 0
 150 003a FB68     		ldr	r3, [r7, #12]
 151 003c 094A     		ldr	r2, .L10+4
 152 003e 9342     		cmp	r3, r2
 153 0040 01D0     		beq	.L7
 158:..\Common\Minimal/integer.c **** 		{
 159:..\Common\Minimal/integer.c **** 			sError = pdTRUE;
 154              		.loc 1 159 0
 155 0042 0123     		movs	r3, #1
 156 0044 FB82     		strh	r3, [r7, #22]	@ movhi
 157              	.L7:
 160:..\Common\Minimal/integer.c **** 		}
 161:..\Common\Minimal/integer.c **** 
 162:..\Common\Minimal/integer.c **** 		if( sError == pdFALSE )
 158              		.loc 1 162 0
 159 0046 B7F91630 		ldrsh	r3, [r7, #22]
 160 004a 002B     		cmp	r3, #0
 161 004c E0D1     		bne	.L9
 163:..\Common\Minimal/integer.c **** 		{
 164:..\Common\Minimal/integer.c **** 			/* We have not encountered any errors, so set the flag that show
 165:..\Common\Minimal/integer.c **** 			we are still executing.  This will be periodically cleared by
 166:..\Common\Minimal/integer.c **** 			the check task. */
 167:..\Common\Minimal/integer.c **** 			portENTER_CRITICAL();
 162              		.loc 1 167 0
 163 004e FFF7FEFF 		bl	vPortEnterCritical
 168:..\Common\Minimal/integer.c **** 				*pxTaskHasExecuted = pdTRUE;
 164              		.loc 1 168 0
 165 0052 3B69     		ldr	r3, [r7, #16]
 166 0054 0122     		movs	r2, #1
 167 0056 1A60     		str	r2, [r3]
 169:..\Common\Minimal/integer.c **** 			portEXIT_CRITICAL();
 168              		.loc 1 169 0
 169 0058 FFF7FEFF 		bl	vPortExitCritical
 170:..\Common\Minimal/integer.c **** 		}
ARM GAS  C:\Users\THUNDE~1\AppData\Local\Temp\cczrSOdX.s 			page 7


 171:..\Common\Minimal/integer.c **** 
 172:..\Common\Minimal/integer.c **** 		/* Yield in case cooperative scheduling is being used. */
 173:..\Common\Minimal/integer.c **** 		#if configUSE_PREEMPTION == 0
 174:..\Common\Minimal/integer.c **** 		{
 175:..\Common\Minimal/integer.c **** 			taskYIELD();
 176:..\Common\Minimal/integer.c **** 		}
 177:..\Common\Minimal/integer.c **** 		#endif
 178:..\Common\Minimal/integer.c **** 	}
 170              		.loc 1 178 0
 171 005c D8E7     		b	.L9
 172              	.L11:
 173 005e 00BF     		.align	2
 174              	.L10:
 175 0060 93244992 		.word	-1840700269
 176 0064 1B77FEFF 		.word	-100581
 177              		.cfi_endproc
 178              	.LFE69:
 179              		.size	vCompeteingIntMathTask, .-vCompeteingIntMathTask
 180              		.section	.text.xAreIntegerMathsTaskStillRunning,"ax",%progbits
 181              		.align	2
 182              		.global	xAreIntegerMathsTaskStillRunning
 183              		.thumb
 184              		.thumb_func
 185              		.type	xAreIntegerMathsTaskStillRunning, %function
 186              	xAreIntegerMathsTaskStillRunning:
 187              	.LFB70:
 179:..\Common\Minimal/integer.c **** }
 180:..\Common\Minimal/integer.c **** /*-----------------------------------------------------------*/
 181:..\Common\Minimal/integer.c **** 
 182:..\Common\Minimal/integer.c **** /* This is called to check that all the created tasks are still running. */
 183:..\Common\Minimal/integer.c **** BaseType_t xAreIntegerMathsTaskStillRunning( void )
 184:..\Common\Minimal/integer.c **** {
 188              		.loc 1 184 0
 189              		.cfi_startproc
 190              		@ args = 0, pretend = 0, frame = 8
 191              		@ frame_needed = 1, uses_anonymous_args = 0
 192              		@ link register save eliminated.
 193 0000 80B4     		push	{r7}
 194              		.cfi_def_cfa_offset 4
 195              		.cfi_offset 7, -4
 196 0002 83B0     		sub	sp, sp, #12
 197              		.cfi_def_cfa_offset 16
 198 0004 00AF     		add	r7, sp, #0
 199              		.cfi_def_cfa_register 7
 185:..\Common\Minimal/integer.c **** BaseType_t xReturn = pdTRUE;
 200              		.loc 1 185 0
 201 0006 0123     		movs	r3, #1
 202 0008 7B60     		str	r3, [r7, #4]
 186:..\Common\Minimal/integer.c **** short sTask;
 187:..\Common\Minimal/integer.c **** 
 188:..\Common\Minimal/integer.c **** 	/* Check the maths tasks are still running by ensuring their check variables 
 189:..\Common\Minimal/integer.c **** 	are still being set to true. */
 190:..\Common\Minimal/integer.c **** 	for( sTask = 0; sTask < intgNUMBER_OF_TASKS; sTask++ )
 203              		.loc 1 190 0
 204 000a 0023     		movs	r3, #0
 205 000c 7B80     		strh	r3, [r7, #2]	@ movhi
 206 000e 14E0     		b	.L13
ARM GAS  C:\Users\THUNDE~1\AppData\Local\Temp\cczrSOdX.s 			page 8


 207              	.L15:
 191:..\Common\Minimal/integer.c **** 	{
 192:..\Common\Minimal/integer.c **** 		if( xTaskCheck[ sTask ] == pdFALSE )
 208              		.loc 1 192 0
 209 0010 B7F90230 		ldrsh	r3, [r7, #2]
 210 0014 0E4A     		ldr	r2, .L17
 211 0016 52F82330 		ldr	r3, [r2, r3, lsl #2]
 212 001a 002B     		cmp	r3, #0
 213 001c 01D1     		bne	.L14
 193:..\Common\Minimal/integer.c **** 		{
 194:..\Common\Minimal/integer.c **** 			/* The check has not incremented so an error exists. */
 195:..\Common\Minimal/integer.c **** 			xReturn = pdFALSE;
 214              		.loc 1 195 0
 215 001e 0023     		movs	r3, #0
 216 0020 7B60     		str	r3, [r7, #4]
 217              	.L14:
 196:..\Common\Minimal/integer.c **** 		}
 197:..\Common\Minimal/integer.c **** 
 198:..\Common\Minimal/integer.c **** 		/* Reset the check variable so we can tell if it has been set by
 199:..\Common\Minimal/integer.c **** 		the next time around. */
 200:..\Common\Minimal/integer.c **** 		xTaskCheck[ sTask ] = pdFALSE;
 218              		.loc 1 200 0 discriminator 2
 219 0022 B7F90230 		ldrsh	r3, [r7, #2]
 220 0026 0A4A     		ldr	r2, .L17
 221 0028 0021     		movs	r1, #0
 222 002a 42F82310 		str	r1, [r2, r3, lsl #2]
 190:..\Common\Minimal/integer.c **** 	{
 223              		.loc 1 190 0 discriminator 2
 224 002e B7F90230 		ldrsh	r3, [r7, #2]
 225 0032 9BB2     		uxth	r3, r3
 226 0034 0133     		adds	r3, r3, #1
 227 0036 9BB2     		uxth	r3, r3
 228 0038 7B80     		strh	r3, [r7, #2]	@ movhi
 229              	.L13:
 190:..\Common\Minimal/integer.c **** 	{
 230              		.loc 1 190 0 is_stmt 0 discriminator 1
 231 003a B7F90230 		ldrsh	r3, [r7, #2]
 232 003e 002B     		cmp	r3, #0
 233 0040 E6DD     		ble	.L15
 201:..\Common\Minimal/integer.c **** 	}
 202:..\Common\Minimal/integer.c **** 
 203:..\Common\Minimal/integer.c **** 	return xReturn;
 234              		.loc 1 203 0 is_stmt 1
 235 0042 7B68     		ldr	r3, [r7, #4]
 204:..\Common\Minimal/integer.c **** }
 236              		.loc 1 204 0
 237 0044 1846     		mov	r0, r3
 238 0046 0C37     		adds	r7, r7, #12
 239              		.cfi_def_cfa_offset 4
 240 0048 BD46     		mov	sp, r7
 241              		.cfi_def_cfa_register 13
 242              		@ sp needed
 243 004a 80BC     		pop	{r7}
 244              		.cfi_restore 7
 245              		.cfi_def_cfa_offset 0
 246 004c 7047     		bx	lr
 247              	.L18:
ARM GAS  C:\Users\THUNDE~1\AppData\Local\Temp\cczrSOdX.s 			page 9


 248 004e 00BF     		.align	2
 249              	.L17:
 250 0050 00000000 		.word	xTaskCheck
 251              		.cfi_endproc
 252              	.LFE70:
 253              		.size	xAreIntegerMathsTaskStillRunning, .-xAreIntegerMathsTaskStillRunning
 254              		.text
 255              	.Letext0:
 256              		.file 2 "c:\\program files (x86)\\cypress\\psoc creator\\4.2\\psoc creator\\import\\gnu\\arm\\5.4.
 257              		.file 3 "c:\\program files (x86)\\cypress\\psoc creator\\4.2\\psoc creator\\import\\gnu\\arm\\5.4.
 258              		.file 4 ".\\Tracer/sniffPayload.h"
 259              		.file 5 ".\\Tracer/selfFIFO.h"
 260              		.file 6 "..\\Source\\portable\\GCC\\ARM_CM3/portmacro.h"
 261              		.file 7 "..\\Source\\include/task.h"
 262              		.file 8 "Generated_Source\\PSoC5/core_cm3.h"
 263              		.file 9 ".\\Tracer/sniffTask.h"