ARM GAS  C:\Users\THUNDE~1\AppData\Local\Temp\ccukRxYg.s 			page 1


   1              		.syntax unified
   2              		.cpu cortex-m3
   3              		.fpu softvfp
   4              		.eabi_attribute 20, 1
   5              		.eabi_attribute 21, 1
   6              		.eabi_attribute 23, 3
   7              		.eabi_attribute 24, 1
   8              		.eabi_attribute 25, 1
   9              		.eabi_attribute 26, 1
  10              		.eabi_attribute 30, 6
  11              		.eabi_attribute 34, 1
  12              		.eabi_attribute 18, 4
  13              		.thumb
  14              		.syntax unified
  15              		.file	"IntQueueTimer.c"
  16              		.text
  17              	.Ltext0:
  18              		.cfi_sections	.debug_frame
  19              		.comm	sniffIDFilter,13,4
  20              		.comm	buffer,4098,4
  21              		.comm	objectList,1704,4
  22              		.section	.text.vInitialiseTimerForIntQueueTest,"ax",%progbits
  23              		.align	2
  24              		.global	vInitialiseTimerForIntQueueTest
  25              		.thumb
  26              		.thumb_func
  27              		.type	vInitialiseTimerForIntQueueTest, %function
  28              	vInitialiseTimerForIntQueueTest:
  29              	.LFB68:
  30              		.file 1 "IntQueueTimer.c"
   1:IntQueueTimer.c **** /*
   2:IntQueueTimer.c ****     FreeRTOS V9.0.0 - Copyright (C) 2016 Real Time Engineers Ltd.
   3:IntQueueTimer.c ****     All rights reserved
   4:IntQueueTimer.c **** 
   5:IntQueueTimer.c ****     VISIT http://www.FreeRTOS.org TO ENSURE YOU ARE USING THE LATEST VERSION.
   6:IntQueueTimer.c **** 
   7:IntQueueTimer.c ****     This file is part of the FreeRTOS distribution.
   8:IntQueueTimer.c **** 
   9:IntQueueTimer.c ****     FreeRTOS is free software; you can redistribute it and/or modify it under
  10:IntQueueTimer.c ****     the terms of the GNU General Public License (version 2) as published by the
  11:IntQueueTimer.c ****     Free Software Foundation >>>> AND MODIFIED BY <<<< the FreeRTOS exception.
  12:IntQueueTimer.c **** 
  13:IntQueueTimer.c ****     ***************************************************************************
  14:IntQueueTimer.c ****     >>!   NOTE: The modification to the GPL is included to allow you to     !<<
  15:IntQueueTimer.c ****     >>!   distribute a combined work that includes FreeRTOS without being   !<<
  16:IntQueueTimer.c ****     >>!   obliged to provide the source code for proprietary components     !<<
  17:IntQueueTimer.c ****     >>!   outside of the FreeRTOS kernel.                                   !<<
  18:IntQueueTimer.c ****     ***************************************************************************
  19:IntQueueTimer.c **** 
  20:IntQueueTimer.c ****     FreeRTOS is distributed in the hope that it will be useful, but WITHOUT ANY
  21:IntQueueTimer.c ****     WARRANTY; without even the implied warranty of MERCHANTABILITY or FITNESS
  22:IntQueueTimer.c ****     FOR A PARTICULAR PURPOSE.  Full license text is available on the following
  23:IntQueueTimer.c ****     link: http://www.freertos.org/a00114.html
  24:IntQueueTimer.c **** 
  25:IntQueueTimer.c ****     ***************************************************************************
  26:IntQueueTimer.c ****      *                                                                       *
  27:IntQueueTimer.c ****      *    FreeRTOS provides completely free yet professionally developed,    *
ARM GAS  C:\Users\THUNDE~1\AppData\Local\Temp\ccukRxYg.s 			page 2


  28:IntQueueTimer.c ****      *    robust, strictly quality controlled, supported, and cross          *
  29:IntQueueTimer.c ****      *    platform software that is more than just the market leader, it     *
  30:IntQueueTimer.c ****      *    is the industry's de facto standard.                               *
  31:IntQueueTimer.c ****      *                                                                       *
  32:IntQueueTimer.c ****      *    Help yourself get started quickly while simultaneously helping     *
  33:IntQueueTimer.c ****      *    to support the FreeRTOS project by purchasing a FreeRTOS           *
  34:IntQueueTimer.c ****      *    tutorial book, reference manual, or both:                          *
  35:IntQueueTimer.c ****      *    http://www.FreeRTOS.org/Documentation                              *
  36:IntQueueTimer.c ****      *                                                                       *
  37:IntQueueTimer.c ****     ***************************************************************************
  38:IntQueueTimer.c **** 
  39:IntQueueTimer.c ****     http://www.FreeRTOS.org/FAQHelp.html - Having a problem?  Start by reading
  40:IntQueueTimer.c ****     the FAQ page "My application does not run, what could be wrong?".  Have you
  41:IntQueueTimer.c ****     defined configASSERT()?
  42:IntQueueTimer.c **** 
  43:IntQueueTimer.c ****     http://www.FreeRTOS.org/support - In return for receiving this top quality
  44:IntQueueTimer.c ****     embedded software for free we request you assist our global community by
  45:IntQueueTimer.c ****     participating in the support forum.
  46:IntQueueTimer.c **** 
  47:IntQueueTimer.c ****     http://www.FreeRTOS.org/training - Investing in training allows your team to
  48:IntQueueTimer.c ****     be as productive as possible as early as possible.  Now you can receive
  49:IntQueueTimer.c ****     FreeRTOS training directly from Richard Barry, CEO of Real Time Engineers
  50:IntQueueTimer.c ****     Ltd, and the world's leading authority on the world's leading RTOS.
  51:IntQueueTimer.c **** 
  52:IntQueueTimer.c ****     http://www.FreeRTOS.org/plus - A selection of FreeRTOS ecosystem products,
  53:IntQueueTimer.c ****     including FreeRTOS+Trace - an indispensable productivity tool, a DOS
  54:IntQueueTimer.c ****     compatible FAT file system, and our tiny thread aware UDP/IP stack.
  55:IntQueueTimer.c **** 
  56:IntQueueTimer.c ****     http://www.FreeRTOS.org/labs - Where new FreeRTOS products go to incubate.
  57:IntQueueTimer.c ****     Come and try FreeRTOS+TCP, our new open source TCP/IP stack for FreeRTOS.
  58:IntQueueTimer.c **** 
  59:IntQueueTimer.c ****     http://www.OpenRTOS.com - Real Time Engineers ltd. license FreeRTOS to High
  60:IntQueueTimer.c ****     Integrity Systems ltd. to sell under the OpenRTOS brand.  Low cost OpenRTOS
  61:IntQueueTimer.c ****     licenses offer ticketed support, indemnification and commercial middleware.
  62:IntQueueTimer.c **** 
  63:IntQueueTimer.c ****     http://www.SafeRTOS.com - High Integrity Systems also provide a safety
  64:IntQueueTimer.c ****     engineered and independently SIL3 certified version for use in safety and
  65:IntQueueTimer.c ****     mission critical applications that require provable dependability.
  66:IntQueueTimer.c **** 
  67:IntQueueTimer.c ****     1 tab == 4 spaces!
  68:IntQueueTimer.c **** */
  69:IntQueueTimer.c **** 
  70:IntQueueTimer.c **** #include <device.h>
  71:IntQueueTimer.c **** #include "FreeRTOS.h"
  72:IntQueueTimer.c **** #include "task.h"
  73:IntQueueTimer.c **** /*---------------------------------------------------------------------------*/
  74:IntQueueTimer.c **** 
  75:IntQueueTimer.c **** extern portBASE_TYPE xFirstTimerHandler( void );
  76:IntQueueTimer.c **** extern portBASE_TYPE xSecondTimerHandler( void );
  77:IntQueueTimer.c **** /*---------------------------------------------------------------------------*/
  78:IntQueueTimer.c **** 
  79:IntQueueTimer.c **** CY_ISR_PROTO( vHighFrequencyFirstISR );
  80:IntQueueTimer.c **** CY_ISR_PROTO( vHighFrequencySecondISR );
  81:IntQueueTimer.c **** /*---------------------------------------------------------------------------*/
  82:IntQueueTimer.c **** 
  83:IntQueueTimer.c **** /**
  84:IntQueueTimer.c ****  * Installs and starts the ISRs that drive the Interupt Queue Tests.
ARM GAS  C:\Users\THUNDE~1\AppData\Local\Temp\ccukRxYg.s 			page 3


  85:IntQueueTimer.c ****  */
  86:IntQueueTimer.c **** void vInitialiseTimerForIntQueueTest( void )
  87:IntQueueTimer.c **** {
  31              		.loc 1 87 0
  32              		.cfi_startproc
  33              		@ args = 0, pretend = 0, frame = 0
  34              		@ frame_needed = 1, uses_anonymous_args = 0
  35 0000 80B5     		push	{r7, lr}
  36              		.cfi_def_cfa_offset 8
  37              		.cfi_offset 7, -8
  38              		.cfi_offset 14, -4
  39 0002 00AF     		add	r7, sp, #0
  40              		.cfi_def_cfa_register 7
  88:IntQueueTimer.c **** 	taskENTER_CRITICAL();
  41              		.loc 1 88 0
  42 0004 FFF7FEFF 		bl	vPortEnterCritical
  89:IntQueueTimer.c **** 	{
  90:IntQueueTimer.c **** 		/* Initialise and start the First Timer ISR. */
  91:IntQueueTimer.c **** 		isr_High_Frequency_2000Hz_ClearPending();
  43              		.loc 1 91 0
  44 0008 FFF7FEFF 		bl	isr_High_Frequency_2000Hz_ClearPending
  92:IntQueueTimer.c **** 		isr_High_Frequency_2000Hz_StartEx( ( cyisraddress ) vHighFrequencyFirstISR );
  45              		.loc 1 92 0
  46 000c 0548     		ldr	r0, .L2
  47 000e FFF7FEFF 		bl	isr_High_Frequency_2000Hz_StartEx
  93:IntQueueTimer.c **** 
  94:IntQueueTimer.c **** 		/* Initialise and start the Second Timer ISR. */
  95:IntQueueTimer.c **** 		isr_High_Frequency_2001Hz_ClearPending();
  48              		.loc 1 95 0
  49 0012 FFF7FEFF 		bl	isr_High_Frequency_2001Hz_ClearPending
  96:IntQueueTimer.c **** 		isr_High_Frequency_2001Hz_StartEx( ( cyisraddress ) vHighFrequencySecondISR );
  50              		.loc 1 96 0
  51 0016 0448     		ldr	r0, .L2+4
  52 0018 FFF7FEFF 		bl	isr_High_Frequency_2001Hz_StartEx
  97:IntQueueTimer.c **** 	}
  98:IntQueueTimer.c **** 	taskEXIT_CRITICAL();
  53              		.loc 1 98 0
  54 001c FFF7FEFF 		bl	vPortExitCritical
  99:IntQueueTimer.c **** }
  55              		.loc 1 99 0
  56 0020 00BF     		nop
  57 0022 80BD     		pop	{r7, pc}
  58              	.L3:
  59              		.align	2
  60              	.L2:
  61 0024 00000000 		.word	vHighFrequencyFirstISR
  62 0028 00000000 		.word	vHighFrequencySecondISR
  63              		.cfi_endproc
  64              	.LFE68:
  65              		.size	vInitialiseTimerForIntQueueTest, .-vInitialiseTimerForIntQueueTest
  66              		.section	.text.vHighFrequencyFirstISR,"ax",%progbits
  67              		.align	2
  68              		.global	vHighFrequencyFirstISR
  69              		.thumb
  70              		.thumb_func
  71              		.type	vHighFrequencyFirstISR, %function
  72              	vHighFrequencyFirstISR:
ARM GAS  C:\Users\THUNDE~1\AppData\Local\Temp\ccukRxYg.s 			page 4


  73              	.LFB69:
 100:IntQueueTimer.c **** /*---------------------------------------------------------------------------*/
 101:IntQueueTimer.c **** 
 102:IntQueueTimer.c **** CY_ISR(vHighFrequencyFirstISR)
 103:IntQueueTimer.c **** {
  74              		.loc 1 103 0
  75              		.cfi_startproc
  76              		@ args = 0, pretend = 0, frame = 0
  77              		@ frame_needed = 1, uses_anonymous_args = 0
  78 0000 80B5     		push	{r7, lr}
  79              		.cfi_def_cfa_offset 8
  80              		.cfi_offset 7, -8
  81              		.cfi_offset 14, -4
  82 0002 00AF     		add	r7, sp, #0
  83              		.cfi_def_cfa_register 7
 104:IntQueueTimer.c **** 	/* Call back into the test code and context switch if necessary. */
 105:IntQueueTimer.c **** 	portEND_SWITCHING_ISR( xFirstTimerHandler() );
  84              		.loc 1 105 0
  85 0004 FFF7FEFF 		bl	xFirstTimerHandler
  86 0008 0346     		mov	r3, r0
  87 000a 002B     		cmp	r3, #0
  88 000c 07D0     		beq	.L6
  89              		.loc 1 105 0 is_stmt 0 discriminator 1
  90 000e 054B     		ldr	r3, .L7
  91 0010 4FF08052 		mov	r2, #268435456
  92 0014 1A60     		str	r2, [r3]
  93              		.syntax unified
  94              	@ 105 "IntQueueTimer.c" 1
  95 0016 BFF34F8F 		dsb
  96              	@ 0 "" 2
  97              	@ 105 "IntQueueTimer.c" 1
  98 001a BFF36F8F 		isb
  99              	@ 0 "" 2
 100              		.thumb
 101              		.syntax unified
 102              	.L6:
 106:IntQueueTimer.c **** }
 103              		.loc 1 106 0 is_stmt 1
 104 001e 00BF     		nop
 105 0020 80BD     		pop	{r7, pc}
 106              	.L8:
 107 0022 00BF     		.align	2
 108              	.L7:
 109 0024 04ED00E0 		.word	-536810236
 110              		.cfi_endproc
 111              	.LFE69:
 112              		.size	vHighFrequencyFirstISR, .-vHighFrequencyFirstISR
 113              		.section	.text.vHighFrequencySecondISR,"ax",%progbits
 114              		.align	2
 115              		.global	vHighFrequencySecondISR
 116              		.thumb
 117              		.thumb_func
 118              		.type	vHighFrequencySecondISR, %function
 119              	vHighFrequencySecondISR:
 120              	.LFB70:
 107:IntQueueTimer.c **** /*---------------------------------------------------------------------------*/
 108:IntQueueTimer.c **** 
ARM GAS  C:\Users\THUNDE~1\AppData\Local\Temp\ccukRxYg.s 			page 5


 109:IntQueueTimer.c **** CY_ISR(vHighFrequencySecondISR)
 110:IntQueueTimer.c **** {
 121              		.loc 1 110 0
 122              		.cfi_startproc
 123              		@ args = 0, pretend = 0, frame = 0
 124              		@ frame_needed = 1, uses_anonymous_args = 0
 125 0000 80B5     		push	{r7, lr}
 126              		.cfi_def_cfa_offset 8
 127              		.cfi_offset 7, -8
 128              		.cfi_offset 14, -4
 129 0002 00AF     		add	r7, sp, #0
 130              		.cfi_def_cfa_register 7
 111:IntQueueTimer.c **** 	/* Call back into the test code and context switch if necessary. */
 112:IntQueueTimer.c **** 	portEND_SWITCHING_ISR( xSecondTimerHandler() );
 131              		.loc 1 112 0
 132 0004 FFF7FEFF 		bl	xSecondTimerHandler
 133 0008 0346     		mov	r3, r0
 134 000a 002B     		cmp	r3, #0
 135 000c 07D0     		beq	.L11
 136              		.loc 1 112 0 is_stmt 0 discriminator 1
 137 000e 054B     		ldr	r3, .L12
 138 0010 4FF08052 		mov	r2, #268435456
 139 0014 1A60     		str	r2, [r3]
 140              		.syntax unified
 141              	@ 112 "IntQueueTimer.c" 1
 142 0016 BFF34F8F 		dsb
 143              	@ 0 "" 2
 144              	@ 112 "IntQueueTimer.c" 1
 145 001a BFF36F8F 		isb
 146              	@ 0 "" 2
 147              		.thumb
 148              		.syntax unified
 149              	.L11:
 113:IntQueueTimer.c **** }
 150              		.loc 1 113 0 is_stmt 1
 151 001e 00BF     		nop
 152 0020 80BD     		pop	{r7, pc}
 153              	.L13:
 154 0022 00BF     		.align	2
 155              	.L12:
 156 0024 04ED00E0 		.word	-536810236
 157              		.cfi_endproc
 158              	.LFE70:
 159              		.size	vHighFrequencySecondISR, .-vHighFrequencySecondISR
 160              		.text
 161              	.Letext0:
 162              		.file 2 "c:\\program files (x86)\\cypress\\psoc creator\\4.2\\psoc creator\\import\\gnu\\arm\\5.4.
 163              		.file 3 "c:\\program files (x86)\\cypress\\psoc creator\\4.2\\psoc creator\\import\\gnu\\arm\\5.4.
 164              		.file 4 "Generated_Source\\PSoC5/cytypes.h"
 165              		.file 5 ".\\Tracer/sniffPayload.h"
 166              		.file 6 ".\\Tracer/selfFIFO.h"
 167              		.file 7 "..\\Source\\portable\\GCC\\ARM_CM3/portmacro.h"
 168              		.file 8 "Generated_Source\\PSoC5/core_cm3.h"
 169              		.file 9 ".\\Tracer/sniffTask.h"