ARM GAS  C:\Users\THUNDE~1\AppData\Local\Temp\ccjD8PP6.s 			page 1


   1              		.syntax unified
   2              		.cpu cortex-m3
   3              		.fpu softvfp
   4              		.eabi_attribute 20, 1
   5              		.eabi_attribute 21, 1
   6              		.eabi_attribute 23, 3
   7              		.eabi_attribute 24, 1
   8              		.eabi_attribute 25, 1
   9              		.eabi_attribute 26, 1
  10              		.eabi_attribute 30, 6
  11              		.eabi_attribute 34, 1
  12              		.eabi_attribute 18, 4
  13              		.thumb
  14              		.syntax unified
  15              		.file	"IntQueue.c"
  16              		.text
  17              	.Ltext0:
  18              		.cfi_sections	.debug_frame
  19              		.comm	sniffIDFilter,13,4
  20              		.comm	buffer,4098,4
  21              		.comm	objectList,1704,4
  22              		.bss
  23              		.align	2
  24              	xNormallyEmptyQueue:
  25 0000 00000000 		.space	4
  26              		.align	2
  27              	xNormallyFullQueue:
  28 0004 00000000 		.space	4
  29              		.align	2
  30              	uxHighPriorityLoops1:
  31 0008 00000000 		.space	4
  32              		.align	2
  33              	uxHighPriorityLoops2:
  34 000c 00000000 		.space	4
  35              		.align	2
  36              	uxLowPriorityLoops1:
  37 0010 00000000 		.space	4
  38              		.align	2
  39              	uxLowPriorityLoops2:
  40 0014 00000000 		.space	4
  41              		.data
  42              		.align	2
  43              		.type	xErrorStatus, %object
  44              		.size	xErrorStatus, 4
  45              	xErrorStatus:
  46 0000 01000000 		.word	1
  47              		.bss
  48              		.align	2
  49              	xErrorLine:
  50 0018 00000000 		.space	4
  51              		.align	2
  52              	xWasSuspended:
  53 001c 00000000 		.space	4
  54              		.align	2
  55              	uxValueForNormallyEmptyQueue:
  56 0020 00000000 		.space	4
  57              		.align	2
ARM GAS  C:\Users\THUNDE~1\AppData\Local\Temp\ccjD8PP6.s 			page 2


  58              	uxValueForNormallyFullQueue:
  59 0024 00000000 		.space	4
  60              		.comm	xHighPriorityNormallyEmptyTask1,4,4
  61              		.comm	xHighPriorityNormallyEmptyTask2,4,4
  62              		.comm	xHighPriorityNormallyFullTask1,4,4
  63              		.comm	xHighPriorityNormallyFullTask2,4,4
  64              		.align	2
  65              	ucNormallyEmptyReceivedValues:
  66 0028 00000000 		.space	200
  66      00000000 
  66      00000000 
  66      00000000 
  66      00000000 
  67              		.align	2
  68              	ucNormallyFullReceivedValues:
  69 00f0 00000000 		.space	200
  69      00000000 
  69      00000000 
  69      00000000 
  69      00000000 
  70              		.section	.rodata
  71              		.align	2
  72              	.LC0:
  73 0000 48315152 		.ascii	"H1QRx\000"
  73      7800
  74 0006 0000     		.align	2
  75              	.LC1:
  76 0008 48325152 		.ascii	"H2QRx\000"
  76      7800
  77 000e 0000     		.align	2
  78              	.LC2:
  79 0010 4C315152 		.ascii	"L1QRx\000"
  79      7800
  80 0016 0000     		.align	2
  81              	.LC3:
  82 0018 48315154 		.ascii	"H1QTx\000"
  82      7800
  83 001e 0000     		.align	2
  84              	.LC4:
  85 0020 48325154 		.ascii	"H2QTx\000"
  85      7800
  86 0026 0000     		.align	2
  87              	.LC5:
  88 0028 4C325152 		.ascii	"L2QRx\000"
  88      7800
  89 002e 0000     		.align	2
  90              	.LC6:
  91 0030 4E6F726D 		.ascii	"NormallyFull\000"
  91      616C6C79 
  91      46756C6C 
  91      00
  92 003d 000000   		.align	2
  93              	.LC7:
  94 0040 4E6F726D 		.ascii	"NormallyEmpty\000"
  94      616C6C79 
  94      456D7074 
  94      7900
ARM GAS  C:\Users\THUNDE~1\AppData\Local\Temp\ccjD8PP6.s 			page 3


  95              		.section	.text.vStartInterruptQueueTasks,"ax",%progbits
  96              		.align	2
  97              		.global	vStartInterruptQueueTasks
  98              		.thumb
  99              		.thumb_func
 100              		.type	vStartInterruptQueueTasks, %function
 101              	vStartInterruptQueueTasks:
 102              	.LFB68:
 103              		.file 1 "..\\Common\\Minimal\\IntQueue.c"
   1:..\Common\Minimal/IntQueue.c **** /*
   2:..\Common\Minimal/IntQueue.c ****     FreeRTOS V9.0.0 - Copyright (C) 2016 Real Time Engineers Ltd.
   3:..\Common\Minimal/IntQueue.c ****     All rights reserved
   4:..\Common\Minimal/IntQueue.c **** 
   5:..\Common\Minimal/IntQueue.c ****     VISIT http://www.FreeRTOS.org TO ENSURE YOU ARE USING THE LATEST VERSION.
   6:..\Common\Minimal/IntQueue.c **** 
   7:..\Common\Minimal/IntQueue.c ****     This file is part of the FreeRTOS distribution.
   8:..\Common\Minimal/IntQueue.c **** 
   9:..\Common\Minimal/IntQueue.c ****     FreeRTOS is free software; you can redistribute it and/or modify it under
  10:..\Common\Minimal/IntQueue.c ****     the terms of the GNU General Public License (version 2) as published by the
  11:..\Common\Minimal/IntQueue.c ****     Free Software Foundation >>>> AND MODIFIED BY <<<< the FreeRTOS exception.
  12:..\Common\Minimal/IntQueue.c **** 
  13:..\Common\Minimal/IntQueue.c ****     ***************************************************************************
  14:..\Common\Minimal/IntQueue.c ****     >>!   NOTE: The modification to the GPL is included to allow you to     !<<
  15:..\Common\Minimal/IntQueue.c ****     >>!   distribute a combined work that includes FreeRTOS without being   !<<
  16:..\Common\Minimal/IntQueue.c ****     >>!   obliged to provide the source code for proprietary components     !<<
  17:..\Common\Minimal/IntQueue.c ****     >>!   outside of the FreeRTOS kernel.                                   !<<
  18:..\Common\Minimal/IntQueue.c ****     ***************************************************************************
  19:..\Common\Minimal/IntQueue.c **** 
  20:..\Common\Minimal/IntQueue.c ****     FreeRTOS is distributed in the hope that it will be useful, but WITHOUT ANY
  21:..\Common\Minimal/IntQueue.c ****     WARRANTY; without even the implied warranty of MERCHANTABILITY or FITNESS
  22:..\Common\Minimal/IntQueue.c ****     FOR A PARTICULAR PURPOSE.  Full license text is available on the following
  23:..\Common\Minimal/IntQueue.c ****     link: http://www.freertos.org/a00114.html
  24:..\Common\Minimal/IntQueue.c **** 
  25:..\Common\Minimal/IntQueue.c ****     ***************************************************************************
  26:..\Common\Minimal/IntQueue.c ****      *                                                                       *
  27:..\Common\Minimal/IntQueue.c ****      *    FreeRTOS provides completely free yet professionally developed,    *
  28:..\Common\Minimal/IntQueue.c ****      *    robust, strictly quality controlled, supported, and cross          *
  29:..\Common\Minimal/IntQueue.c ****      *    platform software that is more than just the market leader, it     *
  30:..\Common\Minimal/IntQueue.c ****      *    is the industry's de facto standard.                               *
  31:..\Common\Minimal/IntQueue.c ****      *                                                                       *
  32:..\Common\Minimal/IntQueue.c ****      *    Help yourself get started quickly while simultaneously helping     *
  33:..\Common\Minimal/IntQueue.c ****      *    to support the FreeRTOS project by purchasing a FreeRTOS           *
  34:..\Common\Minimal/IntQueue.c ****      *    tutorial book, reference manual, or both:                          *
  35:..\Common\Minimal/IntQueue.c ****      *    http://www.FreeRTOS.org/Documentation                              *
  36:..\Common\Minimal/IntQueue.c ****      *                                                                       *
  37:..\Common\Minimal/IntQueue.c ****     ***************************************************************************
  38:..\Common\Minimal/IntQueue.c **** 
  39:..\Common\Minimal/IntQueue.c ****     http://www.FreeRTOS.org/FAQHelp.html - Having a problem?  Start by reading
  40:..\Common\Minimal/IntQueue.c ****     the FAQ page "My application does not run, what could be wrong?".  Have you
  41:..\Common\Minimal/IntQueue.c ****     defined configASSERT()?
  42:..\Common\Minimal/IntQueue.c **** 
  43:..\Common\Minimal/IntQueue.c ****     http://www.FreeRTOS.org/support - In return for receiving this top quality
  44:..\Common\Minimal/IntQueue.c ****     embedded software for free we request you assist our global community by
  45:..\Common\Minimal/IntQueue.c ****     participating in the support forum.
  46:..\Common\Minimal/IntQueue.c **** 
  47:..\Common\Minimal/IntQueue.c ****     http://www.FreeRTOS.org/training - Investing in training allows your team to
  48:..\Common\Minimal/IntQueue.c ****     be as productive as possible as early as possible.  Now you can receive
ARM GAS  C:\Users\THUNDE~1\AppData\Local\Temp\ccjD8PP6.s 			page 4


  49:..\Common\Minimal/IntQueue.c ****     FreeRTOS training directly from Richard Barry, CEO of Real Time Engineers
  50:..\Common\Minimal/IntQueue.c ****     Ltd, and the world's leading authority on the world's leading RTOS.
  51:..\Common\Minimal/IntQueue.c **** 
  52:..\Common\Minimal/IntQueue.c ****     http://www.FreeRTOS.org/plus - A selection of FreeRTOS ecosystem products,
  53:..\Common\Minimal/IntQueue.c ****     including FreeRTOS+Trace - an indispensable productivity tool, a DOS
  54:..\Common\Minimal/IntQueue.c ****     compatible FAT file system, and our tiny thread aware UDP/IP stack.
  55:..\Common\Minimal/IntQueue.c **** 
  56:..\Common\Minimal/IntQueue.c ****     http://www.FreeRTOS.org/labs - Where new FreeRTOS products go to incubate.
  57:..\Common\Minimal/IntQueue.c ****     Come and try FreeRTOS+TCP, our new open source TCP/IP stack for FreeRTOS.
  58:..\Common\Minimal/IntQueue.c **** 
  59:..\Common\Minimal/IntQueue.c ****     http://www.OpenRTOS.com - Real Time Engineers ltd. license FreeRTOS to High
  60:..\Common\Minimal/IntQueue.c ****     Integrity Systems ltd. to sell under the OpenRTOS brand.  Low cost OpenRTOS
  61:..\Common\Minimal/IntQueue.c ****     licenses offer ticketed support, indemnification and commercial middleware.
  62:..\Common\Minimal/IntQueue.c **** 
  63:..\Common\Minimal/IntQueue.c ****     http://www.SafeRTOS.com - High Integrity Systems also provide a safety
  64:..\Common\Minimal/IntQueue.c ****     engineered and independently SIL3 certified version for use in safety and
  65:..\Common\Minimal/IntQueue.c ****     mission critical applications that require provable dependability.
  66:..\Common\Minimal/IntQueue.c **** 
  67:..\Common\Minimal/IntQueue.c ****     1 tab == 4 spaces!
  68:..\Common\Minimal/IntQueue.c **** */
  69:..\Common\Minimal/IntQueue.c **** 
  70:..\Common\Minimal/IntQueue.c **** /*
  71:..\Common\Minimal/IntQueue.c ****  * This file defines one of the more complex set of demo/test tasks.  They are
  72:..\Common\Minimal/IntQueue.c ****  * designed to stress test the queue implementation though pseudo simultaneous
  73:..\Common\Minimal/IntQueue.c ****  * multiple reads and multiple writes from both tasks of varying priority and
  74:..\Common\Minimal/IntQueue.c ****  * interrupts.  The interrupts are prioritised such to ensure that nesting
  75:..\Common\Minimal/IntQueue.c ****  * occurs (for those ports that support it).
  76:..\Common\Minimal/IntQueue.c ****  *
  77:..\Common\Minimal/IntQueue.c ****  * The test ensures that, while being accessed from three tasks and two
  78:..\Common\Minimal/IntQueue.c ****  * interrupts, all the data sent to the queues is also received from
  79:..\Common\Minimal/IntQueue.c ****  * the same queue, and that no duplicate items are either sent or received.
  80:..\Common\Minimal/IntQueue.c ****  * The tests also ensure that a low priority task is never able to successfully
  81:..\Common\Minimal/IntQueue.c ****  * read from or write to a queue when a task of higher priority is attempting
  82:..\Common\Minimal/IntQueue.c ****  * the same operation.
  83:..\Common\Minimal/IntQueue.c ****  */
  84:..\Common\Minimal/IntQueue.c **** 
  85:..\Common\Minimal/IntQueue.c **** /* Standard includes. */
  86:..\Common\Minimal/IntQueue.c **** #include <string.h>
  87:..\Common\Minimal/IntQueue.c **** 
  88:..\Common\Minimal/IntQueue.c **** /* SafeRTOS includes. */
  89:..\Common\Minimal/IntQueue.c **** #include "FreeRTOS.h"
  90:..\Common\Minimal/IntQueue.c **** #include "queue.h"
  91:..\Common\Minimal/IntQueue.c **** #include "task.h"
  92:..\Common\Minimal/IntQueue.c **** 
  93:..\Common\Minimal/IntQueue.c **** /* Demo app includes. */
  94:..\Common\Minimal/IntQueue.c **** #include "IntQueue.h"
  95:..\Common\Minimal/IntQueue.c **** #include "IntQueueTimer.h"
  96:..\Common\Minimal/IntQueue.c **** 
  97:..\Common\Minimal/IntQueue.c **** #if( INCLUDE_eTaskGetState != 1 )
  98:..\Common\Minimal/IntQueue.c **** 	#error INCLUDE_eTaskGetState must be set to 1 in FreeRTOSConfig.h to use this demo file.
  99:..\Common\Minimal/IntQueue.c **** #endif
 100:..\Common\Minimal/IntQueue.c **** 
 101:..\Common\Minimal/IntQueue.c **** /* Priorities used by test tasks. */
 102:..\Common\Minimal/IntQueue.c **** #ifndef intqHIGHER_PRIORITY
 103:..\Common\Minimal/IntQueue.c **** 	#define intqHIGHER_PRIORITY		( configMAX_PRIORITIES - 2 )
 104:..\Common\Minimal/IntQueue.c **** #endif
 105:..\Common\Minimal/IntQueue.c **** #define intqLOWER_PRIORITY		( tskIDLE_PRIORITY )
ARM GAS  C:\Users\THUNDE~1\AppData\Local\Temp\ccjD8PP6.s 			page 5


 106:..\Common\Minimal/IntQueue.c **** 
 107:..\Common\Minimal/IntQueue.c **** /* The number of values to send/receive before checking that all values were
 108:..\Common\Minimal/IntQueue.c **** processed as expected. */
 109:..\Common\Minimal/IntQueue.c **** #define intqNUM_VALUES_TO_LOG	( 200 )
 110:..\Common\Minimal/IntQueue.c **** #define intqSHORT_DELAY			( 140 )
 111:..\Common\Minimal/IntQueue.c **** 
 112:..\Common\Minimal/IntQueue.c **** /* The value by which the value being sent to or received from a queue should
 113:..\Common\Minimal/IntQueue.c **** increment past intqNUM_VALUES_TO_LOG before we check that all values have been
 114:..\Common\Minimal/IntQueue.c **** sent/received correctly.  This is done to ensure that all tasks and interrupts
 115:..\Common\Minimal/IntQueue.c **** accessing the queue have completed their accesses with the
 116:..\Common\Minimal/IntQueue.c **** intqNUM_VALUES_TO_LOG range. */
 117:..\Common\Minimal/IntQueue.c **** #define intqVALUE_OVERRUN		( 50 )
 118:..\Common\Minimal/IntQueue.c **** 
 119:..\Common\Minimal/IntQueue.c **** /* The delay used by the polling task.  A short delay is used for code
 120:..\Common\Minimal/IntQueue.c **** coverage. */
 121:..\Common\Minimal/IntQueue.c **** #define intqONE_TICK_DELAY		( 1 )
 122:..\Common\Minimal/IntQueue.c **** 
 123:..\Common\Minimal/IntQueue.c **** /* Each task and interrupt is given a unique identifier.  This value is used to
 124:..\Common\Minimal/IntQueue.c **** identify which task sent or received each value.  The identifier is also used
 125:..\Common\Minimal/IntQueue.c **** to distinguish between two tasks that are running the same task function. */
 126:..\Common\Minimal/IntQueue.c **** #define intqHIGH_PRIORITY_TASK1	( ( UBaseType_t ) 1 )
 127:..\Common\Minimal/IntQueue.c **** #define intqHIGH_PRIORITY_TASK2	( ( UBaseType_t ) 2 )
 128:..\Common\Minimal/IntQueue.c **** #define intqLOW_PRIORITY_TASK	( ( UBaseType_t ) 3 )
 129:..\Common\Minimal/IntQueue.c **** #define intqFIRST_INTERRUPT		( ( UBaseType_t ) 4 )
 130:..\Common\Minimal/IntQueue.c **** #define intqSECOND_INTERRUPT	( ( UBaseType_t ) 5 )
 131:..\Common\Minimal/IntQueue.c **** #define intqQUEUE_LENGTH		( ( UBaseType_t ) 10 )
 132:..\Common\Minimal/IntQueue.c **** 
 133:..\Common\Minimal/IntQueue.c **** /* At least intqMIN_ACCEPTABLE_TASK_COUNT values should be sent to/received
 134:..\Common\Minimal/IntQueue.c **** from each queue by each task, otherwise an error is detected. */
 135:..\Common\Minimal/IntQueue.c **** #define intqMIN_ACCEPTABLE_TASK_COUNT		( 5 )
 136:..\Common\Minimal/IntQueue.c **** 
 137:..\Common\Minimal/IntQueue.c **** /* Send the next value to the queue that is normally empty.  This is called
 138:..\Common\Minimal/IntQueue.c **** from within the interrupts. */
 139:..\Common\Minimal/IntQueue.c **** #define timerNORMALLY_EMPTY_TX()																							\
 140:..\Common\Minimal/IntQueue.c **** 	if( xQueueIsQueueFullFromISR( xNormallyEmptyQueue ) != pdTRUE )															\
 141:..\Common\Minimal/IntQueue.c **** 	{																														\
 142:..\Common\Minimal/IntQueue.c **** 	UBaseType_t uxSavedInterruptStatus;																						\
 143:..\Common\Minimal/IntQueue.c **** 		uxSavedInterruptStatus = portSET_INTERRUPT_MASK_FROM_ISR();															\
 144:..\Common\Minimal/IntQueue.c **** 		{																													\
 145:..\Common\Minimal/IntQueue.c **** 			uxValueForNormallyEmptyQueue++;																					\
 146:..\Common\Minimal/IntQueue.c **** 			if( xQueueSendFromISR( xNormallyEmptyQueue, ( void * ) &uxValueForNormallyEmptyQueue, &xHigherPr
 147:..\Common\Minimal/IntQueue.c **** 			{																												\
 148:..\Common\Minimal/IntQueue.c **** 				uxValueForNormallyEmptyQueue--;																				\
 149:..\Common\Minimal/IntQueue.c **** 			}																												\
 150:..\Common\Minimal/IntQueue.c **** 		}																													\
 151:..\Common\Minimal/IntQueue.c **** 		portCLEAR_INTERRUPT_MASK_FROM_ISR( uxSavedInterruptStatus );														\
 152:..\Common\Minimal/IntQueue.c **** 	}																														\
 153:..\Common\Minimal/IntQueue.c **** 
 154:..\Common\Minimal/IntQueue.c **** /* Send the next value to the queue that is normally full.  This is called
 155:..\Common\Minimal/IntQueue.c **** from within the interrupts. */
 156:..\Common\Minimal/IntQueue.c **** #define timerNORMALLY_FULL_TX()																								\
 157:..\Common\Minimal/IntQueue.c **** 	if( xQueueIsQueueFullFromISR( xNormallyFullQueue ) != pdTRUE )															\
 158:..\Common\Minimal/IntQueue.c **** 	{																														\
 159:..\Common\Minimal/IntQueue.c **** 	UBaseType_t uxSavedInterruptStatus;																						\
 160:..\Common\Minimal/IntQueue.c **** 		uxSavedInterruptStatus = portSET_INTERRUPT_MASK_FROM_ISR();															\
 161:..\Common\Minimal/IntQueue.c **** 		{																													\
 162:..\Common\Minimal/IntQueue.c **** 			uxValueForNormallyFullQueue++;																					\
ARM GAS  C:\Users\THUNDE~1\AppData\Local\Temp\ccjD8PP6.s 			page 6


 163:..\Common\Minimal/IntQueue.c **** 			if( xQueueSendFromISR( xNormallyFullQueue, ( void * ) &uxValueForNormallyFullQueue, &xHigherPrio
 164:..\Common\Minimal/IntQueue.c **** 			{																												\
 165:..\Common\Minimal/IntQueue.c **** 				uxValueForNormallyFullQueue--;																				\
 166:..\Common\Minimal/IntQueue.c **** 			} 																												\
 167:..\Common\Minimal/IntQueue.c **** 		}																													\
 168:..\Common\Minimal/IntQueue.c **** 		portCLEAR_INTERRUPT_MASK_FROM_ISR( uxSavedInterruptStatus );														\
 169:..\Common\Minimal/IntQueue.c **** 	}																														\
 170:..\Common\Minimal/IntQueue.c **** 
 171:..\Common\Minimal/IntQueue.c **** /* Receive a value from the normally empty queue.  This is called from within
 172:..\Common\Minimal/IntQueue.c **** an interrupt. */
 173:..\Common\Minimal/IntQueue.c **** #define timerNORMALLY_EMPTY_RX()																			\
 174:..\Common\Minimal/IntQueue.c **** 	if( xQueueReceiveFromISR( xNormallyEmptyQueue, &uxRxedValue, &xHigherPriorityTaskWoken ) != pdPASS
 175:..\Common\Minimal/IntQueue.c **** 	{																										\
 176:..\Common\Minimal/IntQueue.c **** 		prvQueueAccessLogError( __LINE__ );																	\
 177:..\Common\Minimal/IntQueue.c **** 	}																										\
 178:..\Common\Minimal/IntQueue.c **** 	else																									\
 179:..\Common\Minimal/IntQueue.c **** 	{																										\
 180:..\Common\Minimal/IntQueue.c **** 		prvRecordValue_NormallyEmpty( uxRxedValue, intqSECOND_INTERRUPT );									\
 181:..\Common\Minimal/IntQueue.c **** 	}
 182:..\Common\Minimal/IntQueue.c **** 
 183:..\Common\Minimal/IntQueue.c **** /* Receive a value from the normally full queue.  This is called from within
 184:..\Common\Minimal/IntQueue.c **** an interrupt. */
 185:..\Common\Minimal/IntQueue.c **** #define timerNORMALLY_FULL_RX()																				\
 186:..\Common\Minimal/IntQueue.c **** 	if( xQueueReceiveFromISR( xNormallyFullQueue, &uxRxedValue, &xHigherPriorityTaskWoken ) == pdPASS 
 187:..\Common\Minimal/IntQueue.c **** 	{																										\
 188:..\Common\Minimal/IntQueue.c **** 		prvRecordValue_NormallyFull( uxRxedValue, intqSECOND_INTERRUPT );									\
 189:..\Common\Minimal/IntQueue.c **** 	}																										\
 190:..\Common\Minimal/IntQueue.c **** 
 191:..\Common\Minimal/IntQueue.c **** 
 192:..\Common\Minimal/IntQueue.c **** /*-----------------------------------------------------------*/
 193:..\Common\Minimal/IntQueue.c **** 
 194:..\Common\Minimal/IntQueue.c **** /* The two queues used by the test. */
 195:..\Common\Minimal/IntQueue.c **** static QueueHandle_t xNormallyEmptyQueue, xNormallyFullQueue;
 196:..\Common\Minimal/IntQueue.c **** 
 197:..\Common\Minimal/IntQueue.c **** /* Variables used to detect a stall in one of the tasks. */
 198:..\Common\Minimal/IntQueue.c **** static volatile UBaseType_t uxHighPriorityLoops1 = 0, uxHighPriorityLoops2 = 0, uxLowPriorityLoops1
 199:..\Common\Minimal/IntQueue.c **** 
 200:..\Common\Minimal/IntQueue.c **** /* Any unexpected behaviour sets xErrorStatus to fail and log the line that
 201:..\Common\Minimal/IntQueue.c **** caused the error in xErrorLine. */
 202:..\Common\Minimal/IntQueue.c **** static BaseType_t xErrorStatus = pdPASS;
 203:..\Common\Minimal/IntQueue.c **** static volatile UBaseType_t xErrorLine = ( UBaseType_t ) 0;
 204:..\Common\Minimal/IntQueue.c **** 
 205:..\Common\Minimal/IntQueue.c **** /* Used for sequencing between tasks. */
 206:..\Common\Minimal/IntQueue.c **** static BaseType_t xWasSuspended = pdFALSE;
 207:..\Common\Minimal/IntQueue.c **** 
 208:..\Common\Minimal/IntQueue.c **** /* The values that are sent to the queues.  An incremented value is sent each
 209:..\Common\Minimal/IntQueue.c **** time to each queue. */
 210:..\Common\Minimal/IntQueue.c **** static volatile UBaseType_t uxValueForNormallyEmptyQueue = 0, uxValueForNormallyFullQueue = 0;
 211:..\Common\Minimal/IntQueue.c **** 
 212:..\Common\Minimal/IntQueue.c **** /* A handle to some of the tasks is required so they can be suspended/resumed. */
 213:..\Common\Minimal/IntQueue.c **** TaskHandle_t xHighPriorityNormallyEmptyTask1, xHighPriorityNormallyEmptyTask2, xHighPriorityNormall
 214:..\Common\Minimal/IntQueue.c **** 
 215:..\Common\Minimal/IntQueue.c **** /* When a value is received in a queue the value is ticked off in the array
 216:..\Common\Minimal/IntQueue.c **** the array position of the value is set to a the identifier of the task or
 217:..\Common\Minimal/IntQueue.c **** interrupt that accessed the queue.  This way missing or duplicate values can be
 218:..\Common\Minimal/IntQueue.c **** detected. */
 219:..\Common\Minimal/IntQueue.c **** static uint8_t ucNormallyEmptyReceivedValues[ intqNUM_VALUES_TO_LOG ] = { 0 };
ARM GAS  C:\Users\THUNDE~1\AppData\Local\Temp\ccjD8PP6.s 			page 7


 220:..\Common\Minimal/IntQueue.c **** static uint8_t ucNormallyFullReceivedValues[ intqNUM_VALUES_TO_LOG ] = { 0 };
 221:..\Common\Minimal/IntQueue.c **** 
 222:..\Common\Minimal/IntQueue.c **** /* The test tasks themselves. */
 223:..\Common\Minimal/IntQueue.c **** static void prvLowerPriorityNormallyEmptyTask( void *pvParameters );
 224:..\Common\Minimal/IntQueue.c **** static void prvLowerPriorityNormallyFullTask( void *pvParameters );
 225:..\Common\Minimal/IntQueue.c **** static void prvHigherPriorityNormallyEmptyTask( void *pvParameters );
 226:..\Common\Minimal/IntQueue.c **** static void prv1stHigherPriorityNormallyFullTask( void *pvParameters );
 227:..\Common\Minimal/IntQueue.c **** static void prv2ndHigherPriorityNormallyFullTask( void *pvParameters );
 228:..\Common\Minimal/IntQueue.c **** 
 229:..\Common\Minimal/IntQueue.c **** /* Used to mark the positions within the ucNormallyEmptyReceivedValues and
 230:..\Common\Minimal/IntQueue.c **** ucNormallyFullReceivedValues arrays, while checking for duplicates. */
 231:..\Common\Minimal/IntQueue.c **** static void prvRecordValue_NormallyEmpty( UBaseType_t uxValue, UBaseType_t uxSource );
 232:..\Common\Minimal/IntQueue.c **** static void prvRecordValue_NormallyFull( UBaseType_t uxValue, UBaseType_t uxSource );
 233:..\Common\Minimal/IntQueue.c **** 
 234:..\Common\Minimal/IntQueue.c **** /* Logs the line on which an error occurred. */
 235:..\Common\Minimal/IntQueue.c **** static void prvQueueAccessLogError( UBaseType_t uxLine );
 236:..\Common\Minimal/IntQueue.c **** 
 237:..\Common\Minimal/IntQueue.c **** /*-----------------------------------------------------------*/
 238:..\Common\Minimal/IntQueue.c **** 
 239:..\Common\Minimal/IntQueue.c **** void vStartInterruptQueueTasks( void )
 240:..\Common\Minimal/IntQueue.c **** {
 104              		.loc 1 240 0
 105              		.cfi_startproc
 106              		@ args = 0, pretend = 0, frame = 0
 107              		@ frame_needed = 1, uses_anonymous_args = 0
 108 0000 80B5     		push	{r7, lr}
 109              		.cfi_def_cfa_offset 8
 110              		.cfi_offset 7, -8
 111              		.cfi_offset 14, -4
 112 0002 82B0     		sub	sp, sp, #8
 113              		.cfi_def_cfa_offset 16
 114 0004 02AF     		add	r7, sp, #8
 115              		.cfi_def_cfa 7, 8
 241:..\Common\Minimal/IntQueue.c **** 	/* Start the test tasks. */
 242:..\Common\Minimal/IntQueue.c **** 	xTaskCreate( prvHigherPriorityNormallyEmptyTask, "H1QRx", configMINIMAL_STACK_SIZE, ( void * ) int
 116              		.loc 1 242 0
 117 0006 2D4B     		ldr	r3, .L2
 118 0008 0193     		str	r3, [sp, #4]
 119 000a 0323     		movs	r3, #3
 120 000c 0093     		str	r3, [sp]
 121 000e 0123     		movs	r3, #1
 122 0010 6422     		movs	r2, #100
 123 0012 2B49     		ldr	r1, .L2+4
 124 0014 2B48     		ldr	r0, .L2+8
 125 0016 FFF7FEFF 		bl	xTaskCreate
 243:..\Common\Minimal/IntQueue.c **** 	xTaskCreate( prvHigherPriorityNormallyEmptyTask, "H2QRx", configMINIMAL_STACK_SIZE, ( void * ) int
 126              		.loc 1 243 0
 127 001a 2B4B     		ldr	r3, .L2+12
 128 001c 0193     		str	r3, [sp, #4]
 129 001e 0323     		movs	r3, #3
 130 0020 0093     		str	r3, [sp]
 131 0022 0223     		movs	r3, #2
 132 0024 6422     		movs	r2, #100
 133 0026 2949     		ldr	r1, .L2+16
 134 0028 2648     		ldr	r0, .L2+8
 135 002a FFF7FEFF 		bl	xTaskCreate
 244:..\Common\Minimal/IntQueue.c **** 	xTaskCreate( prvLowerPriorityNormallyEmptyTask, "L1QRx", configMINIMAL_STACK_SIZE, NULL, intqLOWER
ARM GAS  C:\Users\THUNDE~1\AppData\Local\Temp\ccjD8PP6.s 			page 8


 136              		.loc 1 244 0
 137 002e 0023     		movs	r3, #0
 138 0030 0193     		str	r3, [sp, #4]
 139 0032 0023     		movs	r3, #0
 140 0034 0093     		str	r3, [sp]
 141 0036 0023     		movs	r3, #0
 142 0038 6422     		movs	r2, #100
 143 003a 2549     		ldr	r1, .L2+20
 144 003c 2548     		ldr	r0, .L2+24
 145 003e FFF7FEFF 		bl	xTaskCreate
 245:..\Common\Minimal/IntQueue.c **** 	xTaskCreate( prv1stHigherPriorityNormallyFullTask, "H1QTx", configMINIMAL_STACK_SIZE, ( void * ) i
 146              		.loc 1 245 0
 147 0042 254B     		ldr	r3, .L2+28
 148 0044 0193     		str	r3, [sp, #4]
 149 0046 0323     		movs	r3, #3
 150 0048 0093     		str	r3, [sp]
 151 004a 0123     		movs	r3, #1
 152 004c 6422     		movs	r2, #100
 153 004e 2349     		ldr	r1, .L2+32
 154 0050 2348     		ldr	r0, .L2+36
 155 0052 FFF7FEFF 		bl	xTaskCreate
 246:..\Common\Minimal/IntQueue.c **** 	xTaskCreate( prv2ndHigherPriorityNormallyFullTask, "H2QTx", configMINIMAL_STACK_SIZE, ( void * ) i
 156              		.loc 1 246 0
 157 0056 234B     		ldr	r3, .L2+40
 158 0058 0193     		str	r3, [sp, #4]
 159 005a 0323     		movs	r3, #3
 160 005c 0093     		str	r3, [sp]
 161 005e 0223     		movs	r3, #2
 162 0060 6422     		movs	r2, #100
 163 0062 2149     		ldr	r1, .L2+44
 164 0064 2148     		ldr	r0, .L2+48
 165 0066 FFF7FEFF 		bl	xTaskCreate
 247:..\Common\Minimal/IntQueue.c **** 	xTaskCreate( prvLowerPriorityNormallyFullTask, "L2QRx", configMINIMAL_STACK_SIZE, NULL, intqLOWER_
 166              		.loc 1 247 0
 167 006a 0023     		movs	r3, #0
 168 006c 0193     		str	r3, [sp, #4]
 169 006e 0023     		movs	r3, #0
 170 0070 0093     		str	r3, [sp]
 171 0072 0023     		movs	r3, #0
 172 0074 6422     		movs	r2, #100
 173 0076 1E49     		ldr	r1, .L2+52
 174 0078 1E48     		ldr	r0, .L2+56
 175 007a FFF7FEFF 		bl	xTaskCreate
 248:..\Common\Minimal/IntQueue.c **** 
 249:..\Common\Minimal/IntQueue.c **** 	/* Create the queues that are accessed by multiple tasks and multiple
 250:..\Common\Minimal/IntQueue.c **** 	interrupts. */
 251:..\Common\Minimal/IntQueue.c **** 	xNormallyFullQueue = xQueueCreate( intqQUEUE_LENGTH, ( UBaseType_t ) sizeof( UBaseType_t ) );
 176              		.loc 1 251 0
 177 007e 0022     		movs	r2, #0
 178 0080 0421     		movs	r1, #4
 179 0082 0A20     		movs	r0, #10
 180 0084 FFF7FEFF 		bl	xQueueGenericCreate
 181 0088 0246     		mov	r2, r0
 182 008a 1B4B     		ldr	r3, .L2+60
 183 008c 1A60     		str	r2, [r3]
 252:..\Common\Minimal/IntQueue.c **** 	xNormallyEmptyQueue = xQueueCreate( intqQUEUE_LENGTH, ( UBaseType_t ) sizeof( UBaseType_t ) );
 184              		.loc 1 252 0
ARM GAS  C:\Users\THUNDE~1\AppData\Local\Temp\ccjD8PP6.s 			page 9


 185 008e 0022     		movs	r2, #0
 186 0090 0421     		movs	r1, #4
 187 0092 0A20     		movs	r0, #10
 188 0094 FFF7FEFF 		bl	xQueueGenericCreate
 189 0098 0246     		mov	r2, r0
 190 009a 184B     		ldr	r3, .L2+64
 191 009c 1A60     		str	r2, [r3]
 253:..\Common\Minimal/IntQueue.c **** 
 254:..\Common\Minimal/IntQueue.c **** 	/* vQueueAddToRegistry() adds the queue to the queue registry, if one is
 255:..\Common\Minimal/IntQueue.c **** 	in use.  The queue registry is provided as a means for kernel aware
 256:..\Common\Minimal/IntQueue.c **** 	debuggers to locate queues and has no purpose if a kernel aware debugger
 257:..\Common\Minimal/IntQueue.c **** 	is not being used.  The call to vQueueAddToRegistry() will be removed
 258:..\Common\Minimal/IntQueue.c **** 	by the pre-processor if configQUEUE_REGISTRY_SIZE is not defined or is
 259:..\Common\Minimal/IntQueue.c **** 	defined to be less than 1. */
 260:..\Common\Minimal/IntQueue.c **** 	vQueueAddToRegistry( xNormallyFullQueue, "NormallyFull" );
 192              		.loc 1 260 0
 193 009e 164B     		ldr	r3, .L2+60
 194 00a0 1B68     		ldr	r3, [r3]
 195 00a2 1749     		ldr	r1, .L2+68
 196 00a4 1846     		mov	r0, r3
 197 00a6 FFF7FEFF 		bl	vQueueAddToRegistry
 261:..\Common\Minimal/IntQueue.c **** 	vQueueAddToRegistry( xNormallyEmptyQueue, "NormallyEmpty" );
 198              		.loc 1 261 0
 199 00aa 144B     		ldr	r3, .L2+64
 200 00ac 1B68     		ldr	r3, [r3]
 201 00ae 1549     		ldr	r1, .L2+72
 202 00b0 1846     		mov	r0, r3
 203 00b2 FFF7FEFF 		bl	vQueueAddToRegistry
 262:..\Common\Minimal/IntQueue.c **** }
 204              		.loc 1 262 0
 205 00b6 00BF     		nop
 206 00b8 BD46     		mov	sp, r7
 207              		.cfi_def_cfa_register 13
 208              		@ sp needed
 209 00ba 80BD     		pop	{r7, pc}
 210              	.L3:
 211              		.align	2
 212              	.L2:
 213 00bc 00000000 		.word	xHighPriorityNormallyEmptyTask1
 214 00c0 00000000 		.word	.LC0
 215 00c4 00000000 		.word	prvHigherPriorityNormallyEmptyTask
 216 00c8 00000000 		.word	xHighPriorityNormallyEmptyTask2
 217 00cc 08000000 		.word	.LC1
 218 00d0 10000000 		.word	.LC2
 219 00d4 00000000 		.word	prvLowerPriorityNormallyEmptyTask
 220 00d8 00000000 		.word	xHighPriorityNormallyFullTask1
 221 00dc 18000000 		.word	.LC3
 222 00e0 00000000 		.word	prv1stHigherPriorityNormallyFullTask
 223 00e4 00000000 		.word	xHighPriorityNormallyFullTask2
 224 00e8 20000000 		.word	.LC4
 225 00ec 00000000 		.word	prv2ndHigherPriorityNormallyFullTask
 226 00f0 28000000 		.word	.LC5
 227 00f4 00000000 		.word	prvLowerPriorityNormallyFullTask
 228 00f8 04000000 		.word	xNormallyFullQueue
 229 00fc 00000000 		.word	xNormallyEmptyQueue
 230 0100 30000000 		.word	.LC6
 231 0104 40000000 		.word	.LC7
ARM GAS  C:\Users\THUNDE~1\AppData\Local\Temp\ccjD8PP6.s 			page 10


 232              		.cfi_endproc
 233              	.LFE68:
 234              		.size	vStartInterruptQueueTasks, .-vStartInterruptQueueTasks
 235              		.section	.text.prvRecordValue_NormallyFull,"ax",%progbits
 236              		.align	2
 237              		.thumb
 238              		.thumb_func
 239              		.type	prvRecordValue_NormallyFull, %function
 240              	prvRecordValue_NormallyFull:
 241              	.LFB69:
 263:..\Common\Minimal/IntQueue.c **** /*-----------------------------------------------------------*/
 264:..\Common\Minimal/IntQueue.c **** 
 265:..\Common\Minimal/IntQueue.c **** static void prvRecordValue_NormallyFull( UBaseType_t uxValue, UBaseType_t uxSource )
 266:..\Common\Minimal/IntQueue.c **** {
 242              		.loc 1 266 0
 243              		.cfi_startproc
 244              		@ args = 0, pretend = 0, frame = 8
 245              		@ frame_needed = 1, uses_anonymous_args = 0
 246 0000 80B5     		push	{r7, lr}
 247              		.cfi_def_cfa_offset 8
 248              		.cfi_offset 7, -8
 249              		.cfi_offset 14, -4
 250 0002 82B0     		sub	sp, sp, #8
 251              		.cfi_def_cfa_offset 16
 252 0004 00AF     		add	r7, sp, #0
 253              		.cfi_def_cfa_register 7
 254 0006 7860     		str	r0, [r7, #4]
 255 0008 3960     		str	r1, [r7]
 267:..\Common\Minimal/IntQueue.c **** 	if( uxValue < intqNUM_VALUES_TO_LOG )
 256              		.loc 1 267 0
 257 000a 7B68     		ldr	r3, [r7, #4]
 258 000c C72B     		cmp	r3, #199
 259 000e 10D8     		bhi	.L7
 268:..\Common\Minimal/IntQueue.c **** 	{
 269:..\Common\Minimal/IntQueue.c **** 		/* We don't expect to receive the same value twice, so if the value
 270:..\Common\Minimal/IntQueue.c **** 		has already been marked as received an error has occurred. */
 271:..\Common\Minimal/IntQueue.c **** 		if( ucNormallyFullReceivedValues[ uxValue ] != 0x00 )
 260              		.loc 1 271 0
 261 0010 0A4A     		ldr	r2, .L8
 262 0012 7B68     		ldr	r3, [r7, #4]
 263 0014 1344     		add	r3, r3, r2
 264 0016 1B78     		ldrb	r3, [r3]	@ zero_extendqisi2
 265 0018 002B     		cmp	r3, #0
 266 001a 03D0     		beq	.L6
 272:..\Common\Minimal/IntQueue.c **** 		{
 273:..\Common\Minimal/IntQueue.c **** 			prvQueueAccessLogError( __LINE__ );
 267              		.loc 1 273 0
 268 001c 40F21110 		movw	r0, #273
 269 0020 FFF7FEFF 		bl	prvQueueAccessLogError
 270              	.L6:
 274:..\Common\Minimal/IntQueue.c **** 		}
 275:..\Common\Minimal/IntQueue.c **** 
 276:..\Common\Minimal/IntQueue.c **** 		/* Log that this value has been received. */
 277:..\Common\Minimal/IntQueue.c **** 		ucNormallyFullReceivedValues[ uxValue ] = ( uint8_t ) uxSource;
 271              		.loc 1 277 0
 272 0024 3B68     		ldr	r3, [r7]
 273 0026 D9B2     		uxtb	r1, r3
ARM GAS  C:\Users\THUNDE~1\AppData\Local\Temp\ccjD8PP6.s 			page 11


 274 0028 044A     		ldr	r2, .L8
 275 002a 7B68     		ldr	r3, [r7, #4]
 276 002c 1344     		add	r3, r3, r2
 277 002e 0A46     		mov	r2, r1
 278 0030 1A70     		strb	r2, [r3]
 279              	.L7:
 278:..\Common\Minimal/IntQueue.c **** 	}
 279:..\Common\Minimal/IntQueue.c **** }
 280              		.loc 1 279 0
 281 0032 00BF     		nop
 282 0034 0837     		adds	r7, r7, #8
 283              		.cfi_def_cfa_offset 8
 284 0036 BD46     		mov	sp, r7
 285              		.cfi_def_cfa_register 13
 286              		@ sp needed
 287 0038 80BD     		pop	{r7, pc}
 288              	.L9:
 289 003a 00BF     		.align	2
 290              	.L8:
 291 003c F0000000 		.word	ucNormallyFullReceivedValues
 292              		.cfi_endproc
 293              	.LFE69:
 294              		.size	prvRecordValue_NormallyFull, .-prvRecordValue_NormallyFull
 295              		.section	.text.prvRecordValue_NormallyEmpty,"ax",%progbits
 296              		.align	2
 297              		.thumb
 298              		.thumb_func
 299              		.type	prvRecordValue_NormallyEmpty, %function
 300              	prvRecordValue_NormallyEmpty:
 301              	.LFB70:
 280:..\Common\Minimal/IntQueue.c **** /*-----------------------------------------------------------*/
 281:..\Common\Minimal/IntQueue.c **** 
 282:..\Common\Minimal/IntQueue.c **** static void prvRecordValue_NormallyEmpty( UBaseType_t uxValue, UBaseType_t uxSource )
 283:..\Common\Minimal/IntQueue.c **** {
 302              		.loc 1 283 0
 303              		.cfi_startproc
 304              		@ args = 0, pretend = 0, frame = 8
 305              		@ frame_needed = 1, uses_anonymous_args = 0
 306 0000 80B5     		push	{r7, lr}
 307              		.cfi_def_cfa_offset 8
 308              		.cfi_offset 7, -8
 309              		.cfi_offset 14, -4
 310 0002 82B0     		sub	sp, sp, #8
 311              		.cfi_def_cfa_offset 16
 312 0004 00AF     		add	r7, sp, #0
 313              		.cfi_def_cfa_register 7
 314 0006 7860     		str	r0, [r7, #4]
 315 0008 3960     		str	r1, [r7]
 284:..\Common\Minimal/IntQueue.c **** 	if( uxValue < intqNUM_VALUES_TO_LOG )
 316              		.loc 1 284 0
 317 000a 7B68     		ldr	r3, [r7, #4]
 318 000c C72B     		cmp	r3, #199
 319 000e 10D8     		bhi	.L13
 285:..\Common\Minimal/IntQueue.c **** 	{
 286:..\Common\Minimal/IntQueue.c **** 		/* We don't expect to receive the same value twice, so if the value
 287:..\Common\Minimal/IntQueue.c **** 		has already been marked as received an error has occurred. */
 288:..\Common\Minimal/IntQueue.c **** 		if( ucNormallyEmptyReceivedValues[ uxValue ] != 0x00 )
ARM GAS  C:\Users\THUNDE~1\AppData\Local\Temp\ccjD8PP6.s 			page 12


 320              		.loc 1 288 0
 321 0010 0A4A     		ldr	r2, .L14
 322 0012 7B68     		ldr	r3, [r7, #4]
 323 0014 1344     		add	r3, r3, r2
 324 0016 1B78     		ldrb	r3, [r3]	@ zero_extendqisi2
 325 0018 002B     		cmp	r3, #0
 326 001a 03D0     		beq	.L12
 289:..\Common\Minimal/IntQueue.c **** 		{
 290:..\Common\Minimal/IntQueue.c **** 			prvQueueAccessLogError( __LINE__ );
 327              		.loc 1 290 0
 328 001c 4FF49170 		mov	r0, #290
 329 0020 FFF7FEFF 		bl	prvQueueAccessLogError
 330              	.L12:
 291:..\Common\Minimal/IntQueue.c **** 		}
 292:..\Common\Minimal/IntQueue.c **** 
 293:..\Common\Minimal/IntQueue.c **** 		/* Log that this value has been received. */
 294:..\Common\Minimal/IntQueue.c **** 		ucNormallyEmptyReceivedValues[ uxValue ] = ( uint8_t ) uxSource;
 331              		.loc 1 294 0
 332 0024 3B68     		ldr	r3, [r7]
 333 0026 D9B2     		uxtb	r1, r3
 334 0028 044A     		ldr	r2, .L14
 335 002a 7B68     		ldr	r3, [r7, #4]
 336 002c 1344     		add	r3, r3, r2
 337 002e 0A46     		mov	r2, r1
 338 0030 1A70     		strb	r2, [r3]
 339              	.L13:
 295:..\Common\Minimal/IntQueue.c **** 	}
 296:..\Common\Minimal/IntQueue.c **** }
 340              		.loc 1 296 0
 341 0032 00BF     		nop
 342 0034 0837     		adds	r7, r7, #8
 343              		.cfi_def_cfa_offset 8
 344 0036 BD46     		mov	sp, r7
 345              		.cfi_def_cfa_register 13
 346              		@ sp needed
 347 0038 80BD     		pop	{r7, pc}
 348              	.L15:
 349 003a 00BF     		.align	2
 350              	.L14:
 351 003c 28000000 		.word	ucNormallyEmptyReceivedValues
 352              		.cfi_endproc
 353              	.LFE70:
 354              		.size	prvRecordValue_NormallyEmpty, .-prvRecordValue_NormallyEmpty
 355              		.section	.text.prvQueueAccessLogError,"ax",%progbits
 356              		.align	2
 357              		.thumb
 358              		.thumb_func
 359              		.type	prvQueueAccessLogError, %function
 360              	prvQueueAccessLogError:
 361              	.LFB71:
 297:..\Common\Minimal/IntQueue.c **** /*-----------------------------------------------------------*/
 298:..\Common\Minimal/IntQueue.c **** 
 299:..\Common\Minimal/IntQueue.c **** static void prvQueueAccessLogError( UBaseType_t uxLine )
 300:..\Common\Minimal/IntQueue.c **** {
 362              		.loc 1 300 0
 363              		.cfi_startproc
 364              		@ args = 0, pretend = 0, frame = 8
ARM GAS  C:\Users\THUNDE~1\AppData\Local\Temp\ccjD8PP6.s 			page 13


 365              		@ frame_needed = 1, uses_anonymous_args = 0
 366              		@ link register save eliminated.
 367 0000 80B4     		push	{r7}
 368              		.cfi_def_cfa_offset 4
 369              		.cfi_offset 7, -4
 370 0002 83B0     		sub	sp, sp, #12
 371              		.cfi_def_cfa_offset 16
 372 0004 00AF     		add	r7, sp, #0
 373              		.cfi_def_cfa_register 7
 374 0006 7860     		str	r0, [r7, #4]
 301:..\Common\Minimal/IntQueue.c **** 	/* Latch the line number that caused the error. */
 302:..\Common\Minimal/IntQueue.c **** 	xErrorLine = uxLine;
 375              		.loc 1 302 0
 376 0008 054A     		ldr	r2, .L17
 377 000a 7B68     		ldr	r3, [r7, #4]
 378 000c 1360     		str	r3, [r2]
 303:..\Common\Minimal/IntQueue.c **** 	xErrorStatus = pdFAIL;
 379              		.loc 1 303 0
 380 000e 054B     		ldr	r3, .L17+4
 381 0010 0022     		movs	r2, #0
 382 0012 1A60     		str	r2, [r3]
 304:..\Common\Minimal/IntQueue.c **** }
 383              		.loc 1 304 0
 384 0014 00BF     		nop
 385 0016 0C37     		adds	r7, r7, #12
 386              		.cfi_def_cfa_offset 4
 387 0018 BD46     		mov	sp, r7
 388              		.cfi_def_cfa_register 13
 389              		@ sp needed
 390 001a 80BC     		pop	{r7}
 391              		.cfi_restore 7
 392              		.cfi_def_cfa_offset 0
 393 001c 7047     		bx	lr
 394              	.L18:
 395 001e 00BF     		.align	2
 396              	.L17:
 397 0020 18000000 		.word	xErrorLine
 398 0024 00000000 		.word	xErrorStatus
 399              		.cfi_endproc
 400              	.LFE71:
 401              		.size	prvQueueAccessLogError, .-prvQueueAccessLogError
 402              		.section	.text.prvHigherPriorityNormallyEmptyTask,"ax",%progbits
 403              		.align	2
 404              		.thumb
 405              		.thumb_func
 406              		.type	prvHigherPriorityNormallyEmptyTask, %function
 407              	prvHigherPriorityNormallyEmptyTask:
 408              	.LFB72:
 305:..\Common\Minimal/IntQueue.c **** /*-----------------------------------------------------------*/
 306:..\Common\Minimal/IntQueue.c **** 
 307:..\Common\Minimal/IntQueue.c **** static void prvHigherPriorityNormallyEmptyTask( void *pvParameters )
 308:..\Common\Minimal/IntQueue.c **** {
 409              		.loc 1 308 0
 410              		.cfi_startproc
 411              		@ args = 0, pretend = 0, frame = 40
 412              		@ frame_needed = 1, uses_anonymous_args = 0
 413 0000 80B5     		push	{r7, lr}
ARM GAS  C:\Users\THUNDE~1\AppData\Local\Temp\ccjD8PP6.s 			page 14


 414              		.cfi_def_cfa_offset 8
 415              		.cfi_offset 7, -8
 416              		.cfi_offset 14, -4
 417 0002 8AB0     		sub	sp, sp, #40
 418              		.cfi_def_cfa_offset 48
 419 0004 00AF     		add	r7, sp, #0
 420              		.cfi_def_cfa_register 7
 421 0006 7860     		str	r0, [r7, #4]
 309:..\Common\Minimal/IntQueue.c **** UBaseType_t uxRxed, ux, uxTask1, uxTask2, uxInterrupts, uxErrorCount1 = 0, uxErrorCount2 = 0;
 422              		.loc 1 309 0
 423 0008 0023     		movs	r3, #0
 424 000a 7B61     		str	r3, [r7, #20]
 425 000c 0023     		movs	r3, #0
 426 000e 3B61     		str	r3, [r7, #16]
 310:..\Common\Minimal/IntQueue.c **** 
 311:..\Common\Minimal/IntQueue.c **** 	/* The timer should not be started until after the scheduler has started.
 312:..\Common\Minimal/IntQueue.c **** 	More than one task is running this code so we check the parameter value
 313:..\Common\Minimal/IntQueue.c **** 	to determine which task should start the timer. */
 314:..\Common\Minimal/IntQueue.c **** 	if( ( UBaseType_t ) pvParameters == intqHIGH_PRIORITY_TASK1 )
 427              		.loc 1 314 0
 428 0010 7B68     		ldr	r3, [r7, #4]
 429 0012 012B     		cmp	r3, #1
 430 0014 01D1     		bne	.L20
 315:..\Common\Minimal/IntQueue.c **** 	{
 316:..\Common\Minimal/IntQueue.c **** 		vInitialiseTimerForIntQueueTest();
 431              		.loc 1 316 0
 432 0016 FFF7FEFF 		bl	vInitialiseTimerForIntQueueTest
 433              	.L20:
 317:..\Common\Minimal/IntQueue.c **** 	}
 318:..\Common\Minimal/IntQueue.c **** 
 319:..\Common\Minimal/IntQueue.c **** 	for( ;; )
 320:..\Common\Minimal/IntQueue.c **** 	{
 321:..\Common\Minimal/IntQueue.c **** 		/* Block waiting to receive a value from the normally empty queue.
 322:..\Common\Minimal/IntQueue.c **** 		Interrupts will write to the queue so we should receive a value. */
 323:..\Common\Minimal/IntQueue.c **** 		if( xQueueReceive( xNormallyEmptyQueue, &uxRxed, intqSHORT_DELAY ) != pdPASS )
 434              		.loc 1 323 0
 435 001a 4F4B     		ldr	r3, .L37
 436 001c 1868     		ldr	r0, [r3]
 437 001e 07F10C01 		add	r1, r7, #12
 438 0022 0023     		movs	r3, #0
 439 0024 8C22     		movs	r2, #140
 440 0026 FFF7FEFF 		bl	xQueueGenericReceive
 441 002a 0346     		mov	r3, r0
 442 002c 012B     		cmp	r3, #1
 443 002e 04D0     		beq	.L21
 324:..\Common\Minimal/IntQueue.c **** 		{
 325:..\Common\Minimal/IntQueue.c **** 			prvQueueAccessLogError( __LINE__ );
 444              		.loc 1 325 0
 445 0030 40F24510 		movw	r0, #325
 446 0034 FFF7FEFF 		bl	prvQueueAccessLogError
 447 0038 05E0     		b	.L22
 448              	.L21:
 326:..\Common\Minimal/IntQueue.c **** 		}
 327:..\Common\Minimal/IntQueue.c **** 		else
 328:..\Common\Minimal/IntQueue.c **** 		{
 329:..\Common\Minimal/IntQueue.c **** 			/* Note which value was received so we can check all expected
 330:..\Common\Minimal/IntQueue.c **** 			values are received and no values are duplicated. */
ARM GAS  C:\Users\THUNDE~1\AppData\Local\Temp\ccjD8PP6.s 			page 15


 331:..\Common\Minimal/IntQueue.c **** 			prvRecordValue_NormallyEmpty( uxRxed, ( UBaseType_t ) pvParameters );
 449              		.loc 1 331 0
 450 003a FB68     		ldr	r3, [r7, #12]
 451 003c 7A68     		ldr	r2, [r7, #4]
 452 003e 1146     		mov	r1, r2
 453 0040 1846     		mov	r0, r3
 454 0042 FFF7FEFF 		bl	prvRecordValue_NormallyEmpty
 455              	.L22:
 332:..\Common\Minimal/IntQueue.c **** 		}
 333:..\Common\Minimal/IntQueue.c **** 
 334:..\Common\Minimal/IntQueue.c **** 		/* Ensure the other task running this code gets a chance to execute. */
 335:..\Common\Minimal/IntQueue.c **** 		taskYIELD();
 456              		.loc 1 335 0
 457 0046 454B     		ldr	r3, .L37+4
 458 0048 4FF08052 		mov	r2, #268435456
 459 004c 1A60     		str	r2, [r3]
 460              		.syntax unified
 461              	@ 335 "..\Common\Minimal\IntQueue.c" 1
 462 004e BFF34F8F 		dsb
 463              	@ 0 "" 2
 464              	@ 335 "..\Common\Minimal\IntQueue.c" 1
 465 0052 BFF36F8F 		isb
 466              	@ 0 "" 2
 336:..\Common\Minimal/IntQueue.c **** 
 337:..\Common\Minimal/IntQueue.c **** 		if( ( UBaseType_t ) pvParameters == intqHIGH_PRIORITY_TASK1 )
 467              		.loc 1 337 0
 468              		.thumb
 469              		.syntax unified
 470 0056 7B68     		ldr	r3, [r7, #4]
 471 0058 012B     		cmp	r3, #1
 472 005a DED1     		bne	.L20
 338:..\Common\Minimal/IntQueue.c **** 		{
 339:..\Common\Minimal/IntQueue.c **** 			/* Have we received all the expected values? */
 340:..\Common\Minimal/IntQueue.c **** 			if( uxValueForNormallyEmptyQueue > ( intqNUM_VALUES_TO_LOG + intqVALUE_OVERRUN ) )
 473              		.loc 1 340 0
 474 005c 404B     		ldr	r3, .L37+8
 475 005e 1B68     		ldr	r3, [r3]
 476 0060 FA2B     		cmp	r3, #250
 477 0062 DAD9     		bls	.L20
 341:..\Common\Minimal/IntQueue.c **** 			{
 342:..\Common\Minimal/IntQueue.c **** 				vTaskSuspend( xHighPriorityNormallyEmptyTask2 );
 478              		.loc 1 342 0
 479 0064 3F4B     		ldr	r3, .L37+12
 480 0066 1B68     		ldr	r3, [r3]
 481 0068 1846     		mov	r0, r3
 482 006a FFF7FEFF 		bl	vTaskSuspend
 343:..\Common\Minimal/IntQueue.c **** 
 344:..\Common\Minimal/IntQueue.c **** 				uxTask1 = 0;
 483              		.loc 1 344 0
 484 006e 0023     		movs	r3, #0
 485 0070 3B62     		str	r3, [r7, #32]
 345:..\Common\Minimal/IntQueue.c **** 				uxTask2 = 0;
 486              		.loc 1 345 0
 487 0072 0023     		movs	r3, #0
 488 0074 FB61     		str	r3, [r7, #28]
 346:..\Common\Minimal/IntQueue.c **** 				uxInterrupts = 0;
 489              		.loc 1 346 0
ARM GAS  C:\Users\THUNDE~1\AppData\Local\Temp\ccjD8PP6.s 			page 16


 490 0076 0023     		movs	r3, #0
 491 0078 BB61     		str	r3, [r7, #24]
 347:..\Common\Minimal/IntQueue.c **** 
 348:..\Common\Minimal/IntQueue.c **** 				/* Loop through the array, checking that both tasks have
 349:..\Common\Minimal/IntQueue.c **** 				placed values into the array, and that no values are missing.
 350:..\Common\Minimal/IntQueue.c **** 				Start at 1 as we expect position 0 to be unused. */
 351:..\Common\Minimal/IntQueue.c **** 				for( ux = 1; ux < intqNUM_VALUES_TO_LOG; ux++ )
 492              		.loc 1 351 0
 493 007a 0123     		movs	r3, #1
 494 007c 7B62     		str	r3, [r7, #36]
 495 007e 2AE0     		b	.L24
 496              	.L29:
 352:..\Common\Minimal/IntQueue.c **** 				{
 353:..\Common\Minimal/IntQueue.c **** 					if( ucNormallyEmptyReceivedValues[ ux ] == 0 )
 497              		.loc 1 353 0
 498 0080 394A     		ldr	r2, .L37+16
 499 0082 7B6A     		ldr	r3, [r7, #36]
 500 0084 1344     		add	r3, r3, r2
 501 0086 1B78     		ldrb	r3, [r3]	@ zero_extendqisi2
 502 0088 002B     		cmp	r3, #0
 503 008a 04D1     		bne	.L25
 354:..\Common\Minimal/IntQueue.c **** 					{
 355:..\Common\Minimal/IntQueue.c **** 						/* A value is missing. */
 356:..\Common\Minimal/IntQueue.c **** 						prvQueueAccessLogError( __LINE__ );
 504              		.loc 1 356 0
 505 008c 4FF4B270 		mov	r0, #356
 506 0090 FFF7FEFF 		bl	prvQueueAccessLogError
 507 0094 1CE0     		b	.L26
 508              	.L25:
 357:..\Common\Minimal/IntQueue.c **** 					}
 358:..\Common\Minimal/IntQueue.c **** 					else
 359:..\Common\Minimal/IntQueue.c **** 					{
 360:..\Common\Minimal/IntQueue.c **** 						if( ucNormallyEmptyReceivedValues[ ux ] == intqHIGH_PRIORITY_TASK1 )
 509              		.loc 1 360 0
 510 0096 344A     		ldr	r2, .L37+16
 511 0098 7B6A     		ldr	r3, [r7, #36]
 512 009a 1344     		add	r3, r3, r2
 513 009c 1B78     		ldrb	r3, [r3]	@ zero_extendqisi2
 514 009e 012B     		cmp	r3, #1
 515 00a0 03D1     		bne	.L27
 361:..\Common\Minimal/IntQueue.c **** 						{
 362:..\Common\Minimal/IntQueue.c **** 							/* Value was placed into the array by task 1. */
 363:..\Common\Minimal/IntQueue.c **** 							uxTask1++;
 516              		.loc 1 363 0
 517 00a2 3B6A     		ldr	r3, [r7, #32]
 518 00a4 0133     		adds	r3, r3, #1
 519 00a6 3B62     		str	r3, [r7, #32]
 520 00a8 12E0     		b	.L26
 521              	.L27:
 364:..\Common\Minimal/IntQueue.c **** 						}
 365:..\Common\Minimal/IntQueue.c **** 						else if( ucNormallyEmptyReceivedValues[ ux ] == intqHIGH_PRIORITY_TASK2 )
 522              		.loc 1 365 0
 523 00aa 2F4A     		ldr	r2, .L37+16
 524 00ac 7B6A     		ldr	r3, [r7, #36]
 525 00ae 1344     		add	r3, r3, r2
 526 00b0 1B78     		ldrb	r3, [r3]	@ zero_extendqisi2
 527 00b2 022B     		cmp	r3, #2
ARM GAS  C:\Users\THUNDE~1\AppData\Local\Temp\ccjD8PP6.s 			page 17


 528 00b4 03D1     		bne	.L28
 366:..\Common\Minimal/IntQueue.c **** 						{
 367:..\Common\Minimal/IntQueue.c **** 							/* Value was placed into the array by task 2. */
 368:..\Common\Minimal/IntQueue.c **** 							uxTask2++;
 529              		.loc 1 368 0
 530 00b6 FB69     		ldr	r3, [r7, #28]
 531 00b8 0133     		adds	r3, r3, #1
 532 00ba FB61     		str	r3, [r7, #28]
 533 00bc 08E0     		b	.L26
 534              	.L28:
 369:..\Common\Minimal/IntQueue.c **** 						}
 370:..\Common\Minimal/IntQueue.c **** 						else if( ucNormallyEmptyReceivedValues[ ux ] == intqSECOND_INTERRUPT )
 535              		.loc 1 370 0
 536 00be 2A4A     		ldr	r2, .L37+16
 537 00c0 7B6A     		ldr	r3, [r7, #36]
 538 00c2 1344     		add	r3, r3, r2
 539 00c4 1B78     		ldrb	r3, [r3]	@ zero_extendqisi2
 540 00c6 052B     		cmp	r3, #5
 541 00c8 02D1     		bne	.L26
 371:..\Common\Minimal/IntQueue.c **** 						{
 372:..\Common\Minimal/IntQueue.c **** 							uxInterrupts++;
 542              		.loc 1 372 0
 543 00ca BB69     		ldr	r3, [r7, #24]
 544 00cc 0133     		adds	r3, r3, #1
 545 00ce BB61     		str	r3, [r7, #24]
 546              	.L26:
 351:..\Common\Minimal/IntQueue.c **** 				{
 547              		.loc 1 351 0 discriminator 2
 548 00d0 7B6A     		ldr	r3, [r7, #36]
 549 00d2 0133     		adds	r3, r3, #1
 550 00d4 7B62     		str	r3, [r7, #36]
 551              	.L24:
 351:..\Common\Minimal/IntQueue.c **** 				{
 552              		.loc 1 351 0 is_stmt 0 discriminator 1
 553 00d6 7B6A     		ldr	r3, [r7, #36]
 554 00d8 C72B     		cmp	r3, #199
 555 00da D1D9     		bls	.L29
 373:..\Common\Minimal/IntQueue.c **** 						}
 374:..\Common\Minimal/IntQueue.c **** 					}
 375:..\Common\Minimal/IntQueue.c **** 				}
 376:..\Common\Minimal/IntQueue.c **** 
 377:..\Common\Minimal/IntQueue.c **** 				if( uxTask1 < intqMIN_ACCEPTABLE_TASK_COUNT )
 556              		.loc 1 377 0 is_stmt 1
 557 00dc 3B6A     		ldr	r3, [r7, #32]
 558 00de 042B     		cmp	r3, #4
 559 00e0 0AD8     		bhi	.L30
 378:..\Common\Minimal/IntQueue.c **** 				{
 379:..\Common\Minimal/IntQueue.c **** 					/* Only task 2 seemed to log any values. */
 380:..\Common\Minimal/IntQueue.c **** 					uxErrorCount1++;
 560              		.loc 1 380 0
 561 00e2 7B69     		ldr	r3, [r7, #20]
 562 00e4 0133     		adds	r3, r3, #1
 563 00e6 7B61     		str	r3, [r7, #20]
 381:..\Common\Minimal/IntQueue.c **** 					if( uxErrorCount1 > 2 )
 564              		.loc 1 381 0
 565 00e8 7B69     		ldr	r3, [r7, #20]
 566 00ea 022B     		cmp	r3, #2
ARM GAS  C:\Users\THUNDE~1\AppData\Local\Temp\ccjD8PP6.s 			page 18


 567 00ec 06D9     		bls	.L32
 382:..\Common\Minimal/IntQueue.c **** 					{
 383:..\Common\Minimal/IntQueue.c **** 						prvQueueAccessLogError( __LINE__ );
 568              		.loc 1 383 0
 569 00ee 40F27F10 		movw	r0, #383
 570 00f2 FFF7FEFF 		bl	prvQueueAccessLogError
 571 00f6 01E0     		b	.L32
 572              	.L30:
 384:..\Common\Minimal/IntQueue.c **** 					}
 385:..\Common\Minimal/IntQueue.c **** 				}
 386:..\Common\Minimal/IntQueue.c **** 				else
 387:..\Common\Minimal/IntQueue.c **** 				{
 388:..\Common\Minimal/IntQueue.c **** 					uxErrorCount1 = 0;
 573              		.loc 1 388 0
 574 00f8 0023     		movs	r3, #0
 575 00fa 7B61     		str	r3, [r7, #20]
 576              	.L32:
 389:..\Common\Minimal/IntQueue.c **** 				}
 390:..\Common\Minimal/IntQueue.c **** 
 391:..\Common\Minimal/IntQueue.c **** 				if( uxTask2 < intqMIN_ACCEPTABLE_TASK_COUNT  )
 577              		.loc 1 391 0
 578 00fc FB69     		ldr	r3, [r7, #28]
 579 00fe 042B     		cmp	r3, #4
 580 0100 0AD8     		bhi	.L33
 392:..\Common\Minimal/IntQueue.c **** 				{
 393:..\Common\Minimal/IntQueue.c **** 					/* Only task 1 seemed to log any values. */
 394:..\Common\Minimal/IntQueue.c **** 					uxErrorCount2++;
 581              		.loc 1 394 0
 582 0102 3B69     		ldr	r3, [r7, #16]
 583 0104 0133     		adds	r3, r3, #1
 584 0106 3B61     		str	r3, [r7, #16]
 395:..\Common\Minimal/IntQueue.c **** 					if( uxErrorCount2 > 2 )
 585              		.loc 1 395 0
 586 0108 3B69     		ldr	r3, [r7, #16]
 587 010a 022B     		cmp	r3, #2
 588 010c 06D9     		bls	.L35
 396:..\Common\Minimal/IntQueue.c **** 					{
 397:..\Common\Minimal/IntQueue.c **** 						prvQueueAccessLogError( __LINE__ );
 589              		.loc 1 397 0
 590 010e 40F28D10 		movw	r0, #397
 591 0112 FFF7FEFF 		bl	prvQueueAccessLogError
 592 0116 01E0     		b	.L35
 593              	.L33:
 398:..\Common\Minimal/IntQueue.c **** 					}
 399:..\Common\Minimal/IntQueue.c **** 				}
 400:..\Common\Minimal/IntQueue.c **** 				else
 401:..\Common\Minimal/IntQueue.c **** 				{
 402:..\Common\Minimal/IntQueue.c **** 					uxErrorCount2 = 0;
 594              		.loc 1 402 0
 595 0118 0023     		movs	r3, #0
 596 011a 3B61     		str	r3, [r7, #16]
 597              	.L35:
 403:..\Common\Minimal/IntQueue.c **** 				}
 404:..\Common\Minimal/IntQueue.c **** 
 405:..\Common\Minimal/IntQueue.c **** 				if( uxInterrupts == 0 )
 598              		.loc 1 405 0
 599 011c BB69     		ldr	r3, [r7, #24]
ARM GAS  C:\Users\THUNDE~1\AppData\Local\Temp\ccjD8PP6.s 			page 19


 600 011e 002B     		cmp	r3, #0
 601 0120 03D1     		bne	.L36
 406:..\Common\Minimal/IntQueue.c **** 				{
 407:..\Common\Minimal/IntQueue.c **** 					prvQueueAccessLogError( __LINE__ );
 602              		.loc 1 407 0
 603 0122 40F29710 		movw	r0, #407
 604 0126 FFF7FEFF 		bl	prvQueueAccessLogError
 605              	.L36:
 408:..\Common\Minimal/IntQueue.c **** 				}
 409:..\Common\Minimal/IntQueue.c **** 
 410:..\Common\Minimal/IntQueue.c **** 				/* Clear the array again, ready to start a new cycle. */
 411:..\Common\Minimal/IntQueue.c **** 				memset( ucNormallyEmptyReceivedValues, 0x00, sizeof( ucNormallyEmptyReceivedValues ) );
 606              		.loc 1 411 0
 607 012a C822     		movs	r2, #200
 608 012c 0021     		movs	r1, #0
 609 012e 0E48     		ldr	r0, .L37+16
 610 0130 FFF7FEFF 		bl	memset
 412:..\Common\Minimal/IntQueue.c **** 
 413:..\Common\Minimal/IntQueue.c **** 				uxHighPriorityLoops1++;
 611              		.loc 1 413 0
 612 0134 0D4B     		ldr	r3, .L37+20
 613 0136 1B68     		ldr	r3, [r3]
 614 0138 0133     		adds	r3, r3, #1
 615 013a 0C4A     		ldr	r2, .L37+20
 616 013c 1360     		str	r3, [r2]
 414:..\Common\Minimal/IntQueue.c **** 				uxValueForNormallyEmptyQueue = 0;
 617              		.loc 1 414 0
 618 013e 084B     		ldr	r3, .L37+8
 619 0140 0022     		movs	r2, #0
 620 0142 1A60     		str	r2, [r3]
 415:..\Common\Minimal/IntQueue.c **** 
 416:..\Common\Minimal/IntQueue.c **** 				/* Suspend ourselves, allowing the lower priority task to
 417:..\Common\Minimal/IntQueue.c **** 				actually receive something from the queue.  Until now it
 418:..\Common\Minimal/IntQueue.c **** 				will have been prevented from doing so by the higher
 419:..\Common\Minimal/IntQueue.c **** 				priority tasks.  The lower priority task will resume us
 420:..\Common\Minimal/IntQueue.c **** 				if it receives something.  We will then resume the other
 421:..\Common\Minimal/IntQueue.c **** 				higher priority task. */
 422:..\Common\Minimal/IntQueue.c **** 				vTaskSuspend( NULL );
 621              		.loc 1 422 0
 622 0144 0020     		movs	r0, #0
 623 0146 FFF7FEFF 		bl	vTaskSuspend
 423:..\Common\Minimal/IntQueue.c **** 				vTaskResume( xHighPriorityNormallyEmptyTask2 );
 624              		.loc 1 423 0
 625 014a 064B     		ldr	r3, .L37+12
 626 014c 1B68     		ldr	r3, [r3]
 627 014e 1846     		mov	r0, r3
 628 0150 FFF7FEFF 		bl	vTaskResume
 424:..\Common\Minimal/IntQueue.c **** 			}
 425:..\Common\Minimal/IntQueue.c **** 		}
 426:..\Common\Minimal/IntQueue.c **** 	}
 629              		.loc 1 426 0
 630 0154 61E7     		b	.L20
 631              	.L38:
 632 0156 00BF     		.align	2
 633              	.L37:
 634 0158 00000000 		.word	xNormallyEmptyQueue
 635 015c 04ED00E0 		.word	-536810236
ARM GAS  C:\Users\THUNDE~1\AppData\Local\Temp\ccjD8PP6.s 			page 20


 636 0160 20000000 		.word	uxValueForNormallyEmptyQueue
 637 0164 00000000 		.word	xHighPriorityNormallyEmptyTask2
 638 0168 28000000 		.word	ucNormallyEmptyReceivedValues
 639 016c 08000000 		.word	uxHighPriorityLoops1
 640              		.cfi_endproc
 641              	.LFE72:
 642              		.size	prvHigherPriorityNormallyEmptyTask, .-prvHigherPriorityNormallyEmptyTask
 643              		.section	.text.prvLowerPriorityNormallyEmptyTask,"ax",%progbits
 644              		.align	2
 645              		.thumb
 646              		.thumb_func
 647              		.type	prvLowerPriorityNormallyEmptyTask, %function
 648              	prvLowerPriorityNormallyEmptyTask:
 649              	.LFB73:
 427:..\Common\Minimal/IntQueue.c **** }
 428:..\Common\Minimal/IntQueue.c **** /*-----------------------------------------------------------*/
 429:..\Common\Minimal/IntQueue.c **** 
 430:..\Common\Minimal/IntQueue.c **** static void prvLowerPriorityNormallyEmptyTask( void *pvParameters )
 431:..\Common\Minimal/IntQueue.c **** {
 650              		.loc 1 431 0
 651              		.cfi_startproc
 652              		@ args = 0, pretend = 0, frame = 16
 653              		@ frame_needed = 1, uses_anonymous_args = 0
 654 0000 80B5     		push	{r7, lr}
 655              		.cfi_def_cfa_offset 8
 656              		.cfi_offset 7, -8
 657              		.cfi_offset 14, -4
 658 0002 84B0     		sub	sp, sp, #16
 659              		.cfi_def_cfa_offset 24
 660 0004 00AF     		add	r7, sp, #0
 661              		.cfi_def_cfa_register 7
 662 0006 7860     		str	r0, [r7, #4]
 663              	.L44:
 432:..\Common\Minimal/IntQueue.c **** UBaseType_t uxValue, uxRxed;
 433:..\Common\Minimal/IntQueue.c **** 
 434:..\Common\Minimal/IntQueue.c **** 	/* The parameters are not being used so avoid compiler warnings. */
 435:..\Common\Minimal/IntQueue.c **** 	( void ) pvParameters;
 436:..\Common\Minimal/IntQueue.c **** 
 437:..\Common\Minimal/IntQueue.c **** 	for( ;; )
 438:..\Common\Minimal/IntQueue.c **** 	{
 439:..\Common\Minimal/IntQueue.c **** 		if( xQueueReceive( xNormallyEmptyQueue, &uxRxed, intqONE_TICK_DELAY ) != errQUEUE_EMPTY )
 664              		.loc 1 439 0
 665 0008 254B     		ldr	r3, .L45
 666 000a 1868     		ldr	r0, [r3]
 667 000c 07F10801 		add	r1, r7, #8
 668 0010 0023     		movs	r3, #0
 669 0012 0122     		movs	r2, #1
 670 0014 FFF7FEFF 		bl	xQueueGenericReceive
 671 0018 0346     		mov	r3, r0
 672 001a 002B     		cmp	r3, #0
 673 001c 1BD0     		beq	.L40
 440:..\Common\Minimal/IntQueue.c **** 		{
 441:..\Common\Minimal/IntQueue.c **** 			/* A value should only be obtained when the high priority task is
 442:..\Common\Minimal/IntQueue.c **** 			suspended. */
 443:..\Common\Minimal/IntQueue.c **** 			if( eTaskGetState( xHighPriorityNormallyEmptyTask1 ) != eSuspended )
 674              		.loc 1 443 0
 675 001e 214B     		ldr	r3, .L45+4
ARM GAS  C:\Users\THUNDE~1\AppData\Local\Temp\ccjD8PP6.s 			page 21


 676 0020 1B68     		ldr	r3, [r3]
 677 0022 1846     		mov	r0, r3
 678 0024 FFF7FEFF 		bl	eTaskGetState
 679 0028 0346     		mov	r3, r0
 680 002a 032B     		cmp	r3, #3
 681 002c 03D0     		beq	.L41
 444:..\Common\Minimal/IntQueue.c **** 			{
 445:..\Common\Minimal/IntQueue.c **** 				prvQueueAccessLogError( __LINE__ );
 682              		.loc 1 445 0
 683 002e 40F2BD10 		movw	r0, #445
 684 0032 FFF7FEFF 		bl	prvQueueAccessLogError
 685              	.L41:
 446:..\Common\Minimal/IntQueue.c **** 			}
 447:..\Common\Minimal/IntQueue.c **** 
 448:..\Common\Minimal/IntQueue.c **** 			prvRecordValue_NormallyEmpty( uxRxed, intqLOW_PRIORITY_TASK );
 686              		.loc 1 448 0
 687 0036 BB68     		ldr	r3, [r7, #8]
 688 0038 0321     		movs	r1, #3
 689 003a 1846     		mov	r0, r3
 690 003c FFF7FEFF 		bl	prvRecordValue_NormallyEmpty
 449:..\Common\Minimal/IntQueue.c **** 
 450:..\Common\Minimal/IntQueue.c **** 			/* Wake the higher priority task again. */
 451:..\Common\Minimal/IntQueue.c **** 			vTaskResume( xHighPriorityNormallyEmptyTask1 );
 691              		.loc 1 451 0
 692 0040 184B     		ldr	r3, .L45+4
 693 0042 1B68     		ldr	r3, [r3]
 694 0044 1846     		mov	r0, r3
 695 0046 FFF7FEFF 		bl	vTaskResume
 452:..\Common\Minimal/IntQueue.c **** 			uxLowPriorityLoops1++;
 696              		.loc 1 452 0
 697 004a 174B     		ldr	r3, .L45+8
 698 004c 1B68     		ldr	r3, [r3]
 699 004e 0133     		adds	r3, r3, #1
 700 0050 154A     		ldr	r2, .L45+8
 701 0052 1360     		str	r3, [r2]
 702 0054 D8E7     		b	.L44
 703              	.L40:
 453:..\Common\Minimal/IntQueue.c **** 		}
 454:..\Common\Minimal/IntQueue.c **** 		else
 455:..\Common\Minimal/IntQueue.c **** 		{
 456:..\Common\Minimal/IntQueue.c **** 			/* Raise our priority while we send so we can preempt the higher
 457:..\Common\Minimal/IntQueue.c **** 			priority task, and ensure we get the Tx value into the queue. */
 458:..\Common\Minimal/IntQueue.c **** 			vTaskPrioritySet( NULL, intqHIGHER_PRIORITY + 1 );
 704              		.loc 1 458 0
 705 0056 0421     		movs	r1, #4
 706 0058 0020     		movs	r0, #0
 707 005a FFF7FEFF 		bl	vTaskPrioritySet
 459:..\Common\Minimal/IntQueue.c **** 
 460:..\Common\Minimal/IntQueue.c **** 			portENTER_CRITICAL();
 708              		.loc 1 460 0
 709 005e FFF7FEFF 		bl	vPortEnterCritical
 461:..\Common\Minimal/IntQueue.c **** 			{
 462:..\Common\Minimal/IntQueue.c **** 				uxValueForNormallyEmptyQueue++;
 710              		.loc 1 462 0
 711 0062 124B     		ldr	r3, .L45+12
 712 0064 1B68     		ldr	r3, [r3]
 713 0066 0133     		adds	r3, r3, #1
ARM GAS  C:\Users\THUNDE~1\AppData\Local\Temp\ccjD8PP6.s 			page 22


 714 0068 104A     		ldr	r2, .L45+12
 715 006a 1360     		str	r3, [r2]
 463:..\Common\Minimal/IntQueue.c **** 				uxValue = uxValueForNormallyEmptyQueue;
 716              		.loc 1 463 0
 717 006c 0F4B     		ldr	r3, .L45+12
 718 006e 1B68     		ldr	r3, [r3]
 719 0070 FB60     		str	r3, [r7, #12]
 464:..\Common\Minimal/IntQueue.c **** 			}
 465:..\Common\Minimal/IntQueue.c **** 			portEXIT_CRITICAL();
 720              		.loc 1 465 0
 721 0072 FFF7FEFF 		bl	vPortExitCritical
 466:..\Common\Minimal/IntQueue.c **** 
 467:..\Common\Minimal/IntQueue.c **** 			if( xQueueSend( xNormallyEmptyQueue, &uxValue, portMAX_DELAY ) != pdPASS )
 722              		.loc 1 467 0
 723 0076 0A4B     		ldr	r3, .L45
 724 0078 1868     		ldr	r0, [r3]
 725 007a 07F10C01 		add	r1, r7, #12
 726 007e 0023     		movs	r3, #0
 727 0080 4FF0FF32 		mov	r2, #-1
 728 0084 FFF7FEFF 		bl	xQueueGenericSend
 729 0088 0346     		mov	r3, r0
 730 008a 012B     		cmp	r3, #1
 731 008c 03D0     		beq	.L43
 468:..\Common\Minimal/IntQueue.c **** 			{
 469:..\Common\Minimal/IntQueue.c **** 				prvQueueAccessLogError( __LINE__ );
 732              		.loc 1 469 0
 733 008e 40F2D510 		movw	r0, #469
 734 0092 FFF7FEFF 		bl	prvQueueAccessLogError
 735              	.L43:
 470:..\Common\Minimal/IntQueue.c **** 			}
 471:..\Common\Minimal/IntQueue.c **** 
 472:..\Common\Minimal/IntQueue.c **** 			vTaskPrioritySet( NULL, intqLOWER_PRIORITY );
 736              		.loc 1 472 0
 737 0096 0021     		movs	r1, #0
 738 0098 0020     		movs	r0, #0
 739 009a FFF7FEFF 		bl	vTaskPrioritySet
 473:..\Common\Minimal/IntQueue.c **** 		}
 474:..\Common\Minimal/IntQueue.c **** 	}
 740              		.loc 1 474 0
 741 009e B3E7     		b	.L44
 742              	.L46:
 743              		.align	2
 744              	.L45:
 745 00a0 00000000 		.word	xNormallyEmptyQueue
 746 00a4 00000000 		.word	xHighPriorityNormallyEmptyTask1
 747 00a8 10000000 		.word	uxLowPriorityLoops1
 748 00ac 20000000 		.word	uxValueForNormallyEmptyQueue
 749              		.cfi_endproc
 750              	.LFE73:
 751              		.size	prvLowerPriorityNormallyEmptyTask, .-prvLowerPriorityNormallyEmptyTask
 752              		.section	.text.prv1stHigherPriorityNormallyFullTask,"ax",%progbits
 753              		.align	2
 754              		.thumb
 755              		.thumb_func
 756              		.type	prv1stHigherPriorityNormallyFullTask, %function
 757              	prv1stHigherPriorityNormallyFullTask:
 758              	.LFB74:
ARM GAS  C:\Users\THUNDE~1\AppData\Local\Temp\ccjD8PP6.s 			page 23


 475:..\Common\Minimal/IntQueue.c **** }
 476:..\Common\Minimal/IntQueue.c **** /*-----------------------------------------------------------*/
 477:..\Common\Minimal/IntQueue.c **** 
 478:..\Common\Minimal/IntQueue.c **** static void prv1stHigherPriorityNormallyFullTask( void *pvParameters )
 479:..\Common\Minimal/IntQueue.c **** {
 759              		.loc 1 479 0
 760              		.cfi_startproc
 761              		@ args = 0, pretend = 0, frame = 24
 762              		@ frame_needed = 1, uses_anonymous_args = 0
 763 0000 80B5     		push	{r7, lr}
 764              		.cfi_def_cfa_offset 8
 765              		.cfi_offset 7, -8
 766              		.cfi_offset 14, -4
 767 0002 86B0     		sub	sp, sp, #24
 768              		.cfi_def_cfa_offset 32
 769 0004 00AF     		add	r7, sp, #0
 770              		.cfi_def_cfa_register 7
 771 0006 7860     		str	r0, [r7, #4]
 480:..\Common\Minimal/IntQueue.c **** UBaseType_t uxValueToTx, ux, uxInterrupts;
 481:..\Common\Minimal/IntQueue.c **** 
 482:..\Common\Minimal/IntQueue.c **** 	/* The parameters are not being used so avoid compiler warnings. */
 483:..\Common\Minimal/IntQueue.c **** 	( void ) pvParameters;
 484:..\Common\Minimal/IntQueue.c **** 
 485:..\Common\Minimal/IntQueue.c **** 	/* Make sure the queue starts full or near full.  >> 1 as there are two
 486:..\Common\Minimal/IntQueue.c **** 	high priority tasks. */
 487:..\Common\Minimal/IntQueue.c **** 	for( ux = 0; ux < ( intqQUEUE_LENGTH >> 1 ); ux++ )
 772              		.loc 1 487 0
 773 0008 0023     		movs	r3, #0
 774 000a 7B61     		str	r3, [r7, #20]
 775 000c 16E0     		b	.L48
 776              	.L49:
 488:..\Common\Minimal/IntQueue.c **** 	{
 489:..\Common\Minimal/IntQueue.c **** 		portENTER_CRITICAL();
 777              		.loc 1 489 0 discriminator 3
 778 000e FFF7FEFF 		bl	vPortEnterCritical
 490:..\Common\Minimal/IntQueue.c **** 		{
 491:..\Common\Minimal/IntQueue.c **** 			uxValueForNormallyFullQueue++;
 779              		.loc 1 491 0 discriminator 3
 780 0012 464B     		ldr	r3, .L59
 781 0014 1B68     		ldr	r3, [r3]
 782 0016 0133     		adds	r3, r3, #1
 783 0018 444A     		ldr	r2, .L59
 784 001a 1360     		str	r3, [r2]
 492:..\Common\Minimal/IntQueue.c **** 			uxValueToTx = uxValueForNormallyFullQueue;
 785              		.loc 1 492 0 discriminator 3
 786 001c 434B     		ldr	r3, .L59
 787 001e 1B68     		ldr	r3, [r3]
 788 0020 FB60     		str	r3, [r7, #12]
 493:..\Common\Minimal/IntQueue.c **** 		}
 494:..\Common\Minimal/IntQueue.c **** 		portEXIT_CRITICAL();
 789              		.loc 1 494 0 discriminator 3
 790 0022 FFF7FEFF 		bl	vPortExitCritical
 495:..\Common\Minimal/IntQueue.c **** 
 496:..\Common\Minimal/IntQueue.c **** 		xQueueSend( xNormallyFullQueue, &uxValueToTx, intqSHORT_DELAY );
 791              		.loc 1 496 0 discriminator 3
 792 0026 424B     		ldr	r3, .L59+4
 793 0028 1868     		ldr	r0, [r3]
ARM GAS  C:\Users\THUNDE~1\AppData\Local\Temp\ccjD8PP6.s 			page 24


 794 002a 07F10C01 		add	r1, r7, #12
 795 002e 0023     		movs	r3, #0
 796 0030 8C22     		movs	r2, #140
 797 0032 FFF7FEFF 		bl	xQueueGenericSend
 487:..\Common\Minimal/IntQueue.c **** 	{
 798              		.loc 1 487 0 discriminator 3
 799 0036 7B69     		ldr	r3, [r7, #20]
 800 0038 0133     		adds	r3, r3, #1
 801 003a 7B61     		str	r3, [r7, #20]
 802              	.L48:
 487:..\Common\Minimal/IntQueue.c **** 	{
 803              		.loc 1 487 0 is_stmt 0 discriminator 1
 804 003c 7B69     		ldr	r3, [r7, #20]
 805 003e 042B     		cmp	r3, #4
 806 0040 E5D9     		bls	.L49
 807              	.L58:
 497:..\Common\Minimal/IntQueue.c **** 	}
 498:..\Common\Minimal/IntQueue.c **** 
 499:..\Common\Minimal/IntQueue.c **** 	for( ;; )
 500:..\Common\Minimal/IntQueue.c **** 	{
 501:..\Common\Minimal/IntQueue.c **** 		portENTER_CRITICAL();
 808              		.loc 1 501 0 is_stmt 1
 809 0042 FFF7FEFF 		bl	vPortEnterCritical
 502:..\Common\Minimal/IntQueue.c **** 		{
 503:..\Common\Minimal/IntQueue.c **** 			uxValueForNormallyFullQueue++;
 810              		.loc 1 503 0
 811 0046 394B     		ldr	r3, .L59
 812 0048 1B68     		ldr	r3, [r3]
 813 004a 0133     		adds	r3, r3, #1
 814 004c 374A     		ldr	r2, .L59
 815 004e 1360     		str	r3, [r2]
 504:..\Common\Minimal/IntQueue.c **** 			uxValueToTx = uxValueForNormallyFullQueue;
 816              		.loc 1 504 0
 817 0050 364B     		ldr	r3, .L59
 818 0052 1B68     		ldr	r3, [r3]
 819 0054 FB60     		str	r3, [r7, #12]
 505:..\Common\Minimal/IntQueue.c **** 		}
 506:..\Common\Minimal/IntQueue.c **** 		portEXIT_CRITICAL();
 820              		.loc 1 506 0
 821 0056 FFF7FEFF 		bl	vPortExitCritical
 507:..\Common\Minimal/IntQueue.c **** 
 508:..\Common\Minimal/IntQueue.c **** 		if( xQueueSend( xNormallyFullQueue, &uxValueToTx, intqSHORT_DELAY ) != pdPASS )
 822              		.loc 1 508 0
 823 005a 354B     		ldr	r3, .L59+4
 824 005c 1868     		ldr	r0, [r3]
 825 005e 07F10C01 		add	r1, r7, #12
 826 0062 0023     		movs	r3, #0
 827 0064 8C22     		movs	r2, #140
 828 0066 FFF7FEFF 		bl	xQueueGenericSend
 829 006a 0346     		mov	r3, r0
 830 006c 012B     		cmp	r3, #1
 831 006e 03D0     		beq	.L50
 509:..\Common\Minimal/IntQueue.c **** 		{
 510:..\Common\Minimal/IntQueue.c **** 			/* intqHIGH_PRIORITY_TASK2 is never suspended so we would not
 511:..\Common\Minimal/IntQueue.c **** 			expect it to ever time out. */
 512:..\Common\Minimal/IntQueue.c **** 			prvQueueAccessLogError( __LINE__ );
 832              		.loc 1 512 0
ARM GAS  C:\Users\THUNDE~1\AppData\Local\Temp\ccjD8PP6.s 			page 25


 833 0070 4FF40070 		mov	r0, #512
 834 0074 FFF7FEFF 		bl	prvQueueAccessLogError
 835              	.L50:
 513:..\Common\Minimal/IntQueue.c **** 		}
 514:..\Common\Minimal/IntQueue.c **** 
 515:..\Common\Minimal/IntQueue.c **** 		/* Allow the other task running this code to run. */
 516:..\Common\Minimal/IntQueue.c **** 		taskYIELD();
 836              		.loc 1 516 0
 837 0078 2E4B     		ldr	r3, .L59+8
 838 007a 4FF08052 		mov	r2, #268435456
 839 007e 1A60     		str	r2, [r3]
 840              		.syntax unified
 841              	@ 516 "..\Common\Minimal\IntQueue.c" 1
 842 0080 BFF34F8F 		dsb
 843              	@ 0 "" 2
 844              	@ 516 "..\Common\Minimal\IntQueue.c" 1
 845 0084 BFF36F8F 		isb
 846              	@ 0 "" 2
 517:..\Common\Minimal/IntQueue.c **** 
 518:..\Common\Minimal/IntQueue.c **** 		/* Have all the expected values been sent to the queue? */
 519:..\Common\Minimal/IntQueue.c **** 		if( uxValueToTx > ( intqNUM_VALUES_TO_LOG + intqVALUE_OVERRUN ) )
 847              		.loc 1 519 0
 848              		.thumb
 849              		.syntax unified
 850 0088 FB68     		ldr	r3, [r7, #12]
 851 008a FA2B     		cmp	r3, #250
 852 008c D9D9     		bls	.L58
 520:..\Common\Minimal/IntQueue.c **** 		{
 521:..\Common\Minimal/IntQueue.c **** 			/* Make sure the other high priority task completes its send of
 522:..\Common\Minimal/IntQueue.c **** 			any values below intqNUM_VALUE_TO_LOG. */
 523:..\Common\Minimal/IntQueue.c **** 			vTaskDelay( intqSHORT_DELAY );
 853              		.loc 1 523 0
 854 008e 8C20     		movs	r0, #140
 855 0090 FFF7FEFF 		bl	vTaskDelay
 524:..\Common\Minimal/IntQueue.c **** 
 525:..\Common\Minimal/IntQueue.c **** 			vTaskSuspend( xHighPriorityNormallyFullTask2 );
 856              		.loc 1 525 0
 857 0094 284B     		ldr	r3, .L59+12
 858 0096 1B68     		ldr	r3, [r3]
 859 0098 1846     		mov	r0, r3
 860 009a FFF7FEFF 		bl	vTaskSuspend
 526:..\Common\Minimal/IntQueue.c **** 
 527:..\Common\Minimal/IntQueue.c **** 			if( xWasSuspended == pdTRUE )
 861              		.loc 1 527 0
 862 009e 274B     		ldr	r3, .L59+16
 863 00a0 1B68     		ldr	r3, [r3]
 864 00a2 012B     		cmp	r3, #1
 865 00a4 03D1     		bne	.L52
 528:..\Common\Minimal/IntQueue.c **** 			{
 529:..\Common\Minimal/IntQueue.c **** 				/* We would have expected the other high priority task to have
 530:..\Common\Minimal/IntQueue.c **** 				set this back to false by now. */
 531:..\Common\Minimal/IntQueue.c **** 				prvQueueAccessLogError( __LINE__ );
 866              		.loc 1 531 0
 867 00a6 40F21320 		movw	r0, #531
 868 00aa FFF7FEFF 		bl	prvQueueAccessLogError
 869              	.L52:
 532:..\Common\Minimal/IntQueue.c **** 			}
ARM GAS  C:\Users\THUNDE~1\AppData\Local\Temp\ccjD8PP6.s 			page 26


 533:..\Common\Minimal/IntQueue.c **** 
 534:..\Common\Minimal/IntQueue.c **** 			/* Set the suspended flag so an error is not logged if the other
 535:..\Common\Minimal/IntQueue.c **** 			task recognises a time out when it is unsuspended. */
 536:..\Common\Minimal/IntQueue.c **** 			xWasSuspended = pdTRUE;
 870              		.loc 1 536 0
 871 00ae 234B     		ldr	r3, .L59+16
 872 00b0 0122     		movs	r2, #1
 873 00b2 1A60     		str	r2, [r3]
 537:..\Common\Minimal/IntQueue.c **** 
 538:..\Common\Minimal/IntQueue.c **** 			/* Check interrupts are also sending. */
 539:..\Common\Minimal/IntQueue.c **** 			uxInterrupts = 0U;
 874              		.loc 1 539 0
 875 00b4 0023     		movs	r3, #0
 876 00b6 3B61     		str	r3, [r7, #16]
 540:..\Common\Minimal/IntQueue.c **** 
 541:..\Common\Minimal/IntQueue.c **** 			/* Start at 1 as we expect position 0 to be unused. */
 542:..\Common\Minimal/IntQueue.c **** 			for( ux = 1; ux < intqNUM_VALUES_TO_LOG; ux++ )
 877              		.loc 1 542 0
 878 00b8 0123     		movs	r3, #1
 879 00ba 7B61     		str	r3, [r7, #20]
 880 00bc 16E0     		b	.L53
 881              	.L56:
 543:..\Common\Minimal/IntQueue.c **** 			{
 544:..\Common\Minimal/IntQueue.c **** 				if( ucNormallyFullReceivedValues[ ux ] == 0 )
 882              		.loc 1 544 0
 883 00be 204A     		ldr	r2, .L59+20
 884 00c0 7B69     		ldr	r3, [r7, #20]
 885 00c2 1344     		add	r3, r3, r2
 886 00c4 1B78     		ldrb	r3, [r3]	@ zero_extendqisi2
 887 00c6 002B     		cmp	r3, #0
 888 00c8 04D1     		bne	.L54
 545:..\Common\Minimal/IntQueue.c **** 				{
 546:..\Common\Minimal/IntQueue.c **** 					/* A value was missing. */
 547:..\Common\Minimal/IntQueue.c **** 					prvQueueAccessLogError( __LINE__ );
 889              		.loc 1 547 0
 890 00ca 40F22320 		movw	r0, #547
 891 00ce FFF7FEFF 		bl	prvQueueAccessLogError
 892 00d2 08E0     		b	.L55
 893              	.L54:
 548:..\Common\Minimal/IntQueue.c **** 				}
 549:..\Common\Minimal/IntQueue.c **** 				else if( ucNormallyFullReceivedValues[ ux ] == intqSECOND_INTERRUPT )
 894              		.loc 1 549 0
 895 00d4 1A4A     		ldr	r2, .L59+20
 896 00d6 7B69     		ldr	r3, [r7, #20]
 897 00d8 1344     		add	r3, r3, r2
 898 00da 1B78     		ldrb	r3, [r3]	@ zero_extendqisi2
 899 00dc 052B     		cmp	r3, #5
 900 00de 02D1     		bne	.L55
 550:..\Common\Minimal/IntQueue.c **** 				{
 551:..\Common\Minimal/IntQueue.c **** 					uxInterrupts++;
 901              		.loc 1 551 0
 902 00e0 3B69     		ldr	r3, [r7, #16]
 903 00e2 0133     		adds	r3, r3, #1
 904 00e4 3B61     		str	r3, [r7, #16]
 905              	.L55:
 542:..\Common\Minimal/IntQueue.c **** 			{
 906              		.loc 1 542 0 discriminator 2
ARM GAS  C:\Users\THUNDE~1\AppData\Local\Temp\ccjD8PP6.s 			page 27


 907 00e6 7B69     		ldr	r3, [r7, #20]
 908 00e8 0133     		adds	r3, r3, #1
 909 00ea 7B61     		str	r3, [r7, #20]
 910              	.L53:
 542:..\Common\Minimal/IntQueue.c **** 			{
 911              		.loc 1 542 0 is_stmt 0 discriminator 1
 912 00ec 7B69     		ldr	r3, [r7, #20]
 913 00ee C72B     		cmp	r3, #199
 914 00f0 E5D9     		bls	.L56
 552:..\Common\Minimal/IntQueue.c **** 				}
 553:..\Common\Minimal/IntQueue.c **** 			}
 554:..\Common\Minimal/IntQueue.c **** 
 555:..\Common\Minimal/IntQueue.c **** 			if( uxInterrupts == 0 )
 915              		.loc 1 555 0 is_stmt 1
 916 00f2 3B69     		ldr	r3, [r7, #16]
 917 00f4 002B     		cmp	r3, #0
 918 00f6 03D1     		bne	.L57
 556:..\Common\Minimal/IntQueue.c **** 			{
 557:..\Common\Minimal/IntQueue.c **** 				/* No writes from interrupts were found.  Are interrupts
 558:..\Common\Minimal/IntQueue.c **** 				actually running? */
 559:..\Common\Minimal/IntQueue.c **** 				prvQueueAccessLogError( __LINE__ );
 919              		.loc 1 559 0
 920 00f8 40F22F20 		movw	r0, #559
 921 00fc FFF7FEFF 		bl	prvQueueAccessLogError
 922              	.L57:
 560:..\Common\Minimal/IntQueue.c **** 			}
 561:..\Common\Minimal/IntQueue.c **** 
 562:..\Common\Minimal/IntQueue.c **** 			/* Reset the array ready for the next cycle. */
 563:..\Common\Minimal/IntQueue.c **** 			memset( ucNormallyFullReceivedValues, 0x00, sizeof( ucNormallyFullReceivedValues ) );
 923              		.loc 1 563 0
 924 0100 C822     		movs	r2, #200
 925 0102 0021     		movs	r1, #0
 926 0104 0E48     		ldr	r0, .L59+20
 927 0106 FFF7FEFF 		bl	memset
 564:..\Common\Minimal/IntQueue.c **** 
 565:..\Common\Minimal/IntQueue.c **** 			uxHighPriorityLoops2++;
 928              		.loc 1 565 0
 929 010a 0E4B     		ldr	r3, .L59+24
 930 010c 1B68     		ldr	r3, [r3]
 931 010e 0133     		adds	r3, r3, #1
 932 0110 0C4A     		ldr	r2, .L59+24
 933 0112 1360     		str	r3, [r2]
 566:..\Common\Minimal/IntQueue.c **** 			uxValueForNormallyFullQueue = 0;
 934              		.loc 1 566 0
 935 0114 054B     		ldr	r3, .L59
 936 0116 0022     		movs	r2, #0
 937 0118 1A60     		str	r2, [r3]
 567:..\Common\Minimal/IntQueue.c **** 
 568:..\Common\Minimal/IntQueue.c **** 			/* Suspend ourselves, allowing the lower priority task to
 569:..\Common\Minimal/IntQueue.c **** 			actually receive something from the queue.  Until now it
 570:..\Common\Minimal/IntQueue.c **** 			will have been prevented from doing so by the higher
 571:..\Common\Minimal/IntQueue.c **** 			priority tasks.  The lower priority task will resume us
 572:..\Common\Minimal/IntQueue.c **** 			if it receives something.  We will then resume the other
 573:..\Common\Minimal/IntQueue.c **** 			higher priority task. */
 574:..\Common\Minimal/IntQueue.c **** 			vTaskSuspend( NULL );
 938              		.loc 1 574 0
 939 011a 0020     		movs	r0, #0
ARM GAS  C:\Users\THUNDE~1\AppData\Local\Temp\ccjD8PP6.s 			page 28


 940 011c FFF7FEFF 		bl	vTaskSuspend
 575:..\Common\Minimal/IntQueue.c **** 			vTaskResume( xHighPriorityNormallyFullTask2 );
 941              		.loc 1 575 0
 942 0120 054B     		ldr	r3, .L59+12
 943 0122 1B68     		ldr	r3, [r3]
 944 0124 1846     		mov	r0, r3
 945 0126 FFF7FEFF 		bl	vTaskResume
 576:..\Common\Minimal/IntQueue.c **** 		}
 577:..\Common\Minimal/IntQueue.c **** 	}
 946              		.loc 1 577 0
 947 012a 8AE7     		b	.L58
 948              	.L60:
 949              		.align	2
 950              	.L59:
 951 012c 24000000 		.word	uxValueForNormallyFullQueue
 952 0130 04000000 		.word	xNormallyFullQueue
 953 0134 04ED00E0 		.word	-536810236
 954 0138 00000000 		.word	xHighPriorityNormallyFullTask2
 955 013c 1C000000 		.word	xWasSuspended
 956 0140 F0000000 		.word	ucNormallyFullReceivedValues
 957 0144 0C000000 		.word	uxHighPriorityLoops2
 958              		.cfi_endproc
 959              	.LFE74:
 960              		.size	prv1stHigherPriorityNormallyFullTask, .-prv1stHigherPriorityNormallyFullTask
 961              		.section	.text.prv2ndHigherPriorityNormallyFullTask,"ax",%progbits
 962              		.align	2
 963              		.thumb
 964              		.thumb_func
 965              		.type	prv2ndHigherPriorityNormallyFullTask, %function
 966              	prv2ndHigherPriorityNormallyFullTask:
 967              	.LFB75:
 578:..\Common\Minimal/IntQueue.c **** }
 579:..\Common\Minimal/IntQueue.c **** /*-----------------------------------------------------------*/
 580:..\Common\Minimal/IntQueue.c **** 
 581:..\Common\Minimal/IntQueue.c **** static void prv2ndHigherPriorityNormallyFullTask( void *pvParameters )
 582:..\Common\Minimal/IntQueue.c **** {
 968              		.loc 1 582 0
 969              		.cfi_startproc
 970              		@ args = 0, pretend = 0, frame = 16
 971              		@ frame_needed = 1, uses_anonymous_args = 0
 972 0000 80B5     		push	{r7, lr}
 973              		.cfi_def_cfa_offset 8
 974              		.cfi_offset 7, -8
 975              		.cfi_offset 14, -4
 976 0002 84B0     		sub	sp, sp, #16
 977              		.cfi_def_cfa_offset 24
 978 0004 00AF     		add	r7, sp, #0
 979              		.cfi_def_cfa_register 7
 980 0006 7860     		str	r0, [r7, #4]
 583:..\Common\Minimal/IntQueue.c **** UBaseType_t uxValueToTx, ux;
 584:..\Common\Minimal/IntQueue.c **** 
 585:..\Common\Minimal/IntQueue.c **** 	/* The parameters are not being used so avoid compiler warnings. */
 586:..\Common\Minimal/IntQueue.c **** 	( void ) pvParameters;
 587:..\Common\Minimal/IntQueue.c **** 
 588:..\Common\Minimal/IntQueue.c **** 	/* Make sure the queue starts full or near full.  >> 1 as there are two
 589:..\Common\Minimal/IntQueue.c **** 	high priority tasks. */
 590:..\Common\Minimal/IntQueue.c **** 	for( ux = 0; ux < ( intqQUEUE_LENGTH >> 1 ); ux++ )
ARM GAS  C:\Users\THUNDE~1\AppData\Local\Temp\ccjD8PP6.s 			page 29


 981              		.loc 1 590 0
 982 0008 0023     		movs	r3, #0
 983 000a FB60     		str	r3, [r7, #12]
 984 000c 16E0     		b	.L62
 985              	.L63:
 591:..\Common\Minimal/IntQueue.c **** 	{
 592:..\Common\Minimal/IntQueue.c **** 		portENTER_CRITICAL();
 986              		.loc 1 592 0 discriminator 3
 987 000e FFF7FEFF 		bl	vPortEnterCritical
 593:..\Common\Minimal/IntQueue.c **** 		{
 594:..\Common\Minimal/IntQueue.c **** 			uxValueForNormallyFullQueue++;
 988              		.loc 1 594 0 discriminator 3
 989 0012 214B     		ldr	r3, .L66
 990 0014 1B68     		ldr	r3, [r3]
 991 0016 0133     		adds	r3, r3, #1
 992 0018 1F4A     		ldr	r2, .L66
 993 001a 1360     		str	r3, [r2]
 595:..\Common\Minimal/IntQueue.c **** 			uxValueToTx = uxValueForNormallyFullQueue;
 994              		.loc 1 595 0 discriminator 3
 995 001c 1E4B     		ldr	r3, .L66
 996 001e 1B68     		ldr	r3, [r3]
 997 0020 BB60     		str	r3, [r7, #8]
 596:..\Common\Minimal/IntQueue.c **** 		}
 597:..\Common\Minimal/IntQueue.c **** 		portEXIT_CRITICAL();
 998              		.loc 1 597 0 discriminator 3
 999 0022 FFF7FEFF 		bl	vPortExitCritical
 598:..\Common\Minimal/IntQueue.c **** 
 599:..\Common\Minimal/IntQueue.c **** 		xQueueSend( xNormallyFullQueue, &uxValueToTx, intqSHORT_DELAY );
 1000              		.loc 1 599 0 discriminator 3
 1001 0026 1D4B     		ldr	r3, .L66+4
 1002 0028 1868     		ldr	r0, [r3]
 1003 002a 07F10801 		add	r1, r7, #8
 1004 002e 0023     		movs	r3, #0
 1005 0030 8C22     		movs	r2, #140
 1006 0032 FFF7FEFF 		bl	xQueueGenericSend
 590:..\Common\Minimal/IntQueue.c **** 	{
 1007              		.loc 1 590 0 discriminator 3
 1008 0036 FB68     		ldr	r3, [r7, #12]
 1009 0038 0133     		adds	r3, r3, #1
 1010 003a FB60     		str	r3, [r7, #12]
 1011              	.L62:
 590:..\Common\Minimal/IntQueue.c **** 	{
 1012              		.loc 1 590 0 is_stmt 0 discriminator 1
 1013 003c FB68     		ldr	r3, [r7, #12]
 1014 003e 042B     		cmp	r3, #4
 1015 0040 E5D9     		bls	.L63
 1016              	.L65:
 600:..\Common\Minimal/IntQueue.c **** 	}
 601:..\Common\Minimal/IntQueue.c **** 
 602:..\Common\Minimal/IntQueue.c **** 	for( ;; )
 603:..\Common\Minimal/IntQueue.c **** 	{
 604:..\Common\Minimal/IntQueue.c **** 		portENTER_CRITICAL();
 1017              		.loc 1 604 0 is_stmt 1
 1018 0042 FFF7FEFF 		bl	vPortEnterCritical
 605:..\Common\Minimal/IntQueue.c **** 		{
 606:..\Common\Minimal/IntQueue.c **** 			uxValueForNormallyFullQueue++;
 1019              		.loc 1 606 0
ARM GAS  C:\Users\THUNDE~1\AppData\Local\Temp\ccjD8PP6.s 			page 30


 1020 0046 144B     		ldr	r3, .L66
 1021 0048 1B68     		ldr	r3, [r3]
 1022 004a 0133     		adds	r3, r3, #1
 1023 004c 124A     		ldr	r2, .L66
 1024 004e 1360     		str	r3, [r2]
 607:..\Common\Minimal/IntQueue.c **** 			uxValueToTx = uxValueForNormallyFullQueue;
 1025              		.loc 1 607 0
 1026 0050 114B     		ldr	r3, .L66
 1027 0052 1B68     		ldr	r3, [r3]
 1028 0054 BB60     		str	r3, [r7, #8]
 608:..\Common\Minimal/IntQueue.c **** 		}
 609:..\Common\Minimal/IntQueue.c **** 		portEXIT_CRITICAL();
 1029              		.loc 1 609 0
 1030 0056 FFF7FEFF 		bl	vPortExitCritical
 610:..\Common\Minimal/IntQueue.c **** 
 611:..\Common\Minimal/IntQueue.c **** 		if( xQueueSend( xNormallyFullQueue, &uxValueToTx, intqSHORT_DELAY ) != pdPASS )
 1031              		.loc 1 611 0
 1032 005a 104B     		ldr	r3, .L66+4
 1033 005c 1868     		ldr	r0, [r3]
 1034 005e 07F10801 		add	r1, r7, #8
 1035 0062 0023     		movs	r3, #0
 1036 0064 8C22     		movs	r2, #140
 1037 0066 FFF7FEFF 		bl	xQueueGenericSend
 1038 006a 0346     		mov	r3, r0
 1039 006c 012B     		cmp	r3, #1
 1040 006e 07D0     		beq	.L64
 612:..\Common\Minimal/IntQueue.c **** 		{
 613:..\Common\Minimal/IntQueue.c **** 			if( xWasSuspended != pdTRUE )
 1041              		.loc 1 613 0
 1042 0070 0B4B     		ldr	r3, .L66+8
 1043 0072 1B68     		ldr	r3, [r3]
 1044 0074 012B     		cmp	r3, #1
 1045 0076 03D0     		beq	.L64
 614:..\Common\Minimal/IntQueue.c **** 			{
 615:..\Common\Minimal/IntQueue.c **** 				/* It is ok to time out if the task has been suspended. */
 616:..\Common\Minimal/IntQueue.c **** 				prvQueueAccessLogError( __LINE__ );
 1046              		.loc 1 616 0
 1047 0078 4FF41A70 		mov	r0, #616
 1048 007c FFF7FEFF 		bl	prvQueueAccessLogError
 1049              	.L64:
 617:..\Common\Minimal/IntQueue.c **** 			}
 618:..\Common\Minimal/IntQueue.c **** 		}
 619:..\Common\Minimal/IntQueue.c **** 
 620:..\Common\Minimal/IntQueue.c **** 		xWasSuspended = pdFALSE;
 1050              		.loc 1 620 0
 1051 0080 074B     		ldr	r3, .L66+8
 1052 0082 0022     		movs	r2, #0
 1053 0084 1A60     		str	r2, [r3]
 621:..\Common\Minimal/IntQueue.c **** 
 622:..\Common\Minimal/IntQueue.c **** 		taskYIELD();
 1054              		.loc 1 622 0
 1055 0086 074B     		ldr	r3, .L66+12
 1056 0088 4FF08052 		mov	r2, #268435456
 1057 008c 1A60     		str	r2, [r3]
 1058              		.syntax unified
 1059              	@ 622 "..\Common\Minimal\IntQueue.c" 1
 1060 008e BFF34F8F 		dsb
ARM GAS  C:\Users\THUNDE~1\AppData\Local\Temp\ccjD8PP6.s 			page 31


 1061              	@ 0 "" 2
 1062              	@ 622 "..\Common\Minimal\IntQueue.c" 1
 1063 0092 BFF36F8F 		isb
 1064              	@ 0 "" 2
 623:..\Common\Minimal/IntQueue.c **** 	}
 1065              		.loc 1 623 0
 1066              		.thumb
 1067              		.syntax unified
 1068 0096 D4E7     		b	.L65
 1069              	.L67:
 1070              		.align	2
 1071              	.L66:
 1072 0098 24000000 		.word	uxValueForNormallyFullQueue
 1073 009c 04000000 		.word	xNormallyFullQueue
 1074 00a0 1C000000 		.word	xWasSuspended
 1075 00a4 04ED00E0 		.word	-536810236
 1076              		.cfi_endproc
 1077              	.LFE75:
 1078              		.size	prv2ndHigherPriorityNormallyFullTask, .-prv2ndHigherPriorityNormallyFullTask
 1079              		.section	.text.prvLowerPriorityNormallyFullTask,"ax",%progbits
 1080              		.align	2
 1081              		.thumb
 1082              		.thumb_func
 1083              		.type	prvLowerPriorityNormallyFullTask, %function
 1084              	prvLowerPriorityNormallyFullTask:
 1085              	.LFB76:
 624:..\Common\Minimal/IntQueue.c **** }
 625:..\Common\Minimal/IntQueue.c **** /*-----------------------------------------------------------*/
 626:..\Common\Minimal/IntQueue.c **** 
 627:..\Common\Minimal/IntQueue.c **** static void prvLowerPriorityNormallyFullTask( void *pvParameters )
 628:..\Common\Minimal/IntQueue.c **** {
 1086              		.loc 1 628 0
 1087              		.cfi_startproc
 1088              		@ args = 0, pretend = 0, frame = 16
 1089              		@ frame_needed = 1, uses_anonymous_args = 0
 1090 0000 80B5     		push	{r7, lr}
 1091              		.cfi_def_cfa_offset 8
 1092              		.cfi_offset 7, -8
 1093              		.cfi_offset 14, -4
 1094 0002 84B0     		sub	sp, sp, #16
 1095              		.cfi_def_cfa_offset 24
 1096 0004 00AF     		add	r7, sp, #0
 1097              		.cfi_def_cfa_register 7
 1098 0006 7860     		str	r0, [r7, #4]
 629:..\Common\Minimal/IntQueue.c **** UBaseType_t uxValue, uxTxed = 9999;
 1099              		.loc 1 629 0
 1100 0008 42F20F73 		movw	r3, #9999
 1101 000c BB60     		str	r3, [r7, #8]
 1102              	.L74:
 630:..\Common\Minimal/IntQueue.c **** 
 631:..\Common\Minimal/IntQueue.c **** 	/* The parameters are not being used so avoid compiler warnings. */
 632:..\Common\Minimal/IntQueue.c **** 	( void ) pvParameters;
 633:..\Common\Minimal/IntQueue.c **** 
 634:..\Common\Minimal/IntQueue.c **** 	for( ;; )
 635:..\Common\Minimal/IntQueue.c **** 	{
 636:..\Common\Minimal/IntQueue.c **** 		if( xQueueSend( xNormallyFullQueue, &uxTxed, intqONE_TICK_DELAY ) != errQUEUE_FULL )
 1103              		.loc 1 636 0
ARM GAS  C:\Users\THUNDE~1\AppData\Local\Temp\ccjD8PP6.s 			page 32


 1104 000e 204B     		ldr	r3, .L75
 1105 0010 1868     		ldr	r0, [r3]
 1106 0012 07F10801 		add	r1, r7, #8
 1107 0016 0023     		movs	r3, #0
 1108 0018 0122     		movs	r2, #1
 1109 001a FFF7FEFF 		bl	xQueueGenericSend
 1110 001e 0346     		mov	r3, r0
 1111 0020 002B     		cmp	r3, #0
 1112 0022 16D0     		beq	.L69
 637:..\Common\Minimal/IntQueue.c **** 		{
 638:..\Common\Minimal/IntQueue.c **** 			/* Should only succeed when the higher priority task is suspended */
 639:..\Common\Minimal/IntQueue.c **** 			if( eTaskGetState( xHighPriorityNormallyFullTask1 ) != eSuspended )
 1113              		.loc 1 639 0
 1114 0024 1B4B     		ldr	r3, .L75+4
 1115 0026 1B68     		ldr	r3, [r3]
 1116 0028 1846     		mov	r0, r3
 1117 002a FFF7FEFF 		bl	eTaskGetState
 1118 002e 0346     		mov	r3, r0
 1119 0030 032B     		cmp	r3, #3
 1120 0032 03D0     		beq	.L70
 640:..\Common\Minimal/IntQueue.c **** 			{
 641:..\Common\Minimal/IntQueue.c **** 				prvQueueAccessLogError( __LINE__ );
 1121              		.loc 1 641 0
 1122 0034 40F28120 		movw	r0, #641
 1123 0038 FFF7FEFF 		bl	prvQueueAccessLogError
 1124              	.L70:
 642:..\Common\Minimal/IntQueue.c **** 			}
 643:..\Common\Minimal/IntQueue.c **** 
 644:..\Common\Minimal/IntQueue.c **** 			vTaskResume( xHighPriorityNormallyFullTask1 );
 1125              		.loc 1 644 0
 1126 003c 154B     		ldr	r3, .L75+4
 1127 003e 1B68     		ldr	r3, [r3]
 1128 0040 1846     		mov	r0, r3
 1129 0042 FFF7FEFF 		bl	vTaskResume
 645:..\Common\Minimal/IntQueue.c **** 			uxLowPriorityLoops2++;
 1130              		.loc 1 645 0
 1131 0046 144B     		ldr	r3, .L75+8
 1132 0048 1B68     		ldr	r3, [r3]
 1133 004a 0133     		adds	r3, r3, #1
 1134 004c 124A     		ldr	r2, .L75+8
 1135 004e 1360     		str	r3, [r2]
 1136 0050 DDE7     		b	.L74
 1137              	.L69:
 646:..\Common\Minimal/IntQueue.c **** 		}
 647:..\Common\Minimal/IntQueue.c **** 		else
 648:..\Common\Minimal/IntQueue.c **** 		{
 649:..\Common\Minimal/IntQueue.c **** 			/* Raise our priority while we receive so we can preempt the higher
 650:..\Common\Minimal/IntQueue.c **** 			priority task, and ensure we get the value from the queue. */
 651:..\Common\Minimal/IntQueue.c **** 			vTaskPrioritySet( NULL, intqHIGHER_PRIORITY + 1 );
 1138              		.loc 1 651 0
 1139 0052 0421     		movs	r1, #4
 1140 0054 0020     		movs	r0, #0
 1141 0056 FFF7FEFF 		bl	vTaskPrioritySet
 652:..\Common\Minimal/IntQueue.c **** 
 653:..\Common\Minimal/IntQueue.c **** 			if( xQueueReceive( xNormallyFullQueue, &uxValue, portMAX_DELAY ) != pdPASS )
 1142              		.loc 1 653 0
 1143 005a 0D4B     		ldr	r3, .L75
ARM GAS  C:\Users\THUNDE~1\AppData\Local\Temp\ccjD8PP6.s 			page 33


 1144 005c 1868     		ldr	r0, [r3]
 1145 005e 07F10C01 		add	r1, r7, #12
 1146 0062 0023     		movs	r3, #0
 1147 0064 4FF0FF32 		mov	r2, #-1
 1148 0068 FFF7FEFF 		bl	xQueueGenericReceive
 1149 006c 0346     		mov	r3, r0
 1150 006e 012B     		cmp	r3, #1
 1151 0070 04D0     		beq	.L72
 654:..\Common\Minimal/IntQueue.c **** 			{
 655:..\Common\Minimal/IntQueue.c **** 				prvQueueAccessLogError( __LINE__ );
 1152              		.loc 1 655 0
 1153 0072 40F28F20 		movw	r0, #655
 1154 0076 FFF7FEFF 		bl	prvQueueAccessLogError
 1155 007a 04E0     		b	.L73
 1156              	.L72:
 656:..\Common\Minimal/IntQueue.c **** 			}
 657:..\Common\Minimal/IntQueue.c **** 			else
 658:..\Common\Minimal/IntQueue.c **** 			{
 659:..\Common\Minimal/IntQueue.c **** 				prvRecordValue_NormallyFull( uxValue, intqLOW_PRIORITY_TASK );
 1157              		.loc 1 659 0
 1158 007c FB68     		ldr	r3, [r7, #12]
 1159 007e 0321     		movs	r1, #3
 1160 0080 1846     		mov	r0, r3
 1161 0082 FFF7FEFF 		bl	prvRecordValue_NormallyFull
 1162              	.L73:
 660:..\Common\Minimal/IntQueue.c **** 			}
 661:..\Common\Minimal/IntQueue.c **** 
 662:..\Common\Minimal/IntQueue.c **** 			vTaskPrioritySet( NULL, intqLOWER_PRIORITY );
 1163              		.loc 1 662 0
 1164 0086 0021     		movs	r1, #0
 1165 0088 0020     		movs	r0, #0
 1166 008a FFF7FEFF 		bl	vTaskPrioritySet
 663:..\Common\Minimal/IntQueue.c **** 		}
 664:..\Common\Minimal/IntQueue.c **** 	}
 1167              		.loc 1 664 0
 1168 008e BEE7     		b	.L74
 1169              	.L76:
 1170              		.align	2
 1171              	.L75:
 1172 0090 04000000 		.word	xNormallyFullQueue
 1173 0094 00000000 		.word	xHighPriorityNormallyFullTask1
 1174 0098 14000000 		.word	uxLowPriorityLoops2
 1175              		.cfi_endproc
 1176              	.LFE76:
 1177              		.size	prvLowerPriorityNormallyFullTask, .-prvLowerPriorityNormallyFullTask
 1178              		.section	.text.xFirstTimerHandler,"ax",%progbits
 1179              		.align	2
 1180              		.global	xFirstTimerHandler
 1181              		.thumb
 1182              		.thumb_func
 1183              		.type	xFirstTimerHandler, %function
 1184              	xFirstTimerHandler:
 1185              	.LFB77:
 665:..\Common\Minimal/IntQueue.c **** }
 666:..\Common\Minimal/IntQueue.c **** /*-----------------------------------------------------------*/
 667:..\Common\Minimal/IntQueue.c **** 
 668:..\Common\Minimal/IntQueue.c **** BaseType_t xFirstTimerHandler( void )
ARM GAS  C:\Users\THUNDE~1\AppData\Local\Temp\ccjD8PP6.s 			page 34


 669:..\Common\Minimal/IntQueue.c **** {
 1186              		.loc 1 669 0
 1187              		.cfi_startproc
 1188              		@ args = 0, pretend = 0, frame = 56
 1189              		@ frame_needed = 1, uses_anonymous_args = 0
 1190 0000 80B5     		push	{r7, lr}
 1191              		.cfi_def_cfa_offset 8
 1192              		.cfi_offset 7, -8
 1193              		.cfi_offset 14, -4
 1194 0002 8EB0     		sub	sp, sp, #56
 1195              		.cfi_def_cfa_offset 64
 1196 0004 00AF     		add	r7, sp, #0
 1197              		.cfi_def_cfa_register 7
 670:..\Common\Minimal/IntQueue.c **** BaseType_t xHigherPriorityTaskWoken = pdFALSE;
 1198              		.loc 1 670 0
 1199 0006 0023     		movs	r3, #0
 1200 0008 7B60     		str	r3, [r7, #4]
 671:..\Common\Minimal/IntQueue.c **** UBaseType_t uxRxedValue;
 672:..\Common\Minimal/IntQueue.c **** static UBaseType_t uxNextOperation = 0;
 673:..\Common\Minimal/IntQueue.c **** 
 674:..\Common\Minimal/IntQueue.c **** 	/* Called from a timer interrupt.  Perform various read and write
 675:..\Common\Minimal/IntQueue.c **** 	accesses on the queues. */
 676:..\Common\Minimal/IntQueue.c **** 
 677:..\Common\Minimal/IntQueue.c **** 	uxNextOperation++;
 1201              		.loc 1 677 0
 1202 000a 664B     		ldr	r3, .L92
 1203 000c 1B68     		ldr	r3, [r3]
 1204 000e 0133     		adds	r3, r3, #1
 1205 0010 644A     		ldr	r2, .L92
 1206 0012 1360     		str	r3, [r2]
 678:..\Common\Minimal/IntQueue.c **** 
 679:..\Common\Minimal/IntQueue.c **** 	if( uxNextOperation & ( UBaseType_t ) 0x01 )
 1207              		.loc 1 679 0
 1208 0014 634B     		ldr	r3, .L92
 1209 0016 1B68     		ldr	r3, [r3]
 1210 0018 03F00103 		and	r3, r3, #1
 1211 001c 002B     		cmp	r3, #0
 1212 001e 00F08E80 		beq	.L78
 680:..\Common\Minimal/IntQueue.c **** 	{
 681:..\Common\Minimal/IntQueue.c **** 		timerNORMALLY_EMPTY_TX();
 1213              		.loc 1 681 0
 1214 0022 614B     		ldr	r3, .L92+4
 1215 0024 1B68     		ldr	r3, [r3]
 1216 0026 1846     		mov	r0, r3
 1217 0028 FFF7FEFF 		bl	xQueueIsQueueFullFromISR
 1218 002c 0346     		mov	r3, r0
 1219 002e 012B     		cmp	r3, #1
 1220 0030 26D0     		beq	.L79
 1221              	.LBB42:
 1222              	.LBB43:
 1223              	.LBB44:
 1224              		.file 2 "..\\Source\\portable\\GCC\\ARM_CM3/portmacro.h"
   1:..\Source\portable\GCC\ARM_CM3/portmacro.h **** /*
   2:..\Source\portable\GCC\ARM_CM3/portmacro.h ****     FreeRTOS V9.0.0 - Copyright (C) 2016 Real Time Engineers Ltd.
   3:..\Source\portable\GCC\ARM_CM3/portmacro.h ****     All rights reserved
   4:..\Source\portable\GCC\ARM_CM3/portmacro.h **** 
   5:..\Source\portable\GCC\ARM_CM3/portmacro.h ****     VISIT http://www.FreeRTOS.org TO ENSURE YOU ARE USING THE LATEST VERSION.
ARM GAS  C:\Users\THUNDE~1\AppData\Local\Temp\ccjD8PP6.s 			page 35


   6:..\Source\portable\GCC\ARM_CM3/portmacro.h **** 
   7:..\Source\portable\GCC\ARM_CM3/portmacro.h ****     This file is part of the FreeRTOS distribution.
   8:..\Source\portable\GCC\ARM_CM3/portmacro.h **** 
   9:..\Source\portable\GCC\ARM_CM3/portmacro.h ****     FreeRTOS is free software; you can redistribute it and/or modify it under
  10:..\Source\portable\GCC\ARM_CM3/portmacro.h ****     the terms of the GNU General Public License (version 2) as published by the
  11:..\Source\portable\GCC\ARM_CM3/portmacro.h ****     Free Software Foundation >>>> AND MODIFIED BY <<<< the FreeRTOS exception.
  12:..\Source\portable\GCC\ARM_CM3/portmacro.h **** 
  13:..\Source\portable\GCC\ARM_CM3/portmacro.h ****     ***************************************************************************
  14:..\Source\portable\GCC\ARM_CM3/portmacro.h ****     >>!   NOTE: The modification to the GPL is included to allow you to     !<<
  15:..\Source\portable\GCC\ARM_CM3/portmacro.h ****     >>!   distribute a combined work that includes FreeRTOS without being   !<<
  16:..\Source\portable\GCC\ARM_CM3/portmacro.h ****     >>!   obliged to provide the source code for proprietary components     !<<
  17:..\Source\portable\GCC\ARM_CM3/portmacro.h ****     >>!   outside of the FreeRTOS kernel.                                   !<<
  18:..\Source\portable\GCC\ARM_CM3/portmacro.h ****     ***************************************************************************
  19:..\Source\portable\GCC\ARM_CM3/portmacro.h **** 
  20:..\Source\portable\GCC\ARM_CM3/portmacro.h ****     FreeRTOS is distributed in the hope that it will be useful, but WITHOUT ANY
  21:..\Source\portable\GCC\ARM_CM3/portmacro.h ****     WARRANTY; without even the implied warranty of MERCHANTABILITY or FITNESS
  22:..\Source\portable\GCC\ARM_CM3/portmacro.h ****     FOR A PARTICULAR PURPOSE.  Full license text is available on the following
  23:..\Source\portable\GCC\ARM_CM3/portmacro.h ****     link: http://www.freertos.org/a00114.html
  24:..\Source\portable\GCC\ARM_CM3/portmacro.h **** 
  25:..\Source\portable\GCC\ARM_CM3/portmacro.h ****     ***************************************************************************
  26:..\Source\portable\GCC\ARM_CM3/portmacro.h ****      *                                                                       *
  27:..\Source\portable\GCC\ARM_CM3/portmacro.h ****      *    FreeRTOS provides completely free yet professionally developed,    *
  28:..\Source\portable\GCC\ARM_CM3/portmacro.h ****      *    robust, strictly quality controlled, supported, and cross          *
  29:..\Source\portable\GCC\ARM_CM3/portmacro.h ****      *    platform software that is more than just the market leader, it     *
  30:..\Source\portable\GCC\ARM_CM3/portmacro.h ****      *    is the industry's de facto standard.                               *
  31:..\Source\portable\GCC\ARM_CM3/portmacro.h ****      *                                                                       *
  32:..\Source\portable\GCC\ARM_CM3/portmacro.h ****      *    Help yourself get started quickly while simultaneously helping     *
  33:..\Source\portable\GCC\ARM_CM3/portmacro.h ****      *    to support the FreeRTOS project by purchasing a FreeRTOS           *
  34:..\Source\portable\GCC\ARM_CM3/portmacro.h ****      *    tutorial book, reference manual, or both:                          *
  35:..\Source\portable\GCC\ARM_CM3/portmacro.h ****      *    http://www.FreeRTOS.org/Documentation                              *
  36:..\Source\portable\GCC\ARM_CM3/portmacro.h ****      *                                                                       *
  37:..\Source\portable\GCC\ARM_CM3/portmacro.h ****     ***************************************************************************
  38:..\Source\portable\GCC\ARM_CM3/portmacro.h **** 
  39:..\Source\portable\GCC\ARM_CM3/portmacro.h ****     http://www.FreeRTOS.org/FAQHelp.html - Having a problem?  Start by reading
  40:..\Source\portable\GCC\ARM_CM3/portmacro.h ****     the FAQ page "My application does not run, what could be wrong?".  Have you
  41:..\Source\portable\GCC\ARM_CM3/portmacro.h ****     defined configASSERT()?
  42:..\Source\portable\GCC\ARM_CM3/portmacro.h **** 
  43:..\Source\portable\GCC\ARM_CM3/portmacro.h ****     http://www.FreeRTOS.org/support - In return for receiving this top quality
  44:..\Source\portable\GCC\ARM_CM3/portmacro.h ****     embedded software for free we request you assist our global community by
  45:..\Source\portable\GCC\ARM_CM3/portmacro.h ****     participating in the support forum.
  46:..\Source\portable\GCC\ARM_CM3/portmacro.h **** 
  47:..\Source\portable\GCC\ARM_CM3/portmacro.h ****     http://www.FreeRTOS.org/training - Investing in training allows your team to
  48:..\Source\portable\GCC\ARM_CM3/portmacro.h ****     be as productive as possible as early as possible.  Now you can receive
  49:..\Source\portable\GCC\ARM_CM3/portmacro.h ****     FreeRTOS training directly from Richard Barry, CEO of Real Time Engineers
  50:..\Source\portable\GCC\ARM_CM3/portmacro.h ****     Ltd, and the world's leading authority on the world's leading RTOS.
  51:..\Source\portable\GCC\ARM_CM3/portmacro.h **** 
  52:..\Source\portable\GCC\ARM_CM3/portmacro.h ****     http://www.FreeRTOS.org/plus - A selection of FreeRTOS ecosystem products,
  53:..\Source\portable\GCC\ARM_CM3/portmacro.h ****     including FreeRTOS+Trace - an indispensable productivity tool, a DOS
  54:..\Source\portable\GCC\ARM_CM3/portmacro.h ****     compatible FAT file system, and our tiny thread aware UDP/IP stack.
  55:..\Source\portable\GCC\ARM_CM3/portmacro.h **** 
  56:..\Source\portable\GCC\ARM_CM3/portmacro.h ****     http://www.FreeRTOS.org/labs - Where new FreeRTOS products go to incubate.
  57:..\Source\portable\GCC\ARM_CM3/portmacro.h ****     Come and try FreeRTOS+TCP, our new open source TCP/IP stack for FreeRTOS.
  58:..\Source\portable\GCC\ARM_CM3/portmacro.h **** 
  59:..\Source\portable\GCC\ARM_CM3/portmacro.h ****     http://www.OpenRTOS.com - Real Time Engineers ltd. license FreeRTOS to High
  60:..\Source\portable\GCC\ARM_CM3/portmacro.h ****     Integrity Systems ltd. to sell under the OpenRTOS brand.  Low cost OpenRTOS
  61:..\Source\portable\GCC\ARM_CM3/portmacro.h ****     licenses offer ticketed support, indemnification and commercial middleware.
  62:..\Source\portable\GCC\ARM_CM3/portmacro.h **** 
ARM GAS  C:\Users\THUNDE~1\AppData\Local\Temp\ccjD8PP6.s 			page 36


  63:..\Source\portable\GCC\ARM_CM3/portmacro.h ****     http://www.SafeRTOS.com - High Integrity Systems also provide a safety
  64:..\Source\portable\GCC\ARM_CM3/portmacro.h ****     engineered and independently SIL3 certified version for use in safety and
  65:..\Source\portable\GCC\ARM_CM3/portmacro.h ****     mission critical applications that require provable dependability.
  66:..\Source\portable\GCC\ARM_CM3/portmacro.h **** 
  67:..\Source\portable\GCC\ARM_CM3/portmacro.h ****     1 tab == 4 spaces!
  68:..\Source\portable\GCC\ARM_CM3/portmacro.h **** */
  69:..\Source\portable\GCC\ARM_CM3/portmacro.h **** 
  70:..\Source\portable\GCC\ARM_CM3/portmacro.h **** 
  71:..\Source\portable\GCC\ARM_CM3/portmacro.h **** #ifndef PORTMACRO_H
  72:..\Source\portable\GCC\ARM_CM3/portmacro.h **** #define PORTMACRO_H
  73:..\Source\portable\GCC\ARM_CM3/portmacro.h **** 
  74:..\Source\portable\GCC\ARM_CM3/portmacro.h **** #ifdef __cplusplus
  75:..\Source\portable\GCC\ARM_CM3/portmacro.h **** extern "C" {
  76:..\Source\portable\GCC\ARM_CM3/portmacro.h **** #endif
  77:..\Source\portable\GCC\ARM_CM3/portmacro.h **** 
  78:..\Source\portable\GCC\ARM_CM3/portmacro.h **** /*-----------------------------------------------------------
  79:..\Source\portable\GCC\ARM_CM3/portmacro.h ****  * Port specific definitions.
  80:..\Source\portable\GCC\ARM_CM3/portmacro.h ****  *
  81:..\Source\portable\GCC\ARM_CM3/portmacro.h ****  * The settings in this file configure FreeRTOS correctly for the
  82:..\Source\portable\GCC\ARM_CM3/portmacro.h ****  * given hardware and compiler.
  83:..\Source\portable\GCC\ARM_CM3/portmacro.h ****  *
  84:..\Source\portable\GCC\ARM_CM3/portmacro.h ****  * These settings should not be altered.
  85:..\Source\portable\GCC\ARM_CM3/portmacro.h ****  *-----------------------------------------------------------
  86:..\Source\portable\GCC\ARM_CM3/portmacro.h ****  */
  87:..\Source\portable\GCC\ARM_CM3/portmacro.h **** 
  88:..\Source\portable\GCC\ARM_CM3/portmacro.h **** /* Type definitions. */
  89:..\Source\portable\GCC\ARM_CM3/portmacro.h **** #define portCHAR		char
  90:..\Source\portable\GCC\ARM_CM3/portmacro.h **** #define portFLOAT		float
  91:..\Source\portable\GCC\ARM_CM3/portmacro.h **** #define portDOUBLE		double
  92:..\Source\portable\GCC\ARM_CM3/portmacro.h **** #define portLONG		long
  93:..\Source\portable\GCC\ARM_CM3/portmacro.h **** #define portSHORT		short
  94:..\Source\portable\GCC\ARM_CM3/portmacro.h **** #define portSTACK_TYPE	uint32_t
  95:..\Source\portable\GCC\ARM_CM3/portmacro.h **** #define portBASE_TYPE	long
  96:..\Source\portable\GCC\ARM_CM3/portmacro.h **** 
  97:..\Source\portable\GCC\ARM_CM3/portmacro.h **** typedef portSTACK_TYPE StackType_t;
  98:..\Source\portable\GCC\ARM_CM3/portmacro.h **** typedef long BaseType_t;
  99:..\Source\portable\GCC\ARM_CM3/portmacro.h **** typedef unsigned long UBaseType_t;
 100:..\Source\portable\GCC\ARM_CM3/portmacro.h **** 
 101:..\Source\portable\GCC\ARM_CM3/portmacro.h **** #if( configUSE_16_BIT_TICKS == 1 )
 102:..\Source\portable\GCC\ARM_CM3/portmacro.h **** 	typedef uint16_t TickType_t;
 103:..\Source\portable\GCC\ARM_CM3/portmacro.h **** 	#define portMAX_DELAY ( TickType_t ) 0xffff
 104:..\Source\portable\GCC\ARM_CM3/portmacro.h **** #else
 105:..\Source\portable\GCC\ARM_CM3/portmacro.h **** 	typedef uint32_t TickType_t;
 106:..\Source\portable\GCC\ARM_CM3/portmacro.h **** 	#define portMAX_DELAY ( TickType_t ) 0xffffffffUL
 107:..\Source\portable\GCC\ARM_CM3/portmacro.h **** 
 108:..\Source\portable\GCC\ARM_CM3/portmacro.h **** 	/* 32-bit tick type on a 32-bit architecture, so reads of the tick count do
 109:..\Source\portable\GCC\ARM_CM3/portmacro.h **** 	not need to be guarded with a critical section. */
 110:..\Source\portable\GCC\ARM_CM3/portmacro.h **** 	#define portTICK_TYPE_IS_ATOMIC 1
 111:..\Source\portable\GCC\ARM_CM3/portmacro.h **** #endif
 112:..\Source\portable\GCC\ARM_CM3/portmacro.h **** /*-----------------------------------------------------------*/
 113:..\Source\portable\GCC\ARM_CM3/portmacro.h **** 
 114:..\Source\portable\GCC\ARM_CM3/portmacro.h **** /* Architecture specifics. */
 115:..\Source\portable\GCC\ARM_CM3/portmacro.h **** #define portSTACK_GROWTH			( -1 )
 116:..\Source\portable\GCC\ARM_CM3/portmacro.h **** #define portTICK_PERIOD_MS			( ( TickType_t ) 1000 / configTICK_RATE_HZ )
 117:..\Source\portable\GCC\ARM_CM3/portmacro.h **** #define portBYTE_ALIGNMENT			8
 118:..\Source\portable\GCC\ARM_CM3/portmacro.h **** /*-----------------------------------------------------------*/
 119:..\Source\portable\GCC\ARM_CM3/portmacro.h **** 
ARM GAS  C:\Users\THUNDE~1\AppData\Local\Temp\ccjD8PP6.s 			page 37


 120:..\Source\portable\GCC\ARM_CM3/portmacro.h **** /* Scheduler utilities. */
 121:..\Source\portable\GCC\ARM_CM3/portmacro.h **** #define portYIELD() 															\
 122:..\Source\portable\GCC\ARM_CM3/portmacro.h **** {																				\
 123:..\Source\portable\GCC\ARM_CM3/portmacro.h **** 	/* Set a PendSV to request a context switch. */								\
 124:..\Source\portable\GCC\ARM_CM3/portmacro.h **** 	portNVIC_INT_CTRL_REG = portNVIC_PENDSVSET_BIT;								\
 125:..\Source\portable\GCC\ARM_CM3/portmacro.h **** 																				\
 126:..\Source\portable\GCC\ARM_CM3/portmacro.h **** 	/* Barriers are normally not required but do ensure the code is completely	\
 127:..\Source\portable\GCC\ARM_CM3/portmacro.h **** 	within the specified behaviour for the architecture. */						\
 128:..\Source\portable\GCC\ARM_CM3/portmacro.h **** 	__asm volatile( "dsb" );													\
 129:..\Source\portable\GCC\ARM_CM3/portmacro.h **** 	__asm volatile( "isb" );													\
 130:..\Source\portable\GCC\ARM_CM3/portmacro.h **** }
 131:..\Source\portable\GCC\ARM_CM3/portmacro.h **** 
 132:..\Source\portable\GCC\ARM_CM3/portmacro.h **** #define portNVIC_INT_CTRL_REG		( * ( ( volatile uint32_t * ) 0xe000ed04 ) )
 133:..\Source\portable\GCC\ARM_CM3/portmacro.h **** #define portNVIC_PENDSVSET_BIT		( 1UL << 28UL )
 134:..\Source\portable\GCC\ARM_CM3/portmacro.h **** #define portEND_SWITCHING_ISR( xSwitchRequired ) if( xSwitchRequired != pdFALSE ) portYIELD()
 135:..\Source\portable\GCC\ARM_CM3/portmacro.h **** #define portYIELD_FROM_ISR( x ) portEND_SWITCHING_ISR( x )
 136:..\Source\portable\GCC\ARM_CM3/portmacro.h **** /*-----------------------------------------------------------*/
 137:..\Source\portable\GCC\ARM_CM3/portmacro.h **** 
 138:..\Source\portable\GCC\ARM_CM3/portmacro.h **** /* Critical section management. */
 139:..\Source\portable\GCC\ARM_CM3/portmacro.h **** extern void vPortEnterCritical( void );
 140:..\Source\portable\GCC\ARM_CM3/portmacro.h **** extern void vPortExitCritical( void );
 141:..\Source\portable\GCC\ARM_CM3/portmacro.h **** #define portSET_INTERRUPT_MASK_FROM_ISR()		ulPortRaiseBASEPRI()
 142:..\Source\portable\GCC\ARM_CM3/portmacro.h **** #define portCLEAR_INTERRUPT_MASK_FROM_ISR(x)	vPortSetBASEPRI(x)
 143:..\Source\portable\GCC\ARM_CM3/portmacro.h **** #define portDISABLE_INTERRUPTS()				vPortRaiseBASEPRI()
 144:..\Source\portable\GCC\ARM_CM3/portmacro.h **** #define portENABLE_INTERRUPTS()					vPortSetBASEPRI(0)
 145:..\Source\portable\GCC\ARM_CM3/portmacro.h **** #define portENTER_CRITICAL()					vPortEnterCritical()
 146:..\Source\portable\GCC\ARM_CM3/portmacro.h **** #define portEXIT_CRITICAL()						vPortExitCritical()
 147:..\Source\portable\GCC\ARM_CM3/portmacro.h **** 
 148:..\Source\portable\GCC\ARM_CM3/portmacro.h **** /*-----------------------------------------------------------*/
 149:..\Source\portable\GCC\ARM_CM3/portmacro.h **** 
 150:..\Source\portable\GCC\ARM_CM3/portmacro.h **** /* Task function macros as described on the FreeRTOS.org WEB site.  These are
 151:..\Source\portable\GCC\ARM_CM3/portmacro.h **** not necessary for to use this port.  They are defined so the common demo files
 152:..\Source\portable\GCC\ARM_CM3/portmacro.h **** (which build with all the ports) will build. */
 153:..\Source\portable\GCC\ARM_CM3/portmacro.h **** #define portTASK_FUNCTION_PROTO( vFunction, pvParameters ) void vFunction( void *pvParameters )
 154:..\Source\portable\GCC\ARM_CM3/portmacro.h **** #define portTASK_FUNCTION( vFunction, pvParameters ) void vFunction( void *pvParameters )
 155:..\Source\portable\GCC\ARM_CM3/portmacro.h **** /*-----------------------------------------------------------*/
 156:..\Source\portable\GCC\ARM_CM3/portmacro.h **** 
 157:..\Source\portable\GCC\ARM_CM3/portmacro.h **** /* Tickless idle/low power functionality. */
 158:..\Source\portable\GCC\ARM_CM3/portmacro.h **** #ifndef portSUPPRESS_TICKS_AND_SLEEP
 159:..\Source\portable\GCC\ARM_CM3/portmacro.h **** 	extern void vPortSuppressTicksAndSleep( TickType_t xExpectedIdleTime );
 160:..\Source\portable\GCC\ARM_CM3/portmacro.h **** 	#define portSUPPRESS_TICKS_AND_SLEEP( xExpectedIdleTime ) vPortSuppressTicksAndSleep( xExpectedIdl
 161:..\Source\portable\GCC\ARM_CM3/portmacro.h **** #endif
 162:..\Source\portable\GCC\ARM_CM3/portmacro.h **** /*-----------------------------------------------------------*/
 163:..\Source\portable\GCC\ARM_CM3/portmacro.h **** 
 164:..\Source\portable\GCC\ARM_CM3/portmacro.h **** /* Architecture specific optimisations. */
 165:..\Source\portable\GCC\ARM_CM3/portmacro.h **** #ifndef configUSE_PORT_OPTIMISED_TASK_SELECTION
 166:..\Source\portable\GCC\ARM_CM3/portmacro.h **** 	#define configUSE_PORT_OPTIMISED_TASK_SELECTION 1
 167:..\Source\portable\GCC\ARM_CM3/portmacro.h **** #endif
 168:..\Source\portable\GCC\ARM_CM3/portmacro.h **** 
 169:..\Source\portable\GCC\ARM_CM3/portmacro.h **** #if configUSE_PORT_OPTIMISED_TASK_SELECTION == 1
 170:..\Source\portable\GCC\ARM_CM3/portmacro.h **** 
 171:..\Source\portable\GCC\ARM_CM3/portmacro.h **** 	/* Generic helper function. */
 172:..\Source\portable\GCC\ARM_CM3/portmacro.h **** 	__attribute__( ( always_inline ) ) static inline uint8_t ucPortCountLeadingZeros( uint32_t ulBitma
 173:..\Source\portable\GCC\ARM_CM3/portmacro.h **** 	{
 174:..\Source\portable\GCC\ARM_CM3/portmacro.h **** 	uint8_t ucReturn;
 175:..\Source\portable\GCC\ARM_CM3/portmacro.h **** 
 176:..\Source\portable\GCC\ARM_CM3/portmacro.h **** 		__asm volatile ( "clz %0, %1" : "=r" ( ucReturn ) : "r" ( ulBitmap ) );
ARM GAS  C:\Users\THUNDE~1\AppData\Local\Temp\ccjD8PP6.s 			page 38


 177:..\Source\portable\GCC\ARM_CM3/portmacro.h **** 		return ucReturn;
 178:..\Source\portable\GCC\ARM_CM3/portmacro.h **** 	}
 179:..\Source\portable\GCC\ARM_CM3/portmacro.h **** 
 180:..\Source\portable\GCC\ARM_CM3/portmacro.h **** 	/* Check the configuration. */
 181:..\Source\portable\GCC\ARM_CM3/portmacro.h **** 	#if( configMAX_PRIORITIES > 32 )
 182:..\Source\portable\GCC\ARM_CM3/portmacro.h **** 		#error configUSE_PORT_OPTIMISED_TASK_SELECTION can only be set to 1 when configMAX_PRIORITIES is 
 183:..\Source\portable\GCC\ARM_CM3/portmacro.h **** 	#endif
 184:..\Source\portable\GCC\ARM_CM3/portmacro.h **** 
 185:..\Source\portable\GCC\ARM_CM3/portmacro.h **** 	/* Store/clear the ready priorities in a bit map. */
 186:..\Source\portable\GCC\ARM_CM3/portmacro.h **** 	#define portRECORD_READY_PRIORITY( uxPriority, uxReadyPriorities ) ( uxReadyPriorities ) |= ( 1UL 
 187:..\Source\portable\GCC\ARM_CM3/portmacro.h **** 	#define portRESET_READY_PRIORITY( uxPriority, uxReadyPriorities ) ( uxReadyPriorities ) &= ~( 1UL 
 188:..\Source\portable\GCC\ARM_CM3/portmacro.h **** 
 189:..\Source\portable\GCC\ARM_CM3/portmacro.h **** 	/*-----------------------------------------------------------*/
 190:..\Source\portable\GCC\ARM_CM3/portmacro.h **** 
 191:..\Source\portable\GCC\ARM_CM3/portmacro.h **** 	#define portGET_HIGHEST_PRIORITY( uxTopPriority, uxReadyPriorities ) uxTopPriority = ( 31UL - ( ui
 192:..\Source\portable\GCC\ARM_CM3/portmacro.h **** 
 193:..\Source\portable\GCC\ARM_CM3/portmacro.h **** #endif /* configUSE_PORT_OPTIMISED_TASK_SELECTION */
 194:..\Source\portable\GCC\ARM_CM3/portmacro.h **** 
 195:..\Source\portable\GCC\ARM_CM3/portmacro.h **** /*-----------------------------------------------------------*/
 196:..\Source\portable\GCC\ARM_CM3/portmacro.h **** 
 197:..\Source\portable\GCC\ARM_CM3/portmacro.h **** #ifdef configASSERT
 198:..\Source\portable\GCC\ARM_CM3/portmacro.h **** 	void vPortValidateInterruptPriority( void );
 199:..\Source\portable\GCC\ARM_CM3/portmacro.h **** 	#define portASSERT_IF_INTERRUPT_PRIORITY_INVALID() 	vPortValidateInterruptPriority()
 200:..\Source\portable\GCC\ARM_CM3/portmacro.h **** #endif
 201:..\Source\portable\GCC\ARM_CM3/portmacro.h **** 
 202:..\Source\portable\GCC\ARM_CM3/portmacro.h **** /* portNOP() is not required by this port. */
 203:..\Source\portable\GCC\ARM_CM3/portmacro.h **** #define portNOP()
 204:..\Source\portable\GCC\ARM_CM3/portmacro.h **** 
 205:..\Source\portable\GCC\ARM_CM3/portmacro.h **** #define portINLINE	__inline
 206:..\Source\portable\GCC\ARM_CM3/portmacro.h **** 
 207:..\Source\portable\GCC\ARM_CM3/portmacro.h **** #ifndef portFORCE_INLINE
 208:..\Source\portable\GCC\ARM_CM3/portmacro.h **** 	#define portFORCE_INLINE inline __attribute__(( always_inline))
 209:..\Source\portable\GCC\ARM_CM3/portmacro.h **** #endif
 210:..\Source\portable\GCC\ARM_CM3/portmacro.h **** 
 211:..\Source\portable\GCC\ARM_CM3/portmacro.h **** portFORCE_INLINE static BaseType_t xPortIsInsideInterrupt( void )
 212:..\Source\portable\GCC\ARM_CM3/portmacro.h **** {
 213:..\Source\portable\GCC\ARM_CM3/portmacro.h **** uint32_t ulCurrentInterrupt;
 214:..\Source\portable\GCC\ARM_CM3/portmacro.h **** BaseType_t xReturn;
 215:..\Source\portable\GCC\ARM_CM3/portmacro.h **** 
 216:..\Source\portable\GCC\ARM_CM3/portmacro.h **** 	/* Obtain the number of the currently executing interrupt. */
 217:..\Source\portable\GCC\ARM_CM3/portmacro.h **** 	__asm volatile( "mrs %0, ipsr" : "=r"( ulCurrentInterrupt ) );
 218:..\Source\portable\GCC\ARM_CM3/portmacro.h **** 
 219:..\Source\portable\GCC\ARM_CM3/portmacro.h **** 	if( ulCurrentInterrupt == 0 )
 220:..\Source\portable\GCC\ARM_CM3/portmacro.h **** 	{
 221:..\Source\portable\GCC\ARM_CM3/portmacro.h **** 		xReturn = pdFALSE;
 222:..\Source\portable\GCC\ARM_CM3/portmacro.h **** 	}
 223:..\Source\portable\GCC\ARM_CM3/portmacro.h **** 	else
 224:..\Source\portable\GCC\ARM_CM3/portmacro.h **** 	{
 225:..\Source\portable\GCC\ARM_CM3/portmacro.h **** 		xReturn = pdTRUE;
 226:..\Source\portable\GCC\ARM_CM3/portmacro.h **** 	}
 227:..\Source\portable\GCC\ARM_CM3/portmacro.h **** 
 228:..\Source\portable\GCC\ARM_CM3/portmacro.h **** 	return xReturn;
 229:..\Source\portable\GCC\ARM_CM3/portmacro.h **** }
 230:..\Source\portable\GCC\ARM_CM3/portmacro.h **** 
 231:..\Source\portable\GCC\ARM_CM3/portmacro.h **** /*-----------------------------------------------------------*/
 232:..\Source\portable\GCC\ARM_CM3/portmacro.h **** 
 233:..\Source\portable\GCC\ARM_CM3/portmacro.h **** portFORCE_INLINE static void vPortRaiseBASEPRI( void )
ARM GAS  C:\Users\THUNDE~1\AppData\Local\Temp\ccjD8PP6.s 			page 39


 234:..\Source\portable\GCC\ARM_CM3/portmacro.h **** {
 235:..\Source\portable\GCC\ARM_CM3/portmacro.h **** uint32_t ulNewBASEPRI;
 236:..\Source\portable\GCC\ARM_CM3/portmacro.h **** 
 237:..\Source\portable\GCC\ARM_CM3/portmacro.h **** 	__asm volatile
 238:..\Source\portable\GCC\ARM_CM3/portmacro.h **** 	(
 239:..\Source\portable\GCC\ARM_CM3/portmacro.h **** 		"	mov %0, %1												\n"	\
 240:..\Source\portable\GCC\ARM_CM3/portmacro.h **** 		"	msr basepri, %0											\n" \
 241:..\Source\portable\GCC\ARM_CM3/portmacro.h **** 		"	isb														\n" \
 242:..\Source\portable\GCC\ARM_CM3/portmacro.h **** 		"	dsb														\n" \
 243:..\Source\portable\GCC\ARM_CM3/portmacro.h **** 		:"=r" (ulNewBASEPRI) : "i" ( configMAX_SYSCALL_INTERRUPT_PRIORITY )
 244:..\Source\portable\GCC\ARM_CM3/portmacro.h **** 	);
 245:..\Source\portable\GCC\ARM_CM3/portmacro.h **** }
 246:..\Source\portable\GCC\ARM_CM3/portmacro.h **** 
 247:..\Source\portable\GCC\ARM_CM3/portmacro.h **** /*-----------------------------------------------------------*/
 248:..\Source\portable\GCC\ARM_CM3/portmacro.h **** 
 249:..\Source\portable\GCC\ARM_CM3/portmacro.h **** portFORCE_INLINE static uint32_t ulPortRaiseBASEPRI( void )
 250:..\Source\portable\GCC\ARM_CM3/portmacro.h **** {
 251:..\Source\portable\GCC\ARM_CM3/portmacro.h **** uint32_t ulOriginalBASEPRI, ulNewBASEPRI;
 252:..\Source\portable\GCC\ARM_CM3/portmacro.h **** 
 253:..\Source\portable\GCC\ARM_CM3/portmacro.h **** 	__asm volatile
 1225              		.loc 2 253 0 discriminator 1
 1226              		.syntax unified
 1227              	@ 253 "..\Source\portable\GCC\ARM_CM3/portmacro.h" 1
 1228 0032 EFF31182 			mrs r2, basepri											
 1229 0036 4FF0A003 		mov r3, #160												
 1230 003a 83F31188 		msr basepri, r3											
 1231 003e BFF36F8F 		isb														
 1232 0042 BFF34F8F 		dsb														
 1233              	
 1234              	@ 0 "" 2
 1235              		.thumb
 1236              		.syntax unified
 1237 0046 7A61     		str	r2, [r7, #20]
 1238 0048 3B61     		str	r3, [r7, #16]
 254:..\Source\portable\GCC\ARM_CM3/portmacro.h **** 	(
 255:..\Source\portable\GCC\ARM_CM3/portmacro.h **** 		"	mrs %0, basepri											\n" \
 256:..\Source\portable\GCC\ARM_CM3/portmacro.h **** 		"	mov %1, %2												\n"	\
 257:..\Source\portable\GCC\ARM_CM3/portmacro.h **** 		"	msr basepri, %1											\n" \
 258:..\Source\portable\GCC\ARM_CM3/portmacro.h **** 		"	isb														\n" \
 259:..\Source\portable\GCC\ARM_CM3/portmacro.h **** 		"	dsb														\n" \
 260:..\Source\portable\GCC\ARM_CM3/portmacro.h **** 		:"=r" (ulOriginalBASEPRI), "=r" (ulNewBASEPRI) : "i" ( configMAX_SYSCALL_INTERRUPT_PRIORITY )
 261:..\Source\portable\GCC\ARM_CM3/portmacro.h **** 	);
 262:..\Source\portable\GCC\ARM_CM3/portmacro.h **** 
 263:..\Source\portable\GCC\ARM_CM3/portmacro.h **** 	/* This return will not be reached but is necessary to prevent compiler
 264:..\Source\portable\GCC\ARM_CM3/portmacro.h **** 	warnings. */
 265:..\Source\portable\GCC\ARM_CM3/portmacro.h **** 	return ulOriginalBASEPRI;
 1239              		.loc 2 265 0 discriminator 1
 1240 004a 7B69     		ldr	r3, [r7, #20]
 1241              	.LBE44:
 1242              	.LBE43:
 1243              		.loc 1 681 0 discriminator 1
 1244 004c 3B63     		str	r3, [r7, #48]
 1245 004e 574B     		ldr	r3, .L92+8
 1246 0050 1B68     		ldr	r3, [r3]
 1247 0052 0133     		adds	r3, r3, #1
 1248 0054 554A     		ldr	r2, .L92+8
 1249 0056 1360     		str	r3, [r2]
ARM GAS  C:\Users\THUNDE~1\AppData\Local\Temp\ccjD8PP6.s 			page 40


 1250 0058 534B     		ldr	r3, .L92+4
 1251 005a 1868     		ldr	r0, [r3]
 1252 005c 3A1D     		adds	r2, r7, #4
 1253 005e 0023     		movs	r3, #0
 1254 0060 5249     		ldr	r1, .L92+8
 1255 0062 FFF7FEFF 		bl	xQueueGenericSendFromISR
 1256 0066 0346     		mov	r3, r0
 1257 0068 012B     		cmp	r3, #1
 1258 006a 04D0     		beq	.L81
 1259              		.loc 1 681 0 is_stmt 0 discriminator 2
 1260 006c 4F4B     		ldr	r3, .L92+8
 1261 006e 1B68     		ldr	r3, [r3]
 1262 0070 013B     		subs	r3, r3, #1
 1263 0072 4E4A     		ldr	r2, .L92+8
 1264 0074 1360     		str	r3, [r2]
 1265              	.L81:
 1266 0076 3B6B     		ldr	r3, [r7, #48]
 1267 0078 7B63     		str	r3, [r7, #52]
 1268              	.LBB45:
 1269              	.LBB46:
 266:..\Source\portable\GCC\ARM_CM3/portmacro.h **** }
 267:..\Source\portable\GCC\ARM_CM3/portmacro.h **** /*-----------------------------------------------------------*/
 268:..\Source\portable\GCC\ARM_CM3/portmacro.h **** 
 269:..\Source\portable\GCC\ARM_CM3/portmacro.h **** portFORCE_INLINE static void vPortSetBASEPRI( uint32_t ulNewMaskValue )
 270:..\Source\portable\GCC\ARM_CM3/portmacro.h **** {
 271:..\Source\portable\GCC\ARM_CM3/portmacro.h **** 	__asm volatile
 1270              		.loc 2 271 0 is_stmt 1 discriminator 4
 1271 007a 7B6B     		ldr	r3, [r7, #52]
 1272              		.syntax unified
 1273              	@ 271 "..\Source\portable\GCC\ARM_CM3/portmacro.h" 1
 1274 007c 83F31188 			msr basepri, r3	
 1275              	@ 0 "" 2
 1276              		.thumb
 1277              		.syntax unified
 1278              	.L79:
 1279              	.LBE46:
 1280              	.LBE45:
 1281              	.LBE42:
 682:..\Common\Minimal/IntQueue.c **** 		timerNORMALLY_EMPTY_TX();
 1282              		.loc 1 682 0
 1283 0080 494B     		ldr	r3, .L92+4
 1284 0082 1B68     		ldr	r3, [r3]
 1285 0084 1846     		mov	r0, r3
 1286 0086 FFF7FEFF 		bl	xQueueIsQueueFullFromISR
 1287 008a 0346     		mov	r3, r0
 1288 008c 012B     		cmp	r3, #1
 1289 008e 26D0     		beq	.L82
 1290              	.LBB47:
 1291              	.LBB48:
 1292              	.LBB49:
 253:..\Source\portable\GCC\ARM_CM3/portmacro.h **** 	(
 1293              		.loc 2 253 0 discriminator 1
 1294              		.syntax unified
 1295              	@ 253 "..\Source\portable\GCC\ARM_CM3/portmacro.h" 1
 1296 0090 EFF31182 			mrs r2, basepri											
 1297 0094 4FF0A003 		mov r3, #160												
 1298 0098 83F31188 		msr basepri, r3											
ARM GAS  C:\Users\THUNDE~1\AppData\Local\Temp\ccjD8PP6.s 			page 41


 1299 009c BFF36F8F 		isb														
 1300 00a0 BFF34F8F 		dsb														
 1301              	
 1302              	@ 0 "" 2
 1303              		.thumb
 1304              		.syntax unified
 1305 00a4 FA62     		str	r2, [r7, #44]
 1306 00a6 FB60     		str	r3, [r7, #12]
 265:..\Source\portable\GCC\ARM_CM3/portmacro.h **** }
 1307              		.loc 2 265 0 discriminator 1
 1308 00a8 FB6A     		ldr	r3, [r7, #44]
 1309              	.LBE49:
 1310              	.LBE48:
 1311              		.loc 1 682 0 discriminator 1
 1312 00aa 7B62     		str	r3, [r7, #36]
 1313 00ac 3F4B     		ldr	r3, .L92+8
 1314 00ae 1B68     		ldr	r3, [r3]
 1315 00b0 0133     		adds	r3, r3, #1
 1316 00b2 3E4A     		ldr	r2, .L92+8
 1317 00b4 1360     		str	r3, [r2]
 1318 00b6 3C4B     		ldr	r3, .L92+4
 1319 00b8 1868     		ldr	r0, [r3]
 1320 00ba 3A1D     		adds	r2, r7, #4
 1321 00bc 0023     		movs	r3, #0
 1322 00be 3B49     		ldr	r1, .L92+8
 1323 00c0 FFF7FEFF 		bl	xQueueGenericSendFromISR
 1324 00c4 0346     		mov	r3, r0
 1325 00c6 012B     		cmp	r3, #1
 1326 00c8 04D0     		beq	.L84
 1327              		.loc 1 682 0 is_stmt 0 discriminator 2
 1328 00ca 384B     		ldr	r3, .L92+8
 1329 00cc 1B68     		ldr	r3, [r3]
 1330 00ce 013B     		subs	r3, r3, #1
 1331 00d0 364A     		ldr	r2, .L92+8
 1332 00d2 1360     		str	r3, [r2]
 1333              	.L84:
 1334 00d4 7B6A     		ldr	r3, [r7, #36]
 1335 00d6 BB62     		str	r3, [r7, #40]
 1336              	.LBB50:
 1337              	.LBB51:
 1338              		.loc 2 271 0 is_stmt 1 discriminator 4
 1339 00d8 BB6A     		ldr	r3, [r7, #40]
 1340              		.syntax unified
 1341              	@ 271 "..\Source\portable\GCC\ARM_CM3/portmacro.h" 1
 1342 00da 83F31188 			msr basepri, r3	
 1343              	@ 0 "" 2
 1344              		.thumb
 1345              		.syntax unified
 1346              	.L82:
 1347              	.LBE51:
 1348              	.LBE50:
 1349              	.LBE47:
 683:..\Common\Minimal/IntQueue.c **** 		timerNORMALLY_EMPTY_TX();
 1350              		.loc 1 683 0
 1351 00de 324B     		ldr	r3, .L92+4
 1352 00e0 1B68     		ldr	r3, [r3]
 1353 00e2 1846     		mov	r0, r3
ARM GAS  C:\Users\THUNDE~1\AppData\Local\Temp\ccjD8PP6.s 			page 42


 1354 00e4 FFF7FEFF 		bl	xQueueIsQueueFullFromISR
 1355 00e8 0346     		mov	r3, r0
 1356 00ea 012B     		cmp	r3, #1
 1357 00ec 54D0     		beq	.L88
 1358              	.LBB52:
 1359              	.LBB53:
 1360              	.LBB54:
 253:..\Source\portable\GCC\ARM_CM3/portmacro.h **** 	(
 1361              		.loc 2 253 0 discriminator 1
 1362              		.syntax unified
 1363              	@ 253 "..\Source\portable\GCC\ARM_CM3/portmacro.h" 1
 1364 00ee EFF31182 			mrs r2, basepri											
 1365 00f2 4FF0A003 		mov r3, #160												
 1366 00f6 83F31188 		msr basepri, r3											
 1367 00fa BFF36F8F 		isb														
 1368 00fe BFF34F8F 		dsb														
 1369              	
 1370              	@ 0 "" 2
 1371              		.thumb
 1372              		.syntax unified
 1373 0102 3A62     		str	r2, [r7, #32]
 1374 0104 BB60     		str	r3, [r7, #8]
 265:..\Source\portable\GCC\ARM_CM3/portmacro.h **** }
 1375              		.loc 2 265 0 discriminator 1
 1376 0106 3B6A     		ldr	r3, [r7, #32]
 1377              	.LBE54:
 1378              	.LBE53:
 1379              		.loc 1 683 0 discriminator 1
 1380 0108 BB61     		str	r3, [r7, #24]
 1381 010a 284B     		ldr	r3, .L92+8
 1382 010c 1B68     		ldr	r3, [r3]
 1383 010e 0133     		adds	r3, r3, #1
 1384 0110 264A     		ldr	r2, .L92+8
 1385 0112 1360     		str	r3, [r2]
 1386 0114 244B     		ldr	r3, .L92+4
 1387 0116 1868     		ldr	r0, [r3]
 1388 0118 3A1D     		adds	r2, r7, #4
 1389 011a 0023     		movs	r3, #0
 1390 011c 2349     		ldr	r1, .L92+8
 1391 011e FFF7FEFF 		bl	xQueueGenericSendFromISR
 1392 0122 0346     		mov	r3, r0
 1393 0124 012B     		cmp	r3, #1
 1394 0126 04D0     		beq	.L87
 1395              		.loc 1 683 0 is_stmt 0 discriminator 2
 1396 0128 204B     		ldr	r3, .L92+8
 1397 012a 1B68     		ldr	r3, [r3]
 1398 012c 013B     		subs	r3, r3, #1
 1399 012e 1F4A     		ldr	r2, .L92+8
 1400 0130 1360     		str	r3, [r2]
 1401              	.L87:
 1402 0132 BB69     		ldr	r3, [r7, #24]
 1403 0134 FB61     		str	r3, [r7, #28]
 1404              	.LBB55:
 1405              	.LBB56:
 1406              		.loc 2 271 0 is_stmt 1 discriminator 4
 1407 0136 FB69     		ldr	r3, [r7, #28]
 1408              		.syntax unified
ARM GAS  C:\Users\THUNDE~1\AppData\Local\Temp\ccjD8PP6.s 			page 43


 1409              	@ 271 "..\Source\portable\GCC\ARM_CM3/portmacro.h" 1
 1410 0138 83F31188 			msr basepri, r3	
 1411              	@ 0 "" 2
 1412              		.thumb
 1413              		.syntax unified
 1414 013c 2CE0     		b	.L88
 1415              	.L78:
 1416              	.LBE56:
 1417              	.LBE55:
 1418              	.LBE52:
 684:..\Common\Minimal/IntQueue.c **** 	}
 685:..\Common\Minimal/IntQueue.c **** 	else
 686:..\Common\Minimal/IntQueue.c **** 	{
 687:..\Common\Minimal/IntQueue.c **** 		timerNORMALLY_FULL_RX();
 1419              		.loc 1 687 0
 1420 013e 1C4B     		ldr	r3, .L92+12
 1421 0140 1B68     		ldr	r3, [r3]
 1422 0142 3A1D     		adds	r2, r7, #4
 1423 0144 3946     		mov	r1, r7
 1424 0146 1846     		mov	r0, r3
 1425 0148 FFF7FEFF 		bl	xQueueReceiveFromISR
 1426 014c 0346     		mov	r3, r0
 1427 014e 012B     		cmp	r3, #1
 1428 0150 04D1     		bne	.L89
 1429              		.loc 1 687 0 is_stmt 0 discriminator 1
 1430 0152 3B68     		ldr	r3, [r7]
 1431 0154 0521     		movs	r1, #5
 1432 0156 1846     		mov	r0, r3
 1433 0158 FFF7FEFF 		bl	prvRecordValue_NormallyFull
 1434              	.L89:
 688:..\Common\Minimal/IntQueue.c **** 		timerNORMALLY_FULL_RX();
 1435              		.loc 1 688 0 is_stmt 1
 1436 015c 144B     		ldr	r3, .L92+12
 1437 015e 1B68     		ldr	r3, [r3]
 1438 0160 3A1D     		adds	r2, r7, #4
 1439 0162 3946     		mov	r1, r7
 1440 0164 1846     		mov	r0, r3
 1441 0166 FFF7FEFF 		bl	xQueueReceiveFromISR
 1442 016a 0346     		mov	r3, r0
 1443 016c 012B     		cmp	r3, #1
 1444 016e 04D1     		bne	.L90
 1445              		.loc 1 688 0 is_stmt 0 discriminator 1
 1446 0170 3B68     		ldr	r3, [r7]
 1447 0172 0521     		movs	r1, #5
 1448 0174 1846     		mov	r0, r3
 1449 0176 FFF7FEFF 		bl	prvRecordValue_NormallyFull
 1450              	.L90:
 689:..\Common\Minimal/IntQueue.c **** 		timerNORMALLY_FULL_RX();
 1451              		.loc 1 689 0 is_stmt 1
 1452 017a 0D4B     		ldr	r3, .L92+12
 1453 017c 1B68     		ldr	r3, [r3]
 1454 017e 3A1D     		adds	r2, r7, #4
 1455 0180 3946     		mov	r1, r7
 1456 0182 1846     		mov	r0, r3
 1457 0184 FFF7FEFF 		bl	xQueueReceiveFromISR
 1458 0188 0346     		mov	r3, r0
 1459 018a 012B     		cmp	r3, #1
ARM GAS  C:\Users\THUNDE~1\AppData\Local\Temp\ccjD8PP6.s 			page 44


 1460 018c 04D1     		bne	.L88
 1461              		.loc 1 689 0 is_stmt 0 discriminator 1
 1462 018e 3B68     		ldr	r3, [r7]
 1463 0190 0521     		movs	r1, #5
 1464 0192 1846     		mov	r0, r3
 1465 0194 FFF7FEFF 		bl	prvRecordValue_NormallyFull
 1466              	.L88:
 690:..\Common\Minimal/IntQueue.c **** 	}
 691:..\Common\Minimal/IntQueue.c **** 
 692:..\Common\Minimal/IntQueue.c **** 	return xHigherPriorityTaskWoken;
 1467              		.loc 1 692 0 is_stmt 1
 1468 0198 7B68     		ldr	r3, [r7, #4]
 693:..\Common\Minimal/IntQueue.c **** }
 1469              		.loc 1 693 0
 1470 019a 1846     		mov	r0, r3
 1471 019c 3837     		adds	r7, r7, #56
 1472              		.cfi_def_cfa_offset 8
 1473 019e BD46     		mov	sp, r7
 1474              		.cfi_def_cfa_register 13
 1475              		@ sp needed
 1476 01a0 80BD     		pop	{r7, pc}
 1477              	.L93:
 1478 01a2 00BF     		.align	2
 1479              	.L92:
 1480 01a4 B8010000 		.word	uxNextOperation.7229
 1481 01a8 00000000 		.word	xNormallyEmptyQueue
 1482 01ac 20000000 		.word	uxValueForNormallyEmptyQueue
 1483 01b0 04000000 		.word	xNormallyFullQueue
 1484              		.cfi_endproc
 1485              	.LFE77:
 1486              		.size	xFirstTimerHandler, .-xFirstTimerHandler
 1487              		.section	.text.xSecondTimerHandler,"ax",%progbits
 1488              		.align	2
 1489              		.global	xSecondTimerHandler
 1490              		.thumb
 1491              		.thumb_func
 1492              		.type	xSecondTimerHandler, %function
 1493              	xSecondTimerHandler:
 1494              	.LFB78:
 694:..\Common\Minimal/IntQueue.c **** /*-----------------------------------------------------------*/
 695:..\Common\Minimal/IntQueue.c **** 
 696:..\Common\Minimal/IntQueue.c **** BaseType_t xSecondTimerHandler( void )
 697:..\Common\Minimal/IntQueue.c **** {
 1495              		.loc 1 697 0
 1496              		.cfi_startproc
 1497              		@ args = 0, pretend = 0, frame = 88
 1498              		@ frame_needed = 1, uses_anonymous_args = 0
 1499 0000 80B5     		push	{r7, lr}
 1500              		.cfi_def_cfa_offset 8
 1501              		.cfi_offset 7, -8
 1502              		.cfi_offset 14, -4
 1503 0002 96B0     		sub	sp, sp, #88
 1504              		.cfi_def_cfa_offset 96
 1505 0004 00AF     		add	r7, sp, #0
 1506              		.cfi_def_cfa_register 7
 698:..\Common\Minimal/IntQueue.c **** UBaseType_t uxRxedValue;
 699:..\Common\Minimal/IntQueue.c **** BaseType_t xHigherPriorityTaskWoken = pdFALSE;
ARM GAS  C:\Users\THUNDE~1\AppData\Local\Temp\ccjD8PP6.s 			page 45


 1507              		.loc 1 699 0
 1508 0006 0023     		movs	r3, #0
 1509 0008 3B60     		str	r3, [r7]
 700:..\Common\Minimal/IntQueue.c **** static UBaseType_t uxNextOperation = 0;
 701:..\Common\Minimal/IntQueue.c **** 
 702:..\Common\Minimal/IntQueue.c **** 	/* Called from a timer interrupt.  Perform various read and write
 703:..\Common\Minimal/IntQueue.c **** 	accesses on the queues. */
 704:..\Common\Minimal/IntQueue.c **** 
 705:..\Common\Minimal/IntQueue.c **** 	uxNextOperation++;
 1510              		.loc 1 705 0
 1511 000a 9A4B     		ldr	r3, .L117
 1512 000c 1B68     		ldr	r3, [r3]
 1513 000e 0133     		adds	r3, r3, #1
 1514 0010 984A     		ldr	r2, .L117
 1515 0012 1360     		str	r3, [r2]
 706:..\Common\Minimal/IntQueue.c **** 
 707:..\Common\Minimal/IntQueue.c **** 	if( uxNextOperation & ( UBaseType_t ) 0x01 )
 1516              		.loc 1 707 0
 1517 0014 974B     		ldr	r3, .L117
 1518 0016 1B68     		ldr	r3, [r3]
 1519 0018 03F00103 		and	r3, r3, #1
 1520 001c 002B     		cmp	r3, #0
 1521 001e 00F08780 		beq	.L95
 708:..\Common\Minimal/IntQueue.c **** 	{
 709:..\Common\Minimal/IntQueue.c **** 		timerNORMALLY_EMPTY_TX();
 1522              		.loc 1 709 0
 1523 0022 954B     		ldr	r3, .L117+4
 1524 0024 1B68     		ldr	r3, [r3]
 1525 0026 1846     		mov	r0, r3
 1526 0028 FFF7FEFF 		bl	xQueueIsQueueFullFromISR
 1527 002c 0346     		mov	r3, r0
 1528 002e 012B     		cmp	r3, #1
 1529 0030 26D0     		beq	.L96
 1530              	.LBB57:
 1531              	.LBB58:
 1532              	.LBB59:
 253:..\Source\portable\GCC\ARM_CM3/portmacro.h **** 	(
 1533              		.loc 2 253 0 discriminator 1
 1534              		.syntax unified
 1535              	@ 253 "..\Source\portable\GCC\ARM_CM3/portmacro.h" 1
 1536 0032 EFF31182 			mrs r2, basepri											
 1537 0036 4FF0A003 		mov r3, #160												
 1538 003a 83F31188 		msr basepri, r3											
 1539 003e BFF36F8F 		isb														
 1540 0042 BFF34F8F 		dsb														
 1541              	
 1542              	@ 0 "" 2
 1543              		.thumb
 1544              		.syntax unified
 1545 0046 FA61     		str	r2, [r7, #28]
 1546 0048 BB61     		str	r3, [r7, #24]
 265:..\Source\portable\GCC\ARM_CM3/portmacro.h **** }
 1547              		.loc 2 265 0 discriminator 1
 1548 004a FB69     		ldr	r3, [r7, #28]
 1549              	.LBE59:
 1550              	.LBE58:
 1551              		.loc 1 709 0 discriminator 1
ARM GAS  C:\Users\THUNDE~1\AppData\Local\Temp\ccjD8PP6.s 			page 46


 1552 004c 3B65     		str	r3, [r7, #80]
 1553 004e 8B4B     		ldr	r3, .L117+8
 1554 0050 1B68     		ldr	r3, [r3]
 1555 0052 0133     		adds	r3, r3, #1
 1556 0054 894A     		ldr	r2, .L117+8
 1557 0056 1360     		str	r3, [r2]
 1558 0058 874B     		ldr	r3, .L117+4
 1559 005a 1868     		ldr	r0, [r3]
 1560 005c 3A46     		mov	r2, r7
 1561 005e 0023     		movs	r3, #0
 1562 0060 8649     		ldr	r1, .L117+8
 1563 0062 FFF7FEFF 		bl	xQueueGenericSendFromISR
 1564 0066 0346     		mov	r3, r0
 1565 0068 012B     		cmp	r3, #1
 1566 006a 04D0     		beq	.L98
 1567              		.loc 1 709 0 is_stmt 0 discriminator 2
 1568 006c 834B     		ldr	r3, .L117+8
 1569 006e 1B68     		ldr	r3, [r3]
 1570 0070 013B     		subs	r3, r3, #1
 1571 0072 824A     		ldr	r2, .L117+8
 1572 0074 1360     		str	r3, [r2]
 1573              	.L98:
 1574 0076 3B6D     		ldr	r3, [r7, #80]
 1575 0078 7B65     		str	r3, [r7, #84]
 1576              	.LBB60:
 1577              	.LBB61:
 1578              		.loc 2 271 0 is_stmt 1 discriminator 4
 1579 007a 7B6D     		ldr	r3, [r7, #84]
 1580              		.syntax unified
 1581              	@ 271 "..\Source\portable\GCC\ARM_CM3/portmacro.h" 1
 1582 007c 83F31188 			msr basepri, r3	
 1583              	@ 0 "" 2
 1584              		.thumb
 1585              		.syntax unified
 1586              	.L96:
 1587              	.LBE61:
 1588              	.LBE60:
 1589              	.LBE57:
 710:..\Common\Minimal/IntQueue.c **** 		timerNORMALLY_EMPTY_TX();
 1590              		.loc 1 710 0
 1591 0080 7D4B     		ldr	r3, .L117+4
 1592 0082 1B68     		ldr	r3, [r3]
 1593 0084 1846     		mov	r0, r3
 1594 0086 FFF7FEFF 		bl	xQueueIsQueueFullFromISR
 1595 008a 0346     		mov	r3, r0
 1596 008c 012B     		cmp	r3, #1
 1597 008e 26D0     		beq	.L99
 1598              	.LBB62:
 1599              	.LBB63:
 1600              	.LBB64:
 253:..\Source\portable\GCC\ARM_CM3/portmacro.h **** 	(
 1601              		.loc 2 253 0 discriminator 1
 1602              		.syntax unified
 1603              	@ 253 "..\Source\portable\GCC\ARM_CM3/portmacro.h" 1
 1604 0090 EFF31182 			mrs r2, basepri											
 1605 0094 4FF0A003 		mov r3, #160												
 1606 0098 83F31188 		msr basepri, r3											
ARM GAS  C:\Users\THUNDE~1\AppData\Local\Temp\ccjD8PP6.s 			page 47


 1607 009c BFF36F8F 		isb														
 1608 00a0 BFF34F8F 		dsb														
 1609              	
 1610              	@ 0 "" 2
 1611              		.thumb
 1612              		.syntax unified
 1613 00a4 FA64     		str	r2, [r7, #76]
 1614 00a6 7B61     		str	r3, [r7, #20]
 265:..\Source\portable\GCC\ARM_CM3/portmacro.h **** }
 1615              		.loc 2 265 0 discriminator 1
 1616 00a8 FB6C     		ldr	r3, [r7, #76]
 1617              	.LBE64:
 1618              	.LBE63:
 1619              		.loc 1 710 0 discriminator 1
 1620 00aa 7B64     		str	r3, [r7, #68]
 1621 00ac 734B     		ldr	r3, .L117+8
 1622 00ae 1B68     		ldr	r3, [r3]
 1623 00b0 0133     		adds	r3, r3, #1
 1624 00b2 724A     		ldr	r2, .L117+8
 1625 00b4 1360     		str	r3, [r2]
 1626 00b6 704B     		ldr	r3, .L117+4
 1627 00b8 1868     		ldr	r0, [r3]
 1628 00ba 3A46     		mov	r2, r7
 1629 00bc 0023     		movs	r3, #0
 1630 00be 6F49     		ldr	r1, .L117+8
 1631 00c0 FFF7FEFF 		bl	xQueueGenericSendFromISR
 1632 00c4 0346     		mov	r3, r0
 1633 00c6 012B     		cmp	r3, #1
 1634 00c8 04D0     		beq	.L101
 1635              		.loc 1 710 0 is_stmt 0 discriminator 2
 1636 00ca 6C4B     		ldr	r3, .L117+8
 1637 00cc 1B68     		ldr	r3, [r3]
 1638 00ce 013B     		subs	r3, r3, #1
 1639 00d0 6A4A     		ldr	r2, .L117+8
 1640 00d2 1360     		str	r3, [r2]
 1641              	.L101:
 1642 00d4 7B6C     		ldr	r3, [r7, #68]
 1643 00d6 BB64     		str	r3, [r7, #72]
 1644              	.LBB65:
 1645              	.LBB66:
 1646              		.loc 2 271 0 is_stmt 1 discriminator 4
 1647 00d8 BB6C     		ldr	r3, [r7, #72]
 1648              		.syntax unified
 1649              	@ 271 "..\Source\portable\GCC\ARM_CM3/portmacro.h" 1
 1650 00da 83F31188 			msr basepri, r3	
 1651              	@ 0 "" 2
 1652              		.thumb
 1653              		.syntax unified
 1654              	.L99:
 1655              	.LBE66:
 1656              	.LBE65:
 1657              	.LBE62:
 711:..\Common\Minimal/IntQueue.c **** 
 712:..\Common\Minimal/IntQueue.c **** 		timerNORMALLY_EMPTY_RX();
 1658              		.loc 1 712 0
 1659 00de 664B     		ldr	r3, .L117+4
 1660 00e0 1B68     		ldr	r3, [r3]
ARM GAS  C:\Users\THUNDE~1\AppData\Local\Temp\ccjD8PP6.s 			page 48


 1661 00e2 3A46     		mov	r2, r7
 1662 00e4 391D     		adds	r1, r7, #4
 1663 00e6 1846     		mov	r0, r3
 1664 00e8 FFF7FEFF 		bl	xQueueReceiveFromISR
 1665 00ec 0346     		mov	r3, r0
 1666 00ee 012B     		cmp	r3, #1
 1667 00f0 04D0     		beq	.L102
 1668              		.loc 1 712 0 is_stmt 0 discriminator 1
 1669 00f2 4FF43270 		mov	r0, #712
 1670 00f6 FFF7FEFF 		bl	prvQueueAccessLogError
 1671 00fa 04E0     		b	.L103
 1672              	.L102:
 1673              		.loc 1 712 0 discriminator 2
 1674 00fc 7B68     		ldr	r3, [r7, #4]
 1675 00fe 0521     		movs	r1, #5
 1676 0100 1846     		mov	r0, r3
 1677 0102 FFF7FEFF 		bl	prvRecordValue_NormallyEmpty
 1678              	.L103:
 713:..\Common\Minimal/IntQueue.c **** 		timerNORMALLY_EMPTY_RX();
 1679              		.loc 1 713 0 is_stmt 1
 1680 0106 5C4B     		ldr	r3, .L117+4
 1681 0108 1B68     		ldr	r3, [r3]
 1682 010a 3A46     		mov	r2, r7
 1683 010c 391D     		adds	r1, r7, #4
 1684 010e 1846     		mov	r0, r3
 1685 0110 FFF7FEFF 		bl	xQueueReceiveFromISR
 1686 0114 0346     		mov	r3, r0
 1687 0116 012B     		cmp	r3, #1
 1688 0118 04D0     		beq	.L104
 1689              		.loc 1 713 0 is_stmt 0 discriminator 1
 1690 011a 40F2C920 		movw	r0, #713
 1691 011e FFF7FEFF 		bl	prvQueueAccessLogError
 1692 0122 A1E0     		b	.L106
 1693              	.L104:
 1694              		.loc 1 713 0 discriminator 2
 1695 0124 7B68     		ldr	r3, [r7, #4]
 1696 0126 0521     		movs	r1, #5
 1697 0128 1846     		mov	r0, r3
 1698 012a FFF7FEFF 		bl	prvRecordValue_NormallyEmpty
 1699 012e 9BE0     		b	.L106
 1700              	.L95:
 714:..\Common\Minimal/IntQueue.c **** 	}
 715:..\Common\Minimal/IntQueue.c **** 	else
 716:..\Common\Minimal/IntQueue.c **** 	{
 717:..\Common\Minimal/IntQueue.c **** 		timerNORMALLY_FULL_RX();
 1701              		.loc 1 717 0 is_stmt 1
 1702 0130 534B     		ldr	r3, .L117+12
 1703 0132 1B68     		ldr	r3, [r3]
 1704 0134 3A46     		mov	r2, r7
 1705 0136 391D     		adds	r1, r7, #4
 1706 0138 1846     		mov	r0, r3
 1707 013a FFF7FEFF 		bl	xQueueReceiveFromISR
 1708 013e 0346     		mov	r3, r0
 1709 0140 012B     		cmp	r3, #1
 1710 0142 04D1     		bne	.L107
 1711              		.loc 1 717 0 is_stmt 0 discriminator 1
 1712 0144 7B68     		ldr	r3, [r7, #4]
ARM GAS  C:\Users\THUNDE~1\AppData\Local\Temp\ccjD8PP6.s 			page 49


 1713 0146 0521     		movs	r1, #5
 1714 0148 1846     		mov	r0, r3
 1715 014a FFF7FEFF 		bl	prvRecordValue_NormallyFull
 1716              	.L107:
 718:..\Common\Minimal/IntQueue.c **** 		timerNORMALLY_FULL_TX();
 1717              		.loc 1 718 0 is_stmt 1
 1718 014e 4C4B     		ldr	r3, .L117+12
 1719 0150 1B68     		ldr	r3, [r3]
 1720 0152 1846     		mov	r0, r3
 1721 0154 FFF7FEFF 		bl	xQueueIsQueueFullFromISR
 1722 0158 0346     		mov	r3, r0
 1723 015a 012B     		cmp	r3, #1
 1724 015c 26D0     		beq	.L108
 1725              	.LBB67:
 1726              	.LBB68:
 1727              	.LBB69:
 253:..\Source\portable\GCC\ARM_CM3/portmacro.h **** 	(
 1728              		.loc 2 253 0 discriminator 1
 1729              		.syntax unified
 1730              	@ 253 "..\Source\portable\GCC\ARM_CM3/portmacro.h" 1
 1731 015e EFF31182 			mrs r2, basepri											
 1732 0162 4FF0A003 		mov r3, #160												
 1733 0166 83F31188 		msr basepri, r3											
 1734 016a BFF36F8F 		isb														
 1735 016e BFF34F8F 		dsb														
 1736              	
 1737              	@ 0 "" 2
 1738              		.thumb
 1739              		.syntax unified
 1740 0172 3A64     		str	r2, [r7, #64]
 1741 0174 3B61     		str	r3, [r7, #16]
 265:..\Source\portable\GCC\ARM_CM3/portmacro.h **** }
 1742              		.loc 2 265 0 discriminator 1
 1743 0176 3B6C     		ldr	r3, [r7, #64]
 1744              	.LBE69:
 1745              	.LBE68:
 1746              		.loc 1 718 0 discriminator 1
 1747 0178 BB63     		str	r3, [r7, #56]
 1748 017a 424B     		ldr	r3, .L117+16
 1749 017c 1B68     		ldr	r3, [r3]
 1750 017e 0133     		adds	r3, r3, #1
 1751 0180 404A     		ldr	r2, .L117+16
 1752 0182 1360     		str	r3, [r2]
 1753 0184 3E4B     		ldr	r3, .L117+12
 1754 0186 1868     		ldr	r0, [r3]
 1755 0188 3A46     		mov	r2, r7
 1756 018a 0023     		movs	r3, #0
 1757 018c 3D49     		ldr	r1, .L117+16
 1758 018e FFF7FEFF 		bl	xQueueGenericSendFromISR
 1759 0192 0346     		mov	r3, r0
 1760 0194 012B     		cmp	r3, #1
 1761 0196 04D0     		beq	.L110
 1762              		.loc 1 718 0 is_stmt 0 discriminator 2
 1763 0198 3A4B     		ldr	r3, .L117+16
 1764 019a 1B68     		ldr	r3, [r3]
 1765 019c 013B     		subs	r3, r3, #1
 1766 019e 394A     		ldr	r2, .L117+16
ARM GAS  C:\Users\THUNDE~1\AppData\Local\Temp\ccjD8PP6.s 			page 50


 1767 01a0 1360     		str	r3, [r2]
 1768              	.L110:
 1769 01a2 BB6B     		ldr	r3, [r7, #56]
 1770 01a4 FB63     		str	r3, [r7, #60]
 1771              	.LBB70:
 1772              	.LBB71:
 1773              		.loc 2 271 0 is_stmt 1 discriminator 4
 1774 01a6 FB6B     		ldr	r3, [r7, #60]
 1775              		.syntax unified
 1776              	@ 271 "..\Source\portable\GCC\ARM_CM3/portmacro.h" 1
 1777 01a8 83F31188 			msr basepri, r3	
 1778              	@ 0 "" 2
 1779              		.thumb
 1780              		.syntax unified
 1781              	.L108:
 1782              	.LBE71:
 1783              	.LBE70:
 1784              	.LBE67:
 719:..\Common\Minimal/IntQueue.c **** 		timerNORMALLY_FULL_TX();
 1785              		.loc 1 719 0
 1786 01ac 344B     		ldr	r3, .L117+12
 1787 01ae 1B68     		ldr	r3, [r3]
 1788 01b0 1846     		mov	r0, r3
 1789 01b2 FFF7FEFF 		bl	xQueueIsQueueFullFromISR
 1790 01b6 0346     		mov	r3, r0
 1791 01b8 012B     		cmp	r3, #1
 1792 01ba 26D0     		beq	.L111
 1793              	.LBB72:
 1794              	.LBB73:
 1795              	.LBB74:
 253:..\Source\portable\GCC\ARM_CM3/portmacro.h **** 	(
 1796              		.loc 2 253 0 discriminator 1
 1797              		.syntax unified
 1798              	@ 253 "..\Source\portable\GCC\ARM_CM3/portmacro.h" 1
 1799 01bc EFF31182 			mrs r2, basepri											
 1800 01c0 4FF0A003 		mov r3, #160												
 1801 01c4 83F31188 		msr basepri, r3											
 1802 01c8 BFF36F8F 		isb														
 1803 01cc BFF34F8F 		dsb														
 1804              	
 1805              	@ 0 "" 2
 1806              		.thumb
 1807              		.syntax unified
 1808 01d0 7A63     		str	r2, [r7, #52]
 1809 01d2 FB60     		str	r3, [r7, #12]
 265:..\Source\portable\GCC\ARM_CM3/portmacro.h **** }
 1810              		.loc 2 265 0 discriminator 1
 1811 01d4 7B6B     		ldr	r3, [r7, #52]
 1812              	.LBE74:
 1813              	.LBE73:
 1814              		.loc 1 719 0 discriminator 1
 1815 01d6 FB62     		str	r3, [r7, #44]
 1816 01d8 2A4B     		ldr	r3, .L117+16
 1817 01da 1B68     		ldr	r3, [r3]
 1818 01dc 0133     		adds	r3, r3, #1
 1819 01de 294A     		ldr	r2, .L117+16
 1820 01e0 1360     		str	r3, [r2]
ARM GAS  C:\Users\THUNDE~1\AppData\Local\Temp\ccjD8PP6.s 			page 51


 1821 01e2 274B     		ldr	r3, .L117+12
 1822 01e4 1868     		ldr	r0, [r3]
 1823 01e6 3A46     		mov	r2, r7
 1824 01e8 0023     		movs	r3, #0
 1825 01ea 2649     		ldr	r1, .L117+16
 1826 01ec FFF7FEFF 		bl	xQueueGenericSendFromISR
 1827 01f0 0346     		mov	r3, r0
 1828 01f2 012B     		cmp	r3, #1
 1829 01f4 04D0     		beq	.L113
 1830              		.loc 1 719 0 is_stmt 0 discriminator 2
 1831 01f6 234B     		ldr	r3, .L117+16
 1832 01f8 1B68     		ldr	r3, [r3]
 1833 01fa 013B     		subs	r3, r3, #1
 1834 01fc 214A     		ldr	r2, .L117+16
 1835 01fe 1360     		str	r3, [r2]
 1836              	.L113:
 1837 0200 FB6A     		ldr	r3, [r7, #44]
 1838 0202 3B63     		str	r3, [r7, #48]
 1839              	.LBB75:
 1840              	.LBB76:
 1841              		.loc 2 271 0 is_stmt 1 discriminator 4
 1842 0204 3B6B     		ldr	r3, [r7, #48]
 1843              		.syntax unified
 1844              	@ 271 "..\Source\portable\GCC\ARM_CM3/portmacro.h" 1
 1845 0206 83F31188 			msr basepri, r3	
 1846              	@ 0 "" 2
 1847              		.thumb
 1848              		.syntax unified
 1849              	.L111:
 1850              	.LBE76:
 1851              	.LBE75:
 1852              	.LBE72:
 720:..\Common\Minimal/IntQueue.c **** 		timerNORMALLY_FULL_TX();
 1853              		.loc 1 720 0
 1854 020a 1D4B     		ldr	r3, .L117+12
 1855 020c 1B68     		ldr	r3, [r3]
 1856 020e 1846     		mov	r0, r3
 1857 0210 FFF7FEFF 		bl	xQueueIsQueueFullFromISR
 1858 0214 0346     		mov	r3, r0
 1859 0216 012B     		cmp	r3, #1
 1860 0218 26D0     		beq	.L106
 1861              	.LBB77:
 1862              	.LBB78:
 1863              	.LBB79:
 253:..\Source\portable\GCC\ARM_CM3/portmacro.h **** 	(
 1864              		.loc 2 253 0 discriminator 1
 1865              		.syntax unified
 1866              	@ 253 "..\Source\portable\GCC\ARM_CM3/portmacro.h" 1
 1867 021a EFF31182 			mrs r2, basepri											
 1868 021e 4FF0A003 		mov r3, #160												
 1869 0222 83F31188 		msr basepri, r3											
 1870 0226 BFF36F8F 		isb														
 1871 022a BFF34F8F 		dsb														
 1872              	
 1873              	@ 0 "" 2
 1874              		.thumb
 1875              		.syntax unified
ARM GAS  C:\Users\THUNDE~1\AppData\Local\Temp\ccjD8PP6.s 			page 52


 1876 022e BA62     		str	r2, [r7, #40]
 1877 0230 BB60     		str	r3, [r7, #8]
 265:..\Source\portable\GCC\ARM_CM3/portmacro.h **** }
 1878              		.loc 2 265 0 discriminator 1
 1879 0232 BB6A     		ldr	r3, [r7, #40]
 1880              	.LBE79:
 1881              	.LBE78:
 1882              		.loc 1 720 0 discriminator 1
 1883 0234 3B62     		str	r3, [r7, #32]
 1884 0236 134B     		ldr	r3, .L117+16
 1885 0238 1B68     		ldr	r3, [r3]
 1886 023a 0133     		adds	r3, r3, #1
 1887 023c 114A     		ldr	r2, .L117+16
 1888 023e 1360     		str	r3, [r2]
 1889 0240 0F4B     		ldr	r3, .L117+12
 1890 0242 1868     		ldr	r0, [r3]
 1891 0244 3A46     		mov	r2, r7
 1892 0246 0023     		movs	r3, #0
 1893 0248 0E49     		ldr	r1, .L117+16
 1894 024a FFF7FEFF 		bl	xQueueGenericSendFromISR
 1895 024e 0346     		mov	r3, r0
 1896 0250 012B     		cmp	r3, #1
 1897 0252 04D0     		beq	.L115
 1898              		.loc 1 720 0 is_stmt 0 discriminator 2
 1899 0254 0B4B     		ldr	r3, .L117+16
 1900 0256 1B68     		ldr	r3, [r3]
 1901 0258 013B     		subs	r3, r3, #1
 1902 025a 0A4A     		ldr	r2, .L117+16
 1903 025c 1360     		str	r3, [r2]
 1904              	.L115:
 1905 025e 3B6A     		ldr	r3, [r7, #32]
 1906 0260 7B62     		str	r3, [r7, #36]
 1907              	.LBB80:
 1908              	.LBB81:
 1909              		.loc 2 271 0 is_stmt 1 discriminator 4
 1910 0262 7B6A     		ldr	r3, [r7, #36]
 1911              		.syntax unified
 1912              	@ 271 "..\Source\portable\GCC\ARM_CM3/portmacro.h" 1
 1913 0264 83F31188 			msr basepri, r3	
 1914              	@ 0 "" 2
 1915              		.thumb
 1916              		.syntax unified
 1917              	.L106:
 1918              	.LBE81:
 1919              	.LBE80:
 1920              	.LBE77:
 721:..\Common\Minimal/IntQueue.c **** 	}
 722:..\Common\Minimal/IntQueue.c **** 
 723:..\Common\Minimal/IntQueue.c **** 	return xHigherPriorityTaskWoken;
 1921              		.loc 1 723 0
 1922 0268 3B68     		ldr	r3, [r7]
 724:..\Common\Minimal/IntQueue.c **** }
 1923              		.loc 1 724 0
 1924 026a 1846     		mov	r0, r3
 1925 026c 5837     		adds	r7, r7, #88
 1926              		.cfi_def_cfa_offset 8
 1927 026e BD46     		mov	sp, r7
ARM GAS  C:\Users\THUNDE~1\AppData\Local\Temp\ccjD8PP6.s 			page 53


 1928              		.cfi_def_cfa_register 13
 1929              		@ sp needed
 1930 0270 80BD     		pop	{r7, pc}
 1931              	.L118:
 1932 0272 00BF     		.align	2
 1933              	.L117:
 1934 0274 BC010000 		.word	uxNextOperation.7238
 1935 0278 00000000 		.word	xNormallyEmptyQueue
 1936 027c 20000000 		.word	uxValueForNormallyEmptyQueue
 1937 0280 04000000 		.word	xNormallyFullQueue
 1938 0284 24000000 		.word	uxValueForNormallyFullQueue
 1939              		.cfi_endproc
 1940              	.LFE78:
 1941              		.size	xSecondTimerHandler, .-xSecondTimerHandler
 1942              		.section	.text.xAreIntQueueTasksStillRunning,"ax",%progbits
 1943              		.align	2
 1944              		.global	xAreIntQueueTasksStillRunning
 1945              		.thumb
 1946              		.thumb_func
 1947              		.type	xAreIntQueueTasksStillRunning, %function
 1948              	xAreIntQueueTasksStillRunning:
 1949              	.LFB79:
 725:..\Common\Minimal/IntQueue.c **** /*-----------------------------------------------------------*/
 726:..\Common\Minimal/IntQueue.c **** 
 727:..\Common\Minimal/IntQueue.c **** 
 728:..\Common\Minimal/IntQueue.c **** BaseType_t xAreIntQueueTasksStillRunning( void )
 729:..\Common\Minimal/IntQueue.c **** {
 1950              		.loc 1 729 0
 1951              		.cfi_startproc
 1952              		@ args = 0, pretend = 0, frame = 0
 1953              		@ frame_needed = 1, uses_anonymous_args = 0
 1954 0000 80B5     		push	{r7, lr}
 1955              		.cfi_def_cfa_offset 8
 1956              		.cfi_offset 7, -8
 1957              		.cfi_offset 14, -4
 1958 0002 00AF     		add	r7, sp, #0
 1959              		.cfi_def_cfa_register 7
 730:..\Common\Minimal/IntQueue.c **** static UBaseType_t uxLastHighPriorityLoops1 = 0, uxLastHighPriorityLoops2 = 0, uxLastLowPriorityLoo
 731:..\Common\Minimal/IntQueue.c **** 
 732:..\Common\Minimal/IntQueue.c **** 	/* xErrorStatus can be set outside of this function.  This function just
 733:..\Common\Minimal/IntQueue.c **** 	checks that all the tasks are still cycling. */
 734:..\Common\Minimal/IntQueue.c **** 
 735:..\Common\Minimal/IntQueue.c **** 	if( uxHighPriorityLoops1 == uxLastHighPriorityLoops1 )
 1960              		.loc 1 735 0
 1961 0004 1D4B     		ldr	r3, .L125
 1962 0006 1A68     		ldr	r2, [r3]
 1963 0008 1D4B     		ldr	r3, .L125+4
 1964 000a 1B68     		ldr	r3, [r3]
 1965 000c 9A42     		cmp	r2, r3
 1966 000e 03D1     		bne	.L120
 736:..\Common\Minimal/IntQueue.c **** 	{
 737:..\Common\Minimal/IntQueue.c **** 		/* The high priority 1 task has stalled. */
 738:..\Common\Minimal/IntQueue.c **** 		prvQueueAccessLogError( __LINE__ );
 1967              		.loc 1 738 0
 1968 0010 40F2E220 		movw	r0, #738
 1969 0014 FFF7FEFF 		bl	prvQueueAccessLogError
 1970              	.L120:
ARM GAS  C:\Users\THUNDE~1\AppData\Local\Temp\ccjD8PP6.s 			page 54


 739:..\Common\Minimal/IntQueue.c **** 	}
 740:..\Common\Minimal/IntQueue.c **** 
 741:..\Common\Minimal/IntQueue.c **** 	uxLastHighPriorityLoops1 = uxHighPriorityLoops1;
 1971              		.loc 1 741 0
 1972 0018 184B     		ldr	r3, .L125
 1973 001a 1B68     		ldr	r3, [r3]
 1974 001c 184A     		ldr	r2, .L125+4
 1975 001e 1360     		str	r3, [r2]
 742:..\Common\Minimal/IntQueue.c **** 
 743:..\Common\Minimal/IntQueue.c **** 	if( uxHighPriorityLoops2 == uxLastHighPriorityLoops2 )
 1976              		.loc 1 743 0
 1977 0020 184B     		ldr	r3, .L125+8
 1978 0022 1A68     		ldr	r2, [r3]
 1979 0024 184B     		ldr	r3, .L125+12
 1980 0026 1B68     		ldr	r3, [r3]
 1981 0028 9A42     		cmp	r2, r3
 1982 002a 03D1     		bne	.L121
 744:..\Common\Minimal/IntQueue.c **** 	{
 745:..\Common\Minimal/IntQueue.c **** 		/* The high priority 2 task has stalled. */
 746:..\Common\Minimal/IntQueue.c **** 		prvQueueAccessLogError( __LINE__ );
 1983              		.loc 1 746 0
 1984 002c 40F2EA20 		movw	r0, #746
 1985 0030 FFF7FEFF 		bl	prvQueueAccessLogError
 1986              	.L121:
 747:..\Common\Minimal/IntQueue.c **** 	}
 748:..\Common\Minimal/IntQueue.c **** 
 749:..\Common\Minimal/IntQueue.c **** 	uxLastHighPriorityLoops2 = uxHighPriorityLoops2;
 1987              		.loc 1 749 0
 1988 0034 134B     		ldr	r3, .L125+8
 1989 0036 1B68     		ldr	r3, [r3]
 1990 0038 134A     		ldr	r2, .L125+12
 1991 003a 1360     		str	r3, [r2]
 750:..\Common\Minimal/IntQueue.c **** 
 751:..\Common\Minimal/IntQueue.c **** 	if( uxLowPriorityLoops1 == uxLastLowPriorityLoops1 )
 1992              		.loc 1 751 0
 1993 003c 134B     		ldr	r3, .L125+16
 1994 003e 1A68     		ldr	r2, [r3]
 1995 0040 134B     		ldr	r3, .L125+20
 1996 0042 1B68     		ldr	r3, [r3]
 1997 0044 9A42     		cmp	r2, r3
 1998 0046 03D1     		bne	.L122
 752:..\Common\Minimal/IntQueue.c **** 	{
 753:..\Common\Minimal/IntQueue.c **** 		/* The low priority 1 task has stalled. */
 754:..\Common\Minimal/IntQueue.c **** 		prvQueueAccessLogError( __LINE__ );
 1999              		.loc 1 754 0
 2000 0048 40F2F220 		movw	r0, #754
 2001 004c FFF7FEFF 		bl	prvQueueAccessLogError
 2002              	.L122:
 755:..\Common\Minimal/IntQueue.c **** 	}
 756:..\Common\Minimal/IntQueue.c **** 
 757:..\Common\Minimal/IntQueue.c **** 	uxLastLowPriorityLoops1 = uxLowPriorityLoops1;
 2003              		.loc 1 757 0
 2004 0050 0E4B     		ldr	r3, .L125+16
 2005 0052 1B68     		ldr	r3, [r3]
 2006 0054 0E4A     		ldr	r2, .L125+20
 2007 0056 1360     		str	r3, [r2]
 758:..\Common\Minimal/IntQueue.c **** 
ARM GAS  C:\Users\THUNDE~1\AppData\Local\Temp\ccjD8PP6.s 			page 55


 759:..\Common\Minimal/IntQueue.c **** 	if( uxLowPriorityLoops2 == uxLastLowPriorityLoops2 )
 2008              		.loc 1 759 0
 2009 0058 0E4B     		ldr	r3, .L125+24
 2010 005a 1A68     		ldr	r2, [r3]
 2011 005c 0E4B     		ldr	r3, .L125+28
 2012 005e 1B68     		ldr	r3, [r3]
 2013 0060 9A42     		cmp	r2, r3
 2014 0062 03D1     		bne	.L123
 760:..\Common\Minimal/IntQueue.c **** 	{
 761:..\Common\Minimal/IntQueue.c **** 		/* The low priority 2 task has stalled. */
 762:..\Common\Minimal/IntQueue.c **** 		prvQueueAccessLogError( __LINE__ );
 2015              		.loc 1 762 0
 2016 0064 40F2FA20 		movw	r0, #762
 2017 0068 FFF7FEFF 		bl	prvQueueAccessLogError
 2018              	.L123:
 763:..\Common\Minimal/IntQueue.c **** 	}
 764:..\Common\Minimal/IntQueue.c **** 
 765:..\Common\Minimal/IntQueue.c **** 	uxLastLowPriorityLoops2 = uxLowPriorityLoops2;
 2019              		.loc 1 765 0
 2020 006c 094B     		ldr	r3, .L125+24
 2021 006e 1B68     		ldr	r3, [r3]
 2022 0070 094A     		ldr	r2, .L125+28
 2023 0072 1360     		str	r3, [r2]
 766:..\Common\Minimal/IntQueue.c **** 
 767:..\Common\Minimal/IntQueue.c **** 	return xErrorStatus;
 2024              		.loc 1 767 0
 2025 0074 094B     		ldr	r3, .L125+32
 2026 0076 1B68     		ldr	r3, [r3]
 768:..\Common\Minimal/IntQueue.c **** }
 2027              		.loc 1 768 0
 2028 0078 1846     		mov	r0, r3
 2029 007a 80BD     		pop	{r7, pc}
 2030              	.L126:
 2031              		.align	2
 2032              	.L125:
 2033 007c 08000000 		.word	uxHighPriorityLoops1
 2034 0080 C0010000 		.word	uxLastHighPriorityLoops1.7247
 2035 0084 0C000000 		.word	uxHighPriorityLoops2
 2036 0088 C4010000 		.word	uxLastHighPriorityLoops2.7248
 2037 008c 10000000 		.word	uxLowPriorityLoops1
 2038 0090 C8010000 		.word	uxLastLowPriorityLoops1.7249
 2039 0094 14000000 		.word	uxLowPriorityLoops2
 2040 0098 CC010000 		.word	uxLastLowPriorityLoops2.7250
 2041 009c 00000000 		.word	xErrorStatus
 2042              		.cfi_endproc
 2043              	.LFE79:
 2044              		.size	xAreIntQueueTasksStillRunning, .-xAreIntQueueTasksStillRunning
 2045              		.bss
 2046              		.align	2
 2047              	uxNextOperation.7229:
 2048 01b8 00000000 		.space	4
 2049              		.align	2
 2050              	uxNextOperation.7238:
 2051 01bc 00000000 		.space	4
 2052              		.align	2
 2053              	uxLastHighPriorityLoops1.7247:
 2054 01c0 00000000 		.space	4
ARM GAS  C:\Users\THUNDE~1\AppData\Local\Temp\ccjD8PP6.s 			page 56


 2055              		.align	2
 2056              	uxLastHighPriorityLoops2.7248:
 2057 01c4 00000000 		.space	4
 2058              		.align	2
 2059              	uxLastLowPriorityLoops1.7249:
 2060 01c8 00000000 		.space	4
 2061              		.align	2
 2062              	uxLastLowPriorityLoops2.7250:
 2063 01cc 00000000 		.space	4
 2064              		.text
 2065              	.Letext0:
 2066              		.file 3 "c:\\program files (x86)\\cypress\\psoc creator\\4.2\\psoc creator\\import\\gnu\\arm\\5.4.
 2067              		.file 4 "c:\\program files (x86)\\cypress\\psoc creator\\4.2\\psoc creator\\import\\gnu\\arm\\5.4.
 2068              		.file 5 ".\\Tracer/sniffPayload.h"
 2069              		.file 6 ".\\Tracer/selfFIFO.h"
 2070              		.file 7 "..\\Source\\include/queue.h"
 2071              		.file 8 "..\\Source\\include/task.h"
 2072              		.file 9 "Generated_Source\\PSoC5/core_cm3.h"
 2073              		.file 10 ".\\Tracer/sniffTask.h"