ARM GAS  C:\Users\THUNDE~1\AppData\Local\Temp\ccjMKemp.s 			page 1


   1              		.syntax unified
   2              		.cpu cortex-m3
   3              		.fpu softvfp
   4              		.eabi_attribute 20, 1
   5              		.eabi_attribute 21, 1
   6              		.eabi_attribute 23, 3
   7              		.eabi_attribute 24, 1
   8              		.eabi_attribute 25, 1
   9              		.eabi_attribute 26, 1
  10              		.eabi_attribute 30, 6
  11              		.eabi_attribute 34, 1
  12              		.eabi_attribute 18, 4
  13              		.thumb
  14              		.syntax unified
  15              		.file	"IntSemTest.c"
  16              		.text
  17              	.Ltext0:
  18              		.cfi_sections	.debug_frame
  19              		.comm	sniffIDFilter,13,4
  20              		.comm	buffer,4098,4
  21              		.comm	objectList,1704,4
  22              		.bss
  23              		.align	2
  24              	xErrorDetected:
  25 0000 00000000 		.space	4
  26              		.align	2
  27              	ulMasterLoops:
  28 0004 00000000 		.space	4
  29              		.align	2
  30              	ulCountingSemaphoreLoops:
  31 0008 00000000 		.space	4
  32              		.align	2
  33              	xSlaveHandle:
  34 000c 00000000 		.space	4
  35              		.align	2
  36              	xISRMutex:
  37 0010 00000000 		.space	4
  38              		.align	2
  39              	xISRCountingSemaphore:
  40 0014 00000000 		.space	4
  41              		.align	2
  42              	xMasterSlaveMutex:
  43 0018 00000000 		.space	4
  44              		.align	2
  45              	xOkToGiveMutex:
  46 001c 00000000 		.space	4
  47              		.align	2
  48              	xOkToGiveCountingSemaphore:
  49 0020 00000000 		.space	4
  50              		.global	xInterruptGivePeriod
  51              		.section	.rodata
  52              		.align	2
  53              		.type	xInterruptGivePeriod, %object
  54              		.size	xInterruptGivePeriod, 4
  55              	xInterruptGivePeriod:
  56 0000 64000000 		.word	100
  57              		.align	2
ARM GAS  C:\Users\THUNDE~1\AppData\Local\Temp\ccjMKemp.s 			page 2


  58              	.LC0:
  59 0004 496E744D 		.ascii	"IntMuS\000"
  59      755300
  60 000b 00       		.align	2
  61              	.LC1:
  62 000c 496E744D 		.ascii	"IntMuM\000"
  62      754D00
  63 0013 00       		.align	2
  64              	.LC2:
  65 0014 496E7443 		.ascii	"IntCnt\000"
  65      6E7400
  66              		.section	.text.vStartInterruptSemaphoreTasks,"ax",%progbits
  67              		.align	2
  68              		.global	vStartInterruptSemaphoreTasks
  69              		.thumb
  70              		.thumb_func
  71              		.type	vStartInterruptSemaphoreTasks, %function
  72              	vStartInterruptSemaphoreTasks:
  73              	.LFB68:
  74              		.file 1 "..\\Common\\Minimal\\IntSemTest.c"
   1:..\Common\Minimal/IntSemTest.c **** /*
   2:..\Common\Minimal/IntSemTest.c ****     FreeRTOS V9.0.0 - Copyright (C) 2016 Real Time Engineers Ltd.
   3:..\Common\Minimal/IntSemTest.c ****     All rights reserved
   4:..\Common\Minimal/IntSemTest.c **** 
   5:..\Common\Minimal/IntSemTest.c ****     VISIT http://www.FreeRTOS.org TO ENSURE YOU ARE USING THE LATEST VERSION.
   6:..\Common\Minimal/IntSemTest.c **** 
   7:..\Common\Minimal/IntSemTest.c ****     This file is part of the FreeRTOS distribution.
   8:..\Common\Minimal/IntSemTest.c **** 
   9:..\Common\Minimal/IntSemTest.c ****     FreeRTOS is free software; you can redistribute it and/or modify it under
  10:..\Common\Minimal/IntSemTest.c ****     the terms of the GNU General Public License (version 2) as published by the
  11:..\Common\Minimal/IntSemTest.c ****     Free Software Foundation >>>> AND MODIFIED BY <<<< the FreeRTOS exception.
  12:..\Common\Minimal/IntSemTest.c **** 
  13:..\Common\Minimal/IntSemTest.c ****     ***************************************************************************
  14:..\Common\Minimal/IntSemTest.c ****     >>!   NOTE: The modification to the GPL is included to allow you to     !<<
  15:..\Common\Minimal/IntSemTest.c ****     >>!   distribute a combined work that includes FreeRTOS without being   !<<
  16:..\Common\Minimal/IntSemTest.c ****     >>!   obliged to provide the source code for proprietary components     !<<
  17:..\Common\Minimal/IntSemTest.c ****     >>!   outside of the FreeRTOS kernel.                                   !<<
  18:..\Common\Minimal/IntSemTest.c ****     ***************************************************************************
  19:..\Common\Minimal/IntSemTest.c **** 
  20:..\Common\Minimal/IntSemTest.c ****     FreeRTOS is distributed in the hope that it will be useful, but WITHOUT ANY
  21:..\Common\Minimal/IntSemTest.c ****     WARRANTY; without even the implied warranty of MERCHANTABILITY or FITNESS
  22:..\Common\Minimal/IntSemTest.c ****     FOR A PARTICULAR PURPOSE.  Full license text is available on the following
  23:..\Common\Minimal/IntSemTest.c ****     link: http://www.freertos.org/a00114.html
  24:..\Common\Minimal/IntSemTest.c **** 
  25:..\Common\Minimal/IntSemTest.c ****     ***************************************************************************
  26:..\Common\Minimal/IntSemTest.c ****      *                                                                       *
  27:..\Common\Minimal/IntSemTest.c ****      *    FreeRTOS provides completely free yet professionally developed,    *
  28:..\Common\Minimal/IntSemTest.c ****      *    robust, strictly quality controlled, supported, and cross          *
  29:..\Common\Minimal/IntSemTest.c ****      *    platform software that is more than just the market leader, it     *
  30:..\Common\Minimal/IntSemTest.c ****      *    is the industry's de facto standard.                               *
  31:..\Common\Minimal/IntSemTest.c ****      *                                                                       *
  32:..\Common\Minimal/IntSemTest.c ****      *    Help yourself get started quickly while simultaneously helping     *
  33:..\Common\Minimal/IntSemTest.c ****      *    to support the FreeRTOS project by purchasing a FreeRTOS           *
  34:..\Common\Minimal/IntSemTest.c ****      *    tutorial book, reference manual, or both:                          *
  35:..\Common\Minimal/IntSemTest.c ****      *    http://www.FreeRTOS.org/Documentation                              *
  36:..\Common\Minimal/IntSemTest.c ****      *                                                                       *
  37:..\Common\Minimal/IntSemTest.c ****     ***************************************************************************
ARM GAS  C:\Users\THUNDE~1\AppData\Local\Temp\ccjMKemp.s 			page 3


  38:..\Common\Minimal/IntSemTest.c **** 
  39:..\Common\Minimal/IntSemTest.c ****     http://www.FreeRTOS.org/FAQHelp.html - Having a problem?  Start by reading
  40:..\Common\Minimal/IntSemTest.c ****     the FAQ page "My application does not run, what could be wrong?".  Have you
  41:..\Common\Minimal/IntSemTest.c ****     defined configASSERT()?
  42:..\Common\Minimal/IntSemTest.c **** 
  43:..\Common\Minimal/IntSemTest.c ****     http://www.FreeRTOS.org/support - In return for receiving this top quality
  44:..\Common\Minimal/IntSemTest.c ****     embedded software for free we request you assist our global community by
  45:..\Common\Minimal/IntSemTest.c ****     participating in the support forum.
  46:..\Common\Minimal/IntSemTest.c **** 
  47:..\Common\Minimal/IntSemTest.c ****     http://www.FreeRTOS.org/training - Investing in training allows your team to
  48:..\Common\Minimal/IntSemTest.c ****     be as productive as possible as early as possible.  Now you can receive
  49:..\Common\Minimal/IntSemTest.c ****     FreeRTOS training directly from Richard Barry, CEO of Real Time Engineers
  50:..\Common\Minimal/IntSemTest.c ****     Ltd, and the world's leading authority on the world's leading RTOS.
  51:..\Common\Minimal/IntSemTest.c **** 
  52:..\Common\Minimal/IntSemTest.c ****     http://www.FreeRTOS.org/plus - A selection of FreeRTOS ecosystem products,
  53:..\Common\Minimal/IntSemTest.c ****     including FreeRTOS+Trace - an indispensable productivity tool, a DOS
  54:..\Common\Minimal/IntSemTest.c ****     compatible FAT file system, and our tiny thread aware UDP/IP stack.
  55:..\Common\Minimal/IntSemTest.c **** 
  56:..\Common\Minimal/IntSemTest.c ****     http://www.FreeRTOS.org/labs - Where new FreeRTOS products go to incubate.
  57:..\Common\Minimal/IntSemTest.c ****     Come and try FreeRTOS+TCP, our new open source TCP/IP stack for FreeRTOS.
  58:..\Common\Minimal/IntSemTest.c **** 
  59:..\Common\Minimal/IntSemTest.c ****     http://www.OpenRTOS.com - Real Time Engineers ltd. license FreeRTOS to High
  60:..\Common\Minimal/IntSemTest.c ****     Integrity Systems ltd. to sell under the OpenRTOS brand.  Low cost OpenRTOS
  61:..\Common\Minimal/IntSemTest.c ****     licenses offer ticketed support, indemnification and commercial middleware.
  62:..\Common\Minimal/IntSemTest.c **** 
  63:..\Common\Minimal/IntSemTest.c ****     http://www.SafeRTOS.com - High Integrity Systems also provide a safety
  64:..\Common\Minimal/IntSemTest.c ****     engineered and independently SIL3 certified version for use in safety and
  65:..\Common\Minimal/IntSemTest.c ****     mission critical applications that require provable dependability.
  66:..\Common\Minimal/IntSemTest.c **** 
  67:..\Common\Minimal/IntSemTest.c ****     1 tab == 4 spaces!
  68:..\Common\Minimal/IntSemTest.c **** */
  69:..\Common\Minimal/IntSemTest.c **** 
  70:..\Common\Minimal/IntSemTest.c **** 
  71:..\Common\Minimal/IntSemTest.c **** /*
  72:..\Common\Minimal/IntSemTest.c ****  * Demonstrates and tests mutexes being used from an interrupt.
  73:..\Common\Minimal/IntSemTest.c ****  */
  74:..\Common\Minimal/IntSemTest.c **** 
  75:..\Common\Minimal/IntSemTest.c **** 
  76:..\Common\Minimal/IntSemTest.c **** #include <stdlib.h>
  77:..\Common\Minimal/IntSemTest.c **** 
  78:..\Common\Minimal/IntSemTest.c **** /* Scheduler include files. */
  79:..\Common\Minimal/IntSemTest.c **** #include "FreeRTOS.h"
  80:..\Common\Minimal/IntSemTest.c **** #include "task.h"
  81:..\Common\Minimal/IntSemTest.c **** #include "semphr.h"
  82:..\Common\Minimal/IntSemTest.c **** 
  83:..\Common\Minimal/IntSemTest.c **** /* Demo program include files. */
  84:..\Common\Minimal/IntSemTest.c **** #include "IntSemTest.h"
  85:..\Common\Minimal/IntSemTest.c **** 
  86:..\Common\Minimal/IntSemTest.c **** /*-----------------------------------------------------------*/
  87:..\Common\Minimal/IntSemTest.c **** 
  88:..\Common\Minimal/IntSemTest.c **** /* The priorities of the test tasks. */
  89:..\Common\Minimal/IntSemTest.c **** #define intsemMASTER_PRIORITY		( tskIDLE_PRIORITY )
  90:..\Common\Minimal/IntSemTest.c **** #define intsemSLAVE_PRIORITY		( tskIDLE_PRIORITY + 1 )
  91:..\Common\Minimal/IntSemTest.c **** 
  92:..\Common\Minimal/IntSemTest.c **** /* The rate at which the tick hook will give the mutex. */
  93:..\Common\Minimal/IntSemTest.c **** #define intsemINTERRUPT_MUTEX_GIVE_PERIOD_MS ( 100 )
  94:..\Common\Minimal/IntSemTest.c **** 
ARM GAS  C:\Users\THUNDE~1\AppData\Local\Temp\ccjMKemp.s 			page 4


  95:..\Common\Minimal/IntSemTest.c **** /* A block time of 0 means 'don't block'. */
  96:..\Common\Minimal/IntSemTest.c **** #define intsemNO_BLOCK				0
  97:..\Common\Minimal/IntSemTest.c **** 
  98:..\Common\Minimal/IntSemTest.c **** /* The maximum count value for the counting semaphore given from an
  99:..\Common\Minimal/IntSemTest.c **** interrupt. */
 100:..\Common\Minimal/IntSemTest.c **** #define intsemMAX_COUNT				3
 101:..\Common\Minimal/IntSemTest.c **** 
 102:..\Common\Minimal/IntSemTest.c **** /*-----------------------------------------------------------*/
 103:..\Common\Minimal/IntSemTest.c **** 
 104:..\Common\Minimal/IntSemTest.c **** /*
 105:..\Common\Minimal/IntSemTest.c ****  * The master is a task that receives a mutex that is given from an interrupt -
 106:..\Common\Minimal/IntSemTest.c ****  * although generally mutexes should not be used given in interrupts (and
 107:..\Common\Minimal/IntSemTest.c ****  * definitely never taken in an interrupt) there are some circumstances when it
 108:..\Common\Minimal/IntSemTest.c ****  * may be desirable.
 109:..\Common\Minimal/IntSemTest.c ****  *
 110:..\Common\Minimal/IntSemTest.c ****  * The slave task is just used by the master task to force priority inheritance
 111:..\Common\Minimal/IntSemTest.c ****  * on a mutex that is shared between the master and the slave - which is a
 112:..\Common\Minimal/IntSemTest.c ****  * separate mutex to that given by the interrupt.
 113:..\Common\Minimal/IntSemTest.c ****  */
 114:..\Common\Minimal/IntSemTest.c **** static void vInterruptMutexSlaveTask( void *pvParameters );
 115:..\Common\Minimal/IntSemTest.c **** static void vInterruptMutexMasterTask( void *pvParameters );
 116:..\Common\Minimal/IntSemTest.c **** 
 117:..\Common\Minimal/IntSemTest.c **** /*
 118:..\Common\Minimal/IntSemTest.c ****  * A test whereby the master takes the shared and interrupt mutexes in that
 119:..\Common\Minimal/IntSemTest.c ****  * order, then gives them back in the same order, ensuring the priority
 120:..\Common\Minimal/IntSemTest.c ****  * inheritance is behaving as expected at each step.
 121:..\Common\Minimal/IntSemTest.c ****  */
 122:..\Common\Minimal/IntSemTest.c **** static void prvTakeAndGiveInTheSameOrder( void );
 123:..\Common\Minimal/IntSemTest.c **** 
 124:..\Common\Minimal/IntSemTest.c **** /*
 125:..\Common\Minimal/IntSemTest.c ****  * A test whereby the master takes the shared and interrupt mutexes in that
 126:..\Common\Minimal/IntSemTest.c ****  * order, then gives them back in the opposite order to which they were taken,
 127:..\Common\Minimal/IntSemTest.c ****  * ensuring the priority inheritance is behaving as expected at each step.
 128:..\Common\Minimal/IntSemTest.c ****  */
 129:..\Common\Minimal/IntSemTest.c **** static void prvTakeAndGiveInTheOppositeOrder( void );
 130:..\Common\Minimal/IntSemTest.c **** 
 131:..\Common\Minimal/IntSemTest.c **** /*
 132:..\Common\Minimal/IntSemTest.c ****  * A simple task that interacts with an interrupt using a counting semaphore,
 133:..\Common\Minimal/IntSemTest.c ****  * primarily for code coverage purposes.
 134:..\Common\Minimal/IntSemTest.c ****  */
 135:..\Common\Minimal/IntSemTest.c **** static void vInterruptCountingSemaphoreTask( void *pvParameters );
 136:..\Common\Minimal/IntSemTest.c **** 
 137:..\Common\Minimal/IntSemTest.c **** /*-----------------------------------------------------------*/
 138:..\Common\Minimal/IntSemTest.c **** 
 139:..\Common\Minimal/IntSemTest.c **** /* Flag that will be latched to pdTRUE should any unexpected behaviour be
 140:..\Common\Minimal/IntSemTest.c **** detected in any of the tasks. */
 141:..\Common\Minimal/IntSemTest.c **** static volatile BaseType_t xErrorDetected = pdFALSE;
 142:..\Common\Minimal/IntSemTest.c **** 
 143:..\Common\Minimal/IntSemTest.c **** /* Counters that are incremented on each cycle of a test.  This is used to
 144:..\Common\Minimal/IntSemTest.c **** detect a stalled task - a test that is no longer running. */
 145:..\Common\Minimal/IntSemTest.c **** static volatile uint32_t ulMasterLoops = 0, ulCountingSemaphoreLoops = 0;
 146:..\Common\Minimal/IntSemTest.c **** 
 147:..\Common\Minimal/IntSemTest.c **** /* Handles of the test tasks that must be accessed from other test tasks. */
 148:..\Common\Minimal/IntSemTest.c **** static TaskHandle_t xSlaveHandle;
 149:..\Common\Minimal/IntSemTest.c **** 
 150:..\Common\Minimal/IntSemTest.c **** /* A mutex which is given from an interrupt - although generally mutexes should
 151:..\Common\Minimal/IntSemTest.c **** not be used given in interrupts (and definitely never taken in an interrupt)
ARM GAS  C:\Users\THUNDE~1\AppData\Local\Temp\ccjMKemp.s 			page 5


 152:..\Common\Minimal/IntSemTest.c **** there are some circumstances when it may be desirable. */
 153:..\Common\Minimal/IntSemTest.c **** static SemaphoreHandle_t xISRMutex = NULL;
 154:..\Common\Minimal/IntSemTest.c **** 
 155:..\Common\Minimal/IntSemTest.c **** /* A counting semaphore which is given from an interrupt. */
 156:..\Common\Minimal/IntSemTest.c **** static SemaphoreHandle_t xISRCountingSemaphore = NULL;
 157:..\Common\Minimal/IntSemTest.c **** 
 158:..\Common\Minimal/IntSemTest.c **** /* A mutex which is shared between the master and slave tasks - the master
 159:..\Common\Minimal/IntSemTest.c **** does both sharing of this mutex with the slave and receiving a mutex from the
 160:..\Common\Minimal/IntSemTest.c **** interrupt. */
 161:..\Common\Minimal/IntSemTest.c **** static SemaphoreHandle_t xMasterSlaveMutex = NULL;
 162:..\Common\Minimal/IntSemTest.c **** 
 163:..\Common\Minimal/IntSemTest.c **** /* Flag that allows the master task to control when the interrupt gives or does
 164:..\Common\Minimal/IntSemTest.c **** not give the mutex.  There is no mutual exclusion on this variable, but this is
 165:..\Common\Minimal/IntSemTest.c **** only test code and it should be fine in the 32=bit test environment. */
 166:..\Common\Minimal/IntSemTest.c **** static BaseType_t xOkToGiveMutex = pdFALSE, xOkToGiveCountingSemaphore = pdFALSE;
 167:..\Common\Minimal/IntSemTest.c **** 
 168:..\Common\Minimal/IntSemTest.c **** /* Used to coordinate timing between tasks and the interrupt. */
 169:..\Common\Minimal/IntSemTest.c **** const TickType_t xInterruptGivePeriod = pdMS_TO_TICKS( intsemINTERRUPT_MUTEX_GIVE_PERIOD_MS );
 170:..\Common\Minimal/IntSemTest.c **** 
 171:..\Common\Minimal/IntSemTest.c **** /*-----------------------------------------------------------*/
 172:..\Common\Minimal/IntSemTest.c **** 
 173:..\Common\Minimal/IntSemTest.c **** void vStartInterruptSemaphoreTasks( void )
 174:..\Common\Minimal/IntSemTest.c **** {
  75              		.loc 1 174 0
  76              		.cfi_startproc
  77              		@ args = 0, pretend = 0, frame = 0
  78              		@ frame_needed = 1, uses_anonymous_args = 0
  79 0000 80B5     		push	{r7, lr}
  80              		.cfi_def_cfa_offset 8
  81              		.cfi_offset 7, -8
  82              		.cfi_offset 14, -4
  83 0002 82B0     		sub	sp, sp, #8
  84              		.cfi_def_cfa_offset 16
  85 0004 02AF     		add	r7, sp, #8
  86              		.cfi_def_cfa 7, 8
 175:..\Common\Minimal/IntSemTest.c **** 	/* Create the semaphores that are given from an interrupt. */
 176:..\Common\Minimal/IntSemTest.c **** 	xISRMutex = xSemaphoreCreateMutex();
  87              		.loc 1 176 0
  88 0006 0120     		movs	r0, #1
  89 0008 FFF7FEFF 		bl	xQueueCreateMutex
  90 000c 0246     		mov	r2, r0
  91 000e 184B     		ldr	r3, .L2
  92 0010 1A60     		str	r2, [r3]
 177:..\Common\Minimal/IntSemTest.c **** 	configASSERT( xISRMutex );
 178:..\Common\Minimal/IntSemTest.c **** 	xISRCountingSemaphore = xSemaphoreCreateCounting( intsemMAX_COUNT, 0 );
  93              		.loc 1 178 0
  94 0012 0021     		movs	r1, #0
  95 0014 0320     		movs	r0, #3
  96 0016 FFF7FEFF 		bl	xQueueCreateCountingSemaphore
  97 001a 0246     		mov	r2, r0
  98 001c 154B     		ldr	r3, .L2+4
  99 001e 1A60     		str	r2, [r3]
 179:..\Common\Minimal/IntSemTest.c **** 	configASSERT( xISRCountingSemaphore );
 180:..\Common\Minimal/IntSemTest.c **** 
 181:..\Common\Minimal/IntSemTest.c **** 	/* Create the mutex that is shared between the master and slave tasks (the
 182:..\Common\Minimal/IntSemTest.c **** 	master receives a mutex from an interrupt and shares a mutex with the
 183:..\Common\Minimal/IntSemTest.c **** 	slave. */
ARM GAS  C:\Users\THUNDE~1\AppData\Local\Temp\ccjMKemp.s 			page 6


 184:..\Common\Minimal/IntSemTest.c **** 	xMasterSlaveMutex = xSemaphoreCreateMutex();
 100              		.loc 1 184 0
 101 0020 0120     		movs	r0, #1
 102 0022 FFF7FEFF 		bl	xQueueCreateMutex
 103 0026 0246     		mov	r2, r0
 104 0028 134B     		ldr	r3, .L2+8
 105 002a 1A60     		str	r2, [r3]
 185:..\Common\Minimal/IntSemTest.c **** 	configASSERT( xMasterSlaveMutex );
 186:..\Common\Minimal/IntSemTest.c **** 
 187:..\Common\Minimal/IntSemTest.c **** 	/* Create the tasks that share mutexes between then and with interrupts. */
 188:..\Common\Minimal/IntSemTest.c **** 	xTaskCreate( vInterruptMutexSlaveTask, "IntMuS", configMINIMAL_STACK_SIZE, NULL, intsemSLAVE_PRIOR
 106              		.loc 1 188 0
 107 002c 134B     		ldr	r3, .L2+12
 108 002e 0193     		str	r3, [sp, #4]
 109 0030 0123     		movs	r3, #1
 110 0032 0093     		str	r3, [sp]
 111 0034 0023     		movs	r3, #0
 112 0036 6422     		movs	r2, #100
 113 0038 1149     		ldr	r1, .L2+16
 114 003a 1248     		ldr	r0, .L2+20
 115 003c FFF7FEFF 		bl	xTaskCreate
 189:..\Common\Minimal/IntSemTest.c **** 	xTaskCreate( vInterruptMutexMasterTask, "IntMuM", configMINIMAL_STACK_SIZE, NULL, intsemMASTER_PRI
 116              		.loc 1 189 0
 117 0040 0023     		movs	r3, #0
 118 0042 0193     		str	r3, [sp, #4]
 119 0044 0023     		movs	r3, #0
 120 0046 0093     		str	r3, [sp]
 121 0048 0023     		movs	r3, #0
 122 004a 6422     		movs	r2, #100
 123 004c 0E49     		ldr	r1, .L2+24
 124 004e 0F48     		ldr	r0, .L2+28
 125 0050 FFF7FEFF 		bl	xTaskCreate
 190:..\Common\Minimal/IntSemTest.c **** 
 191:..\Common\Minimal/IntSemTest.c **** 	/* Create the task that blocks on the counting semaphore. */
 192:..\Common\Minimal/IntSemTest.c **** 	xTaskCreate( vInterruptCountingSemaphoreTask, "IntCnt", configMINIMAL_STACK_SIZE, NULL, tskIDLE_PR
 126              		.loc 1 192 0
 127 0054 0023     		movs	r3, #0
 128 0056 0193     		str	r3, [sp, #4]
 129 0058 0023     		movs	r3, #0
 130 005a 0093     		str	r3, [sp]
 131 005c 0023     		movs	r3, #0
 132 005e 6422     		movs	r2, #100
 133 0060 0B49     		ldr	r1, .L2+32
 134 0062 0C48     		ldr	r0, .L2+36
 135 0064 FFF7FEFF 		bl	xTaskCreate
 193:..\Common\Minimal/IntSemTest.c **** }
 136              		.loc 1 193 0
 137 0068 00BF     		nop
 138 006a BD46     		mov	sp, r7
 139              		.cfi_def_cfa_register 13
 140              		@ sp needed
 141 006c 80BD     		pop	{r7, pc}
 142              	.L3:
 143 006e 00BF     		.align	2
 144              	.L2:
 145 0070 10000000 		.word	xISRMutex
 146 0074 14000000 		.word	xISRCountingSemaphore
ARM GAS  C:\Users\THUNDE~1\AppData\Local\Temp\ccjMKemp.s 			page 7


 147 0078 18000000 		.word	xMasterSlaveMutex
 148 007c 0C000000 		.word	xSlaveHandle
 149 0080 04000000 		.word	.LC0
 150 0084 00000000 		.word	vInterruptMutexSlaveTask
 151 0088 0C000000 		.word	.LC1
 152 008c 00000000 		.word	vInterruptMutexMasterTask
 153 0090 14000000 		.word	.LC2
 154 0094 00000000 		.word	vInterruptCountingSemaphoreTask
 155              		.cfi_endproc
 156              	.LFE68:
 157              		.size	vStartInterruptSemaphoreTasks, .-vStartInterruptSemaphoreTasks
 158              		.section	.text.vInterruptMutexMasterTask,"ax",%progbits
 159              		.align	2
 160              		.thumb
 161              		.thumb_func
 162              		.type	vInterruptMutexMasterTask, %function
 163              	vInterruptMutexMasterTask:
 164              	.LFB69:
 194:..\Common\Minimal/IntSemTest.c **** /*-----------------------------------------------------------*/
 195:..\Common\Minimal/IntSemTest.c **** 
 196:..\Common\Minimal/IntSemTest.c **** static void vInterruptMutexMasterTask( void *pvParameters )
 197:..\Common\Minimal/IntSemTest.c **** {
 165              		.loc 1 197 0
 166              		.cfi_startproc
 167              		@ args = 0, pretend = 0, frame = 8
 168              		@ frame_needed = 1, uses_anonymous_args = 0
 169 0000 80B5     		push	{r7, lr}
 170              		.cfi_def_cfa_offset 8
 171              		.cfi_offset 7, -8
 172              		.cfi_offset 14, -4
 173 0002 82B0     		sub	sp, sp, #8
 174              		.cfi_def_cfa_offset 16
 175 0004 00AF     		add	r7, sp, #0
 176              		.cfi_def_cfa_register 7
 177 0006 7860     		str	r0, [r7, #4]
 178              	.L5:
 198:..\Common\Minimal/IntSemTest.c **** 	/* Just to avoid compiler warnings. */
 199:..\Common\Minimal/IntSemTest.c **** 	( void ) pvParameters;
 200:..\Common\Minimal/IntSemTest.c **** 
 201:..\Common\Minimal/IntSemTest.c **** 	for( ;; )
 202:..\Common\Minimal/IntSemTest.c **** 	{
 203:..\Common\Minimal/IntSemTest.c **** 		prvTakeAndGiveInTheSameOrder();
 179              		.loc 1 203 0 discriminator 1
 180 0008 FFF7FEFF 		bl	prvTakeAndGiveInTheSameOrder
 204:..\Common\Minimal/IntSemTest.c **** 
 205:..\Common\Minimal/IntSemTest.c **** 		/* Ensure not to starve out other tests. */
 206:..\Common\Minimal/IntSemTest.c **** 		ulMasterLoops++;
 181              		.loc 1 206 0 discriminator 1
 182 000c 094B     		ldr	r3, .L6
 183 000e 1B68     		ldr	r3, [r3]
 184 0010 0133     		adds	r3, r3, #1
 185 0012 084A     		ldr	r2, .L6
 186 0014 1360     		str	r3, [r2]
 207:..\Common\Minimal/IntSemTest.c **** 		vTaskDelay( intsemINTERRUPT_MUTEX_GIVE_PERIOD_MS );
 187              		.loc 1 207 0 discriminator 1
 188 0016 6420     		movs	r0, #100
 189 0018 FFF7FEFF 		bl	vTaskDelay
ARM GAS  C:\Users\THUNDE~1\AppData\Local\Temp\ccjMKemp.s 			page 8


 208:..\Common\Minimal/IntSemTest.c **** 
 209:..\Common\Minimal/IntSemTest.c **** 		prvTakeAndGiveInTheOppositeOrder();
 190              		.loc 1 209 0 discriminator 1
 191 001c FFF7FEFF 		bl	prvTakeAndGiveInTheOppositeOrder
 210:..\Common\Minimal/IntSemTest.c **** 
 211:..\Common\Minimal/IntSemTest.c **** 		/* Ensure not to starve out other tests. */
 212:..\Common\Minimal/IntSemTest.c **** 		ulMasterLoops++;
 192              		.loc 1 212 0 discriminator 1
 193 0020 044B     		ldr	r3, .L6
 194 0022 1B68     		ldr	r3, [r3]
 195 0024 0133     		adds	r3, r3, #1
 196 0026 034A     		ldr	r2, .L6
 197 0028 1360     		str	r3, [r2]
 213:..\Common\Minimal/IntSemTest.c **** 		vTaskDelay( intsemINTERRUPT_MUTEX_GIVE_PERIOD_MS );
 198              		.loc 1 213 0 discriminator 1
 199 002a 6420     		movs	r0, #100
 200 002c FFF7FEFF 		bl	vTaskDelay
 214:..\Common\Minimal/IntSemTest.c **** 	}
 201              		.loc 1 214 0 discriminator 1
 202 0030 EAE7     		b	.L5
 203              	.L7:
 204 0032 00BF     		.align	2
 205              	.L6:
 206 0034 04000000 		.word	ulMasterLoops
 207              		.cfi_endproc
 208              	.LFE69:
 209              		.size	vInterruptMutexMasterTask, .-vInterruptMutexMasterTask
 210              		.section	.text.prvTakeAndGiveInTheSameOrder,"ax",%progbits
 211              		.align	2
 212              		.thumb
 213              		.thumb_func
 214              		.type	prvTakeAndGiveInTheSameOrder, %function
 215              	prvTakeAndGiveInTheSameOrder:
 216              	.LFB70:
 215:..\Common\Minimal/IntSemTest.c **** }
 216:..\Common\Minimal/IntSemTest.c **** /*-----------------------------------------------------------*/
 217:..\Common\Minimal/IntSemTest.c **** 
 218:..\Common\Minimal/IntSemTest.c **** static void prvTakeAndGiveInTheSameOrder( void )
 219:..\Common\Minimal/IntSemTest.c **** {
 217              		.loc 1 219 0
 218              		.cfi_startproc
 219              		@ args = 0, pretend = 0, frame = 0
 220              		@ frame_needed = 1, uses_anonymous_args = 0
 221 0000 80B5     		push	{r7, lr}
 222              		.cfi_def_cfa_offset 8
 223              		.cfi_offset 7, -8
 224              		.cfi_offset 14, -4
 225 0002 00AF     		add	r7, sp, #0
 226              		.cfi_def_cfa_register 7
 220:..\Common\Minimal/IntSemTest.c **** 	/* Ensure the slave is suspended, and that this task is running at the
 221:..\Common\Minimal/IntSemTest.c **** 	lower priority as expected as the start conditions. */
 222:..\Common\Minimal/IntSemTest.c **** 	#if( INCLUDE_eTaskGetState == 1 )
 223:..\Common\Minimal/IntSemTest.c **** 	{
 224:..\Common\Minimal/IntSemTest.c **** 		configASSERT( eTaskGetState( xSlaveHandle ) == eSuspended );
 225:..\Common\Minimal/IntSemTest.c **** 	}
 226:..\Common\Minimal/IntSemTest.c **** 	#endif /* INCLUDE_eTaskGetState */
 227:..\Common\Minimal/IntSemTest.c **** 
ARM GAS  C:\Users\THUNDE~1\AppData\Local\Temp\ccjMKemp.s 			page 9


 228:..\Common\Minimal/IntSemTest.c **** 	if( uxTaskPriorityGet( NULL ) != intsemMASTER_PRIORITY )
 227              		.loc 1 228 0
 228 0004 0020     		movs	r0, #0
 229 0006 FFF7FEFF 		bl	uxTaskPriorityGet
 230 000a 0346     		mov	r3, r0
 231 000c 002B     		cmp	r3, #0
 232 000e 02D0     		beq	.L9
 229:..\Common\Minimal/IntSemTest.c **** 	{
 230:..\Common\Minimal/IntSemTest.c **** 		xErrorDetected = pdTRUE;
 233              		.loc 1 230 0
 234 0010 3D4B     		ldr	r3, .L19
 235 0012 0122     		movs	r2, #1
 236 0014 1A60     		str	r2, [r3]
 237              	.L9:
 231:..\Common\Minimal/IntSemTest.c **** 	}
 232:..\Common\Minimal/IntSemTest.c **** 
 233:..\Common\Minimal/IntSemTest.c **** 	/* Take the semaphore that is shared with the slave. */
 234:..\Common\Minimal/IntSemTest.c **** 	if( xSemaphoreTake( xMasterSlaveMutex, intsemNO_BLOCK ) != pdPASS )
 238              		.loc 1 234 0
 239 0016 3D4B     		ldr	r3, .L19+4
 240 0018 1868     		ldr	r0, [r3]
 241 001a 0023     		movs	r3, #0
 242 001c 0022     		movs	r2, #0
 243 001e 0021     		movs	r1, #0
 244 0020 FFF7FEFF 		bl	xQueueGenericReceive
 245 0024 0346     		mov	r3, r0
 246 0026 012B     		cmp	r3, #1
 247 0028 02D0     		beq	.L10
 235:..\Common\Minimal/IntSemTest.c **** 	{
 236:..\Common\Minimal/IntSemTest.c **** 		xErrorDetected = pdTRUE;
 248              		.loc 1 236 0
 249 002a 374B     		ldr	r3, .L19
 250 002c 0122     		movs	r2, #1
 251 002e 1A60     		str	r2, [r3]
 252              	.L10:
 237:..\Common\Minimal/IntSemTest.c **** 	}
 238:..\Common\Minimal/IntSemTest.c **** 
 239:..\Common\Minimal/IntSemTest.c **** 	/* This task now has the mutex.  Unsuspend the slave so it too
 240:..\Common\Minimal/IntSemTest.c **** 	attempts to take the mutex. */
 241:..\Common\Minimal/IntSemTest.c **** 	vTaskResume( xSlaveHandle );
 253              		.loc 1 241 0
 254 0030 374B     		ldr	r3, .L19+8
 255 0032 1B68     		ldr	r3, [r3]
 256 0034 1846     		mov	r0, r3
 257 0036 FFF7FEFF 		bl	vTaskResume
 242:..\Common\Minimal/IntSemTest.c **** 
 243:..\Common\Minimal/IntSemTest.c **** 	/* The slave has the higher priority so should now have executed and
 244:..\Common\Minimal/IntSemTest.c **** 	blocked on the semaphore. */
 245:..\Common\Minimal/IntSemTest.c **** 	#if( INCLUDE_eTaskGetState == 1 )
 246:..\Common\Minimal/IntSemTest.c **** 	{
 247:..\Common\Minimal/IntSemTest.c **** 		configASSERT( eTaskGetState( xSlaveHandle ) == eBlocked );
 248:..\Common\Minimal/IntSemTest.c **** 	}
 249:..\Common\Minimal/IntSemTest.c **** 	#endif /* INCLUDE_eTaskGetState */
 250:..\Common\Minimal/IntSemTest.c **** 
 251:..\Common\Minimal/IntSemTest.c **** 	/* This task should now have inherited the priority of the slave
 252:..\Common\Minimal/IntSemTest.c **** 	task. */
 253:..\Common\Minimal/IntSemTest.c **** 	if( uxTaskPriorityGet( NULL ) != intsemSLAVE_PRIORITY )
ARM GAS  C:\Users\THUNDE~1\AppData\Local\Temp\ccjMKemp.s 			page 10


 258              		.loc 1 253 0
 259 003a 0020     		movs	r0, #0
 260 003c FFF7FEFF 		bl	uxTaskPriorityGet
 261 0040 0346     		mov	r3, r0
 262 0042 012B     		cmp	r3, #1
 263 0044 02D0     		beq	.L11
 254:..\Common\Minimal/IntSemTest.c **** 	{
 255:..\Common\Minimal/IntSemTest.c **** 		xErrorDetected = pdTRUE;
 264              		.loc 1 255 0
 265 0046 304B     		ldr	r3, .L19
 266 0048 0122     		movs	r2, #1
 267 004a 1A60     		str	r2, [r3]
 268              	.L11:
 256:..\Common\Minimal/IntSemTest.c **** 	}
 257:..\Common\Minimal/IntSemTest.c **** 
 258:..\Common\Minimal/IntSemTest.c **** 	/* Now wait a little longer than the time between ISR gives to also
 259:..\Common\Minimal/IntSemTest.c **** 	obtain the ISR mutex. */
 260:..\Common\Minimal/IntSemTest.c **** 	xOkToGiveMutex = pdTRUE;
 269              		.loc 1 260 0
 270 004c 314B     		ldr	r3, .L19+12
 271 004e 0122     		movs	r2, #1
 272 0050 1A60     		str	r2, [r3]
 261:..\Common\Minimal/IntSemTest.c **** 	if( xSemaphoreTake( xISRMutex, ( xInterruptGivePeriod * 2 ) ) != pdPASS )
 273              		.loc 1 261 0
 274 0052 314B     		ldr	r3, .L19+16
 275 0054 1868     		ldr	r0, [r3]
 276 0056 6423     		movs	r3, #100
 277 0058 5A00     		lsls	r2, r3, #1
 278 005a 0023     		movs	r3, #0
 279 005c 0021     		movs	r1, #0
 280 005e FFF7FEFF 		bl	xQueueGenericReceive
 281 0062 0346     		mov	r3, r0
 282 0064 012B     		cmp	r3, #1
 283 0066 02D0     		beq	.L12
 262:..\Common\Minimal/IntSemTest.c **** 	{
 263:..\Common\Minimal/IntSemTest.c **** 		xErrorDetected = pdTRUE;
 284              		.loc 1 263 0
 285 0068 274B     		ldr	r3, .L19
 286 006a 0122     		movs	r2, #1
 287 006c 1A60     		str	r2, [r3]
 288              	.L12:
 264:..\Common\Minimal/IntSemTest.c **** 	}
 265:..\Common\Minimal/IntSemTest.c **** 	xOkToGiveMutex = pdFALSE;
 289              		.loc 1 265 0
 290 006e 294B     		ldr	r3, .L19+12
 291 0070 0022     		movs	r2, #0
 292 0072 1A60     		str	r2, [r3]
 266:..\Common\Minimal/IntSemTest.c **** 
 267:..\Common\Minimal/IntSemTest.c **** 	/* Attempting to take again immediately should fail as the mutex is
 268:..\Common\Minimal/IntSemTest.c **** 	already held. */
 269:..\Common\Minimal/IntSemTest.c **** 	if( xSemaphoreTake( xISRMutex, intsemNO_BLOCK ) != pdFAIL )
 293              		.loc 1 269 0
 294 0074 284B     		ldr	r3, .L19+16
 295 0076 1868     		ldr	r0, [r3]
 296 0078 0023     		movs	r3, #0
 297 007a 0022     		movs	r2, #0
 298 007c 0021     		movs	r1, #0
ARM GAS  C:\Users\THUNDE~1\AppData\Local\Temp\ccjMKemp.s 			page 11


 299 007e FFF7FEFF 		bl	xQueueGenericReceive
 300 0082 0346     		mov	r3, r0
 301 0084 002B     		cmp	r3, #0
 302 0086 02D0     		beq	.L13
 270:..\Common\Minimal/IntSemTest.c **** 	{
 271:..\Common\Minimal/IntSemTest.c **** 		xErrorDetected = pdTRUE;
 303              		.loc 1 271 0
 304 0088 1F4B     		ldr	r3, .L19
 305 008a 0122     		movs	r2, #1
 306 008c 1A60     		str	r2, [r3]
 307              	.L13:
 272:..\Common\Minimal/IntSemTest.c **** 	}
 273:..\Common\Minimal/IntSemTest.c **** 
 274:..\Common\Minimal/IntSemTest.c **** 	/* Should still be at the priority of the slave task. */
 275:..\Common\Minimal/IntSemTest.c **** 	if( uxTaskPriorityGet( NULL ) != intsemSLAVE_PRIORITY )
 308              		.loc 1 275 0
 309 008e 0020     		movs	r0, #0
 310 0090 FFF7FEFF 		bl	uxTaskPriorityGet
 311 0094 0346     		mov	r3, r0
 312 0096 012B     		cmp	r3, #1
 313 0098 02D0     		beq	.L14
 276:..\Common\Minimal/IntSemTest.c **** 	{
 277:..\Common\Minimal/IntSemTest.c **** 		xErrorDetected = pdTRUE;
 314              		.loc 1 277 0
 315 009a 1B4B     		ldr	r3, .L19
 316 009c 0122     		movs	r2, #1
 317 009e 1A60     		str	r2, [r3]
 318              	.L14:
 278:..\Common\Minimal/IntSemTest.c **** 	}
 279:..\Common\Minimal/IntSemTest.c **** 
 280:..\Common\Minimal/IntSemTest.c **** 	/* Give back the ISR semaphore to ensure the priority is not
 281:..\Common\Minimal/IntSemTest.c **** 	disinherited as the shared mutex (which the higher priority task is
 282:..\Common\Minimal/IntSemTest.c **** 	attempting to obtain) is still held. */
 283:..\Common\Minimal/IntSemTest.c **** 	if( xSemaphoreGive( xISRMutex ) != pdPASS )
 319              		.loc 1 283 0
 320 00a0 1D4B     		ldr	r3, .L19+16
 321 00a2 1868     		ldr	r0, [r3]
 322 00a4 0023     		movs	r3, #0
 323 00a6 0022     		movs	r2, #0
 324 00a8 0021     		movs	r1, #0
 325 00aa FFF7FEFF 		bl	xQueueGenericSend
 326 00ae 0346     		mov	r3, r0
 327 00b0 012B     		cmp	r3, #1
 328 00b2 02D0     		beq	.L15
 284:..\Common\Minimal/IntSemTest.c **** 	{
 285:..\Common\Minimal/IntSemTest.c **** 		xErrorDetected = pdTRUE;
 329              		.loc 1 285 0
 330 00b4 144B     		ldr	r3, .L19
 331 00b6 0122     		movs	r2, #1
 332 00b8 1A60     		str	r2, [r3]
 333              	.L15:
 286:..\Common\Minimal/IntSemTest.c **** 	}
 287:..\Common\Minimal/IntSemTest.c **** 
 288:..\Common\Minimal/IntSemTest.c **** 	if( uxTaskPriorityGet( NULL ) != intsemSLAVE_PRIORITY )
 334              		.loc 1 288 0
 335 00ba 0020     		movs	r0, #0
 336 00bc FFF7FEFF 		bl	uxTaskPriorityGet
ARM GAS  C:\Users\THUNDE~1\AppData\Local\Temp\ccjMKemp.s 			page 12


 337 00c0 0346     		mov	r3, r0
 338 00c2 012B     		cmp	r3, #1
 339 00c4 02D0     		beq	.L16
 289:..\Common\Minimal/IntSemTest.c **** 	{
 290:..\Common\Minimal/IntSemTest.c **** 		xErrorDetected = pdTRUE;
 340              		.loc 1 290 0
 341 00c6 104B     		ldr	r3, .L19
 342 00c8 0122     		movs	r2, #1
 343 00ca 1A60     		str	r2, [r3]
 344              	.L16:
 291:..\Common\Minimal/IntSemTest.c **** 	}
 292:..\Common\Minimal/IntSemTest.c **** 
 293:..\Common\Minimal/IntSemTest.c **** 	/* Finally give back the shared mutex.  This time the higher priority
 294:..\Common\Minimal/IntSemTest.c **** 	task should run before this task runs again - so this task should have
 295:..\Common\Minimal/IntSemTest.c **** 	disinherited the priority and the higher priority task should be in the
 296:..\Common\Minimal/IntSemTest.c **** 	suspended state again. */
 297:..\Common\Minimal/IntSemTest.c **** 	if( xSemaphoreGive( xMasterSlaveMutex ) != pdPASS )
 345              		.loc 1 297 0
 346 00cc 0F4B     		ldr	r3, .L19+4
 347 00ce 1868     		ldr	r0, [r3]
 348 00d0 0023     		movs	r3, #0
 349 00d2 0022     		movs	r2, #0
 350 00d4 0021     		movs	r1, #0
 351 00d6 FFF7FEFF 		bl	xQueueGenericSend
 352 00da 0346     		mov	r3, r0
 353 00dc 012B     		cmp	r3, #1
 354 00de 02D0     		beq	.L17
 298:..\Common\Minimal/IntSemTest.c **** 	{
 299:..\Common\Minimal/IntSemTest.c **** 		xErrorDetected = pdTRUE;
 355              		.loc 1 299 0
 356 00e0 094B     		ldr	r3, .L19
 357 00e2 0122     		movs	r2, #1
 358 00e4 1A60     		str	r2, [r3]
 359              	.L17:
 300:..\Common\Minimal/IntSemTest.c **** 	}
 301:..\Common\Minimal/IntSemTest.c **** 
 302:..\Common\Minimal/IntSemTest.c **** 	if( uxTaskPriorityGet( NULL ) != intsemMASTER_PRIORITY )
 360              		.loc 1 302 0
 361 00e6 0020     		movs	r0, #0
 362 00e8 FFF7FEFF 		bl	uxTaskPriorityGet
 363 00ec 0346     		mov	r3, r0
 364 00ee 002B     		cmp	r3, #0
 365 00f0 02D0     		beq	.L18
 303:..\Common\Minimal/IntSemTest.c **** 	{
 304:..\Common\Minimal/IntSemTest.c **** 		xErrorDetected = pdTRUE;
 366              		.loc 1 304 0
 367 00f2 054B     		ldr	r3, .L19
 368 00f4 0122     		movs	r2, #1
 369 00f6 1A60     		str	r2, [r3]
 370              	.L18:
 305:..\Common\Minimal/IntSemTest.c **** 	}
 306:..\Common\Minimal/IntSemTest.c **** 
 307:..\Common\Minimal/IntSemTest.c **** 	#if( INCLUDE_eTaskGetState == 1 )
 308:..\Common\Minimal/IntSemTest.c **** 	{
 309:..\Common\Minimal/IntSemTest.c **** 		configASSERT( eTaskGetState( xSlaveHandle ) == eSuspended );
 310:..\Common\Minimal/IntSemTest.c **** 	}
 311:..\Common\Minimal/IntSemTest.c **** 	#endif /* INCLUDE_eTaskGetState */
ARM GAS  C:\Users\THUNDE~1\AppData\Local\Temp\ccjMKemp.s 			page 13


 312:..\Common\Minimal/IntSemTest.c **** 
 313:..\Common\Minimal/IntSemTest.c **** 	/* Reset the mutex ready for the next round. */
 314:..\Common\Minimal/IntSemTest.c **** 	xQueueReset( xISRMutex );
 371              		.loc 1 314 0
 372 00f8 074B     		ldr	r3, .L19+16
 373 00fa 1B68     		ldr	r3, [r3]
 374 00fc 0021     		movs	r1, #0
 375 00fe 1846     		mov	r0, r3
 376 0100 FFF7FEFF 		bl	xQueueGenericReset
 315:..\Common\Minimal/IntSemTest.c **** }
 377              		.loc 1 315 0
 378 0104 00BF     		nop
 379 0106 80BD     		pop	{r7, pc}
 380              	.L20:
 381              		.align	2
 382              	.L19:
 383 0108 00000000 		.word	xErrorDetected
 384 010c 18000000 		.word	xMasterSlaveMutex
 385 0110 0C000000 		.word	xSlaveHandle
 386 0114 1C000000 		.word	xOkToGiveMutex
 387 0118 10000000 		.word	xISRMutex
 388              		.cfi_endproc
 389              	.LFE70:
 390              		.size	prvTakeAndGiveInTheSameOrder, .-prvTakeAndGiveInTheSameOrder
 391              		.section	.text.prvTakeAndGiveInTheOppositeOrder,"ax",%progbits
 392              		.align	2
 393              		.thumb
 394              		.thumb_func
 395              		.type	prvTakeAndGiveInTheOppositeOrder, %function
 396              	prvTakeAndGiveInTheOppositeOrder:
 397              	.LFB71:
 316:..\Common\Minimal/IntSemTest.c **** /*-----------------------------------------------------------*/
 317:..\Common\Minimal/IntSemTest.c **** 
 318:..\Common\Minimal/IntSemTest.c **** static void prvTakeAndGiveInTheOppositeOrder( void )
 319:..\Common\Minimal/IntSemTest.c **** {
 398              		.loc 1 319 0
 399              		.cfi_startproc
 400              		@ args = 0, pretend = 0, frame = 0
 401              		@ frame_needed = 1, uses_anonymous_args = 0
 402 0000 80B5     		push	{r7, lr}
 403              		.cfi_def_cfa_offset 8
 404              		.cfi_offset 7, -8
 405              		.cfi_offset 14, -4
 406 0002 00AF     		add	r7, sp, #0
 407              		.cfi_def_cfa_register 7
 320:..\Common\Minimal/IntSemTest.c **** 	/* Ensure the slave is suspended, and that this task is running at the
 321:..\Common\Minimal/IntSemTest.c **** 	lower priority as expected as the start conditions. */
 322:..\Common\Minimal/IntSemTest.c **** 	#if( INCLUDE_eTaskGetState == 1 )
 323:..\Common\Minimal/IntSemTest.c **** 	{
 324:..\Common\Minimal/IntSemTest.c **** 		configASSERT( eTaskGetState( xSlaveHandle ) == eSuspended );
 325:..\Common\Minimal/IntSemTest.c **** 	}
 326:..\Common\Minimal/IntSemTest.c **** 	#endif /* INCLUDE_eTaskGetState */
 327:..\Common\Minimal/IntSemTest.c **** 
 328:..\Common\Minimal/IntSemTest.c **** 	if( uxTaskPriorityGet( NULL ) != intsemMASTER_PRIORITY )
 408              		.loc 1 328 0
 409 0004 0020     		movs	r0, #0
 410 0006 FFF7FEFF 		bl	uxTaskPriorityGet
ARM GAS  C:\Users\THUNDE~1\AppData\Local\Temp\ccjMKemp.s 			page 14


 411 000a 0346     		mov	r3, r0
 412 000c 002B     		cmp	r3, #0
 413 000e 02D0     		beq	.L22
 329:..\Common\Minimal/IntSemTest.c **** 	{
 330:..\Common\Minimal/IntSemTest.c **** 		xErrorDetected = pdTRUE;
 414              		.loc 1 330 0
 415 0010 3D4B     		ldr	r3, .L32
 416 0012 0122     		movs	r2, #1
 417 0014 1A60     		str	r2, [r3]
 418              	.L22:
 331:..\Common\Minimal/IntSemTest.c **** 	}
 332:..\Common\Minimal/IntSemTest.c **** 
 333:..\Common\Minimal/IntSemTest.c **** 	/* Take the semaphore that is shared with the slave. */
 334:..\Common\Minimal/IntSemTest.c **** 	if( xSemaphoreTake( xMasterSlaveMutex, intsemNO_BLOCK ) != pdPASS )
 419              		.loc 1 334 0
 420 0016 3D4B     		ldr	r3, .L32+4
 421 0018 1868     		ldr	r0, [r3]
 422 001a 0023     		movs	r3, #0
 423 001c 0022     		movs	r2, #0
 424 001e 0021     		movs	r1, #0
 425 0020 FFF7FEFF 		bl	xQueueGenericReceive
 426 0024 0346     		mov	r3, r0
 427 0026 012B     		cmp	r3, #1
 428 0028 02D0     		beq	.L23
 335:..\Common\Minimal/IntSemTest.c **** 	{
 336:..\Common\Minimal/IntSemTest.c **** 		xErrorDetected = pdTRUE;
 429              		.loc 1 336 0
 430 002a 374B     		ldr	r3, .L32
 431 002c 0122     		movs	r2, #1
 432 002e 1A60     		str	r2, [r3]
 433              	.L23:
 337:..\Common\Minimal/IntSemTest.c **** 	}
 338:..\Common\Minimal/IntSemTest.c **** 
 339:..\Common\Minimal/IntSemTest.c **** 	/* This task now has the mutex.  Unsuspend the slave so it too
 340:..\Common\Minimal/IntSemTest.c **** 	attempts to take the mutex. */
 341:..\Common\Minimal/IntSemTest.c **** 	vTaskResume( xSlaveHandle );
 434              		.loc 1 341 0
 435 0030 374B     		ldr	r3, .L32+8
 436 0032 1B68     		ldr	r3, [r3]
 437 0034 1846     		mov	r0, r3
 438 0036 FFF7FEFF 		bl	vTaskResume
 342:..\Common\Minimal/IntSemTest.c **** 
 343:..\Common\Minimal/IntSemTest.c **** 	/* The slave has the higher priority so should now have executed and
 344:..\Common\Minimal/IntSemTest.c **** 	blocked on the semaphore. */
 345:..\Common\Minimal/IntSemTest.c **** 	#if( INCLUDE_eTaskGetState == 1 )
 346:..\Common\Minimal/IntSemTest.c **** 	{
 347:..\Common\Minimal/IntSemTest.c **** 		configASSERT( eTaskGetState( xSlaveHandle ) == eBlocked );
 348:..\Common\Minimal/IntSemTest.c **** 	}
 349:..\Common\Minimal/IntSemTest.c **** 	#endif /* INCLUDE_eTaskGetState */
 350:..\Common\Minimal/IntSemTest.c **** 
 351:..\Common\Minimal/IntSemTest.c **** 	/* This task should now have inherited the priority of the slave
 352:..\Common\Minimal/IntSemTest.c **** 	task. */
 353:..\Common\Minimal/IntSemTest.c **** 	if( uxTaskPriorityGet( NULL ) != intsemSLAVE_PRIORITY )
 439              		.loc 1 353 0
 440 003a 0020     		movs	r0, #0
 441 003c FFF7FEFF 		bl	uxTaskPriorityGet
 442 0040 0346     		mov	r3, r0
ARM GAS  C:\Users\THUNDE~1\AppData\Local\Temp\ccjMKemp.s 			page 15


 443 0042 012B     		cmp	r3, #1
 444 0044 02D0     		beq	.L24
 354:..\Common\Minimal/IntSemTest.c **** 	{
 355:..\Common\Minimal/IntSemTest.c **** 		xErrorDetected = pdTRUE;
 445              		.loc 1 355 0
 446 0046 304B     		ldr	r3, .L32
 447 0048 0122     		movs	r2, #1
 448 004a 1A60     		str	r2, [r3]
 449              	.L24:
 356:..\Common\Minimal/IntSemTest.c **** 	}
 357:..\Common\Minimal/IntSemTest.c **** 
 358:..\Common\Minimal/IntSemTest.c **** 	/* Now wait a little longer than the time between ISR gives to also
 359:..\Common\Minimal/IntSemTest.c **** 	obtain the ISR mutex. */
 360:..\Common\Minimal/IntSemTest.c **** 	xOkToGiveMutex = pdTRUE;
 450              		.loc 1 360 0
 451 004c 314B     		ldr	r3, .L32+12
 452 004e 0122     		movs	r2, #1
 453 0050 1A60     		str	r2, [r3]
 361:..\Common\Minimal/IntSemTest.c **** 	if( xSemaphoreTake( xISRMutex, ( xInterruptGivePeriod * 2 ) ) != pdPASS )
 454              		.loc 1 361 0
 455 0052 314B     		ldr	r3, .L32+16
 456 0054 1868     		ldr	r0, [r3]
 457 0056 6423     		movs	r3, #100
 458 0058 5A00     		lsls	r2, r3, #1
 459 005a 0023     		movs	r3, #0
 460 005c 0021     		movs	r1, #0
 461 005e FFF7FEFF 		bl	xQueueGenericReceive
 462 0062 0346     		mov	r3, r0
 463 0064 012B     		cmp	r3, #1
 464 0066 02D0     		beq	.L25
 362:..\Common\Minimal/IntSemTest.c **** 	{
 363:..\Common\Minimal/IntSemTest.c **** 		xErrorDetected = pdTRUE;
 465              		.loc 1 363 0
 466 0068 274B     		ldr	r3, .L32
 467 006a 0122     		movs	r2, #1
 468 006c 1A60     		str	r2, [r3]
 469              	.L25:
 364:..\Common\Minimal/IntSemTest.c **** 	}
 365:..\Common\Minimal/IntSemTest.c **** 	xOkToGiveMutex = pdFALSE;
 470              		.loc 1 365 0
 471 006e 294B     		ldr	r3, .L32+12
 472 0070 0022     		movs	r2, #0
 473 0072 1A60     		str	r2, [r3]
 366:..\Common\Minimal/IntSemTest.c **** 
 367:..\Common\Minimal/IntSemTest.c **** 	/* Attempting to take again immediately should fail as the mutex is
 368:..\Common\Minimal/IntSemTest.c **** 	already held. */
 369:..\Common\Minimal/IntSemTest.c **** 	if( xSemaphoreTake( xISRMutex, intsemNO_BLOCK ) != pdFAIL )
 474              		.loc 1 369 0
 475 0074 284B     		ldr	r3, .L32+16
 476 0076 1868     		ldr	r0, [r3]
 477 0078 0023     		movs	r3, #0
 478 007a 0022     		movs	r2, #0
 479 007c 0021     		movs	r1, #0
 480 007e FFF7FEFF 		bl	xQueueGenericReceive
 481 0082 0346     		mov	r3, r0
 482 0084 002B     		cmp	r3, #0
 483 0086 02D0     		beq	.L26
ARM GAS  C:\Users\THUNDE~1\AppData\Local\Temp\ccjMKemp.s 			page 16


 370:..\Common\Minimal/IntSemTest.c **** 	{
 371:..\Common\Minimal/IntSemTest.c **** 		xErrorDetected = pdTRUE;
 484              		.loc 1 371 0
 485 0088 1F4B     		ldr	r3, .L32
 486 008a 0122     		movs	r2, #1
 487 008c 1A60     		str	r2, [r3]
 488              	.L26:
 372:..\Common\Minimal/IntSemTest.c **** 	}
 373:..\Common\Minimal/IntSemTest.c **** 
 374:..\Common\Minimal/IntSemTest.c **** 	/* Should still be at the priority of the slave task. */
 375:..\Common\Minimal/IntSemTest.c **** 	if( uxTaskPriorityGet( NULL ) != intsemSLAVE_PRIORITY )
 489              		.loc 1 375 0
 490 008e 0020     		movs	r0, #0
 491 0090 FFF7FEFF 		bl	uxTaskPriorityGet
 492 0094 0346     		mov	r3, r0
 493 0096 012B     		cmp	r3, #1
 494 0098 02D0     		beq	.L27
 376:..\Common\Minimal/IntSemTest.c **** 	{
 377:..\Common\Minimal/IntSemTest.c **** 		xErrorDetected = pdTRUE;
 495              		.loc 1 377 0
 496 009a 1B4B     		ldr	r3, .L32
 497 009c 0122     		movs	r2, #1
 498 009e 1A60     		str	r2, [r3]
 499              	.L27:
 378:..\Common\Minimal/IntSemTest.c **** 	}
 379:..\Common\Minimal/IntSemTest.c **** 
 380:..\Common\Minimal/IntSemTest.c **** 	/* Give back the shared semaphore to ensure the priority is not disinherited
 381:..\Common\Minimal/IntSemTest.c **** 	as the ISR mutex is still held.  The higher priority slave task should run
 382:..\Common\Minimal/IntSemTest.c **** 	before this task runs again. */
 383:..\Common\Minimal/IntSemTest.c **** 	if( xSemaphoreGive( xMasterSlaveMutex ) != pdPASS )
 500              		.loc 1 383 0
 501 00a0 1A4B     		ldr	r3, .L32+4
 502 00a2 1868     		ldr	r0, [r3]
 503 00a4 0023     		movs	r3, #0
 504 00a6 0022     		movs	r2, #0
 505 00a8 0021     		movs	r1, #0
 506 00aa FFF7FEFF 		bl	xQueueGenericSend
 507 00ae 0346     		mov	r3, r0
 508 00b0 012B     		cmp	r3, #1
 509 00b2 02D0     		beq	.L28
 384:..\Common\Minimal/IntSemTest.c **** 	{
 385:..\Common\Minimal/IntSemTest.c **** 		xErrorDetected = pdTRUE;
 510              		.loc 1 385 0
 511 00b4 144B     		ldr	r3, .L32
 512 00b6 0122     		movs	r2, #1
 513 00b8 1A60     		str	r2, [r3]
 514              	.L28:
 386:..\Common\Minimal/IntSemTest.c **** 	}
 387:..\Common\Minimal/IntSemTest.c **** 
 388:..\Common\Minimal/IntSemTest.c **** 	/* Should still be at the priority of the slave task as this task still
 389:..\Common\Minimal/IntSemTest.c **** 	holds one semaphore (this is a simplification in the priority inheritance
 390:..\Common\Minimal/IntSemTest.c **** 	mechanism. */
 391:..\Common\Minimal/IntSemTest.c **** 	if( uxTaskPriorityGet( NULL ) != intsemSLAVE_PRIORITY )
 515              		.loc 1 391 0
 516 00ba 0020     		movs	r0, #0
 517 00bc FFF7FEFF 		bl	uxTaskPriorityGet
 518 00c0 0346     		mov	r3, r0
ARM GAS  C:\Users\THUNDE~1\AppData\Local\Temp\ccjMKemp.s 			page 17


 519 00c2 012B     		cmp	r3, #1
 520 00c4 02D0     		beq	.L29
 392:..\Common\Minimal/IntSemTest.c **** 	{
 393:..\Common\Minimal/IntSemTest.c **** 		xErrorDetected = pdTRUE;
 521              		.loc 1 393 0
 522 00c6 104B     		ldr	r3, .L32
 523 00c8 0122     		movs	r2, #1
 524 00ca 1A60     		str	r2, [r3]
 525              	.L29:
 394:..\Common\Minimal/IntSemTest.c **** 	}
 395:..\Common\Minimal/IntSemTest.c **** 
 396:..\Common\Minimal/IntSemTest.c **** 	/* Give back the ISR semaphore, which should result in the priority being
 397:..\Common\Minimal/IntSemTest.c **** 	disinherited as it was the last mutex held. */
 398:..\Common\Minimal/IntSemTest.c **** 	if( xSemaphoreGive( xISRMutex ) != pdPASS )
 526              		.loc 1 398 0
 527 00cc 124B     		ldr	r3, .L32+16
 528 00ce 1868     		ldr	r0, [r3]
 529 00d0 0023     		movs	r3, #0
 530 00d2 0022     		movs	r2, #0
 531 00d4 0021     		movs	r1, #0
 532 00d6 FFF7FEFF 		bl	xQueueGenericSend
 533 00da 0346     		mov	r3, r0
 534 00dc 012B     		cmp	r3, #1
 535 00de 02D0     		beq	.L30
 399:..\Common\Minimal/IntSemTest.c **** 	{
 400:..\Common\Minimal/IntSemTest.c **** 		xErrorDetected = pdTRUE;
 536              		.loc 1 400 0
 537 00e0 094B     		ldr	r3, .L32
 538 00e2 0122     		movs	r2, #1
 539 00e4 1A60     		str	r2, [r3]
 540              	.L30:
 401:..\Common\Minimal/IntSemTest.c **** 	}
 402:..\Common\Minimal/IntSemTest.c **** 
 403:..\Common\Minimal/IntSemTest.c **** 	if( uxTaskPriorityGet( NULL ) != intsemMASTER_PRIORITY )
 541              		.loc 1 403 0
 542 00e6 0020     		movs	r0, #0
 543 00e8 FFF7FEFF 		bl	uxTaskPriorityGet
 544 00ec 0346     		mov	r3, r0
 545 00ee 002B     		cmp	r3, #0
 546 00f0 02D0     		beq	.L31
 404:..\Common\Minimal/IntSemTest.c **** 	{
 405:..\Common\Minimal/IntSemTest.c **** 		xErrorDetected = pdTRUE;
 547              		.loc 1 405 0
 548 00f2 054B     		ldr	r3, .L32
 549 00f4 0122     		movs	r2, #1
 550 00f6 1A60     		str	r2, [r3]
 551              	.L31:
 406:..\Common\Minimal/IntSemTest.c **** 	}
 407:..\Common\Minimal/IntSemTest.c **** 
 408:..\Common\Minimal/IntSemTest.c **** 	/* Reset the mutex ready for the next round. */
 409:..\Common\Minimal/IntSemTest.c **** 	xQueueReset( xISRMutex );
 552              		.loc 1 409 0
 553 00f8 074B     		ldr	r3, .L32+16
 554 00fa 1B68     		ldr	r3, [r3]
 555 00fc 0021     		movs	r1, #0
 556 00fe 1846     		mov	r0, r3
 557 0100 FFF7FEFF 		bl	xQueueGenericReset
ARM GAS  C:\Users\THUNDE~1\AppData\Local\Temp\ccjMKemp.s 			page 18


 410:..\Common\Minimal/IntSemTest.c **** }
 558              		.loc 1 410 0
 559 0104 00BF     		nop
 560 0106 80BD     		pop	{r7, pc}
 561              	.L33:
 562              		.align	2
 563              	.L32:
 564 0108 00000000 		.word	xErrorDetected
 565 010c 18000000 		.word	xMasterSlaveMutex
 566 0110 0C000000 		.word	xSlaveHandle
 567 0114 1C000000 		.word	xOkToGiveMutex
 568 0118 10000000 		.word	xISRMutex
 569              		.cfi_endproc
 570              	.LFE71:
 571              		.size	prvTakeAndGiveInTheOppositeOrder, .-prvTakeAndGiveInTheOppositeOrder
 572              		.section	.text.vInterruptMutexSlaveTask,"ax",%progbits
 573              		.align	2
 574              		.thumb
 575              		.thumb_func
 576              		.type	vInterruptMutexSlaveTask, %function
 577              	vInterruptMutexSlaveTask:
 578              	.LFB72:
 411:..\Common\Minimal/IntSemTest.c **** /*-----------------------------------------------------------*/
 412:..\Common\Minimal/IntSemTest.c **** 
 413:..\Common\Minimal/IntSemTest.c **** static void vInterruptMutexSlaveTask( void *pvParameters )
 414:..\Common\Minimal/IntSemTest.c **** {
 579              		.loc 1 414 0
 580              		.cfi_startproc
 581              		@ args = 0, pretend = 0, frame = 8
 582              		@ frame_needed = 1, uses_anonymous_args = 0
 583 0000 80B5     		push	{r7, lr}
 584              		.cfi_def_cfa_offset 8
 585              		.cfi_offset 7, -8
 586              		.cfi_offset 14, -4
 587 0002 82B0     		sub	sp, sp, #8
 588              		.cfi_def_cfa_offset 16
 589 0004 00AF     		add	r7, sp, #0
 590              		.cfi_def_cfa_register 7
 591 0006 7860     		str	r0, [r7, #4]
 592              	.L37:
 415:..\Common\Minimal/IntSemTest.c **** 	/* Just to avoid compiler warnings. */
 416:..\Common\Minimal/IntSemTest.c **** 	( void ) pvParameters;
 417:..\Common\Minimal/IntSemTest.c **** 
 418:..\Common\Minimal/IntSemTest.c **** 	for( ;; )
 419:..\Common\Minimal/IntSemTest.c **** 	{
 420:..\Common\Minimal/IntSemTest.c **** 		/* This task starts by suspending itself so when it executes can be
 421:..\Common\Minimal/IntSemTest.c **** 		controlled by the master task. */
 422:..\Common\Minimal/IntSemTest.c **** 		vTaskSuspend( NULL );
 593              		.loc 1 422 0
 594 0008 0020     		movs	r0, #0
 595 000a FFF7FEFF 		bl	vTaskSuspend
 423:..\Common\Minimal/IntSemTest.c **** 
 424:..\Common\Minimal/IntSemTest.c **** 		/* This task will execute when the master task already holds the mutex.
 425:..\Common\Minimal/IntSemTest.c **** 		Attempting to take the mutex will place this task in the Blocked
 426:..\Common\Minimal/IntSemTest.c **** 		state. */
 427:..\Common\Minimal/IntSemTest.c **** 		if( xSemaphoreTake( xMasterSlaveMutex, portMAX_DELAY ) != pdPASS )
 596              		.loc 1 427 0
ARM GAS  C:\Users\THUNDE~1\AppData\Local\Temp\ccjMKemp.s 			page 19


 597 000e 0E4B     		ldr	r3, .L38
 598 0010 1868     		ldr	r0, [r3]
 599 0012 0023     		movs	r3, #0
 600 0014 4FF0FF32 		mov	r2, #-1
 601 0018 0021     		movs	r1, #0
 602 001a FFF7FEFF 		bl	xQueueGenericReceive
 603 001e 0346     		mov	r3, r0
 604 0020 012B     		cmp	r3, #1
 605 0022 02D0     		beq	.L35
 428:..\Common\Minimal/IntSemTest.c **** 		{
 429:..\Common\Minimal/IntSemTest.c **** 			xErrorDetected = pdTRUE;
 606              		.loc 1 429 0
 607 0024 094B     		ldr	r3, .L38+4
 608 0026 0122     		movs	r2, #1
 609 0028 1A60     		str	r2, [r3]
 610              	.L35:
 430:..\Common\Minimal/IntSemTest.c **** 		}
 431:..\Common\Minimal/IntSemTest.c **** 
 432:..\Common\Minimal/IntSemTest.c **** 		if( xSemaphoreGive( xMasterSlaveMutex ) != pdPASS )
 611              		.loc 1 432 0
 612 002a 074B     		ldr	r3, .L38
 613 002c 1868     		ldr	r0, [r3]
 614 002e 0023     		movs	r3, #0
 615 0030 0022     		movs	r2, #0
 616 0032 0021     		movs	r1, #0
 617 0034 FFF7FEFF 		bl	xQueueGenericSend
 618 0038 0346     		mov	r3, r0
 619 003a 012B     		cmp	r3, #1
 620 003c E4D0     		beq	.L37
 433:..\Common\Minimal/IntSemTest.c **** 		{
 434:..\Common\Minimal/IntSemTest.c **** 			xErrorDetected = pdTRUE;
 621              		.loc 1 434 0
 622 003e 034B     		ldr	r3, .L38+4
 623 0040 0122     		movs	r2, #1
 624 0042 1A60     		str	r2, [r3]
 435:..\Common\Minimal/IntSemTest.c **** 		}
 436:..\Common\Minimal/IntSemTest.c **** 	}
 625              		.loc 1 436 0
 626 0044 E0E7     		b	.L37
 627              	.L39:
 628 0046 00BF     		.align	2
 629              	.L38:
 630 0048 18000000 		.word	xMasterSlaveMutex
 631 004c 00000000 		.word	xErrorDetected
 632              		.cfi_endproc
 633              	.LFE72:
 634              		.size	vInterruptMutexSlaveTask, .-vInterruptMutexSlaveTask
 635              		.section	.text.vInterruptCountingSemaphoreTask,"ax",%progbits
 636              		.align	2
 637              		.thumb
 638              		.thumb_func
 639              		.type	vInterruptCountingSemaphoreTask, %function
 640              	vInterruptCountingSemaphoreTask:
 641              	.LFB73:
 437:..\Common\Minimal/IntSemTest.c **** }
 438:..\Common\Minimal/IntSemTest.c **** /*-----------------------------------------------------------*/
 439:..\Common\Minimal/IntSemTest.c **** 
ARM GAS  C:\Users\THUNDE~1\AppData\Local\Temp\ccjMKemp.s 			page 20


 440:..\Common\Minimal/IntSemTest.c **** static void vInterruptCountingSemaphoreTask( void *pvParameters )
 441:..\Common\Minimal/IntSemTest.c **** {
 642              		.loc 1 441 0
 643              		.cfi_startproc
 644              		@ args = 0, pretend = 0, frame = 16
 645              		@ frame_needed = 1, uses_anonymous_args = 0
 646 0000 80B5     		push	{r7, lr}
 647              		.cfi_def_cfa_offset 8
 648              		.cfi_offset 7, -8
 649              		.cfi_offset 14, -4
 650 0002 84B0     		sub	sp, sp, #16
 651              		.cfi_def_cfa_offset 24
 652 0004 00AF     		add	r7, sp, #0
 653              		.cfi_def_cfa_register 7
 654 0006 7860     		str	r0, [r7, #4]
 442:..\Common\Minimal/IntSemTest.c **** BaseType_t xCount;
 443:..\Common\Minimal/IntSemTest.c **** const TickType_t xDelay = pdMS_TO_TICKS( intsemINTERRUPT_MUTEX_GIVE_PERIOD_MS ) * ( intsemMAX_COUNT
 655              		.loc 1 443 0
 656 0008 4FF4C873 		mov	r3, #400
 657 000c BB60     		str	r3, [r7, #8]
 658              	.L47:
 444:..\Common\Minimal/IntSemTest.c **** 
 445:..\Common\Minimal/IntSemTest.c **** 	( void ) pvParameters;
 446:..\Common\Minimal/IntSemTest.c **** 
 447:..\Common\Minimal/IntSemTest.c **** 	for( ;; )
 448:..\Common\Minimal/IntSemTest.c **** 	{
 449:..\Common\Minimal/IntSemTest.c **** 		/* Expect to start with the counting semaphore empty. */
 450:..\Common\Minimal/IntSemTest.c **** 		if( uxQueueMessagesWaiting( ( QueueHandle_t ) xISRCountingSemaphore ) != 0 )
 659              		.loc 1 450 0
 660 000e 344B     		ldr	r3, .L48
 661 0010 1B68     		ldr	r3, [r3]
 662 0012 1846     		mov	r0, r3
 663 0014 FFF7FEFF 		bl	uxQueueMessagesWaiting
 664 0018 0346     		mov	r3, r0
 665 001a 002B     		cmp	r3, #0
 666 001c 02D0     		beq	.L41
 451:..\Common\Minimal/IntSemTest.c **** 		{
 452:..\Common\Minimal/IntSemTest.c **** 			xErrorDetected = pdTRUE;
 667              		.loc 1 452 0
 668 001e 314B     		ldr	r3, .L48+4
 669 0020 0122     		movs	r2, #1
 670 0022 1A60     		str	r2, [r3]
 671              	.L41:
 453:..\Common\Minimal/IntSemTest.c **** 		}
 454:..\Common\Minimal/IntSemTest.c **** 
 455:..\Common\Minimal/IntSemTest.c **** 		/* Wait until it is expected that the interrupt will have filled the
 456:..\Common\Minimal/IntSemTest.c **** 		counting semaphore. */
 457:..\Common\Minimal/IntSemTest.c **** 		xOkToGiveCountingSemaphore = pdTRUE;
 672              		.loc 1 457 0
 673 0024 304B     		ldr	r3, .L48+8
 674 0026 0122     		movs	r2, #1
 675 0028 1A60     		str	r2, [r3]
 458:..\Common\Minimal/IntSemTest.c **** 		vTaskDelay( xDelay );
 676              		.loc 1 458 0
 677 002a B868     		ldr	r0, [r7, #8]
 678 002c FFF7FEFF 		bl	vTaskDelay
 459:..\Common\Minimal/IntSemTest.c **** 		xOkToGiveCountingSemaphore = pdFALSE;
ARM GAS  C:\Users\THUNDE~1\AppData\Local\Temp\ccjMKemp.s 			page 21


 679              		.loc 1 459 0
 680 0030 2D4B     		ldr	r3, .L48+8
 681 0032 0022     		movs	r2, #0
 682 0034 1A60     		str	r2, [r3]
 460:..\Common\Minimal/IntSemTest.c **** 
 461:..\Common\Minimal/IntSemTest.c **** 		/* Now it is expected that the counting semaphore is full. */
 462:..\Common\Minimal/IntSemTest.c **** 		if( uxQueueMessagesWaiting( ( QueueHandle_t ) xISRCountingSemaphore ) != intsemMAX_COUNT )
 683              		.loc 1 462 0
 684 0036 2A4B     		ldr	r3, .L48
 685 0038 1B68     		ldr	r3, [r3]
 686 003a 1846     		mov	r0, r3
 687 003c FFF7FEFF 		bl	uxQueueMessagesWaiting
 688 0040 0346     		mov	r3, r0
 689 0042 032B     		cmp	r3, #3
 690 0044 02D0     		beq	.L42
 463:..\Common\Minimal/IntSemTest.c **** 		{
 464:..\Common\Minimal/IntSemTest.c **** 			xErrorDetected = pdTRUE;
 691              		.loc 1 464 0
 692 0046 274B     		ldr	r3, .L48+4
 693 0048 0122     		movs	r2, #1
 694 004a 1A60     		str	r2, [r3]
 695              	.L42:
 465:..\Common\Minimal/IntSemTest.c **** 		}
 466:..\Common\Minimal/IntSemTest.c **** 
 467:..\Common\Minimal/IntSemTest.c **** 		if( uxQueueSpacesAvailable( ( QueueHandle_t ) xISRCountingSemaphore ) != 0 )
 696              		.loc 1 467 0
 697 004c 244B     		ldr	r3, .L48
 698 004e 1B68     		ldr	r3, [r3]
 699 0050 1846     		mov	r0, r3
 700 0052 FFF7FEFF 		bl	uxQueueSpacesAvailable
 701 0056 0346     		mov	r3, r0
 702 0058 002B     		cmp	r3, #0
 703 005a 02D0     		beq	.L43
 468:..\Common\Minimal/IntSemTest.c **** 		{
 469:..\Common\Minimal/IntSemTest.c **** 			xErrorDetected = pdTRUE;
 704              		.loc 1 469 0
 705 005c 214B     		ldr	r3, .L48+4
 706 005e 0122     		movs	r2, #1
 707 0060 1A60     		str	r2, [r3]
 708              	.L43:
 470:..\Common\Minimal/IntSemTest.c **** 		}
 471:..\Common\Minimal/IntSemTest.c **** 
 472:..\Common\Minimal/IntSemTest.c **** 		ulCountingSemaphoreLoops++;
 709              		.loc 1 472 0
 710 0062 224B     		ldr	r3, .L48+12
 711 0064 1B68     		ldr	r3, [r3]
 712 0066 0133     		adds	r3, r3, #1
 713 0068 204A     		ldr	r2, .L48+12
 714 006a 1360     		str	r3, [r2]
 473:..\Common\Minimal/IntSemTest.c **** 
 474:..\Common\Minimal/IntSemTest.c **** 		/* Expect to be able to take the counting semaphore intsemMAX_COUNT
 475:..\Common\Minimal/IntSemTest.c **** 		times.  A block time of 0 is used as the semaphore should already be
 476:..\Common\Minimal/IntSemTest.c **** 		there. */
 477:..\Common\Minimal/IntSemTest.c **** 		xCount = 0;
 715              		.loc 1 477 0
 716 006c 0023     		movs	r3, #0
 717 006e FB60     		str	r3, [r7, #12]
ARM GAS  C:\Users\THUNDE~1\AppData\Local\Temp\ccjMKemp.s 			page 22


 478:..\Common\Minimal/IntSemTest.c **** 		while( xSemaphoreTake( xISRCountingSemaphore, 0 ) == pdPASS )
 718              		.loc 1 478 0
 719 0070 02E0     		b	.L44
 720              	.L45:
 479:..\Common\Minimal/IntSemTest.c **** 		{
 480:..\Common\Minimal/IntSemTest.c **** 			xCount++;
 721              		.loc 1 480 0
 722 0072 FB68     		ldr	r3, [r7, #12]
 723 0074 0133     		adds	r3, r3, #1
 724 0076 FB60     		str	r3, [r7, #12]
 725              	.L44:
 478:..\Common\Minimal/IntSemTest.c **** 		while( xSemaphoreTake( xISRCountingSemaphore, 0 ) == pdPASS )
 726              		.loc 1 478 0
 727 0078 194B     		ldr	r3, .L48
 728 007a 1868     		ldr	r0, [r3]
 729 007c 0023     		movs	r3, #0
 730 007e 0022     		movs	r2, #0
 731 0080 0021     		movs	r1, #0
 732 0082 FFF7FEFF 		bl	xQueueGenericReceive
 733 0086 0346     		mov	r3, r0
 734 0088 012B     		cmp	r3, #1
 735 008a F2D0     		beq	.L45
 481:..\Common\Minimal/IntSemTest.c **** 		}
 482:..\Common\Minimal/IntSemTest.c **** 
 483:..\Common\Minimal/IntSemTest.c **** 		if( xCount != intsemMAX_COUNT )
 736              		.loc 1 483 0
 737 008c FB68     		ldr	r3, [r7, #12]
 738 008e 032B     		cmp	r3, #3
 739 0090 02D0     		beq	.L46
 484:..\Common\Minimal/IntSemTest.c **** 		{
 485:..\Common\Minimal/IntSemTest.c **** 			xErrorDetected = pdTRUE;
 740              		.loc 1 485 0
 741 0092 144B     		ldr	r3, .L48+4
 742 0094 0122     		movs	r2, #1
 743 0096 1A60     		str	r2, [r3]
 744              	.L46:
 486:..\Common\Minimal/IntSemTest.c **** 		}
 487:..\Common\Minimal/IntSemTest.c **** 
 488:..\Common\Minimal/IntSemTest.c **** 		/* Now raise the priority of this task so it runs immediately that the
 489:..\Common\Minimal/IntSemTest.c **** 		semaphore is given from the interrupt. */
 490:..\Common\Minimal/IntSemTest.c **** 		vTaskPrioritySet( NULL, configMAX_PRIORITIES - 1 );
 745              		.loc 1 490 0
 746 0098 0421     		movs	r1, #4
 747 009a 0020     		movs	r0, #0
 748 009c FFF7FEFF 		bl	vTaskPrioritySet
 491:..\Common\Minimal/IntSemTest.c **** 
 492:..\Common\Minimal/IntSemTest.c **** 		/* Block to wait for the semaphore to be given from the interrupt. */
 493:..\Common\Minimal/IntSemTest.c **** 		xOkToGiveCountingSemaphore = pdTRUE;
 749              		.loc 1 493 0
 750 00a0 114B     		ldr	r3, .L48+8
 751 00a2 0122     		movs	r2, #1
 752 00a4 1A60     		str	r2, [r3]
 494:..\Common\Minimal/IntSemTest.c **** 		xSemaphoreTake( xISRCountingSemaphore, portMAX_DELAY );
 753              		.loc 1 494 0
 754 00a6 0E4B     		ldr	r3, .L48
 755 00a8 1868     		ldr	r0, [r3]
 756 00aa 0023     		movs	r3, #0
ARM GAS  C:\Users\THUNDE~1\AppData\Local\Temp\ccjMKemp.s 			page 23


 757 00ac 4FF0FF32 		mov	r2, #-1
 758 00b0 0021     		movs	r1, #0
 759 00b2 FFF7FEFF 		bl	xQueueGenericReceive
 495:..\Common\Minimal/IntSemTest.c **** 		xSemaphoreTake( xISRCountingSemaphore, portMAX_DELAY );
 760              		.loc 1 495 0
 761 00b6 0A4B     		ldr	r3, .L48
 762 00b8 1868     		ldr	r0, [r3]
 763 00ba 0023     		movs	r3, #0
 764 00bc 4FF0FF32 		mov	r2, #-1
 765 00c0 0021     		movs	r1, #0
 766 00c2 FFF7FEFF 		bl	xQueueGenericReceive
 496:..\Common\Minimal/IntSemTest.c **** 		xOkToGiveCountingSemaphore = pdFALSE;
 767              		.loc 1 496 0
 768 00c6 084B     		ldr	r3, .L48+8
 769 00c8 0022     		movs	r2, #0
 770 00ca 1A60     		str	r2, [r3]
 497:..\Common\Minimal/IntSemTest.c **** 
 498:..\Common\Minimal/IntSemTest.c **** 		/* Reset the priority so as not to disturbe other tests too much. */
 499:..\Common\Minimal/IntSemTest.c **** 		vTaskPrioritySet( NULL, tskIDLE_PRIORITY );
 771              		.loc 1 499 0
 772 00cc 0021     		movs	r1, #0
 773 00ce 0020     		movs	r0, #0
 774 00d0 FFF7FEFF 		bl	vTaskPrioritySet
 500:..\Common\Minimal/IntSemTest.c **** 
 501:..\Common\Minimal/IntSemTest.c **** 		ulCountingSemaphoreLoops++;
 775              		.loc 1 501 0
 776 00d4 054B     		ldr	r3, .L48+12
 777 00d6 1B68     		ldr	r3, [r3]
 778 00d8 0133     		adds	r3, r3, #1
 779 00da 044A     		ldr	r2, .L48+12
 780 00dc 1360     		str	r3, [r2]
 502:..\Common\Minimal/IntSemTest.c **** 	}
 781              		.loc 1 502 0
 782 00de 96E7     		b	.L47
 783              	.L49:
 784              		.align	2
 785              	.L48:
 786 00e0 14000000 		.word	xISRCountingSemaphore
 787 00e4 00000000 		.word	xErrorDetected
 788 00e8 20000000 		.word	xOkToGiveCountingSemaphore
 789 00ec 08000000 		.word	ulCountingSemaphoreLoops
 790              		.cfi_endproc
 791              	.LFE73:
 792              		.size	vInterruptCountingSemaphoreTask, .-vInterruptCountingSemaphoreTask
 793              		.section	.text.vInterruptSemaphorePeriodicTest,"ax",%progbits
 794              		.align	2
 795              		.global	vInterruptSemaphorePeriodicTest
 796              		.thumb
 797              		.thumb_func
 798              		.type	vInterruptSemaphorePeriodicTest, %function
 799              	vInterruptSemaphorePeriodicTest:
 800              	.LFB74:
 503:..\Common\Minimal/IntSemTest.c **** }
 504:..\Common\Minimal/IntSemTest.c **** /*-----------------------------------------------------------*/
 505:..\Common\Minimal/IntSemTest.c **** 
 506:..\Common\Minimal/IntSemTest.c **** void vInterruptSemaphorePeriodicTest( void )
 507:..\Common\Minimal/IntSemTest.c **** {
ARM GAS  C:\Users\THUNDE~1\AppData\Local\Temp\ccjMKemp.s 			page 24


 801              		.loc 1 507 0
 802              		.cfi_startproc
 803              		@ args = 0, pretend = 0, frame = 8
 804              		@ frame_needed = 1, uses_anonymous_args = 0
 805 0000 80B5     		push	{r7, lr}
 806              		.cfi_def_cfa_offset 8
 807              		.cfi_offset 7, -8
 808              		.cfi_offset 14, -4
 809 0002 82B0     		sub	sp, sp, #8
 810              		.cfi_def_cfa_offset 16
 811 0004 00AF     		add	r7, sp, #0
 812              		.cfi_def_cfa_register 7
 508:..\Common\Minimal/IntSemTest.c **** static TickType_t xLastGiveTime = 0;
 509:..\Common\Minimal/IntSemTest.c **** BaseType_t xHigherPriorityTaskWoken = pdFALSE;
 813              		.loc 1 509 0
 814 0006 0023     		movs	r3, #0
 815 0008 3B60     		str	r3, [r7]
 510:..\Common\Minimal/IntSemTest.c **** TickType_t xTimeNow;
 511:..\Common\Minimal/IntSemTest.c **** 
 512:..\Common\Minimal/IntSemTest.c **** 	/* No mutual exclusion on xOkToGiveMutex, but this is only test code (and
 513:..\Common\Minimal/IntSemTest.c **** 	only executed on a 32-bit architecture) so ignore that in this case. */
 514:..\Common\Minimal/IntSemTest.c **** 	xTimeNow = xTaskGetTickCountFromISR();
 816              		.loc 1 514 0
 817 000a FFF7FEFF 		bl	xTaskGetTickCountFromISR
 818 000e 7860     		str	r0, [r7, #4]
 515:..\Common\Minimal/IntSemTest.c **** 	if( ( ( TickType_t ) ( xTimeNow - xLastGiveTime ) ) >= pdMS_TO_TICKS( intsemINTERRUPT_MUTEX_GIVE_P
 819              		.loc 1 515 0
 820 0010 104B     		ldr	r3, .L55
 821 0012 1B68     		ldr	r3, [r3]
 822 0014 7A68     		ldr	r2, [r7, #4]
 823 0016 D31A     		subs	r3, r2, r3
 824 0018 632B     		cmp	r3, #99
 825 001a 17D9     		bls	.L54
 516:..\Common\Minimal/IntSemTest.c **** 	{
 517:..\Common\Minimal/IntSemTest.c **** 		configASSERT( xISRMutex );
 518:..\Common\Minimal/IntSemTest.c **** 		if( xOkToGiveMutex != pdFALSE )
 826              		.loc 1 518 0
 827 001c 0E4B     		ldr	r3, .L55+4
 828 001e 1B68     		ldr	r3, [r3]
 829 0020 002B     		cmp	r3, #0
 830 0022 05D0     		beq	.L52
 519:..\Common\Minimal/IntSemTest.c **** 		{
 520:..\Common\Minimal/IntSemTest.c **** 			/* Null is used as the second parameter in this give, and non-NULL
 521:..\Common\Minimal/IntSemTest.c **** 			in the other gives for code coverage reasons. */
 522:..\Common\Minimal/IntSemTest.c **** 			xSemaphoreGiveFromISR( xISRMutex, NULL );
 831              		.loc 1 522 0
 832 0024 0D4B     		ldr	r3, .L55+8
 833 0026 1B68     		ldr	r3, [r3]
 834 0028 0021     		movs	r1, #0
 835 002a 1846     		mov	r0, r3
 836 002c FFF7FEFF 		bl	xQueueGiveFromISR
 837              	.L52:
 523:..\Common\Minimal/IntSemTest.c **** 
 524:..\Common\Minimal/IntSemTest.c **** 			/* Second give attempt should fail. */
 525:..\Common\Minimal/IntSemTest.c **** 			configASSERT( xSemaphoreGiveFromISR( xISRMutex, &xHigherPriorityTaskWoken ) == pdFAIL );
 526:..\Common\Minimal/IntSemTest.c **** 		}
 527:..\Common\Minimal/IntSemTest.c **** 
ARM GAS  C:\Users\THUNDE~1\AppData\Local\Temp\ccjMKemp.s 			page 25


 528:..\Common\Minimal/IntSemTest.c **** 		if( xOkToGiveCountingSemaphore != pdFALSE )
 838              		.loc 1 528 0
 839 0030 0B4B     		ldr	r3, .L55+12
 840 0032 1B68     		ldr	r3, [r3]
 841 0034 002B     		cmp	r3, #0
 842 0036 06D0     		beq	.L53
 529:..\Common\Minimal/IntSemTest.c **** 		{
 530:..\Common\Minimal/IntSemTest.c **** 			xSemaphoreGiveFromISR( xISRCountingSemaphore, &xHigherPriorityTaskWoken );
 843              		.loc 1 530 0
 844 0038 0A4B     		ldr	r3, .L55+16
 845 003a 1B68     		ldr	r3, [r3]
 846 003c 3A46     		mov	r2, r7
 847 003e 1146     		mov	r1, r2
 848 0040 1846     		mov	r0, r3
 849 0042 FFF7FEFF 		bl	xQueueGiveFromISR
 850              	.L53:
 531:..\Common\Minimal/IntSemTest.c **** 		}
 532:..\Common\Minimal/IntSemTest.c **** 		xLastGiveTime = xTimeNow;
 851              		.loc 1 532 0
 852 0046 034A     		ldr	r2, .L55
 853 0048 7B68     		ldr	r3, [r7, #4]
 854 004a 1360     		str	r3, [r2]
 855              	.L54:
 533:..\Common\Minimal/IntSemTest.c **** 	}
 534:..\Common\Minimal/IntSemTest.c **** 
 535:..\Common\Minimal/IntSemTest.c **** 	/* Remove compiler warnings about the value being set but not used. */
 536:..\Common\Minimal/IntSemTest.c **** 	( void ) xHigherPriorityTaskWoken;
 537:..\Common\Minimal/IntSemTest.c **** }
 856              		.loc 1 537 0
 857 004c 00BF     		nop
 858 004e 0837     		adds	r7, r7, #8
 859              		.cfi_def_cfa_offset 8
 860 0050 BD46     		mov	sp, r7
 861              		.cfi_def_cfa_register 13
 862              		@ sp needed
 863 0052 80BD     		pop	{r7, pc}
 864              	.L56:
 865              		.align	2
 866              	.L55:
 867 0054 24000000 		.word	xLastGiveTime.7583
 868 0058 1C000000 		.word	xOkToGiveMutex
 869 005c 10000000 		.word	xISRMutex
 870 0060 20000000 		.word	xOkToGiveCountingSemaphore
 871 0064 14000000 		.word	xISRCountingSemaphore
 872              		.cfi_endproc
 873              	.LFE74:
 874              		.size	vInterruptSemaphorePeriodicTest, .-vInterruptSemaphorePeriodicTest
 875              		.section	.text.xAreInterruptSemaphoreTasksStillRunning,"ax",%progbits
 876              		.align	2
 877              		.global	xAreInterruptSemaphoreTasksStillRunning
 878              		.thumb
 879              		.thumb_func
 880              		.type	xAreInterruptSemaphoreTasksStillRunning, %function
 881              	xAreInterruptSemaphoreTasksStillRunning:
 882              	.LFB75:
 538:..\Common\Minimal/IntSemTest.c **** /*-----------------------------------------------------------*/
 539:..\Common\Minimal/IntSemTest.c **** 
ARM GAS  C:\Users\THUNDE~1\AppData\Local\Temp\ccjMKemp.s 			page 26


 540:..\Common\Minimal/IntSemTest.c **** /* This is called to check that all the created tasks are still running. */
 541:..\Common\Minimal/IntSemTest.c **** BaseType_t xAreInterruptSemaphoreTasksStillRunning( void )
 542:..\Common\Minimal/IntSemTest.c **** {
 883              		.loc 1 542 0
 884              		.cfi_startproc
 885              		@ args = 0, pretend = 0, frame = 0
 886              		@ frame_needed = 1, uses_anonymous_args = 0
 887              		@ link register save eliminated.
 888 0000 80B4     		push	{r7}
 889              		.cfi_def_cfa_offset 4
 890              		.cfi_offset 7, -4
 891 0002 00AF     		add	r7, sp, #0
 892              		.cfi_def_cfa_register 7
 543:..\Common\Minimal/IntSemTest.c **** static uint32_t ulLastMasterLoopCounter = 0, ulLastCountingSemaphoreLoops = 0;
 544:..\Common\Minimal/IntSemTest.c **** 
 545:..\Common\Minimal/IntSemTest.c **** 	/* If the demo tasks are running then it is expected that the loop counters
 546:..\Common\Minimal/IntSemTest.c **** 	will have changed since this function was last called. */
 547:..\Common\Minimal/IntSemTest.c **** 	if( ulLastMasterLoopCounter == ulMasterLoops )
 893              		.loc 1 547 0
 894 0004 134B     		ldr	r3, .L61
 895 0006 1A68     		ldr	r2, [r3]
 896 0008 134B     		ldr	r3, .L61+4
 897 000a 1B68     		ldr	r3, [r3]
 898 000c 9A42     		cmp	r2, r3
 899 000e 02D1     		bne	.L58
 548:..\Common\Minimal/IntSemTest.c **** 	{
 549:..\Common\Minimal/IntSemTest.c **** 		xErrorDetected = pdTRUE;
 900              		.loc 1 549 0
 901 0010 124B     		ldr	r3, .L61+8
 902 0012 0122     		movs	r2, #1
 903 0014 1A60     		str	r2, [r3]
 904              	.L58:
 550:..\Common\Minimal/IntSemTest.c **** 	}
 551:..\Common\Minimal/IntSemTest.c **** 
 552:..\Common\Minimal/IntSemTest.c **** 	ulLastMasterLoopCounter = ulMasterLoops;
 905              		.loc 1 552 0
 906 0016 104B     		ldr	r3, .L61+4
 907 0018 1B68     		ldr	r3, [r3]
 908 001a 0E4A     		ldr	r2, .L61
 909 001c 1360     		str	r3, [r2]
 553:..\Common\Minimal/IntSemTest.c **** 
 554:..\Common\Minimal/IntSemTest.c **** 	if( ulLastCountingSemaphoreLoops == ulCountingSemaphoreLoops )
 910              		.loc 1 554 0
 911 001e 104B     		ldr	r3, .L61+12
 912 0020 1A68     		ldr	r2, [r3]
 913 0022 104B     		ldr	r3, .L61+16
 914 0024 1B68     		ldr	r3, [r3]
 915 0026 9A42     		cmp	r2, r3
 916 0028 02D1     		bne	.L59
 555:..\Common\Minimal/IntSemTest.c **** 	{
 556:..\Common\Minimal/IntSemTest.c **** 		xErrorDetected = pdTRUE;
 917              		.loc 1 556 0
 918 002a 0C4B     		ldr	r3, .L61+8
 919 002c 0122     		movs	r2, #1
 920 002e 1A60     		str	r2, [r3]
 921              	.L59:
 557:..\Common\Minimal/IntSemTest.c **** 	}
ARM GAS  C:\Users\THUNDE~1\AppData\Local\Temp\ccjMKemp.s 			page 27


 558:..\Common\Minimal/IntSemTest.c **** 
 559:..\Common\Minimal/IntSemTest.c **** 	ulLastCountingSemaphoreLoops = ulCountingSemaphoreLoops++;
 922              		.loc 1 559 0
 923 0030 0C4B     		ldr	r3, .L61+16
 924 0032 1B68     		ldr	r3, [r3]
 925 0034 5A1C     		adds	r2, r3, #1
 926 0036 0B49     		ldr	r1, .L61+16
 927 0038 0A60     		str	r2, [r1]
 928 003a 094A     		ldr	r2, .L61+12
 929 003c 1360     		str	r3, [r2]
 560:..\Common\Minimal/IntSemTest.c **** 
 561:..\Common\Minimal/IntSemTest.c **** 	/* Errors detected in the task itself will have latched xErrorDetected
 562:..\Common\Minimal/IntSemTest.c **** 	to true. */
 563:..\Common\Minimal/IntSemTest.c **** 
 564:..\Common\Minimal/IntSemTest.c **** 	return ( BaseType_t ) !xErrorDetected;
 930              		.loc 1 564 0
 931 003e 074B     		ldr	r3, .L61+8
 932 0040 1B68     		ldr	r3, [r3]
 933 0042 002B     		cmp	r3, #0
 934 0044 0CBF     		ite	eq
 935 0046 0123     		moveq	r3, #1
 936 0048 0023     		movne	r3, #0
 937 004a DBB2     		uxtb	r3, r3
 565:..\Common\Minimal/IntSemTest.c **** }
 938              		.loc 1 565 0
 939 004c 1846     		mov	r0, r3
 940 004e BD46     		mov	sp, r7
 941              		.cfi_def_cfa_register 13
 942              		@ sp needed
 943 0050 80BC     		pop	{r7}
 944              		.cfi_restore 7
 945              		.cfi_def_cfa_offset 0
 946 0052 7047     		bx	lr
 947              	.L62:
 948              		.align	2
 949              	.L61:
 950 0054 28000000 		.word	ulLastMasterLoopCounter.7589
 951 0058 04000000 		.word	ulMasterLoops
 952 005c 00000000 		.word	xErrorDetected
 953 0060 2C000000 		.word	ulLastCountingSemaphoreLoops.7590
 954 0064 08000000 		.word	ulCountingSemaphoreLoops
 955              		.cfi_endproc
 956              	.LFE75:
 957              		.size	xAreInterruptSemaphoreTasksStillRunning, .-xAreInterruptSemaphoreTasksStillRunning
 958              		.bss
 959              		.align	2
 960              	xLastGiveTime.7583:
 961 0024 00000000 		.space	4
 962              		.align	2
 963              	ulLastMasterLoopCounter.7589:
 964 0028 00000000 		.space	4
 965              		.align	2
 966              	ulLastCountingSemaphoreLoops.7590:
 967 002c 00000000 		.space	4
 968              		.text
 969              	.Letext0:
 970              		.file 2 "c:\\program files (x86)\\cypress\\psoc creator\\4.2\\psoc creator\\import\\gnu\\arm\\5.4.
ARM GAS  C:\Users\THUNDE~1\AppData\Local\Temp\ccjMKemp.s 			page 28


 971              		.file 3 "c:\\program files (x86)\\cypress\\psoc creator\\4.2\\psoc creator\\import\\gnu\\arm\\5.4.
 972              		.file 4 ".\\Tracer/sniffPayload.h"
 973              		.file 5 ".\\Tracer/selfFIFO.h"
 974              		.file 6 "..\\Source\\portable\\GCC\\ARM_CM3/portmacro.h"
 975              		.file 7 "..\\Source\\include/task.h"
 976              		.file 8 "..\\Source\\include/queue.h"
 977              		.file 9 "..\\Source\\include/semphr.h"
 978              		.file 10 "Generated_Source\\PSoC5/core_cm3.h"
 979              		.file 11 ".\\Tracer/sniffTask.h"