ARM GAS  C:\Users\THUNDE~1\AppData\Local\Temp\ccYHD4WS.s 			page 1


   1              		.syntax unified
   2              		.cpu cortex-m3
   3              		.fpu softvfp
   4              		.eabi_attribute 20, 1
   5              		.eabi_attribute 21, 1
   6              		.eabi_attribute 23, 3
   7              		.eabi_attribute 24, 1
   8              		.eabi_attribute 25, 1
   9              		.eabi_attribute 26, 1
  10              		.eabi_attribute 30, 6
  11              		.eabi_attribute 34, 1
  12              		.eabi_attribute 18, 4
  13              		.thumb
  14              		.syntax unified
  15              		.file	"isr_High_Frequency_2000Hz.c"
  16              		.text
  17              	.Ltext0:
  18              		.cfi_sections	.debug_frame
  19              		.section	.text.isr_High_Frequency_2000Hz_Start,"ax",%progbits
  20              		.align	2
  21              		.global	isr_High_Frequency_2000Hz_Start
  22              		.thumb
  23              		.thumb_func
  24              		.type	isr_High_Frequency_2000Hz_Start, %function
  25              	isr_High_Frequency_2000Hz_Start:
  26              	.LFB0:
  27              		.file 1 "Generated_Source\\PSoC5\\isr_High_Frequency_2000Hz.c"
   1:Generated_Source\PSoC5/isr_High_Frequency_2000Hz.c **** /*******************************************************************************
   2:Generated_Source\PSoC5/isr_High_Frequency_2000Hz.c **** * File Name: isr_High_Frequency_2000Hz.c  
   3:Generated_Source\PSoC5/isr_High_Frequency_2000Hz.c **** * Version 1.70
   4:Generated_Source\PSoC5/isr_High_Frequency_2000Hz.c **** *
   5:Generated_Source\PSoC5/isr_High_Frequency_2000Hz.c **** *  Description:
   6:Generated_Source\PSoC5/isr_High_Frequency_2000Hz.c **** *   API for controlling the state of an interrupt.
   7:Generated_Source\PSoC5/isr_High_Frequency_2000Hz.c **** *
   8:Generated_Source\PSoC5/isr_High_Frequency_2000Hz.c **** *
   9:Generated_Source\PSoC5/isr_High_Frequency_2000Hz.c **** *  Note:
  10:Generated_Source\PSoC5/isr_High_Frequency_2000Hz.c **** *
  11:Generated_Source\PSoC5/isr_High_Frequency_2000Hz.c **** ********************************************************************************
  12:Generated_Source\PSoC5/isr_High_Frequency_2000Hz.c **** * Copyright 2008-2015, Cypress Semiconductor Corporation.  All rights reserved.
  13:Generated_Source\PSoC5/isr_High_Frequency_2000Hz.c **** * You may use this file only in accordance with the license, terms, conditions, 
  14:Generated_Source\PSoC5/isr_High_Frequency_2000Hz.c **** * disclaimers, and limitations in the end user license agreement accompanying 
  15:Generated_Source\PSoC5/isr_High_Frequency_2000Hz.c **** * the software package with which this file was provided.
  16:Generated_Source\PSoC5/isr_High_Frequency_2000Hz.c **** *******************************************************************************/
  17:Generated_Source\PSoC5/isr_High_Frequency_2000Hz.c **** 
  18:Generated_Source\PSoC5/isr_High_Frequency_2000Hz.c **** 
  19:Generated_Source\PSoC5/isr_High_Frequency_2000Hz.c **** #include <cydevice_trm.h>
  20:Generated_Source\PSoC5/isr_High_Frequency_2000Hz.c **** #include <CyLib.h>
  21:Generated_Source\PSoC5/isr_High_Frequency_2000Hz.c **** #include <isr_High_Frequency_2000Hz.h>
  22:Generated_Source\PSoC5/isr_High_Frequency_2000Hz.c **** 
  23:Generated_Source\PSoC5/isr_High_Frequency_2000Hz.c **** 
  24:Generated_Source\PSoC5/isr_High_Frequency_2000Hz.c **** #if !defined(isr_High_Frequency_2000Hz__REMOVED) /* Check for removal by optimization */
  25:Generated_Source\PSoC5/isr_High_Frequency_2000Hz.c **** 
  26:Generated_Source\PSoC5/isr_High_Frequency_2000Hz.c **** /*******************************************************************************
  27:Generated_Source\PSoC5/isr_High_Frequency_2000Hz.c **** *  Place your includes, defines and code here 
  28:Generated_Source\PSoC5/isr_High_Frequency_2000Hz.c **** ********************************************************************************/
  29:Generated_Source\PSoC5/isr_High_Frequency_2000Hz.c **** /* `#START isr_High_Frequency_2000Hz_intc` */
  30:Generated_Source\PSoC5/isr_High_Frequency_2000Hz.c **** 
ARM GAS  C:\Users\THUNDE~1\AppData\Local\Temp\ccYHD4WS.s 			page 2


  31:Generated_Source\PSoC5/isr_High_Frequency_2000Hz.c **** /* `#END` */
  32:Generated_Source\PSoC5/isr_High_Frequency_2000Hz.c **** 
  33:Generated_Source\PSoC5/isr_High_Frequency_2000Hz.c **** #ifndef CYINT_IRQ_BASE
  34:Generated_Source\PSoC5/isr_High_Frequency_2000Hz.c **** #define CYINT_IRQ_BASE      16
  35:Generated_Source\PSoC5/isr_High_Frequency_2000Hz.c **** #endif /* CYINT_IRQ_BASE */
  36:Generated_Source\PSoC5/isr_High_Frequency_2000Hz.c **** #ifndef CYINT_VECT_TABLE
  37:Generated_Source\PSoC5/isr_High_Frequency_2000Hz.c **** #define CYINT_VECT_TABLE    ((cyisraddress **) CYREG_NVIC_VECT_OFFSET)
  38:Generated_Source\PSoC5/isr_High_Frequency_2000Hz.c **** #endif /* CYINT_VECT_TABLE */
  39:Generated_Source\PSoC5/isr_High_Frequency_2000Hz.c **** 
  40:Generated_Source\PSoC5/isr_High_Frequency_2000Hz.c **** /* Declared in startup, used to set unused interrupts to. */
  41:Generated_Source\PSoC5/isr_High_Frequency_2000Hz.c **** CY_ISR_PROTO(IntDefaultHandler);
  42:Generated_Source\PSoC5/isr_High_Frequency_2000Hz.c **** 
  43:Generated_Source\PSoC5/isr_High_Frequency_2000Hz.c **** 
  44:Generated_Source\PSoC5/isr_High_Frequency_2000Hz.c **** /*******************************************************************************
  45:Generated_Source\PSoC5/isr_High_Frequency_2000Hz.c **** * Function Name: isr_High_Frequency_2000Hz_Start
  46:Generated_Source\PSoC5/isr_High_Frequency_2000Hz.c **** ********************************************************************************
  47:Generated_Source\PSoC5/isr_High_Frequency_2000Hz.c **** *
  48:Generated_Source\PSoC5/isr_High_Frequency_2000Hz.c **** * Summary:
  49:Generated_Source\PSoC5/isr_High_Frequency_2000Hz.c **** *  Set up the interrupt and enable it. This function disables the interrupt, 
  50:Generated_Source\PSoC5/isr_High_Frequency_2000Hz.c **** *  sets the default interrupt vector, sets the priority from the value in the
  51:Generated_Source\PSoC5/isr_High_Frequency_2000Hz.c **** *  Design Wide Resources Interrupt Editor, then enables the interrupt to the 
  52:Generated_Source\PSoC5/isr_High_Frequency_2000Hz.c **** *  interrupt controller.
  53:Generated_Source\PSoC5/isr_High_Frequency_2000Hz.c **** *
  54:Generated_Source\PSoC5/isr_High_Frequency_2000Hz.c **** * Parameters:  
  55:Generated_Source\PSoC5/isr_High_Frequency_2000Hz.c **** *   None
  56:Generated_Source\PSoC5/isr_High_Frequency_2000Hz.c **** *
  57:Generated_Source\PSoC5/isr_High_Frequency_2000Hz.c **** * Return:
  58:Generated_Source\PSoC5/isr_High_Frequency_2000Hz.c **** *   None
  59:Generated_Source\PSoC5/isr_High_Frequency_2000Hz.c **** *
  60:Generated_Source\PSoC5/isr_High_Frequency_2000Hz.c **** *******************************************************************************/
  61:Generated_Source\PSoC5/isr_High_Frequency_2000Hz.c **** void isr_High_Frequency_2000Hz_Start(void)
  62:Generated_Source\PSoC5/isr_High_Frequency_2000Hz.c **** {
  28              		.loc 1 62 0
  29              		.cfi_startproc
  30              		@ args = 0, pretend = 0, frame = 0
  31              		@ frame_needed = 1, uses_anonymous_args = 0
  32 0000 80B5     		push	{r7, lr}
  33              		.cfi_def_cfa_offset 8
  34              		.cfi_offset 7, -8
  35              		.cfi_offset 14, -4
  36 0002 00AF     		add	r7, sp, #0
  37              		.cfi_def_cfa_register 7
  63:Generated_Source\PSoC5/isr_High_Frequency_2000Hz.c ****     /* For all we know the interrupt is active. */
  64:Generated_Source\PSoC5/isr_High_Frequency_2000Hz.c ****     isr_High_Frequency_2000Hz_Disable();
  38              		.loc 1 64 0
  39 0004 FFF7FEFF 		bl	isr_High_Frequency_2000Hz_Disable
  65:Generated_Source\PSoC5/isr_High_Frequency_2000Hz.c **** 
  66:Generated_Source\PSoC5/isr_High_Frequency_2000Hz.c ****     /* Set the ISR to point to the isr_High_Frequency_2000Hz Interrupt. */
  67:Generated_Source\PSoC5/isr_High_Frequency_2000Hz.c ****     isr_High_Frequency_2000Hz_SetVector(&isr_High_Frequency_2000Hz_Interrupt);
  40              		.loc 1 67 0
  41 0008 0448     		ldr	r0, .L2
  42 000a FFF7FEFF 		bl	isr_High_Frequency_2000Hz_SetVector
  68:Generated_Source\PSoC5/isr_High_Frequency_2000Hz.c **** 
  69:Generated_Source\PSoC5/isr_High_Frequency_2000Hz.c ****     /* Set the priority. */
  70:Generated_Source\PSoC5/isr_High_Frequency_2000Hz.c ****     isr_High_Frequency_2000Hz_SetPriority((uint8)isr_High_Frequency_2000Hz_INTC_PRIOR_NUMBER);
  43              		.loc 1 70 0
  44 000e 0620     		movs	r0, #6
ARM GAS  C:\Users\THUNDE~1\AppData\Local\Temp\ccYHD4WS.s 			page 3


  45 0010 FFF7FEFF 		bl	isr_High_Frequency_2000Hz_SetPriority
  71:Generated_Source\PSoC5/isr_High_Frequency_2000Hz.c **** 
  72:Generated_Source\PSoC5/isr_High_Frequency_2000Hz.c ****     /* Enable it. */
  73:Generated_Source\PSoC5/isr_High_Frequency_2000Hz.c ****     isr_High_Frequency_2000Hz_Enable();
  46              		.loc 1 73 0
  47 0014 FFF7FEFF 		bl	isr_High_Frequency_2000Hz_Enable
  74:Generated_Source\PSoC5/isr_High_Frequency_2000Hz.c **** }
  48              		.loc 1 74 0
  49 0018 00BF     		nop
  50 001a 80BD     		pop	{r7, pc}
  51              	.L3:
  52              		.align	2
  53              	.L2:
  54 001c 00000000 		.word	isr_High_Frequency_2000Hz_Interrupt
  55              		.cfi_endproc
  56              	.LFE0:
  57              		.size	isr_High_Frequency_2000Hz_Start, .-isr_High_Frequency_2000Hz_Start
  58              		.section	.text.isr_High_Frequency_2000Hz_StartEx,"ax",%progbits
  59              		.align	2
  60              		.global	isr_High_Frequency_2000Hz_StartEx
  61              		.thumb
  62              		.thumb_func
  63              		.type	isr_High_Frequency_2000Hz_StartEx, %function
  64              	isr_High_Frequency_2000Hz_StartEx:
  65              	.LFB1:
  75:Generated_Source\PSoC5/isr_High_Frequency_2000Hz.c **** 
  76:Generated_Source\PSoC5/isr_High_Frequency_2000Hz.c **** 
  77:Generated_Source\PSoC5/isr_High_Frequency_2000Hz.c **** /*******************************************************************************
  78:Generated_Source\PSoC5/isr_High_Frequency_2000Hz.c **** * Function Name: isr_High_Frequency_2000Hz_StartEx
  79:Generated_Source\PSoC5/isr_High_Frequency_2000Hz.c **** ********************************************************************************
  80:Generated_Source\PSoC5/isr_High_Frequency_2000Hz.c **** *
  81:Generated_Source\PSoC5/isr_High_Frequency_2000Hz.c **** * Summary:
  82:Generated_Source\PSoC5/isr_High_Frequency_2000Hz.c **** *  Sets up the interrupt and enables it. This function disables the interrupt,
  83:Generated_Source\PSoC5/isr_High_Frequency_2000Hz.c **** *  sets the interrupt vector based on the address passed in, sets the priority 
  84:Generated_Source\PSoC5/isr_High_Frequency_2000Hz.c **** *  from the value in the Design Wide Resources Interrupt Editor, then enables 
  85:Generated_Source\PSoC5/isr_High_Frequency_2000Hz.c **** *  the interrupt to the interrupt controller.
  86:Generated_Source\PSoC5/isr_High_Frequency_2000Hz.c **** *  
  87:Generated_Source\PSoC5/isr_High_Frequency_2000Hz.c **** *  When defining ISR functions, the CY_ISR and CY_ISR_PROTO macros should be 
  88:Generated_Source\PSoC5/isr_High_Frequency_2000Hz.c **** *  used to provide consistent definition across compilers:
  89:Generated_Source\PSoC5/isr_High_Frequency_2000Hz.c **** *  
  90:Generated_Source\PSoC5/isr_High_Frequency_2000Hz.c **** *  Function definition example:
  91:Generated_Source\PSoC5/isr_High_Frequency_2000Hz.c **** *   CY_ISR(MyISR)
  92:Generated_Source\PSoC5/isr_High_Frequency_2000Hz.c **** *   {
  93:Generated_Source\PSoC5/isr_High_Frequency_2000Hz.c **** *   }
  94:Generated_Source\PSoC5/isr_High_Frequency_2000Hz.c **** *   Function prototype example:
  95:Generated_Source\PSoC5/isr_High_Frequency_2000Hz.c **** *   CY_ISR_PROTO(MyISR);
  96:Generated_Source\PSoC5/isr_High_Frequency_2000Hz.c **** *
  97:Generated_Source\PSoC5/isr_High_Frequency_2000Hz.c **** * Parameters:  
  98:Generated_Source\PSoC5/isr_High_Frequency_2000Hz.c **** *   address: Address of the ISR to set in the interrupt vector table.
  99:Generated_Source\PSoC5/isr_High_Frequency_2000Hz.c **** *
 100:Generated_Source\PSoC5/isr_High_Frequency_2000Hz.c **** * Return:
 101:Generated_Source\PSoC5/isr_High_Frequency_2000Hz.c **** *   None
 102:Generated_Source\PSoC5/isr_High_Frequency_2000Hz.c **** *
 103:Generated_Source\PSoC5/isr_High_Frequency_2000Hz.c **** *******************************************************************************/
 104:Generated_Source\PSoC5/isr_High_Frequency_2000Hz.c **** void isr_High_Frequency_2000Hz_StartEx(cyisraddress address)
 105:Generated_Source\PSoC5/isr_High_Frequency_2000Hz.c **** {
  66              		.loc 1 105 0
ARM GAS  C:\Users\THUNDE~1\AppData\Local\Temp\ccYHD4WS.s 			page 4


  67              		.cfi_startproc
  68              		@ args = 0, pretend = 0, frame = 8
  69              		@ frame_needed = 1, uses_anonymous_args = 0
  70 0000 80B5     		push	{r7, lr}
  71              		.cfi_def_cfa_offset 8
  72              		.cfi_offset 7, -8
  73              		.cfi_offset 14, -4
  74 0002 82B0     		sub	sp, sp, #8
  75              		.cfi_def_cfa_offset 16
  76 0004 00AF     		add	r7, sp, #0
  77              		.cfi_def_cfa_register 7
  78 0006 7860     		str	r0, [r7, #4]
 106:Generated_Source\PSoC5/isr_High_Frequency_2000Hz.c ****     /* For all we know the interrupt is active. */
 107:Generated_Source\PSoC5/isr_High_Frequency_2000Hz.c ****     isr_High_Frequency_2000Hz_Disable();
  79              		.loc 1 107 0
  80 0008 FFF7FEFF 		bl	isr_High_Frequency_2000Hz_Disable
 108:Generated_Source\PSoC5/isr_High_Frequency_2000Hz.c **** 
 109:Generated_Source\PSoC5/isr_High_Frequency_2000Hz.c ****     /* Set the ISR to point to the isr_High_Frequency_2000Hz Interrupt. */
 110:Generated_Source\PSoC5/isr_High_Frequency_2000Hz.c ****     isr_High_Frequency_2000Hz_SetVector(address);
  81              		.loc 1 110 0
  82 000c 7868     		ldr	r0, [r7, #4]
  83 000e FFF7FEFF 		bl	isr_High_Frequency_2000Hz_SetVector
 111:Generated_Source\PSoC5/isr_High_Frequency_2000Hz.c **** 
 112:Generated_Source\PSoC5/isr_High_Frequency_2000Hz.c ****     /* Set the priority. */
 113:Generated_Source\PSoC5/isr_High_Frequency_2000Hz.c ****     isr_High_Frequency_2000Hz_SetPriority((uint8)isr_High_Frequency_2000Hz_INTC_PRIOR_NUMBER);
  84              		.loc 1 113 0
  85 0012 0620     		movs	r0, #6
  86 0014 FFF7FEFF 		bl	isr_High_Frequency_2000Hz_SetPriority
 114:Generated_Source\PSoC5/isr_High_Frequency_2000Hz.c **** 
 115:Generated_Source\PSoC5/isr_High_Frequency_2000Hz.c ****     /* Enable it. */
 116:Generated_Source\PSoC5/isr_High_Frequency_2000Hz.c ****     isr_High_Frequency_2000Hz_Enable();
  87              		.loc 1 116 0
  88 0018 FFF7FEFF 		bl	isr_High_Frequency_2000Hz_Enable
 117:Generated_Source\PSoC5/isr_High_Frequency_2000Hz.c **** }
  89              		.loc 1 117 0
  90 001c 00BF     		nop
  91 001e 0837     		adds	r7, r7, #8
  92              		.cfi_def_cfa_offset 8
  93 0020 BD46     		mov	sp, r7
  94              		.cfi_def_cfa_register 13
  95              		@ sp needed
  96 0022 80BD     		pop	{r7, pc}
  97              		.cfi_endproc
  98              	.LFE1:
  99              		.size	isr_High_Frequency_2000Hz_StartEx, .-isr_High_Frequency_2000Hz_StartEx
 100              		.section	.text.isr_High_Frequency_2000Hz_Stop,"ax",%progbits
 101              		.align	2
 102              		.global	isr_High_Frequency_2000Hz_Stop
 103              		.thumb
 104              		.thumb_func
 105              		.type	isr_High_Frequency_2000Hz_Stop, %function
 106              	isr_High_Frequency_2000Hz_Stop:
 107              	.LFB2:
 118:Generated_Source\PSoC5/isr_High_Frequency_2000Hz.c **** 
 119:Generated_Source\PSoC5/isr_High_Frequency_2000Hz.c **** 
 120:Generated_Source\PSoC5/isr_High_Frequency_2000Hz.c **** /*******************************************************************************
 121:Generated_Source\PSoC5/isr_High_Frequency_2000Hz.c **** * Function Name: isr_High_Frequency_2000Hz_Stop
ARM GAS  C:\Users\THUNDE~1\AppData\Local\Temp\ccYHD4WS.s 			page 5


 122:Generated_Source\PSoC5/isr_High_Frequency_2000Hz.c **** ********************************************************************************
 123:Generated_Source\PSoC5/isr_High_Frequency_2000Hz.c **** *
 124:Generated_Source\PSoC5/isr_High_Frequency_2000Hz.c **** * Summary:
 125:Generated_Source\PSoC5/isr_High_Frequency_2000Hz.c **** *   Disables and removes the interrupt.
 126:Generated_Source\PSoC5/isr_High_Frequency_2000Hz.c **** *
 127:Generated_Source\PSoC5/isr_High_Frequency_2000Hz.c **** * Parameters:  
 128:Generated_Source\PSoC5/isr_High_Frequency_2000Hz.c **** *   None
 129:Generated_Source\PSoC5/isr_High_Frequency_2000Hz.c **** *
 130:Generated_Source\PSoC5/isr_High_Frequency_2000Hz.c **** * Return:
 131:Generated_Source\PSoC5/isr_High_Frequency_2000Hz.c **** *   None
 132:Generated_Source\PSoC5/isr_High_Frequency_2000Hz.c **** *
 133:Generated_Source\PSoC5/isr_High_Frequency_2000Hz.c **** *******************************************************************************/
 134:Generated_Source\PSoC5/isr_High_Frequency_2000Hz.c **** void isr_High_Frequency_2000Hz_Stop(void)
 135:Generated_Source\PSoC5/isr_High_Frequency_2000Hz.c **** {
 108              		.loc 1 135 0
 109              		.cfi_startproc
 110              		@ args = 0, pretend = 0, frame = 0
 111              		@ frame_needed = 1, uses_anonymous_args = 0
 112 0000 80B5     		push	{r7, lr}
 113              		.cfi_def_cfa_offset 8
 114              		.cfi_offset 7, -8
 115              		.cfi_offset 14, -4
 116 0002 00AF     		add	r7, sp, #0
 117              		.cfi_def_cfa_register 7
 136:Generated_Source\PSoC5/isr_High_Frequency_2000Hz.c ****     /* Disable this interrupt. */
 137:Generated_Source\PSoC5/isr_High_Frequency_2000Hz.c ****     isr_High_Frequency_2000Hz_Disable();
 118              		.loc 1 137 0
 119 0004 FFF7FEFF 		bl	isr_High_Frequency_2000Hz_Disable
 138:Generated_Source\PSoC5/isr_High_Frequency_2000Hz.c **** 
 139:Generated_Source\PSoC5/isr_High_Frequency_2000Hz.c ****     /* Set the ISR to point to the passive one. */
 140:Generated_Source\PSoC5/isr_High_Frequency_2000Hz.c ****     isr_High_Frequency_2000Hz_SetVector(&IntDefaultHandler);
 120              		.loc 1 140 0
 121 0008 0248     		ldr	r0, .L6
 122 000a FFF7FEFF 		bl	isr_High_Frequency_2000Hz_SetVector
 141:Generated_Source\PSoC5/isr_High_Frequency_2000Hz.c **** }
 123              		.loc 1 141 0
 124 000e 00BF     		nop
 125 0010 80BD     		pop	{r7, pc}
 126              	.L7:
 127 0012 00BF     		.align	2
 128              	.L6:
 129 0014 00000000 		.word	IntDefaultHandler
 130              		.cfi_endproc
 131              	.LFE2:
 132              		.size	isr_High_Frequency_2000Hz_Stop, .-isr_High_Frequency_2000Hz_Stop
 133              		.section	.text.isr_High_Frequency_2000Hz_Interrupt,"ax",%progbits
 134              		.align	2
 135              		.global	isr_High_Frequency_2000Hz_Interrupt
 136              		.thumb
 137              		.thumb_func
 138              		.type	isr_High_Frequency_2000Hz_Interrupt, %function
 139              	isr_High_Frequency_2000Hz_Interrupt:
 140              	.LFB3:
 142:Generated_Source\PSoC5/isr_High_Frequency_2000Hz.c **** 
 143:Generated_Source\PSoC5/isr_High_Frequency_2000Hz.c **** 
 144:Generated_Source\PSoC5/isr_High_Frequency_2000Hz.c **** /*******************************************************************************
 145:Generated_Source\PSoC5/isr_High_Frequency_2000Hz.c **** * Function Name: isr_High_Frequency_2000Hz_Interrupt
ARM GAS  C:\Users\THUNDE~1\AppData\Local\Temp\ccYHD4WS.s 			page 6


 146:Generated_Source\PSoC5/isr_High_Frequency_2000Hz.c **** ********************************************************************************
 147:Generated_Source\PSoC5/isr_High_Frequency_2000Hz.c **** *
 148:Generated_Source\PSoC5/isr_High_Frequency_2000Hz.c **** * Summary:
 149:Generated_Source\PSoC5/isr_High_Frequency_2000Hz.c **** *   The default Interrupt Service Routine for isr_High_Frequency_2000Hz.
 150:Generated_Source\PSoC5/isr_High_Frequency_2000Hz.c **** *
 151:Generated_Source\PSoC5/isr_High_Frequency_2000Hz.c **** *   Add custom code between the coments to keep the next version of this file
 152:Generated_Source\PSoC5/isr_High_Frequency_2000Hz.c **** *   from over writting your code.
 153:Generated_Source\PSoC5/isr_High_Frequency_2000Hz.c **** *
 154:Generated_Source\PSoC5/isr_High_Frequency_2000Hz.c **** * Parameters:  
 155:Generated_Source\PSoC5/isr_High_Frequency_2000Hz.c **** *
 156:Generated_Source\PSoC5/isr_High_Frequency_2000Hz.c **** * Return:
 157:Generated_Source\PSoC5/isr_High_Frequency_2000Hz.c **** *   None
 158:Generated_Source\PSoC5/isr_High_Frequency_2000Hz.c **** *
 159:Generated_Source\PSoC5/isr_High_Frequency_2000Hz.c **** *******************************************************************************/
 160:Generated_Source\PSoC5/isr_High_Frequency_2000Hz.c **** CY_ISR(isr_High_Frequency_2000Hz_Interrupt)
 161:Generated_Source\PSoC5/isr_High_Frequency_2000Hz.c **** {
 141              		.loc 1 161 0
 142              		.cfi_startproc
 143              		@ args = 0, pretend = 0, frame = 0
 144              		@ frame_needed = 1, uses_anonymous_args = 0
 145              		@ link register save eliminated.
 146 0000 80B4     		push	{r7}
 147              		.cfi_def_cfa_offset 4
 148              		.cfi_offset 7, -4
 149 0002 00AF     		add	r7, sp, #0
 150              		.cfi_def_cfa_register 7
 162:Generated_Source\PSoC5/isr_High_Frequency_2000Hz.c ****     #ifdef isr_High_Frequency_2000Hz_INTERRUPT_INTERRUPT_CALLBACK
 163:Generated_Source\PSoC5/isr_High_Frequency_2000Hz.c ****         isr_High_Frequency_2000Hz_Interrupt_InterruptCallback();
 164:Generated_Source\PSoC5/isr_High_Frequency_2000Hz.c ****     #endif /* isr_High_Frequency_2000Hz_INTERRUPT_INTERRUPT_CALLBACK */ 
 165:Generated_Source\PSoC5/isr_High_Frequency_2000Hz.c **** 
 166:Generated_Source\PSoC5/isr_High_Frequency_2000Hz.c ****     /*  Place your Interrupt code here. */
 167:Generated_Source\PSoC5/isr_High_Frequency_2000Hz.c ****     /* `#START isr_High_Frequency_2000Hz_Interrupt` */
 168:Generated_Source\PSoC5/isr_High_Frequency_2000Hz.c **** 
 169:Generated_Source\PSoC5/isr_High_Frequency_2000Hz.c ****     /* `#END` */
 170:Generated_Source\PSoC5/isr_High_Frequency_2000Hz.c **** }
 151              		.loc 1 170 0
 152 0004 00BF     		nop
 153 0006 BD46     		mov	sp, r7
 154              		.cfi_def_cfa_register 13
 155              		@ sp needed
 156 0008 80BC     		pop	{r7}
 157              		.cfi_restore 7
 158              		.cfi_def_cfa_offset 0
 159 000a 7047     		bx	lr
 160              		.cfi_endproc
 161              	.LFE3:
 162              		.size	isr_High_Frequency_2000Hz_Interrupt, .-isr_High_Frequency_2000Hz_Interrupt
 163              		.section	.text.isr_High_Frequency_2000Hz_SetVector,"ax",%progbits
 164              		.align	2
 165              		.global	isr_High_Frequency_2000Hz_SetVector
 166              		.thumb
 167              		.thumb_func
 168              		.type	isr_High_Frequency_2000Hz_SetVector, %function
 169              	isr_High_Frequency_2000Hz_SetVector:
 170              	.LFB4:
 171:Generated_Source\PSoC5/isr_High_Frequency_2000Hz.c **** 
 172:Generated_Source\PSoC5/isr_High_Frequency_2000Hz.c **** 
ARM GAS  C:\Users\THUNDE~1\AppData\Local\Temp\ccYHD4WS.s 			page 7


 173:Generated_Source\PSoC5/isr_High_Frequency_2000Hz.c **** /*******************************************************************************
 174:Generated_Source\PSoC5/isr_High_Frequency_2000Hz.c **** * Function Name: isr_High_Frequency_2000Hz_SetVector
 175:Generated_Source\PSoC5/isr_High_Frequency_2000Hz.c **** ********************************************************************************
 176:Generated_Source\PSoC5/isr_High_Frequency_2000Hz.c **** *
 177:Generated_Source\PSoC5/isr_High_Frequency_2000Hz.c **** * Summary:
 178:Generated_Source\PSoC5/isr_High_Frequency_2000Hz.c **** *   Change the ISR vector for the Interrupt. Note calling isr_High_Frequency_2000Hz_Start
 179:Generated_Source\PSoC5/isr_High_Frequency_2000Hz.c **** *   will override any effect this method would have had. To set the vector 
 180:Generated_Source\PSoC5/isr_High_Frequency_2000Hz.c **** *   before the component has been started use isr_High_Frequency_2000Hz_StartEx instead.
 181:Generated_Source\PSoC5/isr_High_Frequency_2000Hz.c **** * 
 182:Generated_Source\PSoC5/isr_High_Frequency_2000Hz.c **** *   When defining ISR functions, the CY_ISR and CY_ISR_PROTO macros should be 
 183:Generated_Source\PSoC5/isr_High_Frequency_2000Hz.c **** *   used to provide consistent definition across compilers:
 184:Generated_Source\PSoC5/isr_High_Frequency_2000Hz.c **** *
 185:Generated_Source\PSoC5/isr_High_Frequency_2000Hz.c **** *   Function definition example:
 186:Generated_Source\PSoC5/isr_High_Frequency_2000Hz.c **** *   CY_ISR(MyISR)
 187:Generated_Source\PSoC5/isr_High_Frequency_2000Hz.c **** *   {
 188:Generated_Source\PSoC5/isr_High_Frequency_2000Hz.c **** *   }
 189:Generated_Source\PSoC5/isr_High_Frequency_2000Hz.c **** *
 190:Generated_Source\PSoC5/isr_High_Frequency_2000Hz.c **** *   Function prototype example:
 191:Generated_Source\PSoC5/isr_High_Frequency_2000Hz.c **** *     CY_ISR_PROTO(MyISR);
 192:Generated_Source\PSoC5/isr_High_Frequency_2000Hz.c **** *
 193:Generated_Source\PSoC5/isr_High_Frequency_2000Hz.c **** * Parameters:
 194:Generated_Source\PSoC5/isr_High_Frequency_2000Hz.c **** *   address: Address of the ISR to set in the interrupt vector table.
 195:Generated_Source\PSoC5/isr_High_Frequency_2000Hz.c **** *
 196:Generated_Source\PSoC5/isr_High_Frequency_2000Hz.c **** * Return:
 197:Generated_Source\PSoC5/isr_High_Frequency_2000Hz.c **** *   None
 198:Generated_Source\PSoC5/isr_High_Frequency_2000Hz.c **** *
 199:Generated_Source\PSoC5/isr_High_Frequency_2000Hz.c **** *******************************************************************************/
 200:Generated_Source\PSoC5/isr_High_Frequency_2000Hz.c **** void isr_High_Frequency_2000Hz_SetVector(cyisraddress address)
 201:Generated_Source\PSoC5/isr_High_Frequency_2000Hz.c **** {
 171              		.loc 1 201 0
 172              		.cfi_startproc
 173              		@ args = 0, pretend = 0, frame = 16
 174              		@ frame_needed = 1, uses_anonymous_args = 0
 175              		@ link register save eliminated.
 176 0000 80B4     		push	{r7}
 177              		.cfi_def_cfa_offset 4
 178              		.cfi_offset 7, -4
 179 0002 85B0     		sub	sp, sp, #20
 180              		.cfi_def_cfa_offset 24
 181 0004 00AF     		add	r7, sp, #0
 182              		.cfi_def_cfa_register 7
 183 0006 7860     		str	r0, [r7, #4]
 202:Generated_Source\PSoC5/isr_High_Frequency_2000Hz.c ****     cyisraddress * ramVectorTable;
 203:Generated_Source\PSoC5/isr_High_Frequency_2000Hz.c **** 
 204:Generated_Source\PSoC5/isr_High_Frequency_2000Hz.c ****     ramVectorTable = (cyisraddress *) *CYINT_VECT_TABLE;
 184              		.loc 1 204 0
 185 0008 054B     		ldr	r3, .L10
 186 000a 1B68     		ldr	r3, [r3]
 187 000c FB60     		str	r3, [r7, #12]
 205:Generated_Source\PSoC5/isr_High_Frequency_2000Hz.c **** 
 206:Generated_Source\PSoC5/isr_High_Frequency_2000Hz.c ****     ramVectorTable[CYINT_IRQ_BASE + (uint32)isr_High_Frequency_2000Hz__INTC_NUMBER] = address;
 188              		.loc 1 206 0
 189 000e FB68     		ldr	r3, [r7, #12]
 190 0010 5033     		adds	r3, r3, #80
 191 0012 7A68     		ldr	r2, [r7, #4]
 192 0014 1A60     		str	r2, [r3]
 207:Generated_Source\PSoC5/isr_High_Frequency_2000Hz.c **** }
ARM GAS  C:\Users\THUNDE~1\AppData\Local\Temp\ccYHD4WS.s 			page 8


 193              		.loc 1 207 0
 194 0016 00BF     		nop
 195 0018 1437     		adds	r7, r7, #20
 196              		.cfi_def_cfa_offset 4
 197 001a BD46     		mov	sp, r7
 198              		.cfi_def_cfa_register 13
 199              		@ sp needed
 200 001c 80BC     		pop	{r7}
 201              		.cfi_restore 7
 202              		.cfi_def_cfa_offset 0
 203 001e 7047     		bx	lr
 204              	.L11:
 205              		.align	2
 206              	.L10:
 207 0020 08ED00E0 		.word	-536810232
 208              		.cfi_endproc
 209              	.LFE4:
 210              		.size	isr_High_Frequency_2000Hz_SetVector, .-isr_High_Frequency_2000Hz_SetVector
 211              		.section	.text.isr_High_Frequency_2000Hz_GetVector,"ax",%progbits
 212              		.align	2
 213              		.global	isr_High_Frequency_2000Hz_GetVector
 214              		.thumb
 215              		.thumb_func
 216              		.type	isr_High_Frequency_2000Hz_GetVector, %function
 217              	isr_High_Frequency_2000Hz_GetVector:
 218              	.LFB5:
 208:Generated_Source\PSoC5/isr_High_Frequency_2000Hz.c **** 
 209:Generated_Source\PSoC5/isr_High_Frequency_2000Hz.c **** 
 210:Generated_Source\PSoC5/isr_High_Frequency_2000Hz.c **** /*******************************************************************************
 211:Generated_Source\PSoC5/isr_High_Frequency_2000Hz.c **** * Function Name: isr_High_Frequency_2000Hz_GetVector
 212:Generated_Source\PSoC5/isr_High_Frequency_2000Hz.c **** ********************************************************************************
 213:Generated_Source\PSoC5/isr_High_Frequency_2000Hz.c **** *
 214:Generated_Source\PSoC5/isr_High_Frequency_2000Hz.c **** * Summary:
 215:Generated_Source\PSoC5/isr_High_Frequency_2000Hz.c **** *   Gets the "address" of the current ISR vector for the Interrupt.
 216:Generated_Source\PSoC5/isr_High_Frequency_2000Hz.c **** *
 217:Generated_Source\PSoC5/isr_High_Frequency_2000Hz.c **** * Parameters:
 218:Generated_Source\PSoC5/isr_High_Frequency_2000Hz.c **** *   None
 219:Generated_Source\PSoC5/isr_High_Frequency_2000Hz.c **** *
 220:Generated_Source\PSoC5/isr_High_Frequency_2000Hz.c **** * Return:
 221:Generated_Source\PSoC5/isr_High_Frequency_2000Hz.c **** *   Address of the ISR in the interrupt vector table.
 222:Generated_Source\PSoC5/isr_High_Frequency_2000Hz.c **** *
 223:Generated_Source\PSoC5/isr_High_Frequency_2000Hz.c **** *******************************************************************************/
 224:Generated_Source\PSoC5/isr_High_Frequency_2000Hz.c **** cyisraddress isr_High_Frequency_2000Hz_GetVector(void)
 225:Generated_Source\PSoC5/isr_High_Frequency_2000Hz.c **** {
 219              		.loc 1 225 0
 220              		.cfi_startproc
 221              		@ args = 0, pretend = 0, frame = 8
 222              		@ frame_needed = 1, uses_anonymous_args = 0
 223              		@ link register save eliminated.
 224 0000 80B4     		push	{r7}
 225              		.cfi_def_cfa_offset 4
 226              		.cfi_offset 7, -4
 227 0002 83B0     		sub	sp, sp, #12
 228              		.cfi_def_cfa_offset 16
 229 0004 00AF     		add	r7, sp, #0
 230              		.cfi_def_cfa_register 7
 226:Generated_Source\PSoC5/isr_High_Frequency_2000Hz.c ****     cyisraddress * ramVectorTable;
ARM GAS  C:\Users\THUNDE~1\AppData\Local\Temp\ccYHD4WS.s 			page 9


 227:Generated_Source\PSoC5/isr_High_Frequency_2000Hz.c **** 
 228:Generated_Source\PSoC5/isr_High_Frequency_2000Hz.c ****     ramVectorTable = (cyisraddress *) *CYINT_VECT_TABLE;
 231              		.loc 1 228 0
 232 0006 054B     		ldr	r3, .L14
 233 0008 1B68     		ldr	r3, [r3]
 234 000a 7B60     		str	r3, [r7, #4]
 229:Generated_Source\PSoC5/isr_High_Frequency_2000Hz.c **** 
 230:Generated_Source\PSoC5/isr_High_Frequency_2000Hz.c ****     return ramVectorTable[CYINT_IRQ_BASE + (uint32)isr_High_Frequency_2000Hz__INTC_NUMBER];
 235              		.loc 1 230 0
 236 000c 7B68     		ldr	r3, [r7, #4]
 237 000e 1B6D     		ldr	r3, [r3, #80]
 231:Generated_Source\PSoC5/isr_High_Frequency_2000Hz.c **** }
 238              		.loc 1 231 0
 239 0010 1846     		mov	r0, r3
 240 0012 0C37     		adds	r7, r7, #12
 241              		.cfi_def_cfa_offset 4
 242 0014 BD46     		mov	sp, r7
 243              		.cfi_def_cfa_register 13
 244              		@ sp needed
 245 0016 80BC     		pop	{r7}
 246              		.cfi_restore 7
 247              		.cfi_def_cfa_offset 0
 248 0018 7047     		bx	lr
 249              	.L15:
 250 001a 00BF     		.align	2
 251              	.L14:
 252 001c 08ED00E0 		.word	-536810232
 253              		.cfi_endproc
 254              	.LFE5:
 255              		.size	isr_High_Frequency_2000Hz_GetVector, .-isr_High_Frequency_2000Hz_GetVector
 256              		.section	.text.isr_High_Frequency_2000Hz_SetPriority,"ax",%progbits
 257              		.align	2
 258              		.global	isr_High_Frequency_2000Hz_SetPriority
 259              		.thumb
 260              		.thumb_func
 261              		.type	isr_High_Frequency_2000Hz_SetPriority, %function
 262              	isr_High_Frequency_2000Hz_SetPriority:
 263              	.LFB6:
 232:Generated_Source\PSoC5/isr_High_Frequency_2000Hz.c **** 
 233:Generated_Source\PSoC5/isr_High_Frequency_2000Hz.c **** 
 234:Generated_Source\PSoC5/isr_High_Frequency_2000Hz.c **** /*******************************************************************************
 235:Generated_Source\PSoC5/isr_High_Frequency_2000Hz.c **** * Function Name: isr_High_Frequency_2000Hz_SetPriority
 236:Generated_Source\PSoC5/isr_High_Frequency_2000Hz.c **** ********************************************************************************
 237:Generated_Source\PSoC5/isr_High_Frequency_2000Hz.c **** *
 238:Generated_Source\PSoC5/isr_High_Frequency_2000Hz.c **** * Summary:
 239:Generated_Source\PSoC5/isr_High_Frequency_2000Hz.c **** *   Sets the Priority of the Interrupt. 
 240:Generated_Source\PSoC5/isr_High_Frequency_2000Hz.c **** *
 241:Generated_Source\PSoC5/isr_High_Frequency_2000Hz.c **** *   Note calling isr_High_Frequency_2000Hz_Start or isr_High_Frequency_2000Hz_StartEx will 
 242:Generated_Source\PSoC5/isr_High_Frequency_2000Hz.c **** *   override any effect this API would have had. This API should only be called
 243:Generated_Source\PSoC5/isr_High_Frequency_2000Hz.c **** *   after isr_High_Frequency_2000Hz_Start or isr_High_Frequency_2000Hz_StartEx has been called. 
 244:Generated_Source\PSoC5/isr_High_Frequency_2000Hz.c **** *   To set the initial priority for the component, use the Design-Wide Resources
 245:Generated_Source\PSoC5/isr_High_Frequency_2000Hz.c **** *   Interrupt Editor.
 246:Generated_Source\PSoC5/isr_High_Frequency_2000Hz.c **** *
 247:Generated_Source\PSoC5/isr_High_Frequency_2000Hz.c **** *   Note This API has no effect on Non-maskable interrupt NMI).
 248:Generated_Source\PSoC5/isr_High_Frequency_2000Hz.c **** *
 249:Generated_Source\PSoC5/isr_High_Frequency_2000Hz.c **** * Parameters:
 250:Generated_Source\PSoC5/isr_High_Frequency_2000Hz.c **** *   priority: Priority of the interrupt, 0 being the highest priority
ARM GAS  C:\Users\THUNDE~1\AppData\Local\Temp\ccYHD4WS.s 			page 10


 251:Generated_Source\PSoC5/isr_High_Frequency_2000Hz.c **** *             PSoC 3 and PSoC 5LP: Priority is from 0 to 7.
 252:Generated_Source\PSoC5/isr_High_Frequency_2000Hz.c **** *             PSoC 4: Priority is from 0 to 3.
 253:Generated_Source\PSoC5/isr_High_Frequency_2000Hz.c **** *
 254:Generated_Source\PSoC5/isr_High_Frequency_2000Hz.c **** * Return:
 255:Generated_Source\PSoC5/isr_High_Frequency_2000Hz.c **** *   None
 256:Generated_Source\PSoC5/isr_High_Frequency_2000Hz.c **** *
 257:Generated_Source\PSoC5/isr_High_Frequency_2000Hz.c **** *******************************************************************************/
 258:Generated_Source\PSoC5/isr_High_Frequency_2000Hz.c **** void isr_High_Frequency_2000Hz_SetPriority(uint8 priority)
 259:Generated_Source\PSoC5/isr_High_Frequency_2000Hz.c **** {
 264              		.loc 1 259 0
 265              		.cfi_startproc
 266              		@ args = 0, pretend = 0, frame = 8
 267              		@ frame_needed = 1, uses_anonymous_args = 0
 268              		@ link register save eliminated.
 269 0000 80B4     		push	{r7}
 270              		.cfi_def_cfa_offset 4
 271              		.cfi_offset 7, -4
 272 0002 83B0     		sub	sp, sp, #12
 273              		.cfi_def_cfa_offset 16
 274 0004 00AF     		add	r7, sp, #0
 275              		.cfi_def_cfa_register 7
 276 0006 0346     		mov	r3, r0
 277 0008 FB71     		strb	r3, [r7, #7]
 260:Generated_Source\PSoC5/isr_High_Frequency_2000Hz.c ****     *isr_High_Frequency_2000Hz_INTC_PRIOR = priority << 5;
 278              		.loc 1 260 0
 279 000a 054A     		ldr	r2, .L17
 280 000c FB79     		ldrb	r3, [r7, #7]
 281 000e 5B01     		lsls	r3, r3, #5
 282 0010 DBB2     		uxtb	r3, r3
 283 0012 1370     		strb	r3, [r2]
 261:Generated_Source\PSoC5/isr_High_Frequency_2000Hz.c **** }
 284              		.loc 1 261 0
 285 0014 00BF     		nop
 286 0016 0C37     		adds	r7, r7, #12
 287              		.cfi_def_cfa_offset 4
 288 0018 BD46     		mov	sp, r7
 289              		.cfi_def_cfa_register 13
 290              		@ sp needed
 291 001a 80BC     		pop	{r7}
 292              		.cfi_restore 7
 293              		.cfi_def_cfa_offset 0
 294 001c 7047     		bx	lr
 295              	.L18:
 296 001e 00BF     		.align	2
 297              	.L17:
 298 0020 04E400E0 		.word	-536812540
 299              		.cfi_endproc
 300              	.LFE6:
 301              		.size	isr_High_Frequency_2000Hz_SetPriority, .-isr_High_Frequency_2000Hz_SetPriority
 302              		.section	.text.isr_High_Frequency_2000Hz_GetPriority,"ax",%progbits
 303              		.align	2
 304              		.global	isr_High_Frequency_2000Hz_GetPriority
 305              		.thumb
 306              		.thumb_func
 307              		.type	isr_High_Frequency_2000Hz_GetPriority, %function
 308              	isr_High_Frequency_2000Hz_GetPriority:
 309              	.LFB7:
ARM GAS  C:\Users\THUNDE~1\AppData\Local\Temp\ccYHD4WS.s 			page 11


 262:Generated_Source\PSoC5/isr_High_Frequency_2000Hz.c **** 
 263:Generated_Source\PSoC5/isr_High_Frequency_2000Hz.c **** 
 264:Generated_Source\PSoC5/isr_High_Frequency_2000Hz.c **** /*******************************************************************************
 265:Generated_Source\PSoC5/isr_High_Frequency_2000Hz.c **** * Function Name: isr_High_Frequency_2000Hz_GetPriority
 266:Generated_Source\PSoC5/isr_High_Frequency_2000Hz.c **** ********************************************************************************
 267:Generated_Source\PSoC5/isr_High_Frequency_2000Hz.c **** *
 268:Generated_Source\PSoC5/isr_High_Frequency_2000Hz.c **** * Summary:
 269:Generated_Source\PSoC5/isr_High_Frequency_2000Hz.c **** *   Gets the Priority of the Interrupt.
 270:Generated_Source\PSoC5/isr_High_Frequency_2000Hz.c **** *
 271:Generated_Source\PSoC5/isr_High_Frequency_2000Hz.c **** * Parameters:
 272:Generated_Source\PSoC5/isr_High_Frequency_2000Hz.c **** *   None
 273:Generated_Source\PSoC5/isr_High_Frequency_2000Hz.c **** *
 274:Generated_Source\PSoC5/isr_High_Frequency_2000Hz.c **** * Return:
 275:Generated_Source\PSoC5/isr_High_Frequency_2000Hz.c **** *   Priority of the interrupt, 0 being the highest priority
 276:Generated_Source\PSoC5/isr_High_Frequency_2000Hz.c **** *    PSoC 3 and PSoC 5LP: Priority is from 0 to 7.
 277:Generated_Source\PSoC5/isr_High_Frequency_2000Hz.c **** *    PSoC 4: Priority is from 0 to 3.
 278:Generated_Source\PSoC5/isr_High_Frequency_2000Hz.c **** *
 279:Generated_Source\PSoC5/isr_High_Frequency_2000Hz.c **** *******************************************************************************/
 280:Generated_Source\PSoC5/isr_High_Frequency_2000Hz.c **** uint8 isr_High_Frequency_2000Hz_GetPriority(void)
 281:Generated_Source\PSoC5/isr_High_Frequency_2000Hz.c **** {
 310              		.loc 1 281 0
 311              		.cfi_startproc
 312              		@ args = 0, pretend = 0, frame = 8
 313              		@ frame_needed = 1, uses_anonymous_args = 0
 314              		@ link register save eliminated.
 315 0000 80B4     		push	{r7}
 316              		.cfi_def_cfa_offset 4
 317              		.cfi_offset 7, -4
 318 0002 83B0     		sub	sp, sp, #12
 319              		.cfi_def_cfa_offset 16
 320 0004 00AF     		add	r7, sp, #0
 321              		.cfi_def_cfa_register 7
 282:Generated_Source\PSoC5/isr_High_Frequency_2000Hz.c ****     uint8 priority;
 283:Generated_Source\PSoC5/isr_High_Frequency_2000Hz.c **** 
 284:Generated_Source\PSoC5/isr_High_Frequency_2000Hz.c **** 
 285:Generated_Source\PSoC5/isr_High_Frequency_2000Hz.c ****     priority = *isr_High_Frequency_2000Hz_INTC_PRIOR >> 5;
 322              		.loc 1 285 0
 323 0006 054B     		ldr	r3, .L21
 324 0008 1B78     		ldrb	r3, [r3]
 325 000a DBB2     		uxtb	r3, r3
 326 000c 5B09     		lsrs	r3, r3, #5
 327 000e FB71     		strb	r3, [r7, #7]
 286:Generated_Source\PSoC5/isr_High_Frequency_2000Hz.c **** 
 287:Generated_Source\PSoC5/isr_High_Frequency_2000Hz.c ****     return priority;
 328              		.loc 1 287 0
 329 0010 FB79     		ldrb	r3, [r7, #7]	@ zero_extendqisi2
 288:Generated_Source\PSoC5/isr_High_Frequency_2000Hz.c **** }
 330              		.loc 1 288 0
 331 0012 1846     		mov	r0, r3
 332 0014 0C37     		adds	r7, r7, #12
 333              		.cfi_def_cfa_offset 4
 334 0016 BD46     		mov	sp, r7
 335              		.cfi_def_cfa_register 13
 336              		@ sp needed
 337 0018 80BC     		pop	{r7}
 338              		.cfi_restore 7
 339              		.cfi_def_cfa_offset 0
ARM GAS  C:\Users\THUNDE~1\AppData\Local\Temp\ccYHD4WS.s 			page 12


 340 001a 7047     		bx	lr
 341              	.L22:
 342              		.align	2
 343              	.L21:
 344 001c 04E400E0 		.word	-536812540
 345              		.cfi_endproc
 346              	.LFE7:
 347              		.size	isr_High_Frequency_2000Hz_GetPriority, .-isr_High_Frequency_2000Hz_GetPriority
 348              		.section	.text.isr_High_Frequency_2000Hz_Enable,"ax",%progbits
 349              		.align	2
 350              		.global	isr_High_Frequency_2000Hz_Enable
 351              		.thumb
 352              		.thumb_func
 353              		.type	isr_High_Frequency_2000Hz_Enable, %function
 354              	isr_High_Frequency_2000Hz_Enable:
 355              	.LFB8:
 289:Generated_Source\PSoC5/isr_High_Frequency_2000Hz.c **** 
 290:Generated_Source\PSoC5/isr_High_Frequency_2000Hz.c **** 
 291:Generated_Source\PSoC5/isr_High_Frequency_2000Hz.c **** /*******************************************************************************
 292:Generated_Source\PSoC5/isr_High_Frequency_2000Hz.c **** * Function Name: isr_High_Frequency_2000Hz_Enable
 293:Generated_Source\PSoC5/isr_High_Frequency_2000Hz.c **** ********************************************************************************
 294:Generated_Source\PSoC5/isr_High_Frequency_2000Hz.c **** *
 295:Generated_Source\PSoC5/isr_High_Frequency_2000Hz.c **** * Summary:
 296:Generated_Source\PSoC5/isr_High_Frequency_2000Hz.c **** *   Enables the interrupt to the interrupt controller. Do not call this function
 297:Generated_Source\PSoC5/isr_High_Frequency_2000Hz.c **** *   unless ISR_Start() has been called or the functionality of the ISR_Start() 
 298:Generated_Source\PSoC5/isr_High_Frequency_2000Hz.c **** *   function, which sets the vector and the priority, has been called.
 299:Generated_Source\PSoC5/isr_High_Frequency_2000Hz.c **** *
 300:Generated_Source\PSoC5/isr_High_Frequency_2000Hz.c **** * Parameters:
 301:Generated_Source\PSoC5/isr_High_Frequency_2000Hz.c **** *   None
 302:Generated_Source\PSoC5/isr_High_Frequency_2000Hz.c **** *
 303:Generated_Source\PSoC5/isr_High_Frequency_2000Hz.c **** * Return:
 304:Generated_Source\PSoC5/isr_High_Frequency_2000Hz.c **** *   None
 305:Generated_Source\PSoC5/isr_High_Frequency_2000Hz.c **** *
 306:Generated_Source\PSoC5/isr_High_Frequency_2000Hz.c **** *******************************************************************************/
 307:Generated_Source\PSoC5/isr_High_Frequency_2000Hz.c **** void isr_High_Frequency_2000Hz_Enable(void)
 308:Generated_Source\PSoC5/isr_High_Frequency_2000Hz.c **** {
 356              		.loc 1 308 0
 357              		.cfi_startproc
 358              		@ args = 0, pretend = 0, frame = 0
 359              		@ frame_needed = 1, uses_anonymous_args = 0
 360              		@ link register save eliminated.
 361 0000 80B4     		push	{r7}
 362              		.cfi_def_cfa_offset 4
 363              		.cfi_offset 7, -4
 364 0002 00AF     		add	r7, sp, #0
 365              		.cfi_def_cfa_register 7
 309:Generated_Source\PSoC5/isr_High_Frequency_2000Hz.c ****     /* Enable the general interrupt. */
 310:Generated_Source\PSoC5/isr_High_Frequency_2000Hz.c ****     *isr_High_Frequency_2000Hz_INTC_SET_EN = isr_High_Frequency_2000Hz__INTC_MASK;
 366              		.loc 1 310 0
 367 0004 034B     		ldr	r3, .L24
 368 0006 1022     		movs	r2, #16
 369 0008 1A60     		str	r2, [r3]
 311:Generated_Source\PSoC5/isr_High_Frequency_2000Hz.c **** }
 370              		.loc 1 311 0
 371 000a 00BF     		nop
 372 000c BD46     		mov	sp, r7
 373              		.cfi_def_cfa_register 13
ARM GAS  C:\Users\THUNDE~1\AppData\Local\Temp\ccYHD4WS.s 			page 13


 374              		@ sp needed
 375 000e 80BC     		pop	{r7}
 376              		.cfi_restore 7
 377              		.cfi_def_cfa_offset 0
 378 0010 7047     		bx	lr
 379              	.L25:
 380 0012 00BF     		.align	2
 381              	.L24:
 382 0014 00E100E0 		.word	-536813312
 383              		.cfi_endproc
 384              	.LFE8:
 385              		.size	isr_High_Frequency_2000Hz_Enable, .-isr_High_Frequency_2000Hz_Enable
 386              		.section	.text.isr_High_Frequency_2000Hz_GetState,"ax",%progbits
 387              		.align	2
 388              		.global	isr_High_Frequency_2000Hz_GetState
 389              		.thumb
 390              		.thumb_func
 391              		.type	isr_High_Frequency_2000Hz_GetState, %function
 392              	isr_High_Frequency_2000Hz_GetState:
 393              	.LFB9:
 312:Generated_Source\PSoC5/isr_High_Frequency_2000Hz.c **** 
 313:Generated_Source\PSoC5/isr_High_Frequency_2000Hz.c **** 
 314:Generated_Source\PSoC5/isr_High_Frequency_2000Hz.c **** /*******************************************************************************
 315:Generated_Source\PSoC5/isr_High_Frequency_2000Hz.c **** * Function Name: isr_High_Frequency_2000Hz_GetState
 316:Generated_Source\PSoC5/isr_High_Frequency_2000Hz.c **** ********************************************************************************
 317:Generated_Source\PSoC5/isr_High_Frequency_2000Hz.c **** *
 318:Generated_Source\PSoC5/isr_High_Frequency_2000Hz.c **** * Summary:
 319:Generated_Source\PSoC5/isr_High_Frequency_2000Hz.c **** *   Gets the state (enabled, disabled) of the Interrupt.
 320:Generated_Source\PSoC5/isr_High_Frequency_2000Hz.c **** *
 321:Generated_Source\PSoC5/isr_High_Frequency_2000Hz.c **** * Parameters:
 322:Generated_Source\PSoC5/isr_High_Frequency_2000Hz.c **** *   None
 323:Generated_Source\PSoC5/isr_High_Frequency_2000Hz.c **** *
 324:Generated_Source\PSoC5/isr_High_Frequency_2000Hz.c **** * Return:
 325:Generated_Source\PSoC5/isr_High_Frequency_2000Hz.c **** *   1 if enabled, 0 if disabled.
 326:Generated_Source\PSoC5/isr_High_Frequency_2000Hz.c **** *
 327:Generated_Source\PSoC5/isr_High_Frequency_2000Hz.c **** *******************************************************************************/
 328:Generated_Source\PSoC5/isr_High_Frequency_2000Hz.c **** uint8 isr_High_Frequency_2000Hz_GetState(void)
 329:Generated_Source\PSoC5/isr_High_Frequency_2000Hz.c **** {
 394              		.loc 1 329 0
 395              		.cfi_startproc
 396              		@ args = 0, pretend = 0, frame = 0
 397              		@ frame_needed = 1, uses_anonymous_args = 0
 398              		@ link register save eliminated.
 399 0000 80B4     		push	{r7}
 400              		.cfi_def_cfa_offset 4
 401              		.cfi_offset 7, -4
 402 0002 00AF     		add	r7, sp, #0
 403              		.cfi_def_cfa_register 7
 330:Generated_Source\PSoC5/isr_High_Frequency_2000Hz.c ****     /* Get the state of the general interrupt. */
 331:Generated_Source\PSoC5/isr_High_Frequency_2000Hz.c ****     return ((*isr_High_Frequency_2000Hz_INTC_SET_EN & (uint32)isr_High_Frequency_2000Hz__INTC_MASK)
 404              		.loc 1 331 0
 405 0004 064B     		ldr	r3, .L30
 406 0006 1B68     		ldr	r3, [r3]
 407 0008 03F01003 		and	r3, r3, #16
 408 000c 002B     		cmp	r3, #0
 409 000e 01D0     		beq	.L27
 410              		.loc 1 331 0 is_stmt 0 discriminator 1
ARM GAS  C:\Users\THUNDE~1\AppData\Local\Temp\ccYHD4WS.s 			page 14


 411 0010 0123     		movs	r3, #1
 412 0012 00E0     		b	.L28
 413              	.L27:
 414              		.loc 1 331 0 discriminator 2
 415 0014 0023     		movs	r3, #0
 416              	.L28:
 332:Generated_Source\PSoC5/isr_High_Frequency_2000Hz.c **** }
 417              		.loc 1 332 0 is_stmt 1 discriminator 4
 418 0016 1846     		mov	r0, r3
 419 0018 BD46     		mov	sp, r7
 420              		.cfi_def_cfa_register 13
 421              		@ sp needed
 422 001a 80BC     		pop	{r7}
 423              		.cfi_restore 7
 424              		.cfi_def_cfa_offset 0
 425 001c 7047     		bx	lr
 426              	.L31:
 427 001e 00BF     		.align	2
 428              	.L30:
 429 0020 00E100E0 		.word	-536813312
 430              		.cfi_endproc
 431              	.LFE9:
 432              		.size	isr_High_Frequency_2000Hz_GetState, .-isr_High_Frequency_2000Hz_GetState
 433              		.section	.text.isr_High_Frequency_2000Hz_Disable,"ax",%progbits
 434              		.align	2
 435              		.global	isr_High_Frequency_2000Hz_Disable
 436              		.thumb
 437              		.thumb_func
 438              		.type	isr_High_Frequency_2000Hz_Disable, %function
 439              	isr_High_Frequency_2000Hz_Disable:
 440              	.LFB10:
 333:Generated_Source\PSoC5/isr_High_Frequency_2000Hz.c **** 
 334:Generated_Source\PSoC5/isr_High_Frequency_2000Hz.c **** 
 335:Generated_Source\PSoC5/isr_High_Frequency_2000Hz.c **** /*******************************************************************************
 336:Generated_Source\PSoC5/isr_High_Frequency_2000Hz.c **** * Function Name: isr_High_Frequency_2000Hz_Disable
 337:Generated_Source\PSoC5/isr_High_Frequency_2000Hz.c **** ********************************************************************************
 338:Generated_Source\PSoC5/isr_High_Frequency_2000Hz.c **** *
 339:Generated_Source\PSoC5/isr_High_Frequency_2000Hz.c **** * Summary:
 340:Generated_Source\PSoC5/isr_High_Frequency_2000Hz.c **** *   Disables the Interrupt in the interrupt controller.
 341:Generated_Source\PSoC5/isr_High_Frequency_2000Hz.c **** *
 342:Generated_Source\PSoC5/isr_High_Frequency_2000Hz.c **** * Parameters:
 343:Generated_Source\PSoC5/isr_High_Frequency_2000Hz.c **** *   None
 344:Generated_Source\PSoC5/isr_High_Frequency_2000Hz.c **** *
 345:Generated_Source\PSoC5/isr_High_Frequency_2000Hz.c **** * Return:
 346:Generated_Source\PSoC5/isr_High_Frequency_2000Hz.c **** *   None
 347:Generated_Source\PSoC5/isr_High_Frequency_2000Hz.c **** *
 348:Generated_Source\PSoC5/isr_High_Frequency_2000Hz.c **** *******************************************************************************/
 349:Generated_Source\PSoC5/isr_High_Frequency_2000Hz.c **** void isr_High_Frequency_2000Hz_Disable(void)
 350:Generated_Source\PSoC5/isr_High_Frequency_2000Hz.c **** {
 441              		.loc 1 350 0
 442              		.cfi_startproc
 443              		@ args = 0, pretend = 0, frame = 0
 444              		@ frame_needed = 1, uses_anonymous_args = 0
 445              		@ link register save eliminated.
 446 0000 80B4     		push	{r7}
 447              		.cfi_def_cfa_offset 4
 448              		.cfi_offset 7, -4
ARM GAS  C:\Users\THUNDE~1\AppData\Local\Temp\ccYHD4WS.s 			page 15


 449 0002 00AF     		add	r7, sp, #0
 450              		.cfi_def_cfa_register 7
 351:Generated_Source\PSoC5/isr_High_Frequency_2000Hz.c ****     /* Disable the general interrupt. */
 352:Generated_Source\PSoC5/isr_High_Frequency_2000Hz.c ****     *isr_High_Frequency_2000Hz_INTC_CLR_EN = isr_High_Frequency_2000Hz__INTC_MASK;
 451              		.loc 1 352 0
 452 0004 034B     		ldr	r3, .L33
 453 0006 1022     		movs	r2, #16
 454 0008 1A60     		str	r2, [r3]
 353:Generated_Source\PSoC5/isr_High_Frequency_2000Hz.c **** }
 455              		.loc 1 353 0
 456 000a 00BF     		nop
 457 000c BD46     		mov	sp, r7
 458              		.cfi_def_cfa_register 13
 459              		@ sp needed
 460 000e 80BC     		pop	{r7}
 461              		.cfi_restore 7
 462              		.cfi_def_cfa_offset 0
 463 0010 7047     		bx	lr
 464              	.L34:
 465 0012 00BF     		.align	2
 466              	.L33:
 467 0014 80E100E0 		.word	-536813184
 468              		.cfi_endproc
 469              	.LFE10:
 470              		.size	isr_High_Frequency_2000Hz_Disable, .-isr_High_Frequency_2000Hz_Disable
 471              		.section	.text.isr_High_Frequency_2000Hz_SetPending,"ax",%progbits
 472              		.align	2
 473              		.global	isr_High_Frequency_2000Hz_SetPending
 474              		.thumb
 475              		.thumb_func
 476              		.type	isr_High_Frequency_2000Hz_SetPending, %function
 477              	isr_High_Frequency_2000Hz_SetPending:
 478              	.LFB11:
 354:Generated_Source\PSoC5/isr_High_Frequency_2000Hz.c **** 
 355:Generated_Source\PSoC5/isr_High_Frequency_2000Hz.c **** 
 356:Generated_Source\PSoC5/isr_High_Frequency_2000Hz.c **** /*******************************************************************************
 357:Generated_Source\PSoC5/isr_High_Frequency_2000Hz.c **** * Function Name: isr_High_Frequency_2000Hz_SetPending
 358:Generated_Source\PSoC5/isr_High_Frequency_2000Hz.c **** ********************************************************************************
 359:Generated_Source\PSoC5/isr_High_Frequency_2000Hz.c **** *
 360:Generated_Source\PSoC5/isr_High_Frequency_2000Hz.c **** * Summary:
 361:Generated_Source\PSoC5/isr_High_Frequency_2000Hz.c **** *   Causes the Interrupt to enter the pending state, a software method of
 362:Generated_Source\PSoC5/isr_High_Frequency_2000Hz.c **** *   generating the interrupt.
 363:Generated_Source\PSoC5/isr_High_Frequency_2000Hz.c **** *
 364:Generated_Source\PSoC5/isr_High_Frequency_2000Hz.c **** * Parameters:
 365:Generated_Source\PSoC5/isr_High_Frequency_2000Hz.c **** *   None
 366:Generated_Source\PSoC5/isr_High_Frequency_2000Hz.c **** *
 367:Generated_Source\PSoC5/isr_High_Frequency_2000Hz.c **** * Return:
 368:Generated_Source\PSoC5/isr_High_Frequency_2000Hz.c **** *   None
 369:Generated_Source\PSoC5/isr_High_Frequency_2000Hz.c **** *
 370:Generated_Source\PSoC5/isr_High_Frequency_2000Hz.c **** * Side Effects:
 371:Generated_Source\PSoC5/isr_High_Frequency_2000Hz.c **** *   If interrupts are enabled and the interrupt is set up properly, the ISR is
 372:Generated_Source\PSoC5/isr_High_Frequency_2000Hz.c **** *   entered (depending on the priority of this interrupt and other pending 
 373:Generated_Source\PSoC5/isr_High_Frequency_2000Hz.c **** *   interrupts).
 374:Generated_Source\PSoC5/isr_High_Frequency_2000Hz.c **** *
 375:Generated_Source\PSoC5/isr_High_Frequency_2000Hz.c **** *******************************************************************************/
 376:Generated_Source\PSoC5/isr_High_Frequency_2000Hz.c **** void isr_High_Frequency_2000Hz_SetPending(void)
 377:Generated_Source\PSoC5/isr_High_Frequency_2000Hz.c **** {
ARM GAS  C:\Users\THUNDE~1\AppData\Local\Temp\ccYHD4WS.s 			page 16


 479              		.loc 1 377 0
 480              		.cfi_startproc
 481              		@ args = 0, pretend = 0, frame = 0
 482              		@ frame_needed = 1, uses_anonymous_args = 0
 483              		@ link register save eliminated.
 484 0000 80B4     		push	{r7}
 485              		.cfi_def_cfa_offset 4
 486              		.cfi_offset 7, -4
 487 0002 00AF     		add	r7, sp, #0
 488              		.cfi_def_cfa_register 7
 378:Generated_Source\PSoC5/isr_High_Frequency_2000Hz.c ****     *isr_High_Frequency_2000Hz_INTC_SET_PD = isr_High_Frequency_2000Hz__INTC_MASK;
 489              		.loc 1 378 0
 490 0004 034B     		ldr	r3, .L36
 491 0006 1022     		movs	r2, #16
 492 0008 1A60     		str	r2, [r3]
 379:Generated_Source\PSoC5/isr_High_Frequency_2000Hz.c **** }
 493              		.loc 1 379 0
 494 000a 00BF     		nop
 495 000c BD46     		mov	sp, r7
 496              		.cfi_def_cfa_register 13
 497              		@ sp needed
 498 000e 80BC     		pop	{r7}
 499              		.cfi_restore 7
 500              		.cfi_def_cfa_offset 0
 501 0010 7047     		bx	lr
 502              	.L37:
 503 0012 00BF     		.align	2
 504              	.L36:
 505 0014 00E200E0 		.word	-536813056
 506              		.cfi_endproc
 507              	.LFE11:
 508              		.size	isr_High_Frequency_2000Hz_SetPending, .-isr_High_Frequency_2000Hz_SetPending
 509              		.section	.text.isr_High_Frequency_2000Hz_ClearPending,"ax",%progbits
 510              		.align	2
 511              		.global	isr_High_Frequency_2000Hz_ClearPending
 512              		.thumb
 513              		.thumb_func
 514              		.type	isr_High_Frequency_2000Hz_ClearPending, %function
 515              	isr_High_Frequency_2000Hz_ClearPending:
 516              	.LFB12:
 380:Generated_Source\PSoC5/isr_High_Frequency_2000Hz.c **** 
 381:Generated_Source\PSoC5/isr_High_Frequency_2000Hz.c **** 
 382:Generated_Source\PSoC5/isr_High_Frequency_2000Hz.c **** /*******************************************************************************
 383:Generated_Source\PSoC5/isr_High_Frequency_2000Hz.c **** * Function Name: isr_High_Frequency_2000Hz_ClearPending
 384:Generated_Source\PSoC5/isr_High_Frequency_2000Hz.c **** ********************************************************************************
 385:Generated_Source\PSoC5/isr_High_Frequency_2000Hz.c **** *
 386:Generated_Source\PSoC5/isr_High_Frequency_2000Hz.c **** * Summary:
 387:Generated_Source\PSoC5/isr_High_Frequency_2000Hz.c **** *   Clears a pending interrupt in the interrupt controller.
 388:Generated_Source\PSoC5/isr_High_Frequency_2000Hz.c **** *
 389:Generated_Source\PSoC5/isr_High_Frequency_2000Hz.c **** *   Note Some interrupt sources are clear-on-read and require the block 
 390:Generated_Source\PSoC5/isr_High_Frequency_2000Hz.c **** *   interrupt/status register to be read/cleared with the appropriate block API 
 391:Generated_Source\PSoC5/isr_High_Frequency_2000Hz.c **** *   (GPIO, UART, and so on). Otherwise the ISR will continue to remain in 
 392:Generated_Source\PSoC5/isr_High_Frequency_2000Hz.c **** *   pending state even though the interrupt itself is cleared using this API.
 393:Generated_Source\PSoC5/isr_High_Frequency_2000Hz.c **** *
 394:Generated_Source\PSoC5/isr_High_Frequency_2000Hz.c **** * Parameters:
 395:Generated_Source\PSoC5/isr_High_Frequency_2000Hz.c **** *   None
 396:Generated_Source\PSoC5/isr_High_Frequency_2000Hz.c **** *
ARM GAS  C:\Users\THUNDE~1\AppData\Local\Temp\ccYHD4WS.s 			page 17


 397:Generated_Source\PSoC5/isr_High_Frequency_2000Hz.c **** * Return:
 398:Generated_Source\PSoC5/isr_High_Frequency_2000Hz.c **** *   None
 399:Generated_Source\PSoC5/isr_High_Frequency_2000Hz.c **** *
 400:Generated_Source\PSoC5/isr_High_Frequency_2000Hz.c **** *******************************************************************************/
 401:Generated_Source\PSoC5/isr_High_Frequency_2000Hz.c **** void isr_High_Frequency_2000Hz_ClearPending(void)
 402:Generated_Source\PSoC5/isr_High_Frequency_2000Hz.c **** {
 517              		.loc 1 402 0
 518              		.cfi_startproc
 519              		@ args = 0, pretend = 0, frame = 0
 520              		@ frame_needed = 1, uses_anonymous_args = 0
 521              		@ link register save eliminated.
 522 0000 80B4     		push	{r7}
 523              		.cfi_def_cfa_offset 4
 524              		.cfi_offset 7, -4
 525 0002 00AF     		add	r7, sp, #0
 526              		.cfi_def_cfa_register 7
 403:Generated_Source\PSoC5/isr_High_Frequency_2000Hz.c ****     *isr_High_Frequency_2000Hz_INTC_CLR_PD = isr_High_Frequency_2000Hz__INTC_MASK;
 527              		.loc 1 403 0
 528 0004 034B     		ldr	r3, .L39
 529 0006 1022     		movs	r2, #16
 530 0008 1A60     		str	r2, [r3]
 404:Generated_Source\PSoC5/isr_High_Frequency_2000Hz.c **** }
 531              		.loc 1 404 0
 532 000a 00BF     		nop
 533 000c BD46     		mov	sp, r7
 534              		.cfi_def_cfa_register 13
 535              		@ sp needed
 536 000e 80BC     		pop	{r7}
 537              		.cfi_restore 7
 538              		.cfi_def_cfa_offset 0
 539 0010 7047     		bx	lr
 540              	.L40:
 541 0012 00BF     		.align	2
 542              	.L39:
 543 0014 80E200E0 		.word	-536812928
 544              		.cfi_endproc
 545              	.LFE12:
 546              		.size	isr_High_Frequency_2000Hz_ClearPending, .-isr_High_Frequency_2000Hz_ClearPending
 547              		.text
 548              	.Letext0:
 549              		.file 2 "Generated_Source\\PSoC5/cytypes.h"