ARM GAS  C:\Users\THUNDE~1\AppData\Local\Temp\ccnvkTw9.s 			page 1


   1              		.syntax unified
   2              		.cpu cortex-m3
   3              		.fpu softvfp
   4              		.eabi_attribute 20, 1
   5              		.eabi_attribute 21, 1
   6              		.eabi_attribute 23, 3
   7              		.eabi_attribute 24, 1
   8              		.eabi_attribute 25, 1
   9              		.eabi_attribute 26, 1
  10              		.eabi_attribute 30, 6
  11              		.eabi_attribute 34, 1
  12              		.eabi_attribute 18, 4
  13              		.thumb
  14              		.syntax unified
  15              		.file	"isr_UART1_TX_BYTE_COMPLETE.c"
  16              		.text
  17              	.Ltext0:
  18              		.cfi_sections	.debug_frame
  19              		.comm	buffer,4098,4
  20              		.section	.text.isr_UART1_TX_BYTE_COMPLETE_Start,"ax",%progbits
  21              		.align	2
  22              		.global	isr_UART1_TX_BYTE_COMPLETE_Start
  23              		.thumb
  24              		.thumb_func
  25              		.type	isr_UART1_TX_BYTE_COMPLETE_Start, %function
  26              	isr_UART1_TX_BYTE_COMPLETE_Start:
  27              	.LFB0:
  28              		.file 1 "Generated_Source\\PSoC5\\isr_UART1_TX_BYTE_COMPLETE.c"
   1:Generated_Source\PSoC5/isr_UART1_TX_BYTE_COMPLETE.c **** /*******************************************************************************
   2:Generated_Source\PSoC5/isr_UART1_TX_BYTE_COMPLETE.c **** * File Name: isr_UART1_TX_BYTE_COMPLETE.c  
   3:Generated_Source\PSoC5/isr_UART1_TX_BYTE_COMPLETE.c **** * Version 1.70
   4:Generated_Source\PSoC5/isr_UART1_TX_BYTE_COMPLETE.c **** *
   5:Generated_Source\PSoC5/isr_UART1_TX_BYTE_COMPLETE.c **** *  Description:
   6:Generated_Source\PSoC5/isr_UART1_TX_BYTE_COMPLETE.c **** *   API for controlling the state of an interrupt.
   7:Generated_Source\PSoC5/isr_UART1_TX_BYTE_COMPLETE.c **** *
   8:Generated_Source\PSoC5/isr_UART1_TX_BYTE_COMPLETE.c **** *
   9:Generated_Source\PSoC5/isr_UART1_TX_BYTE_COMPLETE.c **** *  Note:
  10:Generated_Source\PSoC5/isr_UART1_TX_BYTE_COMPLETE.c **** *
  11:Generated_Source\PSoC5/isr_UART1_TX_BYTE_COMPLETE.c **** ********************************************************************************
  12:Generated_Source\PSoC5/isr_UART1_TX_BYTE_COMPLETE.c **** * Copyright 2008-2015, Cypress Semiconductor Corporation.  All rights reserved.
  13:Generated_Source\PSoC5/isr_UART1_TX_BYTE_COMPLETE.c **** * You may use this file only in accordance with the license, terms, conditions, 
  14:Generated_Source\PSoC5/isr_UART1_TX_BYTE_COMPLETE.c **** * disclaimers, and limitations in the end user license agreement accompanying 
  15:Generated_Source\PSoC5/isr_UART1_TX_BYTE_COMPLETE.c **** * the software package with which this file was provided.
  16:Generated_Source\PSoC5/isr_UART1_TX_BYTE_COMPLETE.c **** *******************************************************************************/
  17:Generated_Source\PSoC5/isr_UART1_TX_BYTE_COMPLETE.c **** 
  18:Generated_Source\PSoC5/isr_UART1_TX_BYTE_COMPLETE.c **** 
  19:Generated_Source\PSoC5/isr_UART1_TX_BYTE_COMPLETE.c **** #include <cydevice_trm.h>
  20:Generated_Source\PSoC5/isr_UART1_TX_BYTE_COMPLETE.c **** #include <CyLib.h>
  21:Generated_Source\PSoC5/isr_UART1_TX_BYTE_COMPLETE.c **** #include <isr_UART1_TX_BYTE_COMPLETE.h>
  22:Generated_Source\PSoC5/isr_UART1_TX_BYTE_COMPLETE.c **** 
  23:Generated_Source\PSoC5/isr_UART1_TX_BYTE_COMPLETE.c **** 
  24:Generated_Source\PSoC5/isr_UART1_TX_BYTE_COMPLETE.c **** #if !defined(isr_UART1_TX_BYTE_COMPLETE__REMOVED) /* Check for removal by optimization */
  25:Generated_Source\PSoC5/isr_UART1_TX_BYTE_COMPLETE.c **** 
  26:Generated_Source\PSoC5/isr_UART1_TX_BYTE_COMPLETE.c **** /*******************************************************************************
  27:Generated_Source\PSoC5/isr_UART1_TX_BYTE_COMPLETE.c **** *  Place your includes, defines and code here 
  28:Generated_Source\PSoC5/isr_UART1_TX_BYTE_COMPLETE.c **** ********************************************************************************/
  29:Generated_Source\PSoC5/isr_UART1_TX_BYTE_COMPLETE.c **** /* `#START isr_UART1_TX_BYTE_COMPLETE_intc` */
ARM GAS  C:\Users\THUNDE~1\AppData\Local\Temp\ccnvkTw9.s 			page 2


  30:Generated_Source\PSoC5/isr_UART1_TX_BYTE_COMPLETE.c **** #define UART_1_TXDATA_REG          (* (reg8 *) UART_1_BUART_sTX_TxShifter_u0__F0_REG)
  31:Generated_Source\PSoC5/isr_UART1_TX_BYTE_COMPLETE.c **** #include <selfFIFO.h>
  32:Generated_Source\PSoC5/isr_UART1_TX_BYTE_COMPLETE.c **** #include <UART_1.h>
  33:Generated_Source\PSoC5/isr_UART1_TX_BYTE_COMPLETE.c **** /* `#END` */
  34:Generated_Source\PSoC5/isr_UART1_TX_BYTE_COMPLETE.c **** 
  35:Generated_Source\PSoC5/isr_UART1_TX_BYTE_COMPLETE.c **** #ifndef CYINT_IRQ_BASE
  36:Generated_Source\PSoC5/isr_UART1_TX_BYTE_COMPLETE.c **** #define CYINT_IRQ_BASE      16
  37:Generated_Source\PSoC5/isr_UART1_TX_BYTE_COMPLETE.c **** #endif /* CYINT_IRQ_BASE */
  38:Generated_Source\PSoC5/isr_UART1_TX_BYTE_COMPLETE.c **** #ifndef CYINT_VECT_TABLE
  39:Generated_Source\PSoC5/isr_UART1_TX_BYTE_COMPLETE.c **** #define CYINT_VECT_TABLE    ((cyisraddress **) CYREG_NVIC_VECT_OFFSET)
  40:Generated_Source\PSoC5/isr_UART1_TX_BYTE_COMPLETE.c **** #endif /* CYINT_VECT_TABLE */
  41:Generated_Source\PSoC5/isr_UART1_TX_BYTE_COMPLETE.c **** 
  42:Generated_Source\PSoC5/isr_UART1_TX_BYTE_COMPLETE.c **** /* Declared in startup, used to set unused interrupts to. */
  43:Generated_Source\PSoC5/isr_UART1_TX_BYTE_COMPLETE.c **** CY_ISR_PROTO(IntDefaultHandler);
  44:Generated_Source\PSoC5/isr_UART1_TX_BYTE_COMPLETE.c **** 
  45:Generated_Source\PSoC5/isr_UART1_TX_BYTE_COMPLETE.c **** 
  46:Generated_Source\PSoC5/isr_UART1_TX_BYTE_COMPLETE.c **** /*******************************************************************************
  47:Generated_Source\PSoC5/isr_UART1_TX_BYTE_COMPLETE.c **** * Function Name: isr_UART1_TX_BYTE_COMPLETE_Start
  48:Generated_Source\PSoC5/isr_UART1_TX_BYTE_COMPLETE.c **** ********************************************************************************
  49:Generated_Source\PSoC5/isr_UART1_TX_BYTE_COMPLETE.c **** *
  50:Generated_Source\PSoC5/isr_UART1_TX_BYTE_COMPLETE.c **** * Summary:
  51:Generated_Source\PSoC5/isr_UART1_TX_BYTE_COMPLETE.c **** *  Set up the interrupt and enable it. This function disables the interrupt, 
  52:Generated_Source\PSoC5/isr_UART1_TX_BYTE_COMPLETE.c **** *  sets the default interrupt vector, sets the priority from the value in the
  53:Generated_Source\PSoC5/isr_UART1_TX_BYTE_COMPLETE.c **** *  Design Wide Resources Interrupt Editor, then enables the interrupt to the 
  54:Generated_Source\PSoC5/isr_UART1_TX_BYTE_COMPLETE.c **** *  interrupt controller.
  55:Generated_Source\PSoC5/isr_UART1_TX_BYTE_COMPLETE.c **** *
  56:Generated_Source\PSoC5/isr_UART1_TX_BYTE_COMPLETE.c **** * Parameters:  
  57:Generated_Source\PSoC5/isr_UART1_TX_BYTE_COMPLETE.c **** *   None
  58:Generated_Source\PSoC5/isr_UART1_TX_BYTE_COMPLETE.c **** *
  59:Generated_Source\PSoC5/isr_UART1_TX_BYTE_COMPLETE.c **** * Return:
  60:Generated_Source\PSoC5/isr_UART1_TX_BYTE_COMPLETE.c **** *   None
  61:Generated_Source\PSoC5/isr_UART1_TX_BYTE_COMPLETE.c **** *
  62:Generated_Source\PSoC5/isr_UART1_TX_BYTE_COMPLETE.c **** *******************************************************************************/
  63:Generated_Source\PSoC5/isr_UART1_TX_BYTE_COMPLETE.c **** void isr_UART1_TX_BYTE_COMPLETE_Start(void)
  64:Generated_Source\PSoC5/isr_UART1_TX_BYTE_COMPLETE.c **** {
  29              		.loc 1 64 0
  30              		.cfi_startproc
  31              		@ args = 0, pretend = 0, frame = 0
  32              		@ frame_needed = 1, uses_anonymous_args = 0
  33 0000 80B5     		push	{r7, lr}
  34              		.cfi_def_cfa_offset 8
  35              		.cfi_offset 7, -8
  36              		.cfi_offset 14, -4
  37 0002 00AF     		add	r7, sp, #0
  38              		.cfi_def_cfa_register 7
  65:Generated_Source\PSoC5/isr_UART1_TX_BYTE_COMPLETE.c ****     /* For all we know the interrupt is active. */
  66:Generated_Source\PSoC5/isr_UART1_TX_BYTE_COMPLETE.c ****     isr_UART1_TX_BYTE_COMPLETE_Disable();
  39              		.loc 1 66 0
  40 0004 FFF7FEFF 		bl	isr_UART1_TX_BYTE_COMPLETE_Disable
  67:Generated_Source\PSoC5/isr_UART1_TX_BYTE_COMPLETE.c **** 
  68:Generated_Source\PSoC5/isr_UART1_TX_BYTE_COMPLETE.c ****     /* Set the ISR to point to the isr_UART1_TX_BYTE_COMPLETE Interrupt. */
  69:Generated_Source\PSoC5/isr_UART1_TX_BYTE_COMPLETE.c ****     isr_UART1_TX_BYTE_COMPLETE_SetVector(&isr_UART1_TX_BYTE_COMPLETE_Interrupt);
  41              		.loc 1 69 0
  42 0008 0448     		ldr	r0, .L2
  43 000a FFF7FEFF 		bl	isr_UART1_TX_BYTE_COMPLETE_SetVector
  70:Generated_Source\PSoC5/isr_UART1_TX_BYTE_COMPLETE.c **** 
  71:Generated_Source\PSoC5/isr_UART1_TX_BYTE_COMPLETE.c ****     /* Set the priority. */
ARM GAS  C:\Users\THUNDE~1\AppData\Local\Temp\ccnvkTw9.s 			page 3


  72:Generated_Source\PSoC5/isr_UART1_TX_BYTE_COMPLETE.c ****     isr_UART1_TX_BYTE_COMPLETE_SetPriority((uint8)isr_UART1_TX_BYTE_COMPLETE_INTC_PRIOR_NUMBER);
  44              		.loc 1 72 0
  45 000e 0520     		movs	r0, #5
  46 0010 FFF7FEFF 		bl	isr_UART1_TX_BYTE_COMPLETE_SetPriority
  73:Generated_Source\PSoC5/isr_UART1_TX_BYTE_COMPLETE.c **** 
  74:Generated_Source\PSoC5/isr_UART1_TX_BYTE_COMPLETE.c ****     /* Enable it. */
  75:Generated_Source\PSoC5/isr_UART1_TX_BYTE_COMPLETE.c ****     isr_UART1_TX_BYTE_COMPLETE_Enable();
  47              		.loc 1 75 0
  48 0014 FFF7FEFF 		bl	isr_UART1_TX_BYTE_COMPLETE_Enable
  76:Generated_Source\PSoC5/isr_UART1_TX_BYTE_COMPLETE.c **** }
  49              		.loc 1 76 0
  50 0018 00BF     		nop
  51 001a 80BD     		pop	{r7, pc}
  52              	.L3:
  53              		.align	2
  54              	.L2:
  55 001c 00000000 		.word	isr_UART1_TX_BYTE_COMPLETE_Interrupt
  56              		.cfi_endproc
  57              	.LFE0:
  58              		.size	isr_UART1_TX_BYTE_COMPLETE_Start, .-isr_UART1_TX_BYTE_COMPLETE_Start
  59              		.section	.text.isr_UART1_TX_BYTE_COMPLETE_StartEx,"ax",%progbits
  60              		.align	2
  61              		.global	isr_UART1_TX_BYTE_COMPLETE_StartEx
  62              		.thumb
  63              		.thumb_func
  64              		.type	isr_UART1_TX_BYTE_COMPLETE_StartEx, %function
  65              	isr_UART1_TX_BYTE_COMPLETE_StartEx:
  66              	.LFB1:
  77:Generated_Source\PSoC5/isr_UART1_TX_BYTE_COMPLETE.c **** 
  78:Generated_Source\PSoC5/isr_UART1_TX_BYTE_COMPLETE.c **** 
  79:Generated_Source\PSoC5/isr_UART1_TX_BYTE_COMPLETE.c **** /*******************************************************************************
  80:Generated_Source\PSoC5/isr_UART1_TX_BYTE_COMPLETE.c **** * Function Name: isr_UART1_TX_BYTE_COMPLETE_StartEx
  81:Generated_Source\PSoC5/isr_UART1_TX_BYTE_COMPLETE.c **** ********************************************************************************
  82:Generated_Source\PSoC5/isr_UART1_TX_BYTE_COMPLETE.c **** *
  83:Generated_Source\PSoC5/isr_UART1_TX_BYTE_COMPLETE.c **** * Summary:
  84:Generated_Source\PSoC5/isr_UART1_TX_BYTE_COMPLETE.c **** *  Sets up the interrupt and enables it. This function disables the interrupt,
  85:Generated_Source\PSoC5/isr_UART1_TX_BYTE_COMPLETE.c **** *  sets the interrupt vector based on the address passed in, sets the priority 
  86:Generated_Source\PSoC5/isr_UART1_TX_BYTE_COMPLETE.c **** *  from the value in the Design Wide Resources Interrupt Editor, then enables 
  87:Generated_Source\PSoC5/isr_UART1_TX_BYTE_COMPLETE.c **** *  the interrupt to the interrupt controller.
  88:Generated_Source\PSoC5/isr_UART1_TX_BYTE_COMPLETE.c **** *  
  89:Generated_Source\PSoC5/isr_UART1_TX_BYTE_COMPLETE.c **** *  When defining ISR functions, the CY_ISR and CY_ISR_PROTO macros should be 
  90:Generated_Source\PSoC5/isr_UART1_TX_BYTE_COMPLETE.c **** *  used to provide consistent definition across compilers:
  91:Generated_Source\PSoC5/isr_UART1_TX_BYTE_COMPLETE.c **** *  
  92:Generated_Source\PSoC5/isr_UART1_TX_BYTE_COMPLETE.c **** *  Function definition example:
  93:Generated_Source\PSoC5/isr_UART1_TX_BYTE_COMPLETE.c **** *   CY_ISR(MyISR)
  94:Generated_Source\PSoC5/isr_UART1_TX_BYTE_COMPLETE.c **** *   {
  95:Generated_Source\PSoC5/isr_UART1_TX_BYTE_COMPLETE.c **** *   }
  96:Generated_Source\PSoC5/isr_UART1_TX_BYTE_COMPLETE.c **** *   Function prototype example:
  97:Generated_Source\PSoC5/isr_UART1_TX_BYTE_COMPLETE.c **** *   CY_ISR_PROTO(MyISR);
  98:Generated_Source\PSoC5/isr_UART1_TX_BYTE_COMPLETE.c **** *
  99:Generated_Source\PSoC5/isr_UART1_TX_BYTE_COMPLETE.c **** * Parameters:  
 100:Generated_Source\PSoC5/isr_UART1_TX_BYTE_COMPLETE.c **** *   address: Address of the ISR to set in the interrupt vector table.
 101:Generated_Source\PSoC5/isr_UART1_TX_BYTE_COMPLETE.c **** *
 102:Generated_Source\PSoC5/isr_UART1_TX_BYTE_COMPLETE.c **** * Return:
 103:Generated_Source\PSoC5/isr_UART1_TX_BYTE_COMPLETE.c **** *   None
 104:Generated_Source\PSoC5/isr_UART1_TX_BYTE_COMPLETE.c **** *
 105:Generated_Source\PSoC5/isr_UART1_TX_BYTE_COMPLETE.c **** *******************************************************************************/
ARM GAS  C:\Users\THUNDE~1\AppData\Local\Temp\ccnvkTw9.s 			page 4


 106:Generated_Source\PSoC5/isr_UART1_TX_BYTE_COMPLETE.c **** void isr_UART1_TX_BYTE_COMPLETE_StartEx(cyisraddress address)
 107:Generated_Source\PSoC5/isr_UART1_TX_BYTE_COMPLETE.c **** {
  67              		.loc 1 107 0
  68              		.cfi_startproc
  69              		@ args = 0, pretend = 0, frame = 8
  70              		@ frame_needed = 1, uses_anonymous_args = 0
  71 0000 80B5     		push	{r7, lr}
  72              		.cfi_def_cfa_offset 8
  73              		.cfi_offset 7, -8
  74              		.cfi_offset 14, -4
  75 0002 82B0     		sub	sp, sp, #8
  76              		.cfi_def_cfa_offset 16
  77 0004 00AF     		add	r7, sp, #0
  78              		.cfi_def_cfa_register 7
  79 0006 7860     		str	r0, [r7, #4]
 108:Generated_Source\PSoC5/isr_UART1_TX_BYTE_COMPLETE.c ****     /* For all we know the interrupt is active. */
 109:Generated_Source\PSoC5/isr_UART1_TX_BYTE_COMPLETE.c ****     isr_UART1_TX_BYTE_COMPLETE_Disable();
  80              		.loc 1 109 0
  81 0008 FFF7FEFF 		bl	isr_UART1_TX_BYTE_COMPLETE_Disable
 110:Generated_Source\PSoC5/isr_UART1_TX_BYTE_COMPLETE.c **** 
 111:Generated_Source\PSoC5/isr_UART1_TX_BYTE_COMPLETE.c ****     /* Set the ISR to point to the isr_UART1_TX_BYTE_COMPLETE Interrupt. */
 112:Generated_Source\PSoC5/isr_UART1_TX_BYTE_COMPLETE.c ****     isr_UART1_TX_BYTE_COMPLETE_SetVector(address);
  82              		.loc 1 112 0
  83 000c 7868     		ldr	r0, [r7, #4]
  84 000e FFF7FEFF 		bl	isr_UART1_TX_BYTE_COMPLETE_SetVector
 113:Generated_Source\PSoC5/isr_UART1_TX_BYTE_COMPLETE.c **** 
 114:Generated_Source\PSoC5/isr_UART1_TX_BYTE_COMPLETE.c ****     /* Set the priority. */
 115:Generated_Source\PSoC5/isr_UART1_TX_BYTE_COMPLETE.c ****     isr_UART1_TX_BYTE_COMPLETE_SetPriority((uint8)isr_UART1_TX_BYTE_COMPLETE_INTC_PRIOR_NUMBER);
  85              		.loc 1 115 0
  86 0012 0520     		movs	r0, #5
  87 0014 FFF7FEFF 		bl	isr_UART1_TX_BYTE_COMPLETE_SetPriority
 116:Generated_Source\PSoC5/isr_UART1_TX_BYTE_COMPLETE.c **** 
 117:Generated_Source\PSoC5/isr_UART1_TX_BYTE_COMPLETE.c ****     /* Enable it. */
 118:Generated_Source\PSoC5/isr_UART1_TX_BYTE_COMPLETE.c ****     isr_UART1_TX_BYTE_COMPLETE_Enable();
  88              		.loc 1 118 0
  89 0018 FFF7FEFF 		bl	isr_UART1_TX_BYTE_COMPLETE_Enable
 119:Generated_Source\PSoC5/isr_UART1_TX_BYTE_COMPLETE.c **** }
  90              		.loc 1 119 0
  91 001c 00BF     		nop
  92 001e 0837     		adds	r7, r7, #8
  93              		.cfi_def_cfa_offset 8
  94 0020 BD46     		mov	sp, r7
  95              		.cfi_def_cfa_register 13
  96              		@ sp needed
  97 0022 80BD     		pop	{r7, pc}
  98              		.cfi_endproc
  99              	.LFE1:
 100              		.size	isr_UART1_TX_BYTE_COMPLETE_StartEx, .-isr_UART1_TX_BYTE_COMPLETE_StartEx
 101              		.section	.text.isr_UART1_TX_BYTE_COMPLETE_Stop,"ax",%progbits
 102              		.align	2
 103              		.global	isr_UART1_TX_BYTE_COMPLETE_Stop
 104              		.thumb
 105              		.thumb_func
 106              		.type	isr_UART1_TX_BYTE_COMPLETE_Stop, %function
 107              	isr_UART1_TX_BYTE_COMPLETE_Stop:
 108              	.LFB2:
 120:Generated_Source\PSoC5/isr_UART1_TX_BYTE_COMPLETE.c **** 
ARM GAS  C:\Users\THUNDE~1\AppData\Local\Temp\ccnvkTw9.s 			page 5


 121:Generated_Source\PSoC5/isr_UART1_TX_BYTE_COMPLETE.c **** 
 122:Generated_Source\PSoC5/isr_UART1_TX_BYTE_COMPLETE.c **** /*******************************************************************************
 123:Generated_Source\PSoC5/isr_UART1_TX_BYTE_COMPLETE.c **** * Function Name: isr_UART1_TX_BYTE_COMPLETE_Stop
 124:Generated_Source\PSoC5/isr_UART1_TX_BYTE_COMPLETE.c **** ********************************************************************************
 125:Generated_Source\PSoC5/isr_UART1_TX_BYTE_COMPLETE.c **** *
 126:Generated_Source\PSoC5/isr_UART1_TX_BYTE_COMPLETE.c **** * Summary:
 127:Generated_Source\PSoC5/isr_UART1_TX_BYTE_COMPLETE.c **** *   Disables and removes the interrupt.
 128:Generated_Source\PSoC5/isr_UART1_TX_BYTE_COMPLETE.c **** *
 129:Generated_Source\PSoC5/isr_UART1_TX_BYTE_COMPLETE.c **** * Parameters:  
 130:Generated_Source\PSoC5/isr_UART1_TX_BYTE_COMPLETE.c **** *   None
 131:Generated_Source\PSoC5/isr_UART1_TX_BYTE_COMPLETE.c **** *
 132:Generated_Source\PSoC5/isr_UART1_TX_BYTE_COMPLETE.c **** * Return:
 133:Generated_Source\PSoC5/isr_UART1_TX_BYTE_COMPLETE.c **** *   None
 134:Generated_Source\PSoC5/isr_UART1_TX_BYTE_COMPLETE.c **** *
 135:Generated_Source\PSoC5/isr_UART1_TX_BYTE_COMPLETE.c **** *******************************************************************************/
 136:Generated_Source\PSoC5/isr_UART1_TX_BYTE_COMPLETE.c **** void isr_UART1_TX_BYTE_COMPLETE_Stop(void)
 137:Generated_Source\PSoC5/isr_UART1_TX_BYTE_COMPLETE.c **** {
 109              		.loc 1 137 0
 110              		.cfi_startproc
 111              		@ args = 0, pretend = 0, frame = 0
 112              		@ frame_needed = 1, uses_anonymous_args = 0
 113 0000 80B5     		push	{r7, lr}
 114              		.cfi_def_cfa_offset 8
 115              		.cfi_offset 7, -8
 116              		.cfi_offset 14, -4
 117 0002 00AF     		add	r7, sp, #0
 118              		.cfi_def_cfa_register 7
 138:Generated_Source\PSoC5/isr_UART1_TX_BYTE_COMPLETE.c ****     /* Disable this interrupt. */
 139:Generated_Source\PSoC5/isr_UART1_TX_BYTE_COMPLETE.c ****     isr_UART1_TX_BYTE_COMPLETE_Disable();
 119              		.loc 1 139 0
 120 0004 FFF7FEFF 		bl	isr_UART1_TX_BYTE_COMPLETE_Disable
 140:Generated_Source\PSoC5/isr_UART1_TX_BYTE_COMPLETE.c **** 
 141:Generated_Source\PSoC5/isr_UART1_TX_BYTE_COMPLETE.c ****     /* Set the ISR to point to the passive one. */
 142:Generated_Source\PSoC5/isr_UART1_TX_BYTE_COMPLETE.c ****     isr_UART1_TX_BYTE_COMPLETE_SetVector(&IntDefaultHandler);
 121              		.loc 1 142 0
 122 0008 0248     		ldr	r0, .L6
 123 000a FFF7FEFF 		bl	isr_UART1_TX_BYTE_COMPLETE_SetVector
 143:Generated_Source\PSoC5/isr_UART1_TX_BYTE_COMPLETE.c **** }
 124              		.loc 1 143 0
 125 000e 00BF     		nop
 126 0010 80BD     		pop	{r7, pc}
 127              	.L7:
 128 0012 00BF     		.align	2
 129              	.L6:
 130 0014 00000000 		.word	IntDefaultHandler
 131              		.cfi_endproc
 132              	.LFE2:
 133              		.size	isr_UART1_TX_BYTE_COMPLETE_Stop, .-isr_UART1_TX_BYTE_COMPLETE_Stop
 134              		.section	.text.isr_UART1_TX_BYTE_COMPLETE_Interrupt,"ax",%progbits
 135              		.align	2
 136              		.global	isr_UART1_TX_BYTE_COMPLETE_Interrupt
 137              		.thumb
 138              		.thumb_func
 139              		.type	isr_UART1_TX_BYTE_COMPLETE_Interrupt, %function
 140              	isr_UART1_TX_BYTE_COMPLETE_Interrupt:
 141              	.LFB3:
 144:Generated_Source\PSoC5/isr_UART1_TX_BYTE_COMPLETE.c **** 
ARM GAS  C:\Users\THUNDE~1\AppData\Local\Temp\ccnvkTw9.s 			page 6


 145:Generated_Source\PSoC5/isr_UART1_TX_BYTE_COMPLETE.c **** 
 146:Generated_Source\PSoC5/isr_UART1_TX_BYTE_COMPLETE.c **** /*******************************************************************************
 147:Generated_Source\PSoC5/isr_UART1_TX_BYTE_COMPLETE.c **** * Function Name: isr_UART1_TX_BYTE_COMPLETE_Interrupt
 148:Generated_Source\PSoC5/isr_UART1_TX_BYTE_COMPLETE.c **** ********************************************************************************
 149:Generated_Source\PSoC5/isr_UART1_TX_BYTE_COMPLETE.c **** *
 150:Generated_Source\PSoC5/isr_UART1_TX_BYTE_COMPLETE.c **** * Summary:
 151:Generated_Source\PSoC5/isr_UART1_TX_BYTE_COMPLETE.c **** *   The default Interrupt Service Routine for isr_UART1_TX_BYTE_COMPLETE.
 152:Generated_Source\PSoC5/isr_UART1_TX_BYTE_COMPLETE.c **** *
 153:Generated_Source\PSoC5/isr_UART1_TX_BYTE_COMPLETE.c **** *   Add custom code between the coments to keep the next version of this file
 154:Generated_Source\PSoC5/isr_UART1_TX_BYTE_COMPLETE.c **** *   from over writting your code.
 155:Generated_Source\PSoC5/isr_UART1_TX_BYTE_COMPLETE.c **** *
 156:Generated_Source\PSoC5/isr_UART1_TX_BYTE_COMPLETE.c **** * Parameters:  
 157:Generated_Source\PSoC5/isr_UART1_TX_BYTE_COMPLETE.c **** *
 158:Generated_Source\PSoC5/isr_UART1_TX_BYTE_COMPLETE.c **** * Return:
 159:Generated_Source\PSoC5/isr_UART1_TX_BYTE_COMPLETE.c **** *   None
 160:Generated_Source\PSoC5/isr_UART1_TX_BYTE_COMPLETE.c **** *
 161:Generated_Source\PSoC5/isr_UART1_TX_BYTE_COMPLETE.c **** *******************************************************************************/
 162:Generated_Source\PSoC5/isr_UART1_TX_BYTE_COMPLETE.c **** CY_ISR(isr_UART1_TX_BYTE_COMPLETE_Interrupt)
 163:Generated_Source\PSoC5/isr_UART1_TX_BYTE_COMPLETE.c **** {
 142              		.loc 1 163 0
 143              		.cfi_startproc
 144              		@ args = 0, pretend = 0, frame = 8
 145              		@ frame_needed = 1, uses_anonymous_args = 0
 146 0000 80B5     		push	{r7, lr}
 147              		.cfi_def_cfa_offset 8
 148              		.cfi_offset 7, -8
 149              		.cfi_offset 14, -4
 150 0002 82B0     		sub	sp, sp, #8
 151              		.cfi_def_cfa_offset 16
 152 0004 00AF     		add	r7, sp, #0
 153              		.cfi_def_cfa_register 7
 164:Generated_Source\PSoC5/isr_UART1_TX_BYTE_COMPLETE.c ****     #ifdef isr_UART1_TX_BYTE_COMPLETE_INTERRUPT_INTERRUPT_CALLBACK
 165:Generated_Source\PSoC5/isr_UART1_TX_BYTE_COMPLETE.c ****         isr_UART1_TX_BYTE_COMPLETE_Interrupt_InterruptCallback();
 166:Generated_Source\PSoC5/isr_UART1_TX_BYTE_COMPLETE.c ****     #endif /* isr_UART1_TX_BYTE_COMPLETE_INTERRUPT_INTERRUPT_CALLBACK */ 
 167:Generated_Source\PSoC5/isr_UART1_TX_BYTE_COMPLETE.c **** 
 168:Generated_Source\PSoC5/isr_UART1_TX_BYTE_COMPLETE.c ****     /*  Place your Interrupt code here. */
 169:Generated_Source\PSoC5/isr_UART1_TX_BYTE_COMPLETE.c ****     /* `#START isr_UART1_TX_BYTE_COMPLETE_Interrupt` */
 170:Generated_Source\PSoC5/isr_UART1_TX_BYTE_COMPLETE.c **** 
 171:Generated_Source\PSoC5/isr_UART1_TX_BYTE_COMPLETE.c **** 	uint8_t msg =0;
 154              		.loc 1 171 0
 155 0006 0023     		movs	r3, #0
 156 0008 FB71     		strb	r3, [r7, #7]
 172:Generated_Source\PSoC5/isr_UART1_TX_BYTE_COMPLETE.c **** 	if(BufferOut(&msg)==BUFFER_SUCCESS)
 157              		.loc 1 172 0
 158 000a FB1D     		adds	r3, r7, #7
 159 000c 1846     		mov	r0, r3
 160 000e FFF7FEFF 		bl	BufferOut
 161 0012 0346     		mov	r3, r0
 162 0014 012B     		cmp	r3, #1
 163 0016 03D1     		bne	.L9
 173:Generated_Source\PSoC5/isr_UART1_TX_BYTE_COMPLETE.c **** 	{
 174:Generated_Source\PSoC5/isr_UART1_TX_BYTE_COMPLETE.c **** 		UART_1_TXDATA_REG = msg;
 164              		.loc 1 174 0
 165 0018 054B     		ldr	r3, .L12
 166 001a FA79     		ldrb	r2, [r7, #7]	@ zero_extendqisi2
 167 001c 1A70     		strb	r2, [r3]
 175:Generated_Source\PSoC5/isr_UART1_TX_BYTE_COMPLETE.c **** 	}
ARM GAS  C:\Users\THUNDE~1\AppData\Local\Temp\ccnvkTw9.s 			page 7


 176:Generated_Source\PSoC5/isr_UART1_TX_BYTE_COMPLETE.c **** 	else{
 177:Generated_Source\PSoC5/isr_UART1_TX_BYTE_COMPLETE.c **** 
 178:Generated_Source\PSoC5/isr_UART1_TX_BYTE_COMPLETE.c **** 		UART_1_SetTxInterruptMode(0);
 179:Generated_Source\PSoC5/isr_UART1_TX_BYTE_COMPLETE.c **** 
 180:Generated_Source\PSoC5/isr_UART1_TX_BYTE_COMPLETE.c **** 	}
 181:Generated_Source\PSoC5/isr_UART1_TX_BYTE_COMPLETE.c **** 
 182:Generated_Source\PSoC5/isr_UART1_TX_BYTE_COMPLETE.c **** 
 183:Generated_Source\PSoC5/isr_UART1_TX_BYTE_COMPLETE.c ****     /* `#END` */
 184:Generated_Source\PSoC5/isr_UART1_TX_BYTE_COMPLETE.c **** }
 168              		.loc 1 184 0
 169 001e 02E0     		b	.L11
 170              	.L9:
 178:Generated_Source\PSoC5/isr_UART1_TX_BYTE_COMPLETE.c **** 
 171              		.loc 1 178 0
 172 0020 0020     		movs	r0, #0
 173 0022 FFF7FEFF 		bl	UART_1_SetTxInterruptMode
 174              	.L11:
 175              		.loc 1 184 0
 176 0026 00BF     		nop
 177 0028 0837     		adds	r7, r7, #8
 178              		.cfi_def_cfa_offset 8
 179 002a BD46     		mov	sp, r7
 180              		.cfi_def_cfa_register 13
 181              		@ sp needed
 182 002c 80BD     		pop	{r7, pc}
 183              	.L13:
 184 002e 00BF     		.align	2
 185              	.L12:
 186 0030 4A640040 		.word	1073767498
 187              		.cfi_endproc
 188              	.LFE3:
 189              		.size	isr_UART1_TX_BYTE_COMPLETE_Interrupt, .-isr_UART1_TX_BYTE_COMPLETE_Interrupt
 190              		.section	.text.isr_UART1_TX_BYTE_COMPLETE_SetVector,"ax",%progbits
 191              		.align	2
 192              		.global	isr_UART1_TX_BYTE_COMPLETE_SetVector
 193              		.thumb
 194              		.thumb_func
 195              		.type	isr_UART1_TX_BYTE_COMPLETE_SetVector, %function
 196              	isr_UART1_TX_BYTE_COMPLETE_SetVector:
 197              	.LFB4:
 185:Generated_Source\PSoC5/isr_UART1_TX_BYTE_COMPLETE.c **** 
 186:Generated_Source\PSoC5/isr_UART1_TX_BYTE_COMPLETE.c **** 
 187:Generated_Source\PSoC5/isr_UART1_TX_BYTE_COMPLETE.c **** /*******************************************************************************
 188:Generated_Source\PSoC5/isr_UART1_TX_BYTE_COMPLETE.c **** * Function Name: isr_UART1_TX_BYTE_COMPLETE_SetVector
 189:Generated_Source\PSoC5/isr_UART1_TX_BYTE_COMPLETE.c **** ********************************************************************************
 190:Generated_Source\PSoC5/isr_UART1_TX_BYTE_COMPLETE.c **** *
 191:Generated_Source\PSoC5/isr_UART1_TX_BYTE_COMPLETE.c **** * Summary:
 192:Generated_Source\PSoC5/isr_UART1_TX_BYTE_COMPLETE.c **** *   Change the ISR vector for the Interrupt. Note calling isr_UART1_TX_BYTE_COMPLETE_Start
 193:Generated_Source\PSoC5/isr_UART1_TX_BYTE_COMPLETE.c **** *   will override any effect this method would have had. To set the vector 
 194:Generated_Source\PSoC5/isr_UART1_TX_BYTE_COMPLETE.c **** *   before the component has been started use isr_UART1_TX_BYTE_COMPLETE_StartEx instead.
 195:Generated_Source\PSoC5/isr_UART1_TX_BYTE_COMPLETE.c **** * 
 196:Generated_Source\PSoC5/isr_UART1_TX_BYTE_COMPLETE.c **** *   When defining ISR functions, the CY_ISR and CY_ISR_PROTO macros should be 
 197:Generated_Source\PSoC5/isr_UART1_TX_BYTE_COMPLETE.c **** *   used to provide consistent definition across compilers:
 198:Generated_Source\PSoC5/isr_UART1_TX_BYTE_COMPLETE.c **** *
 199:Generated_Source\PSoC5/isr_UART1_TX_BYTE_COMPLETE.c **** *   Function definition example:
 200:Generated_Source\PSoC5/isr_UART1_TX_BYTE_COMPLETE.c **** *   CY_ISR(MyISR)
 201:Generated_Source\PSoC5/isr_UART1_TX_BYTE_COMPLETE.c **** *   {
ARM GAS  C:\Users\THUNDE~1\AppData\Local\Temp\ccnvkTw9.s 			page 8


 202:Generated_Source\PSoC5/isr_UART1_TX_BYTE_COMPLETE.c **** *   }
 203:Generated_Source\PSoC5/isr_UART1_TX_BYTE_COMPLETE.c **** *
 204:Generated_Source\PSoC5/isr_UART1_TX_BYTE_COMPLETE.c **** *   Function prototype example:
 205:Generated_Source\PSoC5/isr_UART1_TX_BYTE_COMPLETE.c **** *     CY_ISR_PROTO(MyISR);
 206:Generated_Source\PSoC5/isr_UART1_TX_BYTE_COMPLETE.c **** *
 207:Generated_Source\PSoC5/isr_UART1_TX_BYTE_COMPLETE.c **** * Parameters:
 208:Generated_Source\PSoC5/isr_UART1_TX_BYTE_COMPLETE.c **** *   address: Address of the ISR to set in the interrupt vector table.
 209:Generated_Source\PSoC5/isr_UART1_TX_BYTE_COMPLETE.c **** *
 210:Generated_Source\PSoC5/isr_UART1_TX_BYTE_COMPLETE.c **** * Return:
 211:Generated_Source\PSoC5/isr_UART1_TX_BYTE_COMPLETE.c **** *   None
 212:Generated_Source\PSoC5/isr_UART1_TX_BYTE_COMPLETE.c **** *
 213:Generated_Source\PSoC5/isr_UART1_TX_BYTE_COMPLETE.c **** *******************************************************************************/
 214:Generated_Source\PSoC5/isr_UART1_TX_BYTE_COMPLETE.c **** void isr_UART1_TX_BYTE_COMPLETE_SetVector(cyisraddress address)
 215:Generated_Source\PSoC5/isr_UART1_TX_BYTE_COMPLETE.c **** {
 198              		.loc 1 215 0
 199              		.cfi_startproc
 200              		@ args = 0, pretend = 0, frame = 16
 201              		@ frame_needed = 1, uses_anonymous_args = 0
 202              		@ link register save eliminated.
 203 0000 80B4     		push	{r7}
 204              		.cfi_def_cfa_offset 4
 205              		.cfi_offset 7, -4
 206 0002 85B0     		sub	sp, sp, #20
 207              		.cfi_def_cfa_offset 24
 208 0004 00AF     		add	r7, sp, #0
 209              		.cfi_def_cfa_register 7
 210 0006 7860     		str	r0, [r7, #4]
 216:Generated_Source\PSoC5/isr_UART1_TX_BYTE_COMPLETE.c ****     cyisraddress * ramVectorTable;
 217:Generated_Source\PSoC5/isr_UART1_TX_BYTE_COMPLETE.c **** 
 218:Generated_Source\PSoC5/isr_UART1_TX_BYTE_COMPLETE.c ****     ramVectorTable = (cyisraddress *) *CYINT_VECT_TABLE;
 211              		.loc 1 218 0
 212 0008 054B     		ldr	r3, .L15
 213 000a 1B68     		ldr	r3, [r3]
 214 000c FB60     		str	r3, [r7, #12]
 219:Generated_Source\PSoC5/isr_UART1_TX_BYTE_COMPLETE.c **** 
 220:Generated_Source\PSoC5/isr_UART1_TX_BYTE_COMPLETE.c ****     ramVectorTable[CYINT_IRQ_BASE + (uint32)isr_UART1_TX_BYTE_COMPLETE__INTC_NUMBER] = address;
 215              		.loc 1 220 0
 216 000e FB68     		ldr	r3, [r7, #12]
 217 0010 5C33     		adds	r3, r3, #92
 218 0012 7A68     		ldr	r2, [r7, #4]
 219 0014 1A60     		str	r2, [r3]
 221:Generated_Source\PSoC5/isr_UART1_TX_BYTE_COMPLETE.c **** }
 220              		.loc 1 221 0
 221 0016 00BF     		nop
 222 0018 1437     		adds	r7, r7, #20
 223              		.cfi_def_cfa_offset 4
 224 001a BD46     		mov	sp, r7
 225              		.cfi_def_cfa_register 13
 226              		@ sp needed
 227 001c 80BC     		pop	{r7}
 228              		.cfi_restore 7
 229              		.cfi_def_cfa_offset 0
 230 001e 7047     		bx	lr
 231              	.L16:
 232              		.align	2
 233              	.L15:
 234 0020 08ED00E0 		.word	-536810232
ARM GAS  C:\Users\THUNDE~1\AppData\Local\Temp\ccnvkTw9.s 			page 9


 235              		.cfi_endproc
 236              	.LFE4:
 237              		.size	isr_UART1_TX_BYTE_COMPLETE_SetVector, .-isr_UART1_TX_BYTE_COMPLETE_SetVector
 238              		.section	.text.isr_UART1_TX_BYTE_COMPLETE_GetVector,"ax",%progbits
 239              		.align	2
 240              		.global	isr_UART1_TX_BYTE_COMPLETE_GetVector
 241              		.thumb
 242              		.thumb_func
 243              		.type	isr_UART1_TX_BYTE_COMPLETE_GetVector, %function
 244              	isr_UART1_TX_BYTE_COMPLETE_GetVector:
 245              	.LFB5:
 222:Generated_Source\PSoC5/isr_UART1_TX_BYTE_COMPLETE.c **** 
 223:Generated_Source\PSoC5/isr_UART1_TX_BYTE_COMPLETE.c **** 
 224:Generated_Source\PSoC5/isr_UART1_TX_BYTE_COMPLETE.c **** /*******************************************************************************
 225:Generated_Source\PSoC5/isr_UART1_TX_BYTE_COMPLETE.c **** * Function Name: isr_UART1_TX_BYTE_COMPLETE_GetVector
 226:Generated_Source\PSoC5/isr_UART1_TX_BYTE_COMPLETE.c **** ********************************************************************************
 227:Generated_Source\PSoC5/isr_UART1_TX_BYTE_COMPLETE.c **** *
 228:Generated_Source\PSoC5/isr_UART1_TX_BYTE_COMPLETE.c **** * Summary:
 229:Generated_Source\PSoC5/isr_UART1_TX_BYTE_COMPLETE.c **** *   Gets the "address" of the current ISR vector for the Interrupt.
 230:Generated_Source\PSoC5/isr_UART1_TX_BYTE_COMPLETE.c **** *
 231:Generated_Source\PSoC5/isr_UART1_TX_BYTE_COMPLETE.c **** * Parameters:
 232:Generated_Source\PSoC5/isr_UART1_TX_BYTE_COMPLETE.c **** *   None
 233:Generated_Source\PSoC5/isr_UART1_TX_BYTE_COMPLETE.c **** *
 234:Generated_Source\PSoC5/isr_UART1_TX_BYTE_COMPLETE.c **** * Return:
 235:Generated_Source\PSoC5/isr_UART1_TX_BYTE_COMPLETE.c **** *   Address of the ISR in the interrupt vector table.
 236:Generated_Source\PSoC5/isr_UART1_TX_BYTE_COMPLETE.c **** *
 237:Generated_Source\PSoC5/isr_UART1_TX_BYTE_COMPLETE.c **** *******************************************************************************/
 238:Generated_Source\PSoC5/isr_UART1_TX_BYTE_COMPLETE.c **** cyisraddress isr_UART1_TX_BYTE_COMPLETE_GetVector(void)
 239:Generated_Source\PSoC5/isr_UART1_TX_BYTE_COMPLETE.c **** {
 246              		.loc 1 239 0
 247              		.cfi_startproc
 248              		@ args = 0, pretend = 0, frame = 8
 249              		@ frame_needed = 1, uses_anonymous_args = 0
 250              		@ link register save eliminated.
 251 0000 80B4     		push	{r7}
 252              		.cfi_def_cfa_offset 4
 253              		.cfi_offset 7, -4
 254 0002 83B0     		sub	sp, sp, #12
 255              		.cfi_def_cfa_offset 16
 256 0004 00AF     		add	r7, sp, #0
 257              		.cfi_def_cfa_register 7
 240:Generated_Source\PSoC5/isr_UART1_TX_BYTE_COMPLETE.c ****     cyisraddress * ramVectorTable;
 241:Generated_Source\PSoC5/isr_UART1_TX_BYTE_COMPLETE.c **** 
 242:Generated_Source\PSoC5/isr_UART1_TX_BYTE_COMPLETE.c ****     ramVectorTable = (cyisraddress *) *CYINT_VECT_TABLE;
 258              		.loc 1 242 0
 259 0006 054B     		ldr	r3, .L19
 260 0008 1B68     		ldr	r3, [r3]
 261 000a 7B60     		str	r3, [r7, #4]
 243:Generated_Source\PSoC5/isr_UART1_TX_BYTE_COMPLETE.c **** 
 244:Generated_Source\PSoC5/isr_UART1_TX_BYTE_COMPLETE.c ****     return ramVectorTable[CYINT_IRQ_BASE + (uint32)isr_UART1_TX_BYTE_COMPLETE__INTC_NUMBER];
 262              		.loc 1 244 0
 263 000c 7B68     		ldr	r3, [r7, #4]
 264 000e DB6D     		ldr	r3, [r3, #92]
 245:Generated_Source\PSoC5/isr_UART1_TX_BYTE_COMPLETE.c **** }
 265              		.loc 1 245 0
 266 0010 1846     		mov	r0, r3
 267 0012 0C37     		adds	r7, r7, #12
ARM GAS  C:\Users\THUNDE~1\AppData\Local\Temp\ccnvkTw9.s 			page 10


 268              		.cfi_def_cfa_offset 4
 269 0014 BD46     		mov	sp, r7
 270              		.cfi_def_cfa_register 13
 271              		@ sp needed
 272 0016 80BC     		pop	{r7}
 273              		.cfi_restore 7
 274              		.cfi_def_cfa_offset 0
 275 0018 7047     		bx	lr
 276              	.L20:
 277 001a 00BF     		.align	2
 278              	.L19:
 279 001c 08ED00E0 		.word	-536810232
 280              		.cfi_endproc
 281              	.LFE5:
 282              		.size	isr_UART1_TX_BYTE_COMPLETE_GetVector, .-isr_UART1_TX_BYTE_COMPLETE_GetVector
 283              		.section	.text.isr_UART1_TX_BYTE_COMPLETE_SetPriority,"ax",%progbits
 284              		.align	2
 285              		.global	isr_UART1_TX_BYTE_COMPLETE_SetPriority
 286              		.thumb
 287              		.thumb_func
 288              		.type	isr_UART1_TX_BYTE_COMPLETE_SetPriority, %function
 289              	isr_UART1_TX_BYTE_COMPLETE_SetPriority:
 290              	.LFB6:
 246:Generated_Source\PSoC5/isr_UART1_TX_BYTE_COMPLETE.c **** 
 247:Generated_Source\PSoC5/isr_UART1_TX_BYTE_COMPLETE.c **** 
 248:Generated_Source\PSoC5/isr_UART1_TX_BYTE_COMPLETE.c **** /*******************************************************************************
 249:Generated_Source\PSoC5/isr_UART1_TX_BYTE_COMPLETE.c **** * Function Name: isr_UART1_TX_BYTE_COMPLETE_SetPriority
 250:Generated_Source\PSoC5/isr_UART1_TX_BYTE_COMPLETE.c **** ********************************************************************************
 251:Generated_Source\PSoC5/isr_UART1_TX_BYTE_COMPLETE.c **** *
 252:Generated_Source\PSoC5/isr_UART1_TX_BYTE_COMPLETE.c **** * Summary:
 253:Generated_Source\PSoC5/isr_UART1_TX_BYTE_COMPLETE.c **** *   Sets the Priority of the Interrupt. 
 254:Generated_Source\PSoC5/isr_UART1_TX_BYTE_COMPLETE.c **** *
 255:Generated_Source\PSoC5/isr_UART1_TX_BYTE_COMPLETE.c **** *   Note calling isr_UART1_TX_BYTE_COMPLETE_Start or isr_UART1_TX_BYTE_COMPLETE_StartEx will 
 256:Generated_Source\PSoC5/isr_UART1_TX_BYTE_COMPLETE.c **** *   override any effect this API would have had. This API should only be called
 257:Generated_Source\PSoC5/isr_UART1_TX_BYTE_COMPLETE.c **** *   after isr_UART1_TX_BYTE_COMPLETE_Start or isr_UART1_TX_BYTE_COMPLETE_StartEx has been called. 
 258:Generated_Source\PSoC5/isr_UART1_TX_BYTE_COMPLETE.c **** *   To set the initial priority for the component, use the Design-Wide Resources
 259:Generated_Source\PSoC5/isr_UART1_TX_BYTE_COMPLETE.c **** *   Interrupt Editor.
 260:Generated_Source\PSoC5/isr_UART1_TX_BYTE_COMPLETE.c **** *
 261:Generated_Source\PSoC5/isr_UART1_TX_BYTE_COMPLETE.c **** *   Note This API has no effect on Non-maskable interrupt NMI).
 262:Generated_Source\PSoC5/isr_UART1_TX_BYTE_COMPLETE.c **** *
 263:Generated_Source\PSoC5/isr_UART1_TX_BYTE_COMPLETE.c **** * Parameters:
 264:Generated_Source\PSoC5/isr_UART1_TX_BYTE_COMPLETE.c **** *   priority: Priority of the interrupt, 0 being the highest priority
 265:Generated_Source\PSoC5/isr_UART1_TX_BYTE_COMPLETE.c **** *             PSoC 3 and PSoC 5LP: Priority is from 0 to 7.
 266:Generated_Source\PSoC5/isr_UART1_TX_BYTE_COMPLETE.c **** *             PSoC 4: Priority is from 0 to 3.
 267:Generated_Source\PSoC5/isr_UART1_TX_BYTE_COMPLETE.c **** *
 268:Generated_Source\PSoC5/isr_UART1_TX_BYTE_COMPLETE.c **** * Return:
 269:Generated_Source\PSoC5/isr_UART1_TX_BYTE_COMPLETE.c **** *   None
 270:Generated_Source\PSoC5/isr_UART1_TX_BYTE_COMPLETE.c **** *
 271:Generated_Source\PSoC5/isr_UART1_TX_BYTE_COMPLETE.c **** *******************************************************************************/
 272:Generated_Source\PSoC5/isr_UART1_TX_BYTE_COMPLETE.c **** void isr_UART1_TX_BYTE_COMPLETE_SetPriority(uint8 priority)
 273:Generated_Source\PSoC5/isr_UART1_TX_BYTE_COMPLETE.c **** {
 291              		.loc 1 273 0
 292              		.cfi_startproc
 293              		@ args = 0, pretend = 0, frame = 8
 294              		@ frame_needed = 1, uses_anonymous_args = 0
 295              		@ link register save eliminated.
 296 0000 80B4     		push	{r7}
ARM GAS  C:\Users\THUNDE~1\AppData\Local\Temp\ccnvkTw9.s 			page 11


 297              		.cfi_def_cfa_offset 4
 298              		.cfi_offset 7, -4
 299 0002 83B0     		sub	sp, sp, #12
 300              		.cfi_def_cfa_offset 16
 301 0004 00AF     		add	r7, sp, #0
 302              		.cfi_def_cfa_register 7
 303 0006 0346     		mov	r3, r0
 304 0008 FB71     		strb	r3, [r7, #7]
 274:Generated_Source\PSoC5/isr_UART1_TX_BYTE_COMPLETE.c ****     *isr_UART1_TX_BYTE_COMPLETE_INTC_PRIOR = priority << 5;
 305              		.loc 1 274 0
 306 000a 054A     		ldr	r2, .L22
 307 000c FB79     		ldrb	r3, [r7, #7]
 308 000e 5B01     		lsls	r3, r3, #5
 309 0010 DBB2     		uxtb	r3, r3
 310 0012 1370     		strb	r3, [r2]
 275:Generated_Source\PSoC5/isr_UART1_TX_BYTE_COMPLETE.c **** }
 311              		.loc 1 275 0
 312 0014 00BF     		nop
 313 0016 0C37     		adds	r7, r7, #12
 314              		.cfi_def_cfa_offset 4
 315 0018 BD46     		mov	sp, r7
 316              		.cfi_def_cfa_register 13
 317              		@ sp needed
 318 001a 80BC     		pop	{r7}
 319              		.cfi_restore 7
 320              		.cfi_def_cfa_offset 0
 321 001c 7047     		bx	lr
 322              	.L23:
 323 001e 00BF     		.align	2
 324              	.L22:
 325 0020 07E400E0 		.word	-536812537
 326              		.cfi_endproc
 327              	.LFE6:
 328              		.size	isr_UART1_TX_BYTE_COMPLETE_SetPriority, .-isr_UART1_TX_BYTE_COMPLETE_SetPriority
 329              		.section	.text.isr_UART1_TX_BYTE_COMPLETE_GetPriority,"ax",%progbits
 330              		.align	2
 331              		.global	isr_UART1_TX_BYTE_COMPLETE_GetPriority
 332              		.thumb
 333              		.thumb_func
 334              		.type	isr_UART1_TX_BYTE_COMPLETE_GetPriority, %function
 335              	isr_UART1_TX_BYTE_COMPLETE_GetPriority:
 336              	.LFB7:
 276:Generated_Source\PSoC5/isr_UART1_TX_BYTE_COMPLETE.c **** 
 277:Generated_Source\PSoC5/isr_UART1_TX_BYTE_COMPLETE.c **** 
 278:Generated_Source\PSoC5/isr_UART1_TX_BYTE_COMPLETE.c **** /*******************************************************************************
 279:Generated_Source\PSoC5/isr_UART1_TX_BYTE_COMPLETE.c **** * Function Name: isr_UART1_TX_BYTE_COMPLETE_GetPriority
 280:Generated_Source\PSoC5/isr_UART1_TX_BYTE_COMPLETE.c **** ********************************************************************************
 281:Generated_Source\PSoC5/isr_UART1_TX_BYTE_COMPLETE.c **** *
 282:Generated_Source\PSoC5/isr_UART1_TX_BYTE_COMPLETE.c **** * Summary:
 283:Generated_Source\PSoC5/isr_UART1_TX_BYTE_COMPLETE.c **** *   Gets the Priority of the Interrupt.
 284:Generated_Source\PSoC5/isr_UART1_TX_BYTE_COMPLETE.c **** *
 285:Generated_Source\PSoC5/isr_UART1_TX_BYTE_COMPLETE.c **** * Parameters:
 286:Generated_Source\PSoC5/isr_UART1_TX_BYTE_COMPLETE.c **** *   None
 287:Generated_Source\PSoC5/isr_UART1_TX_BYTE_COMPLETE.c **** *
 288:Generated_Source\PSoC5/isr_UART1_TX_BYTE_COMPLETE.c **** * Return:
 289:Generated_Source\PSoC5/isr_UART1_TX_BYTE_COMPLETE.c **** *   Priority of the interrupt, 0 being the highest priority
 290:Generated_Source\PSoC5/isr_UART1_TX_BYTE_COMPLETE.c **** *    PSoC 3 and PSoC 5LP: Priority is from 0 to 7.
ARM GAS  C:\Users\THUNDE~1\AppData\Local\Temp\ccnvkTw9.s 			page 12


 291:Generated_Source\PSoC5/isr_UART1_TX_BYTE_COMPLETE.c **** *    PSoC 4: Priority is from 0 to 3.
 292:Generated_Source\PSoC5/isr_UART1_TX_BYTE_COMPLETE.c **** *
 293:Generated_Source\PSoC5/isr_UART1_TX_BYTE_COMPLETE.c **** *******************************************************************************/
 294:Generated_Source\PSoC5/isr_UART1_TX_BYTE_COMPLETE.c **** uint8 isr_UART1_TX_BYTE_COMPLETE_GetPriority(void)
 295:Generated_Source\PSoC5/isr_UART1_TX_BYTE_COMPLETE.c **** {
 337              		.loc 1 295 0
 338              		.cfi_startproc
 339              		@ args = 0, pretend = 0, frame = 8
 340              		@ frame_needed = 1, uses_anonymous_args = 0
 341              		@ link register save eliminated.
 342 0000 80B4     		push	{r7}
 343              		.cfi_def_cfa_offset 4
 344              		.cfi_offset 7, -4
 345 0002 83B0     		sub	sp, sp, #12
 346              		.cfi_def_cfa_offset 16
 347 0004 00AF     		add	r7, sp, #0
 348              		.cfi_def_cfa_register 7
 296:Generated_Source\PSoC5/isr_UART1_TX_BYTE_COMPLETE.c ****     uint8 priority;
 297:Generated_Source\PSoC5/isr_UART1_TX_BYTE_COMPLETE.c **** 
 298:Generated_Source\PSoC5/isr_UART1_TX_BYTE_COMPLETE.c **** 
 299:Generated_Source\PSoC5/isr_UART1_TX_BYTE_COMPLETE.c ****     priority = *isr_UART1_TX_BYTE_COMPLETE_INTC_PRIOR >> 5;
 349              		.loc 1 299 0
 350 0006 054B     		ldr	r3, .L26
 351 0008 1B78     		ldrb	r3, [r3]
 352 000a DBB2     		uxtb	r3, r3
 353 000c 5B09     		lsrs	r3, r3, #5
 354 000e FB71     		strb	r3, [r7, #7]
 300:Generated_Source\PSoC5/isr_UART1_TX_BYTE_COMPLETE.c **** 
 301:Generated_Source\PSoC5/isr_UART1_TX_BYTE_COMPLETE.c ****     return priority;
 355              		.loc 1 301 0
 356 0010 FB79     		ldrb	r3, [r7, #7]	@ zero_extendqisi2
 302:Generated_Source\PSoC5/isr_UART1_TX_BYTE_COMPLETE.c **** }
 357              		.loc 1 302 0
 358 0012 1846     		mov	r0, r3
 359 0014 0C37     		adds	r7, r7, #12
 360              		.cfi_def_cfa_offset 4
 361 0016 BD46     		mov	sp, r7
 362              		.cfi_def_cfa_register 13
 363              		@ sp needed
 364 0018 80BC     		pop	{r7}
 365              		.cfi_restore 7
 366              		.cfi_def_cfa_offset 0
 367 001a 7047     		bx	lr
 368              	.L27:
 369              		.align	2
 370              	.L26:
 371 001c 07E400E0 		.word	-536812537
 372              		.cfi_endproc
 373              	.LFE7:
 374              		.size	isr_UART1_TX_BYTE_COMPLETE_GetPriority, .-isr_UART1_TX_BYTE_COMPLETE_GetPriority
 375              		.section	.text.isr_UART1_TX_BYTE_COMPLETE_Enable,"ax",%progbits
 376              		.align	2
 377              		.global	isr_UART1_TX_BYTE_COMPLETE_Enable
 378              		.thumb
 379              		.thumb_func
 380              		.type	isr_UART1_TX_BYTE_COMPLETE_Enable, %function
 381              	isr_UART1_TX_BYTE_COMPLETE_Enable:
ARM GAS  C:\Users\THUNDE~1\AppData\Local\Temp\ccnvkTw9.s 			page 13


 382              	.LFB8:
 303:Generated_Source\PSoC5/isr_UART1_TX_BYTE_COMPLETE.c **** 
 304:Generated_Source\PSoC5/isr_UART1_TX_BYTE_COMPLETE.c **** 
 305:Generated_Source\PSoC5/isr_UART1_TX_BYTE_COMPLETE.c **** /*******************************************************************************
 306:Generated_Source\PSoC5/isr_UART1_TX_BYTE_COMPLETE.c **** * Function Name: isr_UART1_TX_BYTE_COMPLETE_Enable
 307:Generated_Source\PSoC5/isr_UART1_TX_BYTE_COMPLETE.c **** ********************************************************************************
 308:Generated_Source\PSoC5/isr_UART1_TX_BYTE_COMPLETE.c **** *
 309:Generated_Source\PSoC5/isr_UART1_TX_BYTE_COMPLETE.c **** * Summary:
 310:Generated_Source\PSoC5/isr_UART1_TX_BYTE_COMPLETE.c **** *   Enables the interrupt to the interrupt controller. Do not call this function
 311:Generated_Source\PSoC5/isr_UART1_TX_BYTE_COMPLETE.c **** *   unless ISR_Start() has been called or the functionality of the ISR_Start() 
 312:Generated_Source\PSoC5/isr_UART1_TX_BYTE_COMPLETE.c **** *   function, which sets the vector and the priority, has been called.
 313:Generated_Source\PSoC5/isr_UART1_TX_BYTE_COMPLETE.c **** *
 314:Generated_Source\PSoC5/isr_UART1_TX_BYTE_COMPLETE.c **** * Parameters:
 315:Generated_Source\PSoC5/isr_UART1_TX_BYTE_COMPLETE.c **** *   None
 316:Generated_Source\PSoC5/isr_UART1_TX_BYTE_COMPLETE.c **** *
 317:Generated_Source\PSoC5/isr_UART1_TX_BYTE_COMPLETE.c **** * Return:
 318:Generated_Source\PSoC5/isr_UART1_TX_BYTE_COMPLETE.c **** *   None
 319:Generated_Source\PSoC5/isr_UART1_TX_BYTE_COMPLETE.c **** *
 320:Generated_Source\PSoC5/isr_UART1_TX_BYTE_COMPLETE.c **** *******************************************************************************/
 321:Generated_Source\PSoC5/isr_UART1_TX_BYTE_COMPLETE.c **** void isr_UART1_TX_BYTE_COMPLETE_Enable(void)
 322:Generated_Source\PSoC5/isr_UART1_TX_BYTE_COMPLETE.c **** {
 383              		.loc 1 322 0
 384              		.cfi_startproc
 385              		@ args = 0, pretend = 0, frame = 0
 386              		@ frame_needed = 1, uses_anonymous_args = 0
 387              		@ link register save eliminated.
 388 0000 80B4     		push	{r7}
 389              		.cfi_def_cfa_offset 4
 390              		.cfi_offset 7, -4
 391 0002 00AF     		add	r7, sp, #0
 392              		.cfi_def_cfa_register 7
 323:Generated_Source\PSoC5/isr_UART1_TX_BYTE_COMPLETE.c ****     /* Enable the general interrupt. */
 324:Generated_Source\PSoC5/isr_UART1_TX_BYTE_COMPLETE.c ****     *isr_UART1_TX_BYTE_COMPLETE_INTC_SET_EN = isr_UART1_TX_BYTE_COMPLETE__INTC_MASK;
 393              		.loc 1 324 0
 394 0004 034B     		ldr	r3, .L29
 395 0006 8022     		movs	r2, #128
 396 0008 1A60     		str	r2, [r3]
 325:Generated_Source\PSoC5/isr_UART1_TX_BYTE_COMPLETE.c **** }
 397              		.loc 1 325 0
 398 000a 00BF     		nop
 399 000c BD46     		mov	sp, r7
 400              		.cfi_def_cfa_register 13
 401              		@ sp needed
 402 000e 80BC     		pop	{r7}
 403              		.cfi_restore 7
 404              		.cfi_def_cfa_offset 0
 405 0010 7047     		bx	lr
 406              	.L30:
 407 0012 00BF     		.align	2
 408              	.L29:
 409 0014 00E100E0 		.word	-536813312
 410              		.cfi_endproc
 411              	.LFE8:
 412              		.size	isr_UART1_TX_BYTE_COMPLETE_Enable, .-isr_UART1_TX_BYTE_COMPLETE_Enable
 413              		.section	.text.isr_UART1_TX_BYTE_COMPLETE_GetState,"ax",%progbits
 414              		.align	2
 415              		.global	isr_UART1_TX_BYTE_COMPLETE_GetState
ARM GAS  C:\Users\THUNDE~1\AppData\Local\Temp\ccnvkTw9.s 			page 14


 416              		.thumb
 417              		.thumb_func
 418              		.type	isr_UART1_TX_BYTE_COMPLETE_GetState, %function
 419              	isr_UART1_TX_BYTE_COMPLETE_GetState:
 420              	.LFB9:
 326:Generated_Source\PSoC5/isr_UART1_TX_BYTE_COMPLETE.c **** 
 327:Generated_Source\PSoC5/isr_UART1_TX_BYTE_COMPLETE.c **** 
 328:Generated_Source\PSoC5/isr_UART1_TX_BYTE_COMPLETE.c **** /*******************************************************************************
 329:Generated_Source\PSoC5/isr_UART1_TX_BYTE_COMPLETE.c **** * Function Name: isr_UART1_TX_BYTE_COMPLETE_GetState
 330:Generated_Source\PSoC5/isr_UART1_TX_BYTE_COMPLETE.c **** ********************************************************************************
 331:Generated_Source\PSoC5/isr_UART1_TX_BYTE_COMPLETE.c **** *
 332:Generated_Source\PSoC5/isr_UART1_TX_BYTE_COMPLETE.c **** * Summary:
 333:Generated_Source\PSoC5/isr_UART1_TX_BYTE_COMPLETE.c **** *   Gets the state (enabled, disabled) of the Interrupt.
 334:Generated_Source\PSoC5/isr_UART1_TX_BYTE_COMPLETE.c **** *
 335:Generated_Source\PSoC5/isr_UART1_TX_BYTE_COMPLETE.c **** * Parameters:
 336:Generated_Source\PSoC5/isr_UART1_TX_BYTE_COMPLETE.c **** *   None
 337:Generated_Source\PSoC5/isr_UART1_TX_BYTE_COMPLETE.c **** *
 338:Generated_Source\PSoC5/isr_UART1_TX_BYTE_COMPLETE.c **** * Return:
 339:Generated_Source\PSoC5/isr_UART1_TX_BYTE_COMPLETE.c **** *   1 if enabled, 0 if disabled.
 340:Generated_Source\PSoC5/isr_UART1_TX_BYTE_COMPLETE.c **** *
 341:Generated_Source\PSoC5/isr_UART1_TX_BYTE_COMPLETE.c **** *******************************************************************************/
 342:Generated_Source\PSoC5/isr_UART1_TX_BYTE_COMPLETE.c **** uint8 isr_UART1_TX_BYTE_COMPLETE_GetState(void)
 343:Generated_Source\PSoC5/isr_UART1_TX_BYTE_COMPLETE.c **** {
 421              		.loc 1 343 0
 422              		.cfi_startproc
 423              		@ args = 0, pretend = 0, frame = 0
 424              		@ frame_needed = 1, uses_anonymous_args = 0
 425              		@ link register save eliminated.
 426 0000 80B4     		push	{r7}
 427              		.cfi_def_cfa_offset 4
 428              		.cfi_offset 7, -4
 429 0002 00AF     		add	r7, sp, #0
 430              		.cfi_def_cfa_register 7
 344:Generated_Source\PSoC5/isr_UART1_TX_BYTE_COMPLETE.c ****     /* Get the state of the general interrupt. */
 345:Generated_Source\PSoC5/isr_UART1_TX_BYTE_COMPLETE.c ****     return ((*isr_UART1_TX_BYTE_COMPLETE_INTC_SET_EN & (uint32)isr_UART1_TX_BYTE_COMPLETE__INTC_MAS
 431              		.loc 1 345 0
 432 0004 064B     		ldr	r3, .L35
 433 0006 1B68     		ldr	r3, [r3]
 434 0008 03F08003 		and	r3, r3, #128
 435 000c 002B     		cmp	r3, #0
 436 000e 01D0     		beq	.L32
 437              		.loc 1 345 0 is_stmt 0 discriminator 1
 438 0010 0123     		movs	r3, #1
 439 0012 00E0     		b	.L33
 440              	.L32:
 441              		.loc 1 345 0 discriminator 2
 442 0014 0023     		movs	r3, #0
 443              	.L33:
 346:Generated_Source\PSoC5/isr_UART1_TX_BYTE_COMPLETE.c **** }
 444              		.loc 1 346 0 is_stmt 1 discriminator 4
 445 0016 1846     		mov	r0, r3
 446 0018 BD46     		mov	sp, r7
 447              		.cfi_def_cfa_register 13
 448              		@ sp needed
 449 001a 80BC     		pop	{r7}
 450              		.cfi_restore 7
 451              		.cfi_def_cfa_offset 0
ARM GAS  C:\Users\THUNDE~1\AppData\Local\Temp\ccnvkTw9.s 			page 15


 452 001c 7047     		bx	lr
 453              	.L36:
 454 001e 00BF     		.align	2
 455              	.L35:
 456 0020 00E100E0 		.word	-536813312
 457              		.cfi_endproc
 458              	.LFE9:
 459              		.size	isr_UART1_TX_BYTE_COMPLETE_GetState, .-isr_UART1_TX_BYTE_COMPLETE_GetState
 460              		.section	.text.isr_UART1_TX_BYTE_COMPLETE_Disable,"ax",%progbits
 461              		.align	2
 462              		.global	isr_UART1_TX_BYTE_COMPLETE_Disable
 463              		.thumb
 464              		.thumb_func
 465              		.type	isr_UART1_TX_BYTE_COMPLETE_Disable, %function
 466              	isr_UART1_TX_BYTE_COMPLETE_Disable:
 467              	.LFB10:
 347:Generated_Source\PSoC5/isr_UART1_TX_BYTE_COMPLETE.c **** 
 348:Generated_Source\PSoC5/isr_UART1_TX_BYTE_COMPLETE.c **** 
 349:Generated_Source\PSoC5/isr_UART1_TX_BYTE_COMPLETE.c **** /*******************************************************************************
 350:Generated_Source\PSoC5/isr_UART1_TX_BYTE_COMPLETE.c **** * Function Name: isr_UART1_TX_BYTE_COMPLETE_Disable
 351:Generated_Source\PSoC5/isr_UART1_TX_BYTE_COMPLETE.c **** ********************************************************************************
 352:Generated_Source\PSoC5/isr_UART1_TX_BYTE_COMPLETE.c **** *
 353:Generated_Source\PSoC5/isr_UART1_TX_BYTE_COMPLETE.c **** * Summary:
 354:Generated_Source\PSoC5/isr_UART1_TX_BYTE_COMPLETE.c **** *   Disables the Interrupt in the interrupt controller.
 355:Generated_Source\PSoC5/isr_UART1_TX_BYTE_COMPLETE.c **** *
 356:Generated_Source\PSoC5/isr_UART1_TX_BYTE_COMPLETE.c **** * Parameters:
 357:Generated_Source\PSoC5/isr_UART1_TX_BYTE_COMPLETE.c **** *   None
 358:Generated_Source\PSoC5/isr_UART1_TX_BYTE_COMPLETE.c **** *
 359:Generated_Source\PSoC5/isr_UART1_TX_BYTE_COMPLETE.c **** * Return:
 360:Generated_Source\PSoC5/isr_UART1_TX_BYTE_COMPLETE.c **** *   None
 361:Generated_Source\PSoC5/isr_UART1_TX_BYTE_COMPLETE.c **** *
 362:Generated_Source\PSoC5/isr_UART1_TX_BYTE_COMPLETE.c **** *******************************************************************************/
 363:Generated_Source\PSoC5/isr_UART1_TX_BYTE_COMPLETE.c **** void isr_UART1_TX_BYTE_COMPLETE_Disable(void)
 364:Generated_Source\PSoC5/isr_UART1_TX_BYTE_COMPLETE.c **** {
 468              		.loc 1 364 0
 469              		.cfi_startproc
 470              		@ args = 0, pretend = 0, frame = 0
 471              		@ frame_needed = 1, uses_anonymous_args = 0
 472              		@ link register save eliminated.
 473 0000 80B4     		push	{r7}
 474              		.cfi_def_cfa_offset 4
 475              		.cfi_offset 7, -4
 476 0002 00AF     		add	r7, sp, #0
 477              		.cfi_def_cfa_register 7
 365:Generated_Source\PSoC5/isr_UART1_TX_BYTE_COMPLETE.c ****     /* Disable the general interrupt. */
 366:Generated_Source\PSoC5/isr_UART1_TX_BYTE_COMPLETE.c ****     *isr_UART1_TX_BYTE_COMPLETE_INTC_CLR_EN = isr_UART1_TX_BYTE_COMPLETE__INTC_MASK;
 478              		.loc 1 366 0
 479 0004 034B     		ldr	r3, .L38
 480 0006 8022     		movs	r2, #128
 481 0008 1A60     		str	r2, [r3]
 367:Generated_Source\PSoC5/isr_UART1_TX_BYTE_COMPLETE.c **** }
 482              		.loc 1 367 0
 483 000a 00BF     		nop
 484 000c BD46     		mov	sp, r7
 485              		.cfi_def_cfa_register 13
 486              		@ sp needed
 487 000e 80BC     		pop	{r7}
ARM GAS  C:\Users\THUNDE~1\AppData\Local\Temp\ccnvkTw9.s 			page 16


 488              		.cfi_restore 7
 489              		.cfi_def_cfa_offset 0
 490 0010 7047     		bx	lr
 491              	.L39:
 492 0012 00BF     		.align	2
 493              	.L38:
 494 0014 80E100E0 		.word	-536813184
 495              		.cfi_endproc
 496              	.LFE10:
 497              		.size	isr_UART1_TX_BYTE_COMPLETE_Disable, .-isr_UART1_TX_BYTE_COMPLETE_Disable
 498              		.section	.text.isr_UART1_TX_BYTE_COMPLETE_SetPending,"ax",%progbits
 499              		.align	2
 500              		.global	isr_UART1_TX_BYTE_COMPLETE_SetPending
 501              		.thumb
 502              		.thumb_func
 503              		.type	isr_UART1_TX_BYTE_COMPLETE_SetPending, %function
 504              	isr_UART1_TX_BYTE_COMPLETE_SetPending:
 505              	.LFB11:
 368:Generated_Source\PSoC5/isr_UART1_TX_BYTE_COMPLETE.c **** 
 369:Generated_Source\PSoC5/isr_UART1_TX_BYTE_COMPLETE.c **** 
 370:Generated_Source\PSoC5/isr_UART1_TX_BYTE_COMPLETE.c **** /*******************************************************************************
 371:Generated_Source\PSoC5/isr_UART1_TX_BYTE_COMPLETE.c **** * Function Name: isr_UART1_TX_BYTE_COMPLETE_SetPending
 372:Generated_Source\PSoC5/isr_UART1_TX_BYTE_COMPLETE.c **** ********************************************************************************
 373:Generated_Source\PSoC5/isr_UART1_TX_BYTE_COMPLETE.c **** *
 374:Generated_Source\PSoC5/isr_UART1_TX_BYTE_COMPLETE.c **** * Summary:
 375:Generated_Source\PSoC5/isr_UART1_TX_BYTE_COMPLETE.c **** *   Causes the Interrupt to enter the pending state, a software method of
 376:Generated_Source\PSoC5/isr_UART1_TX_BYTE_COMPLETE.c **** *   generating the interrupt.
 377:Generated_Source\PSoC5/isr_UART1_TX_BYTE_COMPLETE.c **** *
 378:Generated_Source\PSoC5/isr_UART1_TX_BYTE_COMPLETE.c **** * Parameters:
 379:Generated_Source\PSoC5/isr_UART1_TX_BYTE_COMPLETE.c **** *   None
 380:Generated_Source\PSoC5/isr_UART1_TX_BYTE_COMPLETE.c **** *
 381:Generated_Source\PSoC5/isr_UART1_TX_BYTE_COMPLETE.c **** * Return:
 382:Generated_Source\PSoC5/isr_UART1_TX_BYTE_COMPLETE.c **** *   None
 383:Generated_Source\PSoC5/isr_UART1_TX_BYTE_COMPLETE.c **** *
 384:Generated_Source\PSoC5/isr_UART1_TX_BYTE_COMPLETE.c **** * Side Effects:
 385:Generated_Source\PSoC5/isr_UART1_TX_BYTE_COMPLETE.c **** *   If interrupts are enabled and the interrupt is set up properly, the ISR is
 386:Generated_Source\PSoC5/isr_UART1_TX_BYTE_COMPLETE.c **** *   entered (depending on the priority of this interrupt and other pending 
 387:Generated_Source\PSoC5/isr_UART1_TX_BYTE_COMPLETE.c **** *   interrupts).
 388:Generated_Source\PSoC5/isr_UART1_TX_BYTE_COMPLETE.c **** *
 389:Generated_Source\PSoC5/isr_UART1_TX_BYTE_COMPLETE.c **** *******************************************************************************/
 390:Generated_Source\PSoC5/isr_UART1_TX_BYTE_COMPLETE.c **** void isr_UART1_TX_BYTE_COMPLETE_SetPending(void)
 391:Generated_Source\PSoC5/isr_UART1_TX_BYTE_COMPLETE.c **** {
 506              		.loc 1 391 0
 507              		.cfi_startproc
 508              		@ args = 0, pretend = 0, frame = 0
 509              		@ frame_needed = 1, uses_anonymous_args = 0
 510              		@ link register save eliminated.
 511 0000 80B4     		push	{r7}
 512              		.cfi_def_cfa_offset 4
 513              		.cfi_offset 7, -4
 514 0002 00AF     		add	r7, sp, #0
 515              		.cfi_def_cfa_register 7
 392:Generated_Source\PSoC5/isr_UART1_TX_BYTE_COMPLETE.c ****     *isr_UART1_TX_BYTE_COMPLETE_INTC_SET_PD = isr_UART1_TX_BYTE_COMPLETE__INTC_MASK;
 516              		.loc 1 392 0
 517 0004 034B     		ldr	r3, .L41
 518 0006 8022     		movs	r2, #128
 519 0008 1A60     		str	r2, [r3]
ARM GAS  C:\Users\THUNDE~1\AppData\Local\Temp\ccnvkTw9.s 			page 17


 393:Generated_Source\PSoC5/isr_UART1_TX_BYTE_COMPLETE.c **** }
 520              		.loc 1 393 0
 521 000a 00BF     		nop
 522 000c BD46     		mov	sp, r7
 523              		.cfi_def_cfa_register 13
 524              		@ sp needed
 525 000e 80BC     		pop	{r7}
 526              		.cfi_restore 7
 527              		.cfi_def_cfa_offset 0
 528 0010 7047     		bx	lr
 529              	.L42:
 530 0012 00BF     		.align	2
 531              	.L41:
 532 0014 00E200E0 		.word	-536813056
 533              		.cfi_endproc
 534              	.LFE11:
 535              		.size	isr_UART1_TX_BYTE_COMPLETE_SetPending, .-isr_UART1_TX_BYTE_COMPLETE_SetPending
 536              		.section	.text.isr_UART1_TX_BYTE_COMPLETE_ClearPending,"ax",%progbits
 537              		.align	2
 538              		.global	isr_UART1_TX_BYTE_COMPLETE_ClearPending
 539              		.thumb
 540              		.thumb_func
 541              		.type	isr_UART1_TX_BYTE_COMPLETE_ClearPending, %function
 542              	isr_UART1_TX_BYTE_COMPLETE_ClearPending:
 543              	.LFB12:
 394:Generated_Source\PSoC5/isr_UART1_TX_BYTE_COMPLETE.c **** 
 395:Generated_Source\PSoC5/isr_UART1_TX_BYTE_COMPLETE.c **** 
 396:Generated_Source\PSoC5/isr_UART1_TX_BYTE_COMPLETE.c **** /*******************************************************************************
 397:Generated_Source\PSoC5/isr_UART1_TX_BYTE_COMPLETE.c **** * Function Name: isr_UART1_TX_BYTE_COMPLETE_ClearPending
 398:Generated_Source\PSoC5/isr_UART1_TX_BYTE_COMPLETE.c **** ********************************************************************************
 399:Generated_Source\PSoC5/isr_UART1_TX_BYTE_COMPLETE.c **** *
 400:Generated_Source\PSoC5/isr_UART1_TX_BYTE_COMPLETE.c **** * Summary:
 401:Generated_Source\PSoC5/isr_UART1_TX_BYTE_COMPLETE.c **** *   Clears a pending interrupt in the interrupt controller.
 402:Generated_Source\PSoC5/isr_UART1_TX_BYTE_COMPLETE.c **** *
 403:Generated_Source\PSoC5/isr_UART1_TX_BYTE_COMPLETE.c **** *   Note Some interrupt sources are clear-on-read and require the block 
 404:Generated_Source\PSoC5/isr_UART1_TX_BYTE_COMPLETE.c **** *   interrupt/status register to be read/cleared with the appropriate block API 
 405:Generated_Source\PSoC5/isr_UART1_TX_BYTE_COMPLETE.c **** *   (GPIO, UART, and so on). Otherwise the ISR will continue to remain in 
 406:Generated_Source\PSoC5/isr_UART1_TX_BYTE_COMPLETE.c **** *   pending state even though the interrupt itself is cleared using this API.
 407:Generated_Source\PSoC5/isr_UART1_TX_BYTE_COMPLETE.c **** *
 408:Generated_Source\PSoC5/isr_UART1_TX_BYTE_COMPLETE.c **** * Parameters:
 409:Generated_Source\PSoC5/isr_UART1_TX_BYTE_COMPLETE.c **** *   None
 410:Generated_Source\PSoC5/isr_UART1_TX_BYTE_COMPLETE.c **** *
 411:Generated_Source\PSoC5/isr_UART1_TX_BYTE_COMPLETE.c **** * Return:
 412:Generated_Source\PSoC5/isr_UART1_TX_BYTE_COMPLETE.c **** *   None
 413:Generated_Source\PSoC5/isr_UART1_TX_BYTE_COMPLETE.c **** *
 414:Generated_Source\PSoC5/isr_UART1_TX_BYTE_COMPLETE.c **** *******************************************************************************/
 415:Generated_Source\PSoC5/isr_UART1_TX_BYTE_COMPLETE.c **** void isr_UART1_TX_BYTE_COMPLETE_ClearPending(void)
 416:Generated_Source\PSoC5/isr_UART1_TX_BYTE_COMPLETE.c **** {
 544              		.loc 1 416 0
 545              		.cfi_startproc
 546              		@ args = 0, pretend = 0, frame = 0
 547              		@ frame_needed = 1, uses_anonymous_args = 0
 548              		@ link register save eliminated.
 549 0000 80B4     		push	{r7}
 550              		.cfi_def_cfa_offset 4
 551              		.cfi_offset 7, -4
 552 0002 00AF     		add	r7, sp, #0
ARM GAS  C:\Users\THUNDE~1\AppData\Local\Temp\ccnvkTw9.s 			page 18


 553              		.cfi_def_cfa_register 7
 417:Generated_Source\PSoC5/isr_UART1_TX_BYTE_COMPLETE.c ****     *isr_UART1_TX_BYTE_COMPLETE_INTC_CLR_PD = isr_UART1_TX_BYTE_COMPLETE__INTC_MASK;
 554              		.loc 1 417 0
 555 0004 034B     		ldr	r3, .L44
 556 0006 8022     		movs	r2, #128
 557 0008 1A60     		str	r2, [r3]
 418:Generated_Source\PSoC5/isr_UART1_TX_BYTE_COMPLETE.c **** }
 558              		.loc 1 418 0
 559 000a 00BF     		nop
 560 000c BD46     		mov	sp, r7
 561              		.cfi_def_cfa_register 13
 562              		@ sp needed
 563 000e 80BC     		pop	{r7}
 564              		.cfi_restore 7
 565              		.cfi_def_cfa_offset 0
 566 0010 7047     		bx	lr
 567              	.L45:
 568 0012 00BF     		.align	2
 569              	.L44:
 570 0014 80E200E0 		.word	-536812928
 571              		.cfi_endproc
 572              	.LFE12:
 573              		.size	isr_UART1_TX_BYTE_COMPLETE_ClearPending, .-isr_UART1_TX_BYTE_COMPLETE_ClearPending
 574              		.text
 575              	.Letext0:
 576              		.file 2 "c:\\program files (x86)\\cypress\\psoc creator\\4.2\\psoc creator\\import\\gnu\\arm\\5.4.
 577              		.file 3 "c:\\program files (x86)\\cypress\\psoc creator\\4.2\\psoc creator\\import\\gnu\\arm\\5.4.
 578              		.file 4 "Generated_Source\\PSoC5/cytypes.h"
 579              		.file 5 ".\\Tracer/selfFIFO.h"