ARM GAS  C:\Users\THUNDE~1\AppData\Local\Temp\ccNLaU92.s 			page 1


   1              		.syntax unified
   2              		.cpu cortex-m3
   3              		.fpu softvfp
   4              		.eabi_attribute 20, 1
   5              		.eabi_attribute 21, 1
   6              		.eabi_attribute 23, 3
   7              		.eabi_attribute 24, 1
   8              		.eabi_attribute 25, 1
   9              		.eabi_attribute 26, 1
  10              		.eabi_attribute 30, 6
  11              		.eabi_attribute 34, 1
  12              		.eabi_attribute 18, 4
  13              		.thumb
  14              		.syntax unified
  15              		.file	"isr_UART1_RX_BYTE_RECEIVED.c"
  16              		.text
  17              	.Ltext0:
  18              		.cfi_sections	.debug_frame
  19              		.comm	sniffIDFilter,13,4
  20              		.comm	buffer,4098,4
  21              		.section	.text.isr_UART1_RX_BYTE_RECEIVED_Start,"ax",%progbits
  22              		.align	2
  23              		.global	isr_UART1_RX_BYTE_RECEIVED_Start
  24              		.thumb
  25              		.thumb_func
  26              		.type	isr_UART1_RX_BYTE_RECEIVED_Start, %function
  27              	isr_UART1_RX_BYTE_RECEIVED_Start:
  28              	.LFB0:
  29              		.file 1 "Generated_Source\\PSoC5\\isr_UART1_RX_BYTE_RECEIVED.c"
   1:Generated_Source\PSoC5/isr_UART1_RX_BYTE_RECEIVED.c **** /*******************************************************************************
   2:Generated_Source\PSoC5/isr_UART1_RX_BYTE_RECEIVED.c **** * File Name: isr_UART1_RX_BYTE_RECEIVED.c  
   3:Generated_Source\PSoC5/isr_UART1_RX_BYTE_RECEIVED.c **** * Version 1.70
   4:Generated_Source\PSoC5/isr_UART1_RX_BYTE_RECEIVED.c **** *
   5:Generated_Source\PSoC5/isr_UART1_RX_BYTE_RECEIVED.c **** *  Description:
   6:Generated_Source\PSoC5/isr_UART1_RX_BYTE_RECEIVED.c **** *   API for controlling the state of an interrupt.
   7:Generated_Source\PSoC5/isr_UART1_RX_BYTE_RECEIVED.c **** *
   8:Generated_Source\PSoC5/isr_UART1_RX_BYTE_RECEIVED.c **** *
   9:Generated_Source\PSoC5/isr_UART1_RX_BYTE_RECEIVED.c **** *  Note:
  10:Generated_Source\PSoC5/isr_UART1_RX_BYTE_RECEIVED.c **** *
  11:Generated_Source\PSoC5/isr_UART1_RX_BYTE_RECEIVED.c **** ********************************************************************************
  12:Generated_Source\PSoC5/isr_UART1_RX_BYTE_RECEIVED.c **** * Copyright 2008-2015, Cypress Semiconductor Corporation.  All rights reserved.
  13:Generated_Source\PSoC5/isr_UART1_RX_BYTE_RECEIVED.c **** * You may use this file only in accordance with the license, terms, conditions, 
  14:Generated_Source\PSoC5/isr_UART1_RX_BYTE_RECEIVED.c **** * disclaimers, and limitations in the end user license agreement accompanying 
  15:Generated_Source\PSoC5/isr_UART1_RX_BYTE_RECEIVED.c **** * the software package with which this file was provided.
  16:Generated_Source\PSoC5/isr_UART1_RX_BYTE_RECEIVED.c **** *******************************************************************************/
  17:Generated_Source\PSoC5/isr_UART1_RX_BYTE_RECEIVED.c **** 
  18:Generated_Source\PSoC5/isr_UART1_RX_BYTE_RECEIVED.c **** 
  19:Generated_Source\PSoC5/isr_UART1_RX_BYTE_RECEIVED.c **** #include <cydevice_trm.h>
  20:Generated_Source\PSoC5/isr_UART1_RX_BYTE_RECEIVED.c **** #include <CyLib.h>
  21:Generated_Source\PSoC5/isr_UART1_RX_BYTE_RECEIVED.c **** #include <isr_UART1_RX_BYTE_RECEIVED.h>
  22:Generated_Source\PSoC5/isr_UART1_RX_BYTE_RECEIVED.c **** 
  23:Generated_Source\PSoC5/isr_UART1_RX_BYTE_RECEIVED.c **** 
  24:Generated_Source\PSoC5/isr_UART1_RX_BYTE_RECEIVED.c **** #if !defined(isr_UART1_RX_BYTE_RECEIVED__REMOVED) /* Check for removal by optimization */
  25:Generated_Source\PSoC5/isr_UART1_RX_BYTE_RECEIVED.c **** 
  26:Generated_Source\PSoC5/isr_UART1_RX_BYTE_RECEIVED.c **** /*******************************************************************************
  27:Generated_Source\PSoC5/isr_UART1_RX_BYTE_RECEIVED.c **** *  Place your includes, defines and code here 
  28:Generated_Source\PSoC5/isr_UART1_RX_BYTE_RECEIVED.c **** ********************************************************************************/
ARM GAS  C:\Users\THUNDE~1\AppData\Local\Temp\ccNLaU92.s 			page 2


  29:Generated_Source\PSoC5/isr_UART1_RX_BYTE_RECEIVED.c **** /* `#START isr_UART1_RX_BYTE_RECEIVED_intc` */
  30:Generated_Source\PSoC5/isr_UART1_RX_BYTE_RECEIVED.c **** #define UART_1_RXDATA_REG             (* (reg8 *) UART_1_BUART_sRX_RxShifter_u0__F0_REG )
  31:Generated_Source\PSoC5/isr_UART1_RX_BYTE_RECEIVED.c **** #include <sniffPort.h>
  32:Generated_Source\PSoC5/isr_UART1_RX_BYTE_RECEIVED.c **** /* `#END` */
  33:Generated_Source\PSoC5/isr_UART1_RX_BYTE_RECEIVED.c **** 
  34:Generated_Source\PSoC5/isr_UART1_RX_BYTE_RECEIVED.c **** #ifndef CYINT_IRQ_BASE
  35:Generated_Source\PSoC5/isr_UART1_RX_BYTE_RECEIVED.c **** #define CYINT_IRQ_BASE      16
  36:Generated_Source\PSoC5/isr_UART1_RX_BYTE_RECEIVED.c **** #endif /* CYINT_IRQ_BASE */
  37:Generated_Source\PSoC5/isr_UART1_RX_BYTE_RECEIVED.c **** #ifndef CYINT_VECT_TABLE
  38:Generated_Source\PSoC5/isr_UART1_RX_BYTE_RECEIVED.c **** #define CYINT_VECT_TABLE    ((cyisraddress **) CYREG_NVIC_VECT_OFFSET)
  39:Generated_Source\PSoC5/isr_UART1_RX_BYTE_RECEIVED.c **** #endif /* CYINT_VECT_TABLE */
  40:Generated_Source\PSoC5/isr_UART1_RX_BYTE_RECEIVED.c **** 
  41:Generated_Source\PSoC5/isr_UART1_RX_BYTE_RECEIVED.c **** /* Declared in startup, used to set unused interrupts to. */
  42:Generated_Source\PSoC5/isr_UART1_RX_BYTE_RECEIVED.c **** CY_ISR_PROTO(IntDefaultHandler);
  43:Generated_Source\PSoC5/isr_UART1_RX_BYTE_RECEIVED.c **** 
  44:Generated_Source\PSoC5/isr_UART1_RX_BYTE_RECEIVED.c **** 
  45:Generated_Source\PSoC5/isr_UART1_RX_BYTE_RECEIVED.c **** /*******************************************************************************
  46:Generated_Source\PSoC5/isr_UART1_RX_BYTE_RECEIVED.c **** * Function Name: isr_UART1_RX_BYTE_RECEIVED_Start
  47:Generated_Source\PSoC5/isr_UART1_RX_BYTE_RECEIVED.c **** ********************************************************************************
  48:Generated_Source\PSoC5/isr_UART1_RX_BYTE_RECEIVED.c **** *
  49:Generated_Source\PSoC5/isr_UART1_RX_BYTE_RECEIVED.c **** * Summary:
  50:Generated_Source\PSoC5/isr_UART1_RX_BYTE_RECEIVED.c **** *  Set up the interrupt and enable it. This function disables the interrupt, 
  51:Generated_Source\PSoC5/isr_UART1_RX_BYTE_RECEIVED.c **** *  sets the default interrupt vector, sets the priority from the value in the
  52:Generated_Source\PSoC5/isr_UART1_RX_BYTE_RECEIVED.c **** *  Design Wide Resources Interrupt Editor, then enables the interrupt to the 
  53:Generated_Source\PSoC5/isr_UART1_RX_BYTE_RECEIVED.c **** *  interrupt controller.
  54:Generated_Source\PSoC5/isr_UART1_RX_BYTE_RECEIVED.c **** *
  55:Generated_Source\PSoC5/isr_UART1_RX_BYTE_RECEIVED.c **** * Parameters:  
  56:Generated_Source\PSoC5/isr_UART1_RX_BYTE_RECEIVED.c **** *   None
  57:Generated_Source\PSoC5/isr_UART1_RX_BYTE_RECEIVED.c **** *
  58:Generated_Source\PSoC5/isr_UART1_RX_BYTE_RECEIVED.c **** * Return:
  59:Generated_Source\PSoC5/isr_UART1_RX_BYTE_RECEIVED.c **** *   None
  60:Generated_Source\PSoC5/isr_UART1_RX_BYTE_RECEIVED.c **** *
  61:Generated_Source\PSoC5/isr_UART1_RX_BYTE_RECEIVED.c **** *******************************************************************************/
  62:Generated_Source\PSoC5/isr_UART1_RX_BYTE_RECEIVED.c **** void isr_UART1_RX_BYTE_RECEIVED_Start(void)
  63:Generated_Source\PSoC5/isr_UART1_RX_BYTE_RECEIVED.c **** {
  30              		.loc 1 63 0
  31              		.cfi_startproc
  32              		@ args = 0, pretend = 0, frame = 0
  33              		@ frame_needed = 1, uses_anonymous_args = 0
  34 0000 80B5     		push	{r7, lr}
  35              		.cfi_def_cfa_offset 8
  36              		.cfi_offset 7, -8
  37              		.cfi_offset 14, -4
  38 0002 00AF     		add	r7, sp, #0
  39              		.cfi_def_cfa_register 7
  64:Generated_Source\PSoC5/isr_UART1_RX_BYTE_RECEIVED.c ****     /* For all we know the interrupt is active. */
  65:Generated_Source\PSoC5/isr_UART1_RX_BYTE_RECEIVED.c ****     isr_UART1_RX_BYTE_RECEIVED_Disable();
  40              		.loc 1 65 0
  41 0004 FFF7FEFF 		bl	isr_UART1_RX_BYTE_RECEIVED_Disable
  66:Generated_Source\PSoC5/isr_UART1_RX_BYTE_RECEIVED.c **** 
  67:Generated_Source\PSoC5/isr_UART1_RX_BYTE_RECEIVED.c ****     /* Set the ISR to point to the isr_UART1_RX_BYTE_RECEIVED Interrupt. */
  68:Generated_Source\PSoC5/isr_UART1_RX_BYTE_RECEIVED.c ****     isr_UART1_RX_BYTE_RECEIVED_SetVector(&isr_UART1_RX_BYTE_RECEIVED_Interrupt);
  42              		.loc 1 68 0
  43 0008 0448     		ldr	r0, .L2
  44 000a FFF7FEFF 		bl	isr_UART1_RX_BYTE_RECEIVED_SetVector
  69:Generated_Source\PSoC5/isr_UART1_RX_BYTE_RECEIVED.c **** 
  70:Generated_Source\PSoC5/isr_UART1_RX_BYTE_RECEIVED.c ****     /* Set the priority. */
ARM GAS  C:\Users\THUNDE~1\AppData\Local\Temp\ccNLaU92.s 			page 3


  71:Generated_Source\PSoC5/isr_UART1_RX_BYTE_RECEIVED.c ****     isr_UART1_RX_BYTE_RECEIVED_SetPriority((uint8)isr_UART1_RX_BYTE_RECEIVED_INTC_PRIOR_NUMBER);
  45              		.loc 1 71 0
  46 000e 0520     		movs	r0, #5
  47 0010 FFF7FEFF 		bl	isr_UART1_RX_BYTE_RECEIVED_SetPriority
  72:Generated_Source\PSoC5/isr_UART1_RX_BYTE_RECEIVED.c **** 
  73:Generated_Source\PSoC5/isr_UART1_RX_BYTE_RECEIVED.c ****     /* Enable it. */
  74:Generated_Source\PSoC5/isr_UART1_RX_BYTE_RECEIVED.c ****     isr_UART1_RX_BYTE_RECEIVED_Enable();
  48              		.loc 1 74 0
  49 0014 FFF7FEFF 		bl	isr_UART1_RX_BYTE_RECEIVED_Enable
  75:Generated_Source\PSoC5/isr_UART1_RX_BYTE_RECEIVED.c **** }
  50              		.loc 1 75 0
  51 0018 00BF     		nop
  52 001a 80BD     		pop	{r7, pc}
  53              	.L3:
  54              		.align	2
  55              	.L2:
  56 001c 00000000 		.word	isr_UART1_RX_BYTE_RECEIVED_Interrupt
  57              		.cfi_endproc
  58              	.LFE0:
  59              		.size	isr_UART1_RX_BYTE_RECEIVED_Start, .-isr_UART1_RX_BYTE_RECEIVED_Start
  60              		.section	.text.isr_UART1_RX_BYTE_RECEIVED_StartEx,"ax",%progbits
  61              		.align	2
  62              		.global	isr_UART1_RX_BYTE_RECEIVED_StartEx
  63              		.thumb
  64              		.thumb_func
  65              		.type	isr_UART1_RX_BYTE_RECEIVED_StartEx, %function
  66              	isr_UART1_RX_BYTE_RECEIVED_StartEx:
  67              	.LFB1:
  76:Generated_Source\PSoC5/isr_UART1_RX_BYTE_RECEIVED.c **** 
  77:Generated_Source\PSoC5/isr_UART1_RX_BYTE_RECEIVED.c **** 
  78:Generated_Source\PSoC5/isr_UART1_RX_BYTE_RECEIVED.c **** /*******************************************************************************
  79:Generated_Source\PSoC5/isr_UART1_RX_BYTE_RECEIVED.c **** * Function Name: isr_UART1_RX_BYTE_RECEIVED_StartEx
  80:Generated_Source\PSoC5/isr_UART1_RX_BYTE_RECEIVED.c **** ********************************************************************************
  81:Generated_Source\PSoC5/isr_UART1_RX_BYTE_RECEIVED.c **** *
  82:Generated_Source\PSoC5/isr_UART1_RX_BYTE_RECEIVED.c **** * Summary:
  83:Generated_Source\PSoC5/isr_UART1_RX_BYTE_RECEIVED.c **** *  Sets up the interrupt and enables it. This function disables the interrupt,
  84:Generated_Source\PSoC5/isr_UART1_RX_BYTE_RECEIVED.c **** *  sets the interrupt vector based on the address passed in, sets the priority 
  85:Generated_Source\PSoC5/isr_UART1_RX_BYTE_RECEIVED.c **** *  from the value in the Design Wide Resources Interrupt Editor, then enables 
  86:Generated_Source\PSoC5/isr_UART1_RX_BYTE_RECEIVED.c **** *  the interrupt to the interrupt controller.
  87:Generated_Source\PSoC5/isr_UART1_RX_BYTE_RECEIVED.c **** *  
  88:Generated_Source\PSoC5/isr_UART1_RX_BYTE_RECEIVED.c **** *  When defining ISR functions, the CY_ISR and CY_ISR_PROTO macros should be 
  89:Generated_Source\PSoC5/isr_UART1_RX_BYTE_RECEIVED.c **** *  used to provide consistent definition across compilers:
  90:Generated_Source\PSoC5/isr_UART1_RX_BYTE_RECEIVED.c **** *  
  91:Generated_Source\PSoC5/isr_UART1_RX_BYTE_RECEIVED.c **** *  Function definition example:
  92:Generated_Source\PSoC5/isr_UART1_RX_BYTE_RECEIVED.c **** *   CY_ISR(MyISR)
  93:Generated_Source\PSoC5/isr_UART1_RX_BYTE_RECEIVED.c **** *   {
  94:Generated_Source\PSoC5/isr_UART1_RX_BYTE_RECEIVED.c **** *   }
  95:Generated_Source\PSoC5/isr_UART1_RX_BYTE_RECEIVED.c **** *   Function prototype example:
  96:Generated_Source\PSoC5/isr_UART1_RX_BYTE_RECEIVED.c **** *   CY_ISR_PROTO(MyISR);
  97:Generated_Source\PSoC5/isr_UART1_RX_BYTE_RECEIVED.c **** *
  98:Generated_Source\PSoC5/isr_UART1_RX_BYTE_RECEIVED.c **** * Parameters:  
  99:Generated_Source\PSoC5/isr_UART1_RX_BYTE_RECEIVED.c **** *   address: Address of the ISR to set in the interrupt vector table.
 100:Generated_Source\PSoC5/isr_UART1_RX_BYTE_RECEIVED.c **** *
 101:Generated_Source\PSoC5/isr_UART1_RX_BYTE_RECEIVED.c **** * Return:
 102:Generated_Source\PSoC5/isr_UART1_RX_BYTE_RECEIVED.c **** *   None
 103:Generated_Source\PSoC5/isr_UART1_RX_BYTE_RECEIVED.c **** *
 104:Generated_Source\PSoC5/isr_UART1_RX_BYTE_RECEIVED.c **** *******************************************************************************/
ARM GAS  C:\Users\THUNDE~1\AppData\Local\Temp\ccNLaU92.s 			page 4


 105:Generated_Source\PSoC5/isr_UART1_RX_BYTE_RECEIVED.c **** void isr_UART1_RX_BYTE_RECEIVED_StartEx(cyisraddress address)
 106:Generated_Source\PSoC5/isr_UART1_RX_BYTE_RECEIVED.c **** {
  68              		.loc 1 106 0
  69              		.cfi_startproc
  70              		@ args = 0, pretend = 0, frame = 8
  71              		@ frame_needed = 1, uses_anonymous_args = 0
  72 0000 80B5     		push	{r7, lr}
  73              		.cfi_def_cfa_offset 8
  74              		.cfi_offset 7, -8
  75              		.cfi_offset 14, -4
  76 0002 82B0     		sub	sp, sp, #8
  77              		.cfi_def_cfa_offset 16
  78 0004 00AF     		add	r7, sp, #0
  79              		.cfi_def_cfa_register 7
  80 0006 7860     		str	r0, [r7, #4]
 107:Generated_Source\PSoC5/isr_UART1_RX_BYTE_RECEIVED.c ****     /* For all we know the interrupt is active. */
 108:Generated_Source\PSoC5/isr_UART1_RX_BYTE_RECEIVED.c ****     isr_UART1_RX_BYTE_RECEIVED_Disable();
  81              		.loc 1 108 0
  82 0008 FFF7FEFF 		bl	isr_UART1_RX_BYTE_RECEIVED_Disable
 109:Generated_Source\PSoC5/isr_UART1_RX_BYTE_RECEIVED.c **** 
 110:Generated_Source\PSoC5/isr_UART1_RX_BYTE_RECEIVED.c ****     /* Set the ISR to point to the isr_UART1_RX_BYTE_RECEIVED Interrupt. */
 111:Generated_Source\PSoC5/isr_UART1_RX_BYTE_RECEIVED.c ****     isr_UART1_RX_BYTE_RECEIVED_SetVector(address);
  83              		.loc 1 111 0
  84 000c 7868     		ldr	r0, [r7, #4]
  85 000e FFF7FEFF 		bl	isr_UART1_RX_BYTE_RECEIVED_SetVector
 112:Generated_Source\PSoC5/isr_UART1_RX_BYTE_RECEIVED.c **** 
 113:Generated_Source\PSoC5/isr_UART1_RX_BYTE_RECEIVED.c ****     /* Set the priority. */
 114:Generated_Source\PSoC5/isr_UART1_RX_BYTE_RECEIVED.c ****     isr_UART1_RX_BYTE_RECEIVED_SetPriority((uint8)isr_UART1_RX_BYTE_RECEIVED_INTC_PRIOR_NUMBER);
  86              		.loc 1 114 0
  87 0012 0520     		movs	r0, #5
  88 0014 FFF7FEFF 		bl	isr_UART1_RX_BYTE_RECEIVED_SetPriority
 115:Generated_Source\PSoC5/isr_UART1_RX_BYTE_RECEIVED.c **** 
 116:Generated_Source\PSoC5/isr_UART1_RX_BYTE_RECEIVED.c ****     /* Enable it. */
 117:Generated_Source\PSoC5/isr_UART1_RX_BYTE_RECEIVED.c ****     isr_UART1_RX_BYTE_RECEIVED_Enable();
  89              		.loc 1 117 0
  90 0018 FFF7FEFF 		bl	isr_UART1_RX_BYTE_RECEIVED_Enable
 118:Generated_Source\PSoC5/isr_UART1_RX_BYTE_RECEIVED.c **** }
  91              		.loc 1 118 0
  92 001c 00BF     		nop
  93 001e 0837     		adds	r7, r7, #8
  94              		.cfi_def_cfa_offset 8
  95 0020 BD46     		mov	sp, r7
  96              		.cfi_def_cfa_register 13
  97              		@ sp needed
  98 0022 80BD     		pop	{r7, pc}
  99              		.cfi_endproc
 100              	.LFE1:
 101              		.size	isr_UART1_RX_BYTE_RECEIVED_StartEx, .-isr_UART1_RX_BYTE_RECEIVED_StartEx
 102              		.section	.text.isr_UART1_RX_BYTE_RECEIVED_Stop,"ax",%progbits
 103              		.align	2
 104              		.global	isr_UART1_RX_BYTE_RECEIVED_Stop
 105              		.thumb
 106              		.thumb_func
 107              		.type	isr_UART1_RX_BYTE_RECEIVED_Stop, %function
 108              	isr_UART1_RX_BYTE_RECEIVED_Stop:
 109              	.LFB2:
 119:Generated_Source\PSoC5/isr_UART1_RX_BYTE_RECEIVED.c **** 
ARM GAS  C:\Users\THUNDE~1\AppData\Local\Temp\ccNLaU92.s 			page 5


 120:Generated_Source\PSoC5/isr_UART1_RX_BYTE_RECEIVED.c **** 
 121:Generated_Source\PSoC5/isr_UART1_RX_BYTE_RECEIVED.c **** /*******************************************************************************
 122:Generated_Source\PSoC5/isr_UART1_RX_BYTE_RECEIVED.c **** * Function Name: isr_UART1_RX_BYTE_RECEIVED_Stop
 123:Generated_Source\PSoC5/isr_UART1_RX_BYTE_RECEIVED.c **** ********************************************************************************
 124:Generated_Source\PSoC5/isr_UART1_RX_BYTE_RECEIVED.c **** *
 125:Generated_Source\PSoC5/isr_UART1_RX_BYTE_RECEIVED.c **** * Summary:
 126:Generated_Source\PSoC5/isr_UART1_RX_BYTE_RECEIVED.c **** *   Disables and removes the interrupt.
 127:Generated_Source\PSoC5/isr_UART1_RX_BYTE_RECEIVED.c **** *
 128:Generated_Source\PSoC5/isr_UART1_RX_BYTE_RECEIVED.c **** * Parameters:  
 129:Generated_Source\PSoC5/isr_UART1_RX_BYTE_RECEIVED.c **** *   None
 130:Generated_Source\PSoC5/isr_UART1_RX_BYTE_RECEIVED.c **** *
 131:Generated_Source\PSoC5/isr_UART1_RX_BYTE_RECEIVED.c **** * Return:
 132:Generated_Source\PSoC5/isr_UART1_RX_BYTE_RECEIVED.c **** *   None
 133:Generated_Source\PSoC5/isr_UART1_RX_BYTE_RECEIVED.c **** *
 134:Generated_Source\PSoC5/isr_UART1_RX_BYTE_RECEIVED.c **** *******************************************************************************/
 135:Generated_Source\PSoC5/isr_UART1_RX_BYTE_RECEIVED.c **** void isr_UART1_RX_BYTE_RECEIVED_Stop(void)
 136:Generated_Source\PSoC5/isr_UART1_RX_BYTE_RECEIVED.c **** {
 110              		.loc 1 136 0
 111              		.cfi_startproc
 112              		@ args = 0, pretend = 0, frame = 0
 113              		@ frame_needed = 1, uses_anonymous_args = 0
 114 0000 80B5     		push	{r7, lr}
 115              		.cfi_def_cfa_offset 8
 116              		.cfi_offset 7, -8
 117              		.cfi_offset 14, -4
 118 0002 00AF     		add	r7, sp, #0
 119              		.cfi_def_cfa_register 7
 137:Generated_Source\PSoC5/isr_UART1_RX_BYTE_RECEIVED.c ****     /* Disable this interrupt. */
 138:Generated_Source\PSoC5/isr_UART1_RX_BYTE_RECEIVED.c ****     isr_UART1_RX_BYTE_RECEIVED_Disable();
 120              		.loc 1 138 0
 121 0004 FFF7FEFF 		bl	isr_UART1_RX_BYTE_RECEIVED_Disable
 139:Generated_Source\PSoC5/isr_UART1_RX_BYTE_RECEIVED.c **** 
 140:Generated_Source\PSoC5/isr_UART1_RX_BYTE_RECEIVED.c ****     /* Set the ISR to point to the passive one. */
 141:Generated_Source\PSoC5/isr_UART1_RX_BYTE_RECEIVED.c ****     isr_UART1_RX_BYTE_RECEIVED_SetVector(&IntDefaultHandler);
 122              		.loc 1 141 0
 123 0008 0248     		ldr	r0, .L6
 124 000a FFF7FEFF 		bl	isr_UART1_RX_BYTE_RECEIVED_SetVector
 142:Generated_Source\PSoC5/isr_UART1_RX_BYTE_RECEIVED.c **** }
 125              		.loc 1 142 0
 126 000e 00BF     		nop
 127 0010 80BD     		pop	{r7, pc}
 128              	.L7:
 129 0012 00BF     		.align	2
 130              	.L6:
 131 0014 00000000 		.word	IntDefaultHandler
 132              		.cfi_endproc
 133              	.LFE2:
 134              		.size	isr_UART1_RX_BYTE_RECEIVED_Stop, .-isr_UART1_RX_BYTE_RECEIVED_Stop
 135              		.section	.text.isr_UART1_RX_BYTE_RECEIVED_Interrupt,"ax",%progbits
 136              		.align	2
 137              		.global	isr_UART1_RX_BYTE_RECEIVED_Interrupt
 138              		.thumb
 139              		.thumb_func
 140              		.type	isr_UART1_RX_BYTE_RECEIVED_Interrupt, %function
 141              	isr_UART1_RX_BYTE_RECEIVED_Interrupt:
 142              	.LFB3:
 143:Generated_Source\PSoC5/isr_UART1_RX_BYTE_RECEIVED.c **** 
ARM GAS  C:\Users\THUNDE~1\AppData\Local\Temp\ccNLaU92.s 			page 6


 144:Generated_Source\PSoC5/isr_UART1_RX_BYTE_RECEIVED.c **** 
 145:Generated_Source\PSoC5/isr_UART1_RX_BYTE_RECEIVED.c **** /*******************************************************************************
 146:Generated_Source\PSoC5/isr_UART1_RX_BYTE_RECEIVED.c **** * Function Name: isr_UART1_RX_BYTE_RECEIVED_Interrupt
 147:Generated_Source\PSoC5/isr_UART1_RX_BYTE_RECEIVED.c **** ********************************************************************************
 148:Generated_Source\PSoC5/isr_UART1_RX_BYTE_RECEIVED.c **** *
 149:Generated_Source\PSoC5/isr_UART1_RX_BYTE_RECEIVED.c **** * Summary:
 150:Generated_Source\PSoC5/isr_UART1_RX_BYTE_RECEIVED.c **** *   The default Interrupt Service Routine for isr_UART1_RX_BYTE_RECEIVED.
 151:Generated_Source\PSoC5/isr_UART1_RX_BYTE_RECEIVED.c **** *
 152:Generated_Source\PSoC5/isr_UART1_RX_BYTE_RECEIVED.c **** *   Add custom code between the coments to keep the next version of this file
 153:Generated_Source\PSoC5/isr_UART1_RX_BYTE_RECEIVED.c **** *   from over writting your code.
 154:Generated_Source\PSoC5/isr_UART1_RX_BYTE_RECEIVED.c **** *
 155:Generated_Source\PSoC5/isr_UART1_RX_BYTE_RECEIVED.c **** * Parameters:  
 156:Generated_Source\PSoC5/isr_UART1_RX_BYTE_RECEIVED.c **** *
 157:Generated_Source\PSoC5/isr_UART1_RX_BYTE_RECEIVED.c **** * Return:
 158:Generated_Source\PSoC5/isr_UART1_RX_BYTE_RECEIVED.c **** *   None
 159:Generated_Source\PSoC5/isr_UART1_RX_BYTE_RECEIVED.c **** *
 160:Generated_Source\PSoC5/isr_UART1_RX_BYTE_RECEIVED.c **** *******************************************************************************/
 161:Generated_Source\PSoC5/isr_UART1_RX_BYTE_RECEIVED.c **** CY_ISR(isr_UART1_RX_BYTE_RECEIVED_Interrupt)
 162:Generated_Source\PSoC5/isr_UART1_RX_BYTE_RECEIVED.c **** {
 143              		.loc 1 162 0
 144              		.cfi_startproc
 145              		@ args = 0, pretend = 0, frame = 0
 146              		@ frame_needed = 1, uses_anonymous_args = 0
 147 0000 80B5     		push	{r7, lr}
 148              		.cfi_def_cfa_offset 8
 149              		.cfi_offset 7, -8
 150              		.cfi_offset 14, -4
 151 0002 00AF     		add	r7, sp, #0
 152              		.cfi_def_cfa_register 7
 163:Generated_Source\PSoC5/isr_UART1_RX_BYTE_RECEIVED.c ****     #ifdef isr_UART1_RX_BYTE_RECEIVED_INTERRUPT_INTERRUPT_CALLBACK
 164:Generated_Source\PSoC5/isr_UART1_RX_BYTE_RECEIVED.c ****         isr_UART1_RX_BYTE_RECEIVED_Interrupt_InterruptCallback();
 165:Generated_Source\PSoC5/isr_UART1_RX_BYTE_RECEIVED.c ****     #endif /* isr_UART1_RX_BYTE_RECEIVED_INTERRUPT_INTERRUPT_CALLBACK */ 
 166:Generated_Source\PSoC5/isr_UART1_RX_BYTE_RECEIVED.c **** 
 167:Generated_Source\PSoC5/isr_UART1_RX_BYTE_RECEIVED.c ****     /*  Place your Interrupt code here. */
 168:Generated_Source\PSoC5/isr_UART1_RX_BYTE_RECEIVED.c ****     /* `#START isr_UART1_RX_BYTE_RECEIVED_Interrupt` */
 169:Generated_Source\PSoC5/isr_UART1_RX_BYTE_RECEIVED.c ****     
 170:Generated_Source\PSoC5/isr_UART1_RX_BYTE_RECEIVED.c ****     sendReceivedByteToSniffTask(UART_1_RXDATA_REG);
 153              		.loc 1 170 0
 154 0004 0222     		movs	r2, #2
 155 0006 0121     		movs	r1, #1
 156 0008 0248     		ldr	r0, .L9
 157 000a FFF7FEFF 		bl	writeFIFO
 171:Generated_Source\PSoC5/isr_UART1_RX_BYTE_RECEIVED.c ****     /* `#END` */
 172:Generated_Source\PSoC5/isr_UART1_RX_BYTE_RECEIVED.c **** }
 158              		.loc 1 172 0
 159 000e 00BF     		nop
 160 0010 80BD     		pop	{r7, pc}
 161              	.L10:
 162 0012 00BF     		.align	2
 163              	.L9:
 164 0014 48640040 		.word	1073767496
 165              		.cfi_endproc
 166              	.LFE3:
 167              		.size	isr_UART1_RX_BYTE_RECEIVED_Interrupt, .-isr_UART1_RX_BYTE_RECEIVED_Interrupt
 168              		.section	.text.isr_UART1_RX_BYTE_RECEIVED_SetVector,"ax",%progbits
 169              		.align	2
 170              		.global	isr_UART1_RX_BYTE_RECEIVED_SetVector
ARM GAS  C:\Users\THUNDE~1\AppData\Local\Temp\ccNLaU92.s 			page 7


 171              		.thumb
 172              		.thumb_func
 173              		.type	isr_UART1_RX_BYTE_RECEIVED_SetVector, %function
 174              	isr_UART1_RX_BYTE_RECEIVED_SetVector:
 175              	.LFB4:
 173:Generated_Source\PSoC5/isr_UART1_RX_BYTE_RECEIVED.c **** 
 174:Generated_Source\PSoC5/isr_UART1_RX_BYTE_RECEIVED.c **** 
 175:Generated_Source\PSoC5/isr_UART1_RX_BYTE_RECEIVED.c **** /*******************************************************************************
 176:Generated_Source\PSoC5/isr_UART1_RX_BYTE_RECEIVED.c **** * Function Name: isr_UART1_RX_BYTE_RECEIVED_SetVector
 177:Generated_Source\PSoC5/isr_UART1_RX_BYTE_RECEIVED.c **** ********************************************************************************
 178:Generated_Source\PSoC5/isr_UART1_RX_BYTE_RECEIVED.c **** *
 179:Generated_Source\PSoC5/isr_UART1_RX_BYTE_RECEIVED.c **** * Summary:
 180:Generated_Source\PSoC5/isr_UART1_RX_BYTE_RECEIVED.c **** *   Change the ISR vector for the Interrupt. Note calling isr_UART1_RX_BYTE_RECEIVED_Start
 181:Generated_Source\PSoC5/isr_UART1_RX_BYTE_RECEIVED.c **** *   will override any effect this method would have had. To set the vector 
 182:Generated_Source\PSoC5/isr_UART1_RX_BYTE_RECEIVED.c **** *   before the component has been started use isr_UART1_RX_BYTE_RECEIVED_StartEx instead.
 183:Generated_Source\PSoC5/isr_UART1_RX_BYTE_RECEIVED.c **** * 
 184:Generated_Source\PSoC5/isr_UART1_RX_BYTE_RECEIVED.c **** *   When defining ISR functions, the CY_ISR and CY_ISR_PROTO macros should be 
 185:Generated_Source\PSoC5/isr_UART1_RX_BYTE_RECEIVED.c **** *   used to provide consistent definition across compilers:
 186:Generated_Source\PSoC5/isr_UART1_RX_BYTE_RECEIVED.c **** *
 187:Generated_Source\PSoC5/isr_UART1_RX_BYTE_RECEIVED.c **** *   Function definition example:
 188:Generated_Source\PSoC5/isr_UART1_RX_BYTE_RECEIVED.c **** *   CY_ISR(MyISR)
 189:Generated_Source\PSoC5/isr_UART1_RX_BYTE_RECEIVED.c **** *   {
 190:Generated_Source\PSoC5/isr_UART1_RX_BYTE_RECEIVED.c **** *   }
 191:Generated_Source\PSoC5/isr_UART1_RX_BYTE_RECEIVED.c **** *
 192:Generated_Source\PSoC5/isr_UART1_RX_BYTE_RECEIVED.c **** *   Function prototype example:
 193:Generated_Source\PSoC5/isr_UART1_RX_BYTE_RECEIVED.c **** *     CY_ISR_PROTO(MyISR);
 194:Generated_Source\PSoC5/isr_UART1_RX_BYTE_RECEIVED.c **** *
 195:Generated_Source\PSoC5/isr_UART1_RX_BYTE_RECEIVED.c **** * Parameters:
 196:Generated_Source\PSoC5/isr_UART1_RX_BYTE_RECEIVED.c **** *   address: Address of the ISR to set in the interrupt vector table.
 197:Generated_Source\PSoC5/isr_UART1_RX_BYTE_RECEIVED.c **** *
 198:Generated_Source\PSoC5/isr_UART1_RX_BYTE_RECEIVED.c **** * Return:
 199:Generated_Source\PSoC5/isr_UART1_RX_BYTE_RECEIVED.c **** *   None
 200:Generated_Source\PSoC5/isr_UART1_RX_BYTE_RECEIVED.c **** *
 201:Generated_Source\PSoC5/isr_UART1_RX_BYTE_RECEIVED.c **** *******************************************************************************/
 202:Generated_Source\PSoC5/isr_UART1_RX_BYTE_RECEIVED.c **** void isr_UART1_RX_BYTE_RECEIVED_SetVector(cyisraddress address)
 203:Generated_Source\PSoC5/isr_UART1_RX_BYTE_RECEIVED.c **** {
 176              		.loc 1 203 0
 177              		.cfi_startproc
 178              		@ args = 0, pretend = 0, frame = 16
 179              		@ frame_needed = 1, uses_anonymous_args = 0
 180              		@ link register save eliminated.
 181 0000 80B4     		push	{r7}
 182              		.cfi_def_cfa_offset 4
 183              		.cfi_offset 7, -4
 184 0002 85B0     		sub	sp, sp, #20
 185              		.cfi_def_cfa_offset 24
 186 0004 00AF     		add	r7, sp, #0
 187              		.cfi_def_cfa_register 7
 188 0006 7860     		str	r0, [r7, #4]
 204:Generated_Source\PSoC5/isr_UART1_RX_BYTE_RECEIVED.c ****     cyisraddress * ramVectorTable;
 205:Generated_Source\PSoC5/isr_UART1_RX_BYTE_RECEIVED.c **** 
 206:Generated_Source\PSoC5/isr_UART1_RX_BYTE_RECEIVED.c ****     ramVectorTable = (cyisraddress *) *CYINT_VECT_TABLE;
 189              		.loc 1 206 0
 190 0008 054B     		ldr	r3, .L12
 191 000a 1B68     		ldr	r3, [r3]
 192 000c FB60     		str	r3, [r7, #12]
 207:Generated_Source\PSoC5/isr_UART1_RX_BYTE_RECEIVED.c **** 
ARM GAS  C:\Users\THUNDE~1\AppData\Local\Temp\ccNLaU92.s 			page 8


 208:Generated_Source\PSoC5/isr_UART1_RX_BYTE_RECEIVED.c ****     ramVectorTable[CYINT_IRQ_BASE + (uint32)isr_UART1_RX_BYTE_RECEIVED__INTC_NUMBER] = address;
 193              		.loc 1 208 0
 194 000e FB68     		ldr	r3, [r7, #12]
 195 0010 5833     		adds	r3, r3, #88
 196 0012 7A68     		ldr	r2, [r7, #4]
 197 0014 1A60     		str	r2, [r3]
 209:Generated_Source\PSoC5/isr_UART1_RX_BYTE_RECEIVED.c **** }
 198              		.loc 1 209 0
 199 0016 00BF     		nop
 200 0018 1437     		adds	r7, r7, #20
 201              		.cfi_def_cfa_offset 4
 202 001a BD46     		mov	sp, r7
 203              		.cfi_def_cfa_register 13
 204              		@ sp needed
 205 001c 80BC     		pop	{r7}
 206              		.cfi_restore 7
 207              		.cfi_def_cfa_offset 0
 208 001e 7047     		bx	lr
 209              	.L13:
 210              		.align	2
 211              	.L12:
 212 0020 08ED00E0 		.word	-536810232
 213              		.cfi_endproc
 214              	.LFE4:
 215              		.size	isr_UART1_RX_BYTE_RECEIVED_SetVector, .-isr_UART1_RX_BYTE_RECEIVED_SetVector
 216              		.section	.text.isr_UART1_RX_BYTE_RECEIVED_GetVector,"ax",%progbits
 217              		.align	2
 218              		.global	isr_UART1_RX_BYTE_RECEIVED_GetVector
 219              		.thumb
 220              		.thumb_func
 221              		.type	isr_UART1_RX_BYTE_RECEIVED_GetVector, %function
 222              	isr_UART1_RX_BYTE_RECEIVED_GetVector:
 223              	.LFB5:
 210:Generated_Source\PSoC5/isr_UART1_RX_BYTE_RECEIVED.c **** 
 211:Generated_Source\PSoC5/isr_UART1_RX_BYTE_RECEIVED.c **** 
 212:Generated_Source\PSoC5/isr_UART1_RX_BYTE_RECEIVED.c **** /*******************************************************************************
 213:Generated_Source\PSoC5/isr_UART1_RX_BYTE_RECEIVED.c **** * Function Name: isr_UART1_RX_BYTE_RECEIVED_GetVector
 214:Generated_Source\PSoC5/isr_UART1_RX_BYTE_RECEIVED.c **** ********************************************************************************
 215:Generated_Source\PSoC5/isr_UART1_RX_BYTE_RECEIVED.c **** *
 216:Generated_Source\PSoC5/isr_UART1_RX_BYTE_RECEIVED.c **** * Summary:
 217:Generated_Source\PSoC5/isr_UART1_RX_BYTE_RECEIVED.c **** *   Gets the "address" of the current ISR vector for the Interrupt.
 218:Generated_Source\PSoC5/isr_UART1_RX_BYTE_RECEIVED.c **** *
 219:Generated_Source\PSoC5/isr_UART1_RX_BYTE_RECEIVED.c **** * Parameters:
 220:Generated_Source\PSoC5/isr_UART1_RX_BYTE_RECEIVED.c **** *   None
 221:Generated_Source\PSoC5/isr_UART1_RX_BYTE_RECEIVED.c **** *
 222:Generated_Source\PSoC5/isr_UART1_RX_BYTE_RECEIVED.c **** * Return:
 223:Generated_Source\PSoC5/isr_UART1_RX_BYTE_RECEIVED.c **** *   Address of the ISR in the interrupt vector table.
 224:Generated_Source\PSoC5/isr_UART1_RX_BYTE_RECEIVED.c **** *
 225:Generated_Source\PSoC5/isr_UART1_RX_BYTE_RECEIVED.c **** *******************************************************************************/
 226:Generated_Source\PSoC5/isr_UART1_RX_BYTE_RECEIVED.c **** cyisraddress isr_UART1_RX_BYTE_RECEIVED_GetVector(void)
 227:Generated_Source\PSoC5/isr_UART1_RX_BYTE_RECEIVED.c **** {
 224              		.loc 1 227 0
 225              		.cfi_startproc
 226              		@ args = 0, pretend = 0, frame = 8
 227              		@ frame_needed = 1, uses_anonymous_args = 0
 228              		@ link register save eliminated.
 229 0000 80B4     		push	{r7}
ARM GAS  C:\Users\THUNDE~1\AppData\Local\Temp\ccNLaU92.s 			page 9


 230              		.cfi_def_cfa_offset 4
 231              		.cfi_offset 7, -4
 232 0002 83B0     		sub	sp, sp, #12
 233              		.cfi_def_cfa_offset 16
 234 0004 00AF     		add	r7, sp, #0
 235              		.cfi_def_cfa_register 7
 228:Generated_Source\PSoC5/isr_UART1_RX_BYTE_RECEIVED.c ****     cyisraddress * ramVectorTable;
 229:Generated_Source\PSoC5/isr_UART1_RX_BYTE_RECEIVED.c **** 
 230:Generated_Source\PSoC5/isr_UART1_RX_BYTE_RECEIVED.c ****     ramVectorTable = (cyisraddress *) *CYINT_VECT_TABLE;
 236              		.loc 1 230 0
 237 0006 054B     		ldr	r3, .L16
 238 0008 1B68     		ldr	r3, [r3]
 239 000a 7B60     		str	r3, [r7, #4]
 231:Generated_Source\PSoC5/isr_UART1_RX_BYTE_RECEIVED.c **** 
 232:Generated_Source\PSoC5/isr_UART1_RX_BYTE_RECEIVED.c ****     return ramVectorTable[CYINT_IRQ_BASE + (uint32)isr_UART1_RX_BYTE_RECEIVED__INTC_NUMBER];
 240              		.loc 1 232 0
 241 000c 7B68     		ldr	r3, [r7, #4]
 242 000e 9B6D     		ldr	r3, [r3, #88]
 233:Generated_Source\PSoC5/isr_UART1_RX_BYTE_RECEIVED.c **** }
 243              		.loc 1 233 0
 244 0010 1846     		mov	r0, r3
 245 0012 0C37     		adds	r7, r7, #12
 246              		.cfi_def_cfa_offset 4
 247 0014 BD46     		mov	sp, r7
 248              		.cfi_def_cfa_register 13
 249              		@ sp needed
 250 0016 80BC     		pop	{r7}
 251              		.cfi_restore 7
 252              		.cfi_def_cfa_offset 0
 253 0018 7047     		bx	lr
 254              	.L17:
 255 001a 00BF     		.align	2
 256              	.L16:
 257 001c 08ED00E0 		.word	-536810232
 258              		.cfi_endproc
 259              	.LFE5:
 260              		.size	isr_UART1_RX_BYTE_RECEIVED_GetVector, .-isr_UART1_RX_BYTE_RECEIVED_GetVector
 261              		.section	.text.isr_UART1_RX_BYTE_RECEIVED_SetPriority,"ax",%progbits
 262              		.align	2
 263              		.global	isr_UART1_RX_BYTE_RECEIVED_SetPriority
 264              		.thumb
 265              		.thumb_func
 266              		.type	isr_UART1_RX_BYTE_RECEIVED_SetPriority, %function
 267              	isr_UART1_RX_BYTE_RECEIVED_SetPriority:
 268              	.LFB6:
 234:Generated_Source\PSoC5/isr_UART1_RX_BYTE_RECEIVED.c **** 
 235:Generated_Source\PSoC5/isr_UART1_RX_BYTE_RECEIVED.c **** 
 236:Generated_Source\PSoC5/isr_UART1_RX_BYTE_RECEIVED.c **** /*******************************************************************************
 237:Generated_Source\PSoC5/isr_UART1_RX_BYTE_RECEIVED.c **** * Function Name: isr_UART1_RX_BYTE_RECEIVED_SetPriority
 238:Generated_Source\PSoC5/isr_UART1_RX_BYTE_RECEIVED.c **** ********************************************************************************
 239:Generated_Source\PSoC5/isr_UART1_RX_BYTE_RECEIVED.c **** *
 240:Generated_Source\PSoC5/isr_UART1_RX_BYTE_RECEIVED.c **** * Summary:
 241:Generated_Source\PSoC5/isr_UART1_RX_BYTE_RECEIVED.c **** *   Sets the Priority of the Interrupt. 
 242:Generated_Source\PSoC5/isr_UART1_RX_BYTE_RECEIVED.c **** *
 243:Generated_Source\PSoC5/isr_UART1_RX_BYTE_RECEIVED.c **** *   Note calling isr_UART1_RX_BYTE_RECEIVED_Start or isr_UART1_RX_BYTE_RECEIVED_StartEx will 
 244:Generated_Source\PSoC5/isr_UART1_RX_BYTE_RECEIVED.c **** *   override any effect this API would have had. This API should only be called
 245:Generated_Source\PSoC5/isr_UART1_RX_BYTE_RECEIVED.c **** *   after isr_UART1_RX_BYTE_RECEIVED_Start or isr_UART1_RX_BYTE_RECEIVED_StartEx has been called. 
ARM GAS  C:\Users\THUNDE~1\AppData\Local\Temp\ccNLaU92.s 			page 10


 246:Generated_Source\PSoC5/isr_UART1_RX_BYTE_RECEIVED.c **** *   To set the initial priority for the component, use the Design-Wide Resources
 247:Generated_Source\PSoC5/isr_UART1_RX_BYTE_RECEIVED.c **** *   Interrupt Editor.
 248:Generated_Source\PSoC5/isr_UART1_RX_BYTE_RECEIVED.c **** *
 249:Generated_Source\PSoC5/isr_UART1_RX_BYTE_RECEIVED.c **** *   Note This API has no effect on Non-maskable interrupt NMI).
 250:Generated_Source\PSoC5/isr_UART1_RX_BYTE_RECEIVED.c **** *
 251:Generated_Source\PSoC5/isr_UART1_RX_BYTE_RECEIVED.c **** * Parameters:
 252:Generated_Source\PSoC5/isr_UART1_RX_BYTE_RECEIVED.c **** *   priority: Priority of the interrupt, 0 being the highest priority
 253:Generated_Source\PSoC5/isr_UART1_RX_BYTE_RECEIVED.c **** *             PSoC 3 and PSoC 5LP: Priority is from 0 to 7.
 254:Generated_Source\PSoC5/isr_UART1_RX_BYTE_RECEIVED.c **** *             PSoC 4: Priority is from 0 to 3.
 255:Generated_Source\PSoC5/isr_UART1_RX_BYTE_RECEIVED.c **** *
 256:Generated_Source\PSoC5/isr_UART1_RX_BYTE_RECEIVED.c **** * Return:
 257:Generated_Source\PSoC5/isr_UART1_RX_BYTE_RECEIVED.c **** *   None
 258:Generated_Source\PSoC5/isr_UART1_RX_BYTE_RECEIVED.c **** *
 259:Generated_Source\PSoC5/isr_UART1_RX_BYTE_RECEIVED.c **** *******************************************************************************/
 260:Generated_Source\PSoC5/isr_UART1_RX_BYTE_RECEIVED.c **** void isr_UART1_RX_BYTE_RECEIVED_SetPriority(uint8 priority)
 261:Generated_Source\PSoC5/isr_UART1_RX_BYTE_RECEIVED.c **** {
 269              		.loc 1 261 0
 270              		.cfi_startproc
 271              		@ args = 0, pretend = 0, frame = 8
 272              		@ frame_needed = 1, uses_anonymous_args = 0
 273              		@ link register save eliminated.
 274 0000 80B4     		push	{r7}
 275              		.cfi_def_cfa_offset 4
 276              		.cfi_offset 7, -4
 277 0002 83B0     		sub	sp, sp, #12
 278              		.cfi_def_cfa_offset 16
 279 0004 00AF     		add	r7, sp, #0
 280              		.cfi_def_cfa_register 7
 281 0006 0346     		mov	r3, r0
 282 0008 FB71     		strb	r3, [r7, #7]
 262:Generated_Source\PSoC5/isr_UART1_RX_BYTE_RECEIVED.c ****     *isr_UART1_RX_BYTE_RECEIVED_INTC_PRIOR = priority << 5;
 283              		.loc 1 262 0
 284 000a 054A     		ldr	r2, .L19
 285 000c FB79     		ldrb	r3, [r7, #7]
 286 000e 5B01     		lsls	r3, r3, #5
 287 0010 DBB2     		uxtb	r3, r3
 288 0012 1370     		strb	r3, [r2]
 263:Generated_Source\PSoC5/isr_UART1_RX_BYTE_RECEIVED.c **** }
 289              		.loc 1 263 0
 290 0014 00BF     		nop
 291 0016 0C37     		adds	r7, r7, #12
 292              		.cfi_def_cfa_offset 4
 293 0018 BD46     		mov	sp, r7
 294              		.cfi_def_cfa_register 13
 295              		@ sp needed
 296 001a 80BC     		pop	{r7}
 297              		.cfi_restore 7
 298              		.cfi_def_cfa_offset 0
 299 001c 7047     		bx	lr
 300              	.L20:
 301 001e 00BF     		.align	2
 302              	.L19:
 303 0020 06E400E0 		.word	-536812538
 304              		.cfi_endproc
 305              	.LFE6:
 306              		.size	isr_UART1_RX_BYTE_RECEIVED_SetPriority, .-isr_UART1_RX_BYTE_RECEIVED_SetPriority
 307              		.section	.text.isr_UART1_RX_BYTE_RECEIVED_GetPriority,"ax",%progbits
ARM GAS  C:\Users\THUNDE~1\AppData\Local\Temp\ccNLaU92.s 			page 11


 308              		.align	2
 309              		.global	isr_UART1_RX_BYTE_RECEIVED_GetPriority
 310              		.thumb
 311              		.thumb_func
 312              		.type	isr_UART1_RX_BYTE_RECEIVED_GetPriority, %function
 313              	isr_UART1_RX_BYTE_RECEIVED_GetPriority:
 314              	.LFB7:
 264:Generated_Source\PSoC5/isr_UART1_RX_BYTE_RECEIVED.c **** 
 265:Generated_Source\PSoC5/isr_UART1_RX_BYTE_RECEIVED.c **** 
 266:Generated_Source\PSoC5/isr_UART1_RX_BYTE_RECEIVED.c **** /*******************************************************************************
 267:Generated_Source\PSoC5/isr_UART1_RX_BYTE_RECEIVED.c **** * Function Name: isr_UART1_RX_BYTE_RECEIVED_GetPriority
 268:Generated_Source\PSoC5/isr_UART1_RX_BYTE_RECEIVED.c **** ********************************************************************************
 269:Generated_Source\PSoC5/isr_UART1_RX_BYTE_RECEIVED.c **** *
 270:Generated_Source\PSoC5/isr_UART1_RX_BYTE_RECEIVED.c **** * Summary:
 271:Generated_Source\PSoC5/isr_UART1_RX_BYTE_RECEIVED.c **** *   Gets the Priority of the Interrupt.
 272:Generated_Source\PSoC5/isr_UART1_RX_BYTE_RECEIVED.c **** *
 273:Generated_Source\PSoC5/isr_UART1_RX_BYTE_RECEIVED.c **** * Parameters:
 274:Generated_Source\PSoC5/isr_UART1_RX_BYTE_RECEIVED.c **** *   None
 275:Generated_Source\PSoC5/isr_UART1_RX_BYTE_RECEIVED.c **** *
 276:Generated_Source\PSoC5/isr_UART1_RX_BYTE_RECEIVED.c **** * Return:
 277:Generated_Source\PSoC5/isr_UART1_RX_BYTE_RECEIVED.c **** *   Priority of the interrupt, 0 being the highest priority
 278:Generated_Source\PSoC5/isr_UART1_RX_BYTE_RECEIVED.c **** *    PSoC 3 and PSoC 5LP: Priority is from 0 to 7.
 279:Generated_Source\PSoC5/isr_UART1_RX_BYTE_RECEIVED.c **** *    PSoC 4: Priority is from 0 to 3.
 280:Generated_Source\PSoC5/isr_UART1_RX_BYTE_RECEIVED.c **** *
 281:Generated_Source\PSoC5/isr_UART1_RX_BYTE_RECEIVED.c **** *******************************************************************************/
 282:Generated_Source\PSoC5/isr_UART1_RX_BYTE_RECEIVED.c **** uint8 isr_UART1_RX_BYTE_RECEIVED_GetPriority(void)
 283:Generated_Source\PSoC5/isr_UART1_RX_BYTE_RECEIVED.c **** {
 315              		.loc 1 283 0
 316              		.cfi_startproc
 317              		@ args = 0, pretend = 0, frame = 8
 318              		@ frame_needed = 1, uses_anonymous_args = 0
 319              		@ link register save eliminated.
 320 0000 80B4     		push	{r7}
 321              		.cfi_def_cfa_offset 4
 322              		.cfi_offset 7, -4
 323 0002 83B0     		sub	sp, sp, #12
 324              		.cfi_def_cfa_offset 16
 325 0004 00AF     		add	r7, sp, #0
 326              		.cfi_def_cfa_register 7
 284:Generated_Source\PSoC5/isr_UART1_RX_BYTE_RECEIVED.c ****     uint8 priority;
 285:Generated_Source\PSoC5/isr_UART1_RX_BYTE_RECEIVED.c **** 
 286:Generated_Source\PSoC5/isr_UART1_RX_BYTE_RECEIVED.c **** 
 287:Generated_Source\PSoC5/isr_UART1_RX_BYTE_RECEIVED.c ****     priority = *isr_UART1_RX_BYTE_RECEIVED_INTC_PRIOR >> 5;
 327              		.loc 1 287 0
 328 0006 054B     		ldr	r3, .L23
 329 0008 1B78     		ldrb	r3, [r3]
 330 000a DBB2     		uxtb	r3, r3
 331 000c 5B09     		lsrs	r3, r3, #5
 332 000e FB71     		strb	r3, [r7, #7]
 288:Generated_Source\PSoC5/isr_UART1_RX_BYTE_RECEIVED.c **** 
 289:Generated_Source\PSoC5/isr_UART1_RX_BYTE_RECEIVED.c ****     return priority;
 333              		.loc 1 289 0
 334 0010 FB79     		ldrb	r3, [r7, #7]	@ zero_extendqisi2
 290:Generated_Source\PSoC5/isr_UART1_RX_BYTE_RECEIVED.c **** }
 335              		.loc 1 290 0
 336 0012 1846     		mov	r0, r3
 337 0014 0C37     		adds	r7, r7, #12
ARM GAS  C:\Users\THUNDE~1\AppData\Local\Temp\ccNLaU92.s 			page 12


 338              		.cfi_def_cfa_offset 4
 339 0016 BD46     		mov	sp, r7
 340              		.cfi_def_cfa_register 13
 341              		@ sp needed
 342 0018 80BC     		pop	{r7}
 343              		.cfi_restore 7
 344              		.cfi_def_cfa_offset 0
 345 001a 7047     		bx	lr
 346              	.L24:
 347              		.align	2
 348              	.L23:
 349 001c 06E400E0 		.word	-536812538
 350              		.cfi_endproc
 351              	.LFE7:
 352              		.size	isr_UART1_RX_BYTE_RECEIVED_GetPriority, .-isr_UART1_RX_BYTE_RECEIVED_GetPriority
 353              		.section	.text.isr_UART1_RX_BYTE_RECEIVED_Enable,"ax",%progbits
 354              		.align	2
 355              		.global	isr_UART1_RX_BYTE_RECEIVED_Enable
 356              		.thumb
 357              		.thumb_func
 358              		.type	isr_UART1_RX_BYTE_RECEIVED_Enable, %function
 359              	isr_UART1_RX_BYTE_RECEIVED_Enable:
 360              	.LFB8:
 291:Generated_Source\PSoC5/isr_UART1_RX_BYTE_RECEIVED.c **** 
 292:Generated_Source\PSoC5/isr_UART1_RX_BYTE_RECEIVED.c **** 
 293:Generated_Source\PSoC5/isr_UART1_RX_BYTE_RECEIVED.c **** /*******************************************************************************
 294:Generated_Source\PSoC5/isr_UART1_RX_BYTE_RECEIVED.c **** * Function Name: isr_UART1_RX_BYTE_RECEIVED_Enable
 295:Generated_Source\PSoC5/isr_UART1_RX_BYTE_RECEIVED.c **** ********************************************************************************
 296:Generated_Source\PSoC5/isr_UART1_RX_BYTE_RECEIVED.c **** *
 297:Generated_Source\PSoC5/isr_UART1_RX_BYTE_RECEIVED.c **** * Summary:
 298:Generated_Source\PSoC5/isr_UART1_RX_BYTE_RECEIVED.c **** *   Enables the interrupt to the interrupt controller. Do not call this function
 299:Generated_Source\PSoC5/isr_UART1_RX_BYTE_RECEIVED.c **** *   unless ISR_Start() has been called or the functionality of the ISR_Start() 
 300:Generated_Source\PSoC5/isr_UART1_RX_BYTE_RECEIVED.c **** *   function, which sets the vector and the priority, has been called.
 301:Generated_Source\PSoC5/isr_UART1_RX_BYTE_RECEIVED.c **** *
 302:Generated_Source\PSoC5/isr_UART1_RX_BYTE_RECEIVED.c **** * Parameters:
 303:Generated_Source\PSoC5/isr_UART1_RX_BYTE_RECEIVED.c **** *   None
 304:Generated_Source\PSoC5/isr_UART1_RX_BYTE_RECEIVED.c **** *
 305:Generated_Source\PSoC5/isr_UART1_RX_BYTE_RECEIVED.c **** * Return:
 306:Generated_Source\PSoC5/isr_UART1_RX_BYTE_RECEIVED.c **** *   None
 307:Generated_Source\PSoC5/isr_UART1_RX_BYTE_RECEIVED.c **** *
 308:Generated_Source\PSoC5/isr_UART1_RX_BYTE_RECEIVED.c **** *******************************************************************************/
 309:Generated_Source\PSoC5/isr_UART1_RX_BYTE_RECEIVED.c **** void isr_UART1_RX_BYTE_RECEIVED_Enable(void)
 310:Generated_Source\PSoC5/isr_UART1_RX_BYTE_RECEIVED.c **** {
 361              		.loc 1 310 0
 362              		.cfi_startproc
 363              		@ args = 0, pretend = 0, frame = 0
 364              		@ frame_needed = 1, uses_anonymous_args = 0
 365              		@ link register save eliminated.
 366 0000 80B4     		push	{r7}
 367              		.cfi_def_cfa_offset 4
 368              		.cfi_offset 7, -4
 369 0002 00AF     		add	r7, sp, #0
 370              		.cfi_def_cfa_register 7
 311:Generated_Source\PSoC5/isr_UART1_RX_BYTE_RECEIVED.c ****     /* Enable the general interrupt. */
 312:Generated_Source\PSoC5/isr_UART1_RX_BYTE_RECEIVED.c ****     *isr_UART1_RX_BYTE_RECEIVED_INTC_SET_EN = isr_UART1_RX_BYTE_RECEIVED__INTC_MASK;
 371              		.loc 1 312 0
 372 0004 034B     		ldr	r3, .L26
ARM GAS  C:\Users\THUNDE~1\AppData\Local\Temp\ccNLaU92.s 			page 13


 373 0006 4022     		movs	r2, #64
 374 0008 1A60     		str	r2, [r3]
 313:Generated_Source\PSoC5/isr_UART1_RX_BYTE_RECEIVED.c **** }
 375              		.loc 1 313 0
 376 000a 00BF     		nop
 377 000c BD46     		mov	sp, r7
 378              		.cfi_def_cfa_register 13
 379              		@ sp needed
 380 000e 80BC     		pop	{r7}
 381              		.cfi_restore 7
 382              		.cfi_def_cfa_offset 0
 383 0010 7047     		bx	lr
 384              	.L27:
 385 0012 00BF     		.align	2
 386              	.L26:
 387 0014 00E100E0 		.word	-536813312
 388              		.cfi_endproc
 389              	.LFE8:
 390              		.size	isr_UART1_RX_BYTE_RECEIVED_Enable, .-isr_UART1_RX_BYTE_RECEIVED_Enable
 391              		.section	.text.isr_UART1_RX_BYTE_RECEIVED_GetState,"ax",%progbits
 392              		.align	2
 393              		.global	isr_UART1_RX_BYTE_RECEIVED_GetState
 394              		.thumb
 395              		.thumb_func
 396              		.type	isr_UART1_RX_BYTE_RECEIVED_GetState, %function
 397              	isr_UART1_RX_BYTE_RECEIVED_GetState:
 398              	.LFB9:
 314:Generated_Source\PSoC5/isr_UART1_RX_BYTE_RECEIVED.c **** 
 315:Generated_Source\PSoC5/isr_UART1_RX_BYTE_RECEIVED.c **** 
 316:Generated_Source\PSoC5/isr_UART1_RX_BYTE_RECEIVED.c **** /*******************************************************************************
 317:Generated_Source\PSoC5/isr_UART1_RX_BYTE_RECEIVED.c **** * Function Name: isr_UART1_RX_BYTE_RECEIVED_GetState
 318:Generated_Source\PSoC5/isr_UART1_RX_BYTE_RECEIVED.c **** ********************************************************************************
 319:Generated_Source\PSoC5/isr_UART1_RX_BYTE_RECEIVED.c **** *
 320:Generated_Source\PSoC5/isr_UART1_RX_BYTE_RECEIVED.c **** * Summary:
 321:Generated_Source\PSoC5/isr_UART1_RX_BYTE_RECEIVED.c **** *   Gets the state (enabled, disabled) of the Interrupt.
 322:Generated_Source\PSoC5/isr_UART1_RX_BYTE_RECEIVED.c **** *
 323:Generated_Source\PSoC5/isr_UART1_RX_BYTE_RECEIVED.c **** * Parameters:
 324:Generated_Source\PSoC5/isr_UART1_RX_BYTE_RECEIVED.c **** *   None
 325:Generated_Source\PSoC5/isr_UART1_RX_BYTE_RECEIVED.c **** *
 326:Generated_Source\PSoC5/isr_UART1_RX_BYTE_RECEIVED.c **** * Return:
 327:Generated_Source\PSoC5/isr_UART1_RX_BYTE_RECEIVED.c **** *   1 if enabled, 0 if disabled.
 328:Generated_Source\PSoC5/isr_UART1_RX_BYTE_RECEIVED.c **** *
 329:Generated_Source\PSoC5/isr_UART1_RX_BYTE_RECEIVED.c **** *******************************************************************************/
 330:Generated_Source\PSoC5/isr_UART1_RX_BYTE_RECEIVED.c **** uint8 isr_UART1_RX_BYTE_RECEIVED_GetState(void)
 331:Generated_Source\PSoC5/isr_UART1_RX_BYTE_RECEIVED.c **** {
 399              		.loc 1 331 0
 400              		.cfi_startproc
 401              		@ args = 0, pretend = 0, frame = 0
 402              		@ frame_needed = 1, uses_anonymous_args = 0
 403              		@ link register save eliminated.
 404 0000 80B4     		push	{r7}
 405              		.cfi_def_cfa_offset 4
 406              		.cfi_offset 7, -4
 407 0002 00AF     		add	r7, sp, #0
 408              		.cfi_def_cfa_register 7
 332:Generated_Source\PSoC5/isr_UART1_RX_BYTE_RECEIVED.c ****     /* Get the state of the general interrupt. */
 333:Generated_Source\PSoC5/isr_UART1_RX_BYTE_RECEIVED.c ****     return ((*isr_UART1_RX_BYTE_RECEIVED_INTC_SET_EN & (uint32)isr_UART1_RX_BYTE_RECEIVED__INTC_MAS
ARM GAS  C:\Users\THUNDE~1\AppData\Local\Temp\ccNLaU92.s 			page 14


 409              		.loc 1 333 0
 410 0004 064B     		ldr	r3, .L32
 411 0006 1B68     		ldr	r3, [r3]
 412 0008 03F04003 		and	r3, r3, #64
 413 000c 002B     		cmp	r3, #0
 414 000e 01D0     		beq	.L29
 415              		.loc 1 333 0 is_stmt 0 discriminator 1
 416 0010 0123     		movs	r3, #1
 417 0012 00E0     		b	.L30
 418              	.L29:
 419              		.loc 1 333 0 discriminator 2
 420 0014 0023     		movs	r3, #0
 421              	.L30:
 334:Generated_Source\PSoC5/isr_UART1_RX_BYTE_RECEIVED.c **** }
 422              		.loc 1 334 0 is_stmt 1 discriminator 4
 423 0016 1846     		mov	r0, r3
 424 0018 BD46     		mov	sp, r7
 425              		.cfi_def_cfa_register 13
 426              		@ sp needed
 427 001a 80BC     		pop	{r7}
 428              		.cfi_restore 7
 429              		.cfi_def_cfa_offset 0
 430 001c 7047     		bx	lr
 431              	.L33:
 432 001e 00BF     		.align	2
 433              	.L32:
 434 0020 00E100E0 		.word	-536813312
 435              		.cfi_endproc
 436              	.LFE9:
 437              		.size	isr_UART1_RX_BYTE_RECEIVED_GetState, .-isr_UART1_RX_BYTE_RECEIVED_GetState
 438              		.section	.text.isr_UART1_RX_BYTE_RECEIVED_Disable,"ax",%progbits
 439              		.align	2
 440              		.global	isr_UART1_RX_BYTE_RECEIVED_Disable
 441              		.thumb
 442              		.thumb_func
 443              		.type	isr_UART1_RX_BYTE_RECEIVED_Disable, %function
 444              	isr_UART1_RX_BYTE_RECEIVED_Disable:
 445              	.LFB10:
 335:Generated_Source\PSoC5/isr_UART1_RX_BYTE_RECEIVED.c **** 
 336:Generated_Source\PSoC5/isr_UART1_RX_BYTE_RECEIVED.c **** 
 337:Generated_Source\PSoC5/isr_UART1_RX_BYTE_RECEIVED.c **** /*******************************************************************************
 338:Generated_Source\PSoC5/isr_UART1_RX_BYTE_RECEIVED.c **** * Function Name: isr_UART1_RX_BYTE_RECEIVED_Disable
 339:Generated_Source\PSoC5/isr_UART1_RX_BYTE_RECEIVED.c **** ********************************************************************************
 340:Generated_Source\PSoC5/isr_UART1_RX_BYTE_RECEIVED.c **** *
 341:Generated_Source\PSoC5/isr_UART1_RX_BYTE_RECEIVED.c **** * Summary:
 342:Generated_Source\PSoC5/isr_UART1_RX_BYTE_RECEIVED.c **** *   Disables the Interrupt in the interrupt controller.
 343:Generated_Source\PSoC5/isr_UART1_RX_BYTE_RECEIVED.c **** *
 344:Generated_Source\PSoC5/isr_UART1_RX_BYTE_RECEIVED.c **** * Parameters:
 345:Generated_Source\PSoC5/isr_UART1_RX_BYTE_RECEIVED.c **** *   None
 346:Generated_Source\PSoC5/isr_UART1_RX_BYTE_RECEIVED.c **** *
 347:Generated_Source\PSoC5/isr_UART1_RX_BYTE_RECEIVED.c **** * Return:
 348:Generated_Source\PSoC5/isr_UART1_RX_BYTE_RECEIVED.c **** *   None
 349:Generated_Source\PSoC5/isr_UART1_RX_BYTE_RECEIVED.c **** *
 350:Generated_Source\PSoC5/isr_UART1_RX_BYTE_RECEIVED.c **** *******************************************************************************/
 351:Generated_Source\PSoC5/isr_UART1_RX_BYTE_RECEIVED.c **** void isr_UART1_RX_BYTE_RECEIVED_Disable(void)
 352:Generated_Source\PSoC5/isr_UART1_RX_BYTE_RECEIVED.c **** {
 446              		.loc 1 352 0
ARM GAS  C:\Users\THUNDE~1\AppData\Local\Temp\ccNLaU92.s 			page 15


 447              		.cfi_startproc
 448              		@ args = 0, pretend = 0, frame = 0
 449              		@ frame_needed = 1, uses_anonymous_args = 0
 450              		@ link register save eliminated.
 451 0000 80B4     		push	{r7}
 452              		.cfi_def_cfa_offset 4
 453              		.cfi_offset 7, -4
 454 0002 00AF     		add	r7, sp, #0
 455              		.cfi_def_cfa_register 7
 353:Generated_Source\PSoC5/isr_UART1_RX_BYTE_RECEIVED.c ****     /* Disable the general interrupt. */
 354:Generated_Source\PSoC5/isr_UART1_RX_BYTE_RECEIVED.c ****     *isr_UART1_RX_BYTE_RECEIVED_INTC_CLR_EN = isr_UART1_RX_BYTE_RECEIVED__INTC_MASK;
 456              		.loc 1 354 0
 457 0004 034B     		ldr	r3, .L35
 458 0006 4022     		movs	r2, #64
 459 0008 1A60     		str	r2, [r3]
 355:Generated_Source\PSoC5/isr_UART1_RX_BYTE_RECEIVED.c **** }
 460              		.loc 1 355 0
 461 000a 00BF     		nop
 462 000c BD46     		mov	sp, r7
 463              		.cfi_def_cfa_register 13
 464              		@ sp needed
 465 000e 80BC     		pop	{r7}
 466              		.cfi_restore 7
 467              		.cfi_def_cfa_offset 0
 468 0010 7047     		bx	lr
 469              	.L36:
 470 0012 00BF     		.align	2
 471              	.L35:
 472 0014 80E100E0 		.word	-536813184
 473              		.cfi_endproc
 474              	.LFE10:
 475              		.size	isr_UART1_RX_BYTE_RECEIVED_Disable, .-isr_UART1_RX_BYTE_RECEIVED_Disable
 476              		.section	.text.isr_UART1_RX_BYTE_RECEIVED_SetPending,"ax",%progbits
 477              		.align	2
 478              		.global	isr_UART1_RX_BYTE_RECEIVED_SetPending
 479              		.thumb
 480              		.thumb_func
 481              		.type	isr_UART1_RX_BYTE_RECEIVED_SetPending, %function
 482              	isr_UART1_RX_BYTE_RECEIVED_SetPending:
 483              	.LFB11:
 356:Generated_Source\PSoC5/isr_UART1_RX_BYTE_RECEIVED.c **** 
 357:Generated_Source\PSoC5/isr_UART1_RX_BYTE_RECEIVED.c **** 
 358:Generated_Source\PSoC5/isr_UART1_RX_BYTE_RECEIVED.c **** /*******************************************************************************
 359:Generated_Source\PSoC5/isr_UART1_RX_BYTE_RECEIVED.c **** * Function Name: isr_UART1_RX_BYTE_RECEIVED_SetPending
 360:Generated_Source\PSoC5/isr_UART1_RX_BYTE_RECEIVED.c **** ********************************************************************************
 361:Generated_Source\PSoC5/isr_UART1_RX_BYTE_RECEIVED.c **** *
 362:Generated_Source\PSoC5/isr_UART1_RX_BYTE_RECEIVED.c **** * Summary:
 363:Generated_Source\PSoC5/isr_UART1_RX_BYTE_RECEIVED.c **** *   Causes the Interrupt to enter the pending state, a software method of
 364:Generated_Source\PSoC5/isr_UART1_RX_BYTE_RECEIVED.c **** *   generating the interrupt.
 365:Generated_Source\PSoC5/isr_UART1_RX_BYTE_RECEIVED.c **** *
 366:Generated_Source\PSoC5/isr_UART1_RX_BYTE_RECEIVED.c **** * Parameters:
 367:Generated_Source\PSoC5/isr_UART1_RX_BYTE_RECEIVED.c **** *   None
 368:Generated_Source\PSoC5/isr_UART1_RX_BYTE_RECEIVED.c **** *
 369:Generated_Source\PSoC5/isr_UART1_RX_BYTE_RECEIVED.c **** * Return:
 370:Generated_Source\PSoC5/isr_UART1_RX_BYTE_RECEIVED.c **** *   None
 371:Generated_Source\PSoC5/isr_UART1_RX_BYTE_RECEIVED.c **** *
 372:Generated_Source\PSoC5/isr_UART1_RX_BYTE_RECEIVED.c **** * Side Effects:
ARM GAS  C:\Users\THUNDE~1\AppData\Local\Temp\ccNLaU92.s 			page 16


 373:Generated_Source\PSoC5/isr_UART1_RX_BYTE_RECEIVED.c **** *   If interrupts are enabled and the interrupt is set up properly, the ISR is
 374:Generated_Source\PSoC5/isr_UART1_RX_BYTE_RECEIVED.c **** *   entered (depending on the priority of this interrupt and other pending 
 375:Generated_Source\PSoC5/isr_UART1_RX_BYTE_RECEIVED.c **** *   interrupts).
 376:Generated_Source\PSoC5/isr_UART1_RX_BYTE_RECEIVED.c **** *
 377:Generated_Source\PSoC5/isr_UART1_RX_BYTE_RECEIVED.c **** *******************************************************************************/
 378:Generated_Source\PSoC5/isr_UART1_RX_BYTE_RECEIVED.c **** void isr_UART1_RX_BYTE_RECEIVED_SetPending(void)
 379:Generated_Source\PSoC5/isr_UART1_RX_BYTE_RECEIVED.c **** {
 484              		.loc 1 379 0
 485              		.cfi_startproc
 486              		@ args = 0, pretend = 0, frame = 0
 487              		@ frame_needed = 1, uses_anonymous_args = 0
 488              		@ link register save eliminated.
 489 0000 80B4     		push	{r7}
 490              		.cfi_def_cfa_offset 4
 491              		.cfi_offset 7, -4
 492 0002 00AF     		add	r7, sp, #0
 493              		.cfi_def_cfa_register 7
 380:Generated_Source\PSoC5/isr_UART1_RX_BYTE_RECEIVED.c ****     *isr_UART1_RX_BYTE_RECEIVED_INTC_SET_PD = isr_UART1_RX_BYTE_RECEIVED__INTC_MASK;
 494              		.loc 1 380 0
 495 0004 034B     		ldr	r3, .L38
 496 0006 4022     		movs	r2, #64
 497 0008 1A60     		str	r2, [r3]
 381:Generated_Source\PSoC5/isr_UART1_RX_BYTE_RECEIVED.c **** }
 498              		.loc 1 381 0
 499 000a 00BF     		nop
 500 000c BD46     		mov	sp, r7
 501              		.cfi_def_cfa_register 13
 502              		@ sp needed
 503 000e 80BC     		pop	{r7}
 504              		.cfi_restore 7
 505              		.cfi_def_cfa_offset 0
 506 0010 7047     		bx	lr
 507              	.L39:
 508 0012 00BF     		.align	2
 509              	.L38:
 510 0014 00E200E0 		.word	-536813056
 511              		.cfi_endproc
 512              	.LFE11:
 513              		.size	isr_UART1_RX_BYTE_RECEIVED_SetPending, .-isr_UART1_RX_BYTE_RECEIVED_SetPending
 514              		.section	.text.isr_UART1_RX_BYTE_RECEIVED_ClearPending,"ax",%progbits
 515              		.align	2
 516              		.global	isr_UART1_RX_BYTE_RECEIVED_ClearPending
 517              		.thumb
 518              		.thumb_func
 519              		.type	isr_UART1_RX_BYTE_RECEIVED_ClearPending, %function
 520              	isr_UART1_RX_BYTE_RECEIVED_ClearPending:
 521              	.LFB12:
 382:Generated_Source\PSoC5/isr_UART1_RX_BYTE_RECEIVED.c **** 
 383:Generated_Source\PSoC5/isr_UART1_RX_BYTE_RECEIVED.c **** 
 384:Generated_Source\PSoC5/isr_UART1_RX_BYTE_RECEIVED.c **** /*******************************************************************************
 385:Generated_Source\PSoC5/isr_UART1_RX_BYTE_RECEIVED.c **** * Function Name: isr_UART1_RX_BYTE_RECEIVED_ClearPending
 386:Generated_Source\PSoC5/isr_UART1_RX_BYTE_RECEIVED.c **** ********************************************************************************
 387:Generated_Source\PSoC5/isr_UART1_RX_BYTE_RECEIVED.c **** *
 388:Generated_Source\PSoC5/isr_UART1_RX_BYTE_RECEIVED.c **** * Summary:
 389:Generated_Source\PSoC5/isr_UART1_RX_BYTE_RECEIVED.c **** *   Clears a pending interrupt in the interrupt controller.
 390:Generated_Source\PSoC5/isr_UART1_RX_BYTE_RECEIVED.c **** *
 391:Generated_Source\PSoC5/isr_UART1_RX_BYTE_RECEIVED.c **** *   Note Some interrupt sources are clear-on-read and require the block 
ARM GAS  C:\Users\THUNDE~1\AppData\Local\Temp\ccNLaU92.s 			page 17


 392:Generated_Source\PSoC5/isr_UART1_RX_BYTE_RECEIVED.c **** *   interrupt/status register to be read/cleared with the appropriate block API 
 393:Generated_Source\PSoC5/isr_UART1_RX_BYTE_RECEIVED.c **** *   (GPIO, UART, and so on). Otherwise the ISR will continue to remain in 
 394:Generated_Source\PSoC5/isr_UART1_RX_BYTE_RECEIVED.c **** *   pending state even though the interrupt itself is cleared using this API.
 395:Generated_Source\PSoC5/isr_UART1_RX_BYTE_RECEIVED.c **** *
 396:Generated_Source\PSoC5/isr_UART1_RX_BYTE_RECEIVED.c **** * Parameters:
 397:Generated_Source\PSoC5/isr_UART1_RX_BYTE_RECEIVED.c **** *   None
 398:Generated_Source\PSoC5/isr_UART1_RX_BYTE_RECEIVED.c **** *
 399:Generated_Source\PSoC5/isr_UART1_RX_BYTE_RECEIVED.c **** * Return:
 400:Generated_Source\PSoC5/isr_UART1_RX_BYTE_RECEIVED.c **** *   None
 401:Generated_Source\PSoC5/isr_UART1_RX_BYTE_RECEIVED.c **** *
 402:Generated_Source\PSoC5/isr_UART1_RX_BYTE_RECEIVED.c **** *******************************************************************************/
 403:Generated_Source\PSoC5/isr_UART1_RX_BYTE_RECEIVED.c **** void isr_UART1_RX_BYTE_RECEIVED_ClearPending(void)
 404:Generated_Source\PSoC5/isr_UART1_RX_BYTE_RECEIVED.c **** {
 522              		.loc 1 404 0
 523              		.cfi_startproc
 524              		@ args = 0, pretend = 0, frame = 0
 525              		@ frame_needed = 1, uses_anonymous_args = 0
 526              		@ link register save eliminated.
 527 0000 80B4     		push	{r7}
 528              		.cfi_def_cfa_offset 4
 529              		.cfi_offset 7, -4
 530 0002 00AF     		add	r7, sp, #0
 531              		.cfi_def_cfa_register 7
 405:Generated_Source\PSoC5/isr_UART1_RX_BYTE_RECEIVED.c ****     *isr_UART1_RX_BYTE_RECEIVED_INTC_CLR_PD = isr_UART1_RX_BYTE_RECEIVED__INTC_MASK;
 532              		.loc 1 405 0
 533 0004 034B     		ldr	r3, .L41
 534 0006 4022     		movs	r2, #64
 535 0008 1A60     		str	r2, [r3]
 406:Generated_Source\PSoC5/isr_UART1_RX_BYTE_RECEIVED.c **** }
 536              		.loc 1 406 0
 537 000a 00BF     		nop
 538 000c BD46     		mov	sp, r7
 539              		.cfi_def_cfa_register 13
 540              		@ sp needed
 541 000e 80BC     		pop	{r7}
 542              		.cfi_restore 7
 543              		.cfi_def_cfa_offset 0
 544 0010 7047     		bx	lr
 545              	.L42:
 546 0012 00BF     		.align	2
 547              	.L41:
 548 0014 80E200E0 		.word	-536812928
 549              		.cfi_endproc
 550              	.LFE12:
 551              		.size	isr_UART1_RX_BYTE_RECEIVED_ClearPending, .-isr_UART1_RX_BYTE_RECEIVED_ClearPending
 552              		.text
 553              	.Letext0:
 554              		.file 2 "c:\\program files (x86)\\cypress\\psoc creator\\4.2\\psoc creator\\import\\gnu\\arm\\5.4.
 555              		.file 3 "c:\\program files (x86)\\cypress\\psoc creator\\4.2\\psoc creator\\import\\gnu\\arm\\5.4.
 556              		.file 4 "Generated_Source\\PSoC5/cytypes.h"
 557              		.file 5 ".\\Tracer/selfFIFO.h"
 558              		.file 6 ".\\Tracer/sniffPayload.h"