ARM GAS  C:\Users\THUNDE~1\AppData\Local\Temp\ccZHn51C.s 			page 1


   1              		.syntax unified
   2              		.cpu cortex-m3
   3              		.fpu softvfp
   4              		.eabi_attribute 20, 1
   5              		.eabi_attribute 21, 1
   6              		.eabi_attribute 23, 3
   7              		.eabi_attribute 24, 1
   8              		.eabi_attribute 25, 1
   9              		.eabi_attribute 26, 1
  10              		.eabi_attribute 30, 6
  11              		.eabi_attribute 34, 1
  12              		.eabi_attribute 18, 4
  13              		.thumb
  14              		.syntax unified
  15              		.file	"PollQ.c"
  16              		.text
  17              	.Ltext0:
  18              		.cfi_sections	.debug_frame
  19              		.comm	sniffIDFilter,13,4
  20              		.comm	buffer,4098,4
  21              		.comm	objectList,1704,4
  22              		.bss
  23              		.align	2
  24              	xPollingConsumerCount:
  25 0000 00000000 		.space	4
  26              		.align	2
  27              	xPollingProducerCount:
  28 0004 00000000 		.space	4
  29              		.section	.rodata
  30              		.align	2
  31              	.LC0:
  32 0000 506F6C6C 		.ascii	"Poll_Test_Queue\000"
  32      5F546573 
  32      745F5175 
  32      65756500 
  33              		.align	2
  34              	.LC1:
  35 0010 51436F6E 		.ascii	"QConsNB\000"
  35      734E4200 
  36              		.align	2
  37              	.LC2:
  38 0018 5150726F 		.ascii	"QProdNB\000"
  38      644E4200 
  39              		.section	.text.vStartPolledQueueTasks,"ax",%progbits
  40              		.align	2
  41              		.global	vStartPolledQueueTasks
  42              		.thumb
  43              		.thumb_func
  44              		.type	vStartPolledQueueTasks, %function
  45              	vStartPolledQueueTasks:
  46              	.LFB68:
  47              		.file 1 "..\\Common\\Minimal\\PollQ.c"
   1:..\Common\Minimal/PollQ.c **** /*
   2:..\Common\Minimal/PollQ.c ****     FreeRTOS V9.0.0 - Copyright (C) 2016 Real Time Engineers Ltd.
   3:..\Common\Minimal/PollQ.c ****     All rights reserved
   4:..\Common\Minimal/PollQ.c **** 
   5:..\Common\Minimal/PollQ.c ****     VISIT http://www.FreeRTOS.org TO ENSURE YOU ARE USING THE LATEST VERSION.
ARM GAS  C:\Users\THUNDE~1\AppData\Local\Temp\ccZHn51C.s 			page 2


   6:..\Common\Minimal/PollQ.c **** 
   7:..\Common\Minimal/PollQ.c ****     This file is part of the FreeRTOS distribution.
   8:..\Common\Minimal/PollQ.c **** 
   9:..\Common\Minimal/PollQ.c ****     FreeRTOS is free software; you can redistribute it and/or modify it under
  10:..\Common\Minimal/PollQ.c ****     the terms of the GNU General Public License (version 2) as published by the
  11:..\Common\Minimal/PollQ.c ****     Free Software Foundation >>>> AND MODIFIED BY <<<< the FreeRTOS exception.
  12:..\Common\Minimal/PollQ.c **** 
  13:..\Common\Minimal/PollQ.c ****     ***************************************************************************
  14:..\Common\Minimal/PollQ.c ****     >>!   NOTE: The modification to the GPL is included to allow you to     !<<
  15:..\Common\Minimal/PollQ.c ****     >>!   distribute a combined work that includes FreeRTOS without being   !<<
  16:..\Common\Minimal/PollQ.c ****     >>!   obliged to provide the source code for proprietary components     !<<
  17:..\Common\Minimal/PollQ.c ****     >>!   outside of the FreeRTOS kernel.                                   !<<
  18:..\Common\Minimal/PollQ.c ****     ***************************************************************************
  19:..\Common\Minimal/PollQ.c **** 
  20:..\Common\Minimal/PollQ.c ****     FreeRTOS is distributed in the hope that it will be useful, but WITHOUT ANY
  21:..\Common\Minimal/PollQ.c ****     WARRANTY; without even the implied warranty of MERCHANTABILITY or FITNESS
  22:..\Common\Minimal/PollQ.c ****     FOR A PARTICULAR PURPOSE.  Full license text is available on the following
  23:..\Common\Minimal/PollQ.c ****     link: http://www.freertos.org/a00114.html
  24:..\Common\Minimal/PollQ.c **** 
  25:..\Common\Minimal/PollQ.c ****     ***************************************************************************
  26:..\Common\Minimal/PollQ.c ****      *                                                                       *
  27:..\Common\Minimal/PollQ.c ****      *    FreeRTOS provides completely free yet professionally developed,    *
  28:..\Common\Minimal/PollQ.c ****      *    robust, strictly quality controlled, supported, and cross          *
  29:..\Common\Minimal/PollQ.c ****      *    platform software that is more than just the market leader, it     *
  30:..\Common\Minimal/PollQ.c ****      *    is the industry's de facto standard.                               *
  31:..\Common\Minimal/PollQ.c ****      *                                                                       *
  32:..\Common\Minimal/PollQ.c ****      *    Help yourself get started quickly while simultaneously helping     *
  33:..\Common\Minimal/PollQ.c ****      *    to support the FreeRTOS project by purchasing a FreeRTOS           *
  34:..\Common\Minimal/PollQ.c ****      *    tutorial book, reference manual, or both:                          *
  35:..\Common\Minimal/PollQ.c ****      *    http://www.FreeRTOS.org/Documentation                              *
  36:..\Common\Minimal/PollQ.c ****      *                                                                       *
  37:..\Common\Minimal/PollQ.c ****     ***************************************************************************
  38:..\Common\Minimal/PollQ.c **** 
  39:..\Common\Minimal/PollQ.c ****     http://www.FreeRTOS.org/FAQHelp.html - Having a problem?  Start by reading
  40:..\Common\Minimal/PollQ.c ****     the FAQ page "My application does not run, what could be wrong?".  Have you
  41:..\Common\Minimal/PollQ.c ****     defined configASSERT()?
  42:..\Common\Minimal/PollQ.c **** 
  43:..\Common\Minimal/PollQ.c ****     http://www.FreeRTOS.org/support - In return for receiving this top quality
  44:..\Common\Minimal/PollQ.c ****     embedded software for free we request you assist our global community by
  45:..\Common\Minimal/PollQ.c ****     participating in the support forum.
  46:..\Common\Minimal/PollQ.c **** 
  47:..\Common\Minimal/PollQ.c ****     http://www.FreeRTOS.org/training - Investing in training allows your team to
  48:..\Common\Minimal/PollQ.c ****     be as productive as possible as early as possible.  Now you can receive
  49:..\Common\Minimal/PollQ.c ****     FreeRTOS training directly from Richard Barry, CEO of Real Time Engineers
  50:..\Common\Minimal/PollQ.c ****     Ltd, and the world's leading authority on the world's leading RTOS.
  51:..\Common\Minimal/PollQ.c **** 
  52:..\Common\Minimal/PollQ.c ****     http://www.FreeRTOS.org/plus - A selection of FreeRTOS ecosystem products,
  53:..\Common\Minimal/PollQ.c ****     including FreeRTOS+Trace - an indispensable productivity tool, a DOS
  54:..\Common\Minimal/PollQ.c ****     compatible FAT file system, and our tiny thread aware UDP/IP stack.
  55:..\Common\Minimal/PollQ.c **** 
  56:..\Common\Minimal/PollQ.c ****     http://www.FreeRTOS.org/labs - Where new FreeRTOS products go to incubate.
  57:..\Common\Minimal/PollQ.c ****     Come and try FreeRTOS+TCP, our new open source TCP/IP stack for FreeRTOS.
  58:..\Common\Minimal/PollQ.c **** 
  59:..\Common\Minimal/PollQ.c ****     http://www.OpenRTOS.com - Real Time Engineers ltd. license FreeRTOS to High
  60:..\Common\Minimal/PollQ.c ****     Integrity Systems ltd. to sell under the OpenRTOS brand.  Low cost OpenRTOS
  61:..\Common\Minimal/PollQ.c ****     licenses offer ticketed support, indemnification and commercial middleware.
  62:..\Common\Minimal/PollQ.c **** 
ARM GAS  C:\Users\THUNDE~1\AppData\Local\Temp\ccZHn51C.s 			page 3


  63:..\Common\Minimal/PollQ.c ****     http://www.SafeRTOS.com - High Integrity Systems also provide a safety
  64:..\Common\Minimal/PollQ.c ****     engineered and independently SIL3 certified version for use in safety and
  65:..\Common\Minimal/PollQ.c ****     mission critical applications that require provable dependability.
  66:..\Common\Minimal/PollQ.c **** 
  67:..\Common\Minimal/PollQ.c ****     1 tab == 4 spaces!
  68:..\Common\Minimal/PollQ.c **** */
  69:..\Common\Minimal/PollQ.c **** 
  70:..\Common\Minimal/PollQ.c **** /*
  71:..\Common\Minimal/PollQ.c ****  * This version of PollQ. c is for use on systems that have limited stack
  72:..\Common\Minimal/PollQ.c ****  * space and no display facilities.  The complete version can be found in
  73:..\Common\Minimal/PollQ.c ****  * the Demo/Common/Full directory.
  74:..\Common\Minimal/PollQ.c ****  *
  75:..\Common\Minimal/PollQ.c ****  * Creates two tasks that communicate over a single queue.  One task acts as a
  76:..\Common\Minimal/PollQ.c ****  * producer, the other a consumer.
  77:..\Common\Minimal/PollQ.c ****  *
  78:..\Common\Minimal/PollQ.c ****  * The producer loops for three iteration, posting an incrementing number onto the
  79:..\Common\Minimal/PollQ.c ****  * queue each cycle.  It then delays for a fixed period before doing exactly the
  80:..\Common\Minimal/PollQ.c ****  * same again.
  81:..\Common\Minimal/PollQ.c ****  *
  82:..\Common\Minimal/PollQ.c ****  * The consumer loops emptying the queue.  Each item removed from the queue is
  83:..\Common\Minimal/PollQ.c ****  * checked to ensure it contains the expected value.  When the queue is empty it
  84:..\Common\Minimal/PollQ.c ****  * blocks for a fixed period, then does the same again.
  85:..\Common\Minimal/PollQ.c ****  *
  86:..\Common\Minimal/PollQ.c ****  * All queue access is performed without blocking.  The consumer completely empties
  87:..\Common\Minimal/PollQ.c ****  * the queue each time it runs so the producer should never find the queue full.
  88:..\Common\Minimal/PollQ.c ****  *
  89:..\Common\Minimal/PollQ.c ****  * An error is flagged if the consumer obtains an unexpected value or the producer
  90:..\Common\Minimal/PollQ.c ****  * find the queue is full.
  91:..\Common\Minimal/PollQ.c ****  */
  92:..\Common\Minimal/PollQ.c **** 
  93:..\Common\Minimal/PollQ.c **** /*
  94:..\Common\Minimal/PollQ.c **** Changes from V2.0.0
  95:..\Common\Minimal/PollQ.c **** 
  96:..\Common\Minimal/PollQ.c **** 	+ Delay periods are now specified using variables and constants of
  97:..\Common\Minimal/PollQ.c **** 	  TickType_t rather than uint32_t.
  98:..\Common\Minimal/PollQ.c **** */
  99:..\Common\Minimal/PollQ.c **** 
 100:..\Common\Minimal/PollQ.c **** #include <stdlib.h>
 101:..\Common\Minimal/PollQ.c **** 
 102:..\Common\Minimal/PollQ.c **** /* Scheduler include files. */
 103:..\Common\Minimal/PollQ.c **** #include "FreeRTOS.h"
 104:..\Common\Minimal/PollQ.c **** #include "task.h"
 105:..\Common\Minimal/PollQ.c **** #include "queue.h"
 106:..\Common\Minimal/PollQ.c **** 
 107:..\Common\Minimal/PollQ.c **** /* Demo program include files. */
 108:..\Common\Minimal/PollQ.c **** #include "PollQ.h"
 109:..\Common\Minimal/PollQ.c **** 
 110:..\Common\Minimal/PollQ.c **** #define pollqSTACK_SIZE			configMINIMAL_STACK_SIZE
 111:..\Common\Minimal/PollQ.c **** #define pollqQUEUE_SIZE			( 10 )
 112:..\Common\Minimal/PollQ.c **** #define pollqPRODUCER_DELAY		( pdMS_TO_TICKS( ( TickType_t ) 200 ) )
 113:..\Common\Minimal/PollQ.c **** #define pollqCONSUMER_DELAY		( pollqPRODUCER_DELAY - ( TickType_t ) ( 20 / portTICK_PERIOD_MS ) )
 114:..\Common\Minimal/PollQ.c **** #define pollqNO_DELAY			( ( TickType_t ) 0 )
 115:..\Common\Minimal/PollQ.c **** #define pollqVALUES_TO_PRODUCE	( ( BaseType_t ) 3 )
 116:..\Common\Minimal/PollQ.c **** #define pollqINITIAL_VALUE		( ( BaseType_t ) 0 )
 117:..\Common\Minimal/PollQ.c **** 
 118:..\Common\Minimal/PollQ.c **** /* The task that posts the incrementing number onto the queue. */
 119:..\Common\Minimal/PollQ.c **** static portTASK_FUNCTION_PROTO( vPolledQueueProducer, pvParameters );
ARM GAS  C:\Users\THUNDE~1\AppData\Local\Temp\ccZHn51C.s 			page 4


 120:..\Common\Minimal/PollQ.c **** 
 121:..\Common\Minimal/PollQ.c **** /* The task that empties the queue. */
 122:..\Common\Minimal/PollQ.c **** static portTASK_FUNCTION_PROTO( vPolledQueueConsumer, pvParameters );
 123:..\Common\Minimal/PollQ.c **** 
 124:..\Common\Minimal/PollQ.c **** /* Variables that are used to check that the tasks are still running with no
 125:..\Common\Minimal/PollQ.c **** errors. */
 126:..\Common\Minimal/PollQ.c **** static volatile BaseType_t xPollingConsumerCount = pollqINITIAL_VALUE, xPollingProducerCount = poll
 127:..\Common\Minimal/PollQ.c **** 
 128:..\Common\Minimal/PollQ.c **** /*-----------------------------------------------------------*/
 129:..\Common\Minimal/PollQ.c **** 
 130:..\Common\Minimal/PollQ.c **** void vStartPolledQueueTasks( UBaseType_t uxPriority )
 131:..\Common\Minimal/PollQ.c **** {
  48              		.loc 1 131 0
  49              		.cfi_startproc
  50              		@ args = 0, pretend = 0, frame = 8
  51              		@ frame_needed = 1, uses_anonymous_args = 0
  52 0000 80B5     		push	{r7, lr}
  53              		.cfi_def_cfa_offset 8
  54              		.cfi_offset 7, -8
  55              		.cfi_offset 14, -4
  56 0002 84B0     		sub	sp, sp, #16
  57              		.cfi_def_cfa_offset 24
  58 0004 02AF     		add	r7, sp, #8
  59              		.cfi_def_cfa 7, 16
  60 0006 7860     		str	r0, [r7, #4]
 132:..\Common\Minimal/PollQ.c **** static QueueHandle_t xPolledQueue;
 133:..\Common\Minimal/PollQ.c **** 
 134:..\Common\Minimal/PollQ.c **** 	/* Create the queue used by the producer and consumer. */
 135:..\Common\Minimal/PollQ.c **** 	xPolledQueue = xQueueCreate( pollqQUEUE_SIZE, ( UBaseType_t ) sizeof( uint16_t ) );
  61              		.loc 1 135 0
  62 0008 0022     		movs	r2, #0
  63 000a 0221     		movs	r1, #2
  64 000c 0A20     		movs	r0, #10
  65 000e FFF7FEFF 		bl	xQueueGenericCreate
  66 0012 0246     		mov	r2, r0
  67 0014 114B     		ldr	r3, .L4
  68 0016 1A60     		str	r2, [r3]
 136:..\Common\Minimal/PollQ.c **** 
 137:..\Common\Minimal/PollQ.c **** 	if( xPolledQueue != NULL )
  69              		.loc 1 137 0
  70 0018 104B     		ldr	r3, .L4
  71 001a 1B68     		ldr	r3, [r3]
  72 001c 002B     		cmp	r3, #0
  73 001e 19D0     		beq	.L3
 138:..\Common\Minimal/PollQ.c **** 	{
 139:..\Common\Minimal/PollQ.c **** 		/* vQueueAddToRegistry() adds the queue to the queue registry, if one is
 140:..\Common\Minimal/PollQ.c **** 		in use.  The queue registry is provided as a means for kernel aware
 141:..\Common\Minimal/PollQ.c **** 		debuggers to locate queues and has no purpose if a kernel aware debugger
 142:..\Common\Minimal/PollQ.c **** 		is not being used.  The call to vQueueAddToRegistry() will be removed
 143:..\Common\Minimal/PollQ.c **** 		by the pre-processor if configQUEUE_REGISTRY_SIZE is not defined or is
 144:..\Common\Minimal/PollQ.c **** 		defined to be less than 1. */
 145:..\Common\Minimal/PollQ.c **** 		vQueueAddToRegistry( xPolledQueue, "Poll_Test_Queue" );
  74              		.loc 1 145 0
  75 0020 0E4B     		ldr	r3, .L4
  76 0022 1B68     		ldr	r3, [r3]
  77 0024 0E49     		ldr	r1, .L4+4
  78 0026 1846     		mov	r0, r3
ARM GAS  C:\Users\THUNDE~1\AppData\Local\Temp\ccZHn51C.s 			page 5


  79 0028 FFF7FEFF 		bl	vQueueAddToRegistry
 146:..\Common\Minimal/PollQ.c **** 
 147:..\Common\Minimal/PollQ.c **** 		/* Spawn the producer and consumer. */
 148:..\Common\Minimal/PollQ.c **** 		xTaskCreate( vPolledQueueConsumer, "QConsNB", pollqSTACK_SIZE, ( void * ) &xPolledQueue, uxPriori
  80              		.loc 1 148 0
  81 002c 0023     		movs	r3, #0
  82 002e 0193     		str	r3, [sp, #4]
  83 0030 7B68     		ldr	r3, [r7, #4]
  84 0032 0093     		str	r3, [sp]
  85 0034 094B     		ldr	r3, .L4
  86 0036 6422     		movs	r2, #100
  87 0038 0A49     		ldr	r1, .L4+8
  88 003a 0B48     		ldr	r0, .L4+12
  89 003c FFF7FEFF 		bl	xTaskCreate
 149:..\Common\Minimal/PollQ.c **** 		xTaskCreate( vPolledQueueProducer, "QProdNB", pollqSTACK_SIZE, ( void * ) &xPolledQueue, uxPriori
  90              		.loc 1 149 0
  91 0040 0023     		movs	r3, #0
  92 0042 0193     		str	r3, [sp, #4]
  93 0044 7B68     		ldr	r3, [r7, #4]
  94 0046 0093     		str	r3, [sp]
  95 0048 044B     		ldr	r3, .L4
  96 004a 6422     		movs	r2, #100
  97 004c 0749     		ldr	r1, .L4+16
  98 004e 0848     		ldr	r0, .L4+20
  99 0050 FFF7FEFF 		bl	xTaskCreate
 100              	.L3:
 150:..\Common\Minimal/PollQ.c **** 	}
 151:..\Common\Minimal/PollQ.c **** }
 101              		.loc 1 151 0
 102 0054 00BF     		nop
 103 0056 0837     		adds	r7, r7, #8
 104              		.cfi_def_cfa_offset 8
 105 0058 BD46     		mov	sp, r7
 106              		.cfi_def_cfa_register 13
 107              		@ sp needed
 108 005a 80BD     		pop	{r7, pc}
 109              	.L5:
 110              		.align	2
 111              	.L4:
 112 005c 08000000 		.word	xPolledQueue.7540
 113 0060 00000000 		.word	.LC0
 114 0064 10000000 		.word	.LC1
 115 0068 00000000 		.word	vPolledQueueConsumer
 116 006c 18000000 		.word	.LC2
 117 0070 00000000 		.word	vPolledQueueProducer
 118              		.cfi_endproc
 119              	.LFE68:
 120              		.size	vStartPolledQueueTasks, .-vStartPolledQueueTasks
 121              		.section	.text.vPolledQueueProducer,"ax",%progbits
 122              		.align	2
 123              		.thumb
 124              		.thumb_func
 125              		.type	vPolledQueueProducer, %function
 126              	vPolledQueueProducer:
 127              	.LFB69:
 152:..\Common\Minimal/PollQ.c **** /*-----------------------------------------------------------*/
 153:..\Common\Minimal/PollQ.c **** 
ARM GAS  C:\Users\THUNDE~1\AppData\Local\Temp\ccZHn51C.s 			page 6


 154:..\Common\Minimal/PollQ.c **** static portTASK_FUNCTION( vPolledQueueProducer, pvParameters )
 155:..\Common\Minimal/PollQ.c **** {
 128              		.loc 1 155 0
 129              		.cfi_startproc
 130              		@ args = 0, pretend = 0, frame = 24
 131              		@ frame_needed = 1, uses_anonymous_args = 0
 132 0000 80B5     		push	{r7, lr}
 133              		.cfi_def_cfa_offset 8
 134              		.cfi_offset 7, -8
 135              		.cfi_offset 14, -4
 136 0002 86B0     		sub	sp, sp, #24
 137              		.cfi_def_cfa_offset 32
 138 0004 00AF     		add	r7, sp, #0
 139              		.cfi_def_cfa_register 7
 140 0006 7860     		str	r0, [r7, #4]
 156:..\Common\Minimal/PollQ.c **** uint16_t usValue = ( uint16_t ) 0;
 141              		.loc 1 156 0
 142 0008 0023     		movs	r3, #0
 143 000a FB81     		strh	r3, [r7, #14]	@ movhi
 157:..\Common\Minimal/PollQ.c **** BaseType_t xError = pdFALSE, xLoop;
 144              		.loc 1 157 0
 145 000c 0023     		movs	r3, #0
 146 000e 7B61     		str	r3, [r7, #20]
 147              	.L12:
 158:..\Common\Minimal/PollQ.c **** 
 159:..\Common\Minimal/PollQ.c **** 	for( ;; )
 160:..\Common\Minimal/PollQ.c **** 	{
 161:..\Common\Minimal/PollQ.c **** 		for( xLoop = 0; xLoop < pollqVALUES_TO_PRODUCE; xLoop++ )
 148              		.loc 1 161 0
 149 0010 0023     		movs	r3, #0
 150 0012 3B61     		str	r3, [r7, #16]
 151 0014 20E0     		b	.L7
 152              	.L11:
 162:..\Common\Minimal/PollQ.c **** 		{
 163:..\Common\Minimal/PollQ.c **** 			/* Send an incrementing number on the queue without blocking. */
 164:..\Common\Minimal/PollQ.c **** 			if( xQueueSend( *( ( QueueHandle_t * ) pvParameters ), ( void * ) &usValue, pollqNO_DELAY ) != p
 153              		.loc 1 164 0
 154 0016 7B68     		ldr	r3, [r7, #4]
 155 0018 1868     		ldr	r0, [r3]
 156 001a 07F10E01 		add	r1, r7, #14
 157 001e 0023     		movs	r3, #0
 158 0020 0022     		movs	r2, #0
 159 0022 FFF7FEFF 		bl	xQueueGenericSend
 160 0026 0346     		mov	r3, r0
 161 0028 012B     		cmp	r3, #1
 162 002a 02D0     		beq	.L8
 165:..\Common\Minimal/PollQ.c **** 			{
 166:..\Common\Minimal/PollQ.c **** 				/* We should never find the queue full so if we get here there
 167:..\Common\Minimal/PollQ.c **** 				has been an error. */
 168:..\Common\Minimal/PollQ.c **** 				xError = pdTRUE;
 163              		.loc 1 168 0
 164 002c 0123     		movs	r3, #1
 165 002e 7B61     		str	r3, [r7, #20]
 166 0030 0FE0     		b	.L9
 167              	.L8:
 169:..\Common\Minimal/PollQ.c **** 			}
 170:..\Common\Minimal/PollQ.c **** 			else
ARM GAS  C:\Users\THUNDE~1\AppData\Local\Temp\ccZHn51C.s 			page 7


 171:..\Common\Minimal/PollQ.c **** 			{
 172:..\Common\Minimal/PollQ.c **** 				if( xError == pdFALSE )
 168              		.loc 1 172 0
 169 0032 7B69     		ldr	r3, [r7, #20]
 170 0034 002B     		cmp	r3, #0
 171 0036 08D1     		bne	.L10
 173:..\Common\Minimal/PollQ.c **** 				{
 174:..\Common\Minimal/PollQ.c **** 					/* If an error has ever been recorded we stop incrementing the
 175:..\Common\Minimal/PollQ.c **** 					check variable. */
 176:..\Common\Minimal/PollQ.c **** 					portENTER_CRITICAL();
 172              		.loc 1 176 0
 173 0038 FFF7FEFF 		bl	vPortEnterCritical
 177:..\Common\Minimal/PollQ.c **** 						xPollingProducerCount++;
 174              		.loc 1 177 0
 175 003c 0A4B     		ldr	r3, .L13
 176 003e 1B68     		ldr	r3, [r3]
 177 0040 0133     		adds	r3, r3, #1
 178 0042 094A     		ldr	r2, .L13
 179 0044 1360     		str	r3, [r2]
 178:..\Common\Minimal/PollQ.c **** 					portEXIT_CRITICAL();
 180              		.loc 1 178 0
 181 0046 FFF7FEFF 		bl	vPortExitCritical
 182              	.L10:
 179:..\Common\Minimal/PollQ.c **** 				}
 180:..\Common\Minimal/PollQ.c **** 
 181:..\Common\Minimal/PollQ.c **** 				/* Update the value we are going to post next time around. */
 182:..\Common\Minimal/PollQ.c **** 				usValue++;
 183              		.loc 1 182 0
 184 004a FB89     		ldrh	r3, [r7, #14]
 185 004c 0133     		adds	r3, r3, #1
 186 004e 9BB2     		uxth	r3, r3
 187 0050 FB81     		strh	r3, [r7, #14]	@ movhi
 188              	.L9:
 161:..\Common\Minimal/PollQ.c **** 		{
 189              		.loc 1 161 0 discriminator 2
 190 0052 3B69     		ldr	r3, [r7, #16]
 191 0054 0133     		adds	r3, r3, #1
 192 0056 3B61     		str	r3, [r7, #16]
 193              	.L7:
 161:..\Common\Minimal/PollQ.c **** 		{
 194              		.loc 1 161 0 is_stmt 0 discriminator 1
 195 0058 3B69     		ldr	r3, [r7, #16]
 196 005a 022B     		cmp	r3, #2
 197 005c DBDD     		ble	.L11
 183:..\Common\Minimal/PollQ.c **** 			}
 184:..\Common\Minimal/PollQ.c **** 		}
 185:..\Common\Minimal/PollQ.c **** 
 186:..\Common\Minimal/PollQ.c **** 		/* Wait before we start posting again to ensure the consumer runs and
 187:..\Common\Minimal/PollQ.c **** 		empties the queue. */
 188:..\Common\Minimal/PollQ.c **** 		vTaskDelay( pollqPRODUCER_DELAY );
 198              		.loc 1 188 0 is_stmt 1
 199 005e C820     		movs	r0, #200
 200 0060 FFF7FEFF 		bl	vTaskDelay
 189:..\Common\Minimal/PollQ.c **** 	}
 201              		.loc 1 189 0
 202 0064 D4E7     		b	.L12
 203              	.L14:
ARM GAS  C:\Users\THUNDE~1\AppData\Local\Temp\ccZHn51C.s 			page 8


 204 0066 00BF     		.align	2
 205              	.L13:
 206 0068 04000000 		.word	xPollingProducerCount
 207              		.cfi_endproc
 208              	.LFE69:
 209              		.size	vPolledQueueProducer, .-vPolledQueueProducer
 210              		.section	.text.vPolledQueueConsumer,"ax",%progbits
 211              		.align	2
 212              		.thumb
 213              		.thumb_func
 214              		.type	vPolledQueueConsumer, %function
 215              	vPolledQueueConsumer:
 216              	.LFB70:
 190:..\Common\Minimal/PollQ.c **** }  /*lint !e818 Function prototype must conform to API. */
 191:..\Common\Minimal/PollQ.c **** /*-----------------------------------------------------------*/
 192:..\Common\Minimal/PollQ.c **** 
 193:..\Common\Minimal/PollQ.c **** static portTASK_FUNCTION( vPolledQueueConsumer, pvParameters )
 194:..\Common\Minimal/PollQ.c **** {
 217              		.loc 1 194 0
 218              		.cfi_startproc
 219              		@ args = 0, pretend = 0, frame = 24
 220              		@ frame_needed = 1, uses_anonymous_args = 0
 221 0000 80B5     		push	{r7, lr}
 222              		.cfi_def_cfa_offset 8
 223              		.cfi_offset 7, -8
 224              		.cfi_offset 14, -4
 225 0002 86B0     		sub	sp, sp, #24
 226              		.cfi_def_cfa_offset 32
 227 0004 00AF     		add	r7, sp, #0
 228              		.cfi_def_cfa_register 7
 229 0006 7860     		str	r0, [r7, #4]
 195:..\Common\Minimal/PollQ.c **** uint16_t usData, usExpectedValue = ( uint16_t ) 0;
 230              		.loc 1 195 0
 231 0008 0023     		movs	r3, #0
 232 000a FB82     		strh	r3, [r7, #22]	@ movhi
 196:..\Common\Minimal/PollQ.c **** BaseType_t xError = pdFALSE;
 233              		.loc 1 196 0
 234 000c 0023     		movs	r3, #0
 235 000e 3B61     		str	r3, [r7, #16]
 236              	.L20:
 197:..\Common\Minimal/PollQ.c **** 
 198:..\Common\Minimal/PollQ.c **** 	for( ;; )
 199:..\Common\Minimal/PollQ.c **** 	{
 200:..\Common\Minimal/PollQ.c **** 		/* Loop until the queue is empty. */
 201:..\Common\Minimal/PollQ.c **** 		while( uxQueueMessagesWaiting( *( ( QueueHandle_t * ) pvParameters ) ) )
 237              		.loc 1 201 0
 238 0010 22E0     		b	.L16
 239              	.L19:
 202:..\Common\Minimal/PollQ.c **** 		{
 203:..\Common\Minimal/PollQ.c **** 			if( xQueueReceive( *( ( QueueHandle_t * ) pvParameters ), &usData, pollqNO_DELAY ) == pdPASS )
 240              		.loc 1 203 0
 241 0012 7B68     		ldr	r3, [r7, #4]
 242 0014 1868     		ldr	r0, [r3]
 243 0016 07F10E01 		add	r1, r7, #14
 244 001a 0023     		movs	r3, #0
 245 001c 0022     		movs	r2, #0
 246 001e FFF7FEFF 		bl	xQueueGenericReceive
ARM GAS  C:\Users\THUNDE~1\AppData\Local\Temp\ccZHn51C.s 			page 9


 247 0022 0346     		mov	r3, r0
 248 0024 012B     		cmp	r3, #1
 249 0026 17D1     		bne	.L16
 204:..\Common\Minimal/PollQ.c **** 			{
 205:..\Common\Minimal/PollQ.c **** 				if( usData != usExpectedValue )
 250              		.loc 1 205 0
 251 0028 FB89     		ldrh	r3, [r7, #14]
 252 002a FA8A     		ldrh	r2, [r7, #22]
 253 002c 9A42     		cmp	r2, r3
 254 002e 04D0     		beq	.L17
 206:..\Common\Minimal/PollQ.c **** 				{
 207:..\Common\Minimal/PollQ.c **** 					/* This is not what we expected to receive so an error has
 208:..\Common\Minimal/PollQ.c **** 					occurred. */
 209:..\Common\Minimal/PollQ.c **** 					xError = pdTRUE;
 255              		.loc 1 209 0
 256 0030 0123     		movs	r3, #1
 257 0032 3B61     		str	r3, [r7, #16]
 210:..\Common\Minimal/PollQ.c **** 
 211:..\Common\Minimal/PollQ.c **** 					/* Catch-up to the value we received so our next expected
 212:..\Common\Minimal/PollQ.c **** 					value should again be correct. */
 213:..\Common\Minimal/PollQ.c **** 					usExpectedValue = usData;
 258              		.loc 1 213 0
 259 0034 FB89     		ldrh	r3, [r7, #14]	@ movhi
 260 0036 FB82     		strh	r3, [r7, #22]	@ movhi
 261 0038 0BE0     		b	.L18
 262              	.L17:
 214:..\Common\Minimal/PollQ.c **** 				}
 215:..\Common\Minimal/PollQ.c **** 				else
 216:..\Common\Minimal/PollQ.c **** 				{
 217:..\Common\Minimal/PollQ.c **** 					if( xError == pdFALSE )
 263              		.loc 1 217 0
 264 003a 3B69     		ldr	r3, [r7, #16]
 265 003c 002B     		cmp	r3, #0
 266 003e 08D1     		bne	.L18
 218:..\Common\Minimal/PollQ.c **** 					{
 219:..\Common\Minimal/PollQ.c **** 						/* Only increment the check variable if no errors have
 220:..\Common\Minimal/PollQ.c **** 						occurred. */
 221:..\Common\Minimal/PollQ.c **** 						portENTER_CRITICAL();
 267              		.loc 1 221 0
 268 0040 FFF7FEFF 		bl	vPortEnterCritical
 222:..\Common\Minimal/PollQ.c **** 							xPollingConsumerCount++;
 269              		.loc 1 222 0
 270 0044 0A4B     		ldr	r3, .L21
 271 0046 1B68     		ldr	r3, [r3]
 272 0048 0133     		adds	r3, r3, #1
 273 004a 094A     		ldr	r2, .L21
 274 004c 1360     		str	r3, [r2]
 223:..\Common\Minimal/PollQ.c **** 						portEXIT_CRITICAL();
 275              		.loc 1 223 0
 276 004e FFF7FEFF 		bl	vPortExitCritical
 277              	.L18:
 224:..\Common\Minimal/PollQ.c **** 					}
 225:..\Common\Minimal/PollQ.c **** 				}
 226:..\Common\Minimal/PollQ.c **** 
 227:..\Common\Minimal/PollQ.c **** 				/* Next time round we would expect the number to be one higher. */
 228:..\Common\Minimal/PollQ.c **** 				usExpectedValue++;
 278              		.loc 1 228 0
ARM GAS  C:\Users\THUNDE~1\AppData\Local\Temp\ccZHn51C.s 			page 10


 279 0052 FB8A     		ldrh	r3, [r7, #22]
 280 0054 0133     		adds	r3, r3, #1
 281 0056 FB82     		strh	r3, [r7, #22]	@ movhi
 282              	.L16:
 201:..\Common\Minimal/PollQ.c **** 		{
 283              		.loc 1 201 0
 284 0058 7B68     		ldr	r3, [r7, #4]
 285 005a 1B68     		ldr	r3, [r3]
 286 005c 1846     		mov	r0, r3
 287 005e FFF7FEFF 		bl	uxQueueMessagesWaiting
 288 0062 0346     		mov	r3, r0
 289 0064 002B     		cmp	r3, #0
 290 0066 D4D1     		bne	.L19
 229:..\Common\Minimal/PollQ.c **** 			}
 230:..\Common\Minimal/PollQ.c **** 		}
 231:..\Common\Minimal/PollQ.c **** 
 232:..\Common\Minimal/PollQ.c **** 		/* Now the queue is empty we block, allowing the producer to place more
 233:..\Common\Minimal/PollQ.c **** 		items in the queue. */
 234:..\Common\Minimal/PollQ.c **** 		vTaskDelay( pollqCONSUMER_DELAY );
 291              		.loc 1 234 0
 292 0068 B420     		movs	r0, #180
 293 006a FFF7FEFF 		bl	vTaskDelay
 235:..\Common\Minimal/PollQ.c **** 	}
 294              		.loc 1 235 0
 295 006e CFE7     		b	.L20
 296              	.L22:
 297              		.align	2
 298              	.L21:
 299 0070 00000000 		.word	xPollingConsumerCount
 300              		.cfi_endproc
 301              	.LFE70:
 302              		.size	vPolledQueueConsumer, .-vPolledQueueConsumer
 303              		.section	.text.xArePollingQueuesStillRunning,"ax",%progbits
 304              		.align	2
 305              		.global	xArePollingQueuesStillRunning
 306              		.thumb
 307              		.thumb_func
 308              		.type	xArePollingQueuesStillRunning, %function
 309              	xArePollingQueuesStillRunning:
 310              	.LFB71:
 236:..\Common\Minimal/PollQ.c **** } /*lint !e818 Function prototype must conform to API. */
 237:..\Common\Minimal/PollQ.c **** /*-----------------------------------------------------------*/
 238:..\Common\Minimal/PollQ.c **** 
 239:..\Common\Minimal/PollQ.c **** /* This is called to check that all the created tasks are still running with no errors. */
 240:..\Common\Minimal/PollQ.c **** BaseType_t xArePollingQueuesStillRunning( void )
 241:..\Common\Minimal/PollQ.c **** {
 311              		.loc 1 241 0
 312              		.cfi_startproc
 313              		@ args = 0, pretend = 0, frame = 8
 314              		@ frame_needed = 1, uses_anonymous_args = 0
 315              		@ link register save eliminated.
 316 0000 80B4     		push	{r7}
 317              		.cfi_def_cfa_offset 4
 318              		.cfi_offset 7, -4
 319 0002 83B0     		sub	sp, sp, #12
 320              		.cfi_def_cfa_offset 16
 321 0004 00AF     		add	r7, sp, #0
ARM GAS  C:\Users\THUNDE~1\AppData\Local\Temp\ccZHn51C.s 			page 11


 322              		.cfi_def_cfa_register 7
 242:..\Common\Minimal/PollQ.c **** BaseType_t xReturn;
 243:..\Common\Minimal/PollQ.c **** 
 244:..\Common\Minimal/PollQ.c **** 	/* Check both the consumer and producer poll count to check they have both
 245:..\Common\Minimal/PollQ.c **** 	been changed since out last trip round.  We do not need a critical section
 246:..\Common\Minimal/PollQ.c **** 	around the check variables as this is called from a higher priority than
 247:..\Common\Minimal/PollQ.c **** 	the other tasks that access the same variables. */
 248:..\Common\Minimal/PollQ.c **** 	if( ( xPollingConsumerCount == pollqINITIAL_VALUE ) ||
 323              		.loc 1 248 0
 324 0006 0C4B     		ldr	r3, .L28
 325 0008 1B68     		ldr	r3, [r3]
 326 000a 002B     		cmp	r3, #0
 327 000c 03D0     		beq	.L24
 249:..\Common\Minimal/PollQ.c **** 		( xPollingProducerCount == pollqINITIAL_VALUE )
 328              		.loc 1 249 0 discriminator 1
 329 000e 0B4B     		ldr	r3, .L28+4
 330 0010 1B68     		ldr	r3, [r3]
 248:..\Common\Minimal/PollQ.c **** 		( xPollingProducerCount == pollqINITIAL_VALUE )
 331              		.loc 1 248 0 discriminator 1
 332 0012 002B     		cmp	r3, #0
 333 0014 02D1     		bne	.L25
 334              	.L24:
 250:..\Common\Minimal/PollQ.c **** 	  )
 251:..\Common\Minimal/PollQ.c **** 	{
 252:..\Common\Minimal/PollQ.c **** 		xReturn = pdFALSE;
 335              		.loc 1 252 0
 336 0016 0023     		movs	r3, #0
 337 0018 7B60     		str	r3, [r7, #4]
 338 001a 01E0     		b	.L26
 339              	.L25:
 253:..\Common\Minimal/PollQ.c **** 	}
 254:..\Common\Minimal/PollQ.c **** 	else
 255:..\Common\Minimal/PollQ.c **** 	{
 256:..\Common\Minimal/PollQ.c **** 		xReturn = pdTRUE;
 340              		.loc 1 256 0
 341 001c 0123     		movs	r3, #1
 342 001e 7B60     		str	r3, [r7, #4]
 343              	.L26:
 257:..\Common\Minimal/PollQ.c **** 	}
 258:..\Common\Minimal/PollQ.c **** 
 259:..\Common\Minimal/PollQ.c **** 	/* Set the check variables back down so we know if they have been
 260:..\Common\Minimal/PollQ.c **** 	incremented the next time around. */
 261:..\Common\Minimal/PollQ.c **** 	xPollingConsumerCount = pollqINITIAL_VALUE;
 344              		.loc 1 261 0
 345 0020 054B     		ldr	r3, .L28
 346 0022 0022     		movs	r2, #0
 347 0024 1A60     		str	r2, [r3]
 262:..\Common\Minimal/PollQ.c **** 	xPollingProducerCount = pollqINITIAL_VALUE;
 348              		.loc 1 262 0
 349 0026 054B     		ldr	r3, .L28+4
 350 0028 0022     		movs	r2, #0
 351 002a 1A60     		str	r2, [r3]
 263:..\Common\Minimal/PollQ.c **** 
 264:..\Common\Minimal/PollQ.c **** 	return xReturn;
 352              		.loc 1 264 0
 353 002c 7B68     		ldr	r3, [r7, #4]
 265:..\Common\Minimal/PollQ.c **** }
ARM GAS  C:\Users\THUNDE~1\AppData\Local\Temp\ccZHn51C.s 			page 12


 354              		.loc 1 265 0
 355 002e 1846     		mov	r0, r3
 356 0030 0C37     		adds	r7, r7, #12
 357              		.cfi_def_cfa_offset 4
 358 0032 BD46     		mov	sp, r7
 359              		.cfi_def_cfa_register 13
 360              		@ sp needed
 361 0034 80BC     		pop	{r7}
 362              		.cfi_restore 7
 363              		.cfi_def_cfa_offset 0
 364 0036 7047     		bx	lr
 365              	.L29:
 366              		.align	2
 367              	.L28:
 368 0038 00000000 		.word	xPollingConsumerCount
 369 003c 04000000 		.word	xPollingProducerCount
 370              		.cfi_endproc
 371              	.LFE71:
 372              		.size	xArePollingQueuesStillRunning, .-xArePollingQueuesStillRunning
 373              		.bss
 374              		.align	2
 375              	xPolledQueue.7540:
 376 0008 00000000 		.space	4
 377              		.text
 378              	.Letext0:
 379              		.file 2 "c:\\program files (x86)\\cypress\\psoc creator\\4.2\\psoc creator\\import\\gnu\\arm\\5.4.
 380              		.file 3 "c:\\program files (x86)\\cypress\\psoc creator\\4.2\\psoc creator\\import\\gnu\\arm\\5.4.
 381              		.file 4 ".\\Tracer/sniffPayload.h"
 382              		.file 5 ".\\Tracer/selfFIFO.h"
 383              		.file 6 "..\\Source\\portable\\GCC\\ARM_CM3/portmacro.h"
 384              		.file 7 "..\\Source\\include/task.h"
 385              		.file 8 "..\\Source\\include/queue.h"
 386              		.file 9 "Generated_Source\\PSoC5/core_cm3.h"
 387              		.file 10 ".\\Tracer/sniffTask.h"