ARM GAS  C:\Users\THUNDE~1\AppData\Local\Temp\cc3zEZMe.s 			page 1


   1              		.syntax unified
   2              		.cpu cortex-m3
   3              		.fpu softvfp
   4              		.eabi_attribute 20, 1
   5              		.eabi_attribute 21, 1
   6              		.eabi_attribute 23, 3
   7              		.eabi_attribute 24, 1
   8              		.eabi_attribute 25, 1
   9              		.eabi_attribute 26, 1
  10              		.eabi_attribute 30, 6
  11              		.eabi_attribute 34, 1
  12              		.eabi_attribute 18, 4
  13              		.thumb
  14              		.syntax unified
  15              		.file	"port.c"
  16              		.text
  17              	.Ltext0:
  18              		.cfi_sections	.debug_frame
  19              		.comm	sniffIDFilter,13,4
  20              		.comm	buffer,4098,4
  21              		.comm	objectList,1704,4
  22              		.data
  23              		.align	2
  24              		.type	uxCriticalNesting, %object
  25              		.size	uxCriticalNesting, 4
  26              	uxCriticalNesting:
  27 0000 AAAAAAAA 		.word	-1431655766
  28              		.section	.text.pxPortInitialiseStack,"ax",%progbits
  29              		.align	2
  30              		.global	pxPortInitialiseStack
  31              		.thumb
  32              		.thumb_func
  33              		.type	pxPortInitialiseStack, %function
  34              	pxPortInitialiseStack:
  35              	.LFB68:
  36              		.file 1 "..\\Source\\portable\\GCC\\ARM_CM3\\port.c"
   1:..\Source\portable\GCC\ARM_CM3/port.c **** /*
   2:..\Source\portable\GCC\ARM_CM3/port.c ****     FreeRTOS V9.0.0 - Copyright (C) 2016 Real Time Engineers Ltd.
   3:..\Source\portable\GCC\ARM_CM3/port.c ****     All rights reserved
   4:..\Source\portable\GCC\ARM_CM3/port.c **** 
   5:..\Source\portable\GCC\ARM_CM3/port.c ****     VISIT http://www.FreeRTOS.org TO ENSURE YOU ARE USING THE LATEST VERSION.
   6:..\Source\portable\GCC\ARM_CM3/port.c **** 
   7:..\Source\portable\GCC\ARM_CM3/port.c ****     This file is part of the FreeRTOS distribution.
   8:..\Source\portable\GCC\ARM_CM3/port.c **** 
   9:..\Source\portable\GCC\ARM_CM3/port.c ****     FreeRTOS is free software; you can redistribute it and/or modify it under
  10:..\Source\portable\GCC\ARM_CM3/port.c ****     the terms of the GNU General Public License (version 2) as published by the
  11:..\Source\portable\GCC\ARM_CM3/port.c ****     Free Software Foundation >>>> AND MODIFIED BY <<<< the FreeRTOS exception.
  12:..\Source\portable\GCC\ARM_CM3/port.c **** 
  13:..\Source\portable\GCC\ARM_CM3/port.c ****     ***************************************************************************
  14:..\Source\portable\GCC\ARM_CM3/port.c ****     >>!   NOTE: The modification to the GPL is included to allow you to     !<<
  15:..\Source\portable\GCC\ARM_CM3/port.c ****     >>!   distribute a combined work that includes FreeRTOS without being   !<<
  16:..\Source\portable\GCC\ARM_CM3/port.c ****     >>!   obliged to provide the source code for proprietary components     !<<
  17:..\Source\portable\GCC\ARM_CM3/port.c ****     >>!   outside of the FreeRTOS kernel.                                   !<<
  18:..\Source\portable\GCC\ARM_CM3/port.c ****     ***************************************************************************
  19:..\Source\portable\GCC\ARM_CM3/port.c **** 
  20:..\Source\portable\GCC\ARM_CM3/port.c ****     FreeRTOS is distributed in the hope that it will be useful, but WITHOUT ANY
  21:..\Source\portable\GCC\ARM_CM3/port.c ****     WARRANTY; without even the implied warranty of MERCHANTABILITY or FITNESS
ARM GAS  C:\Users\THUNDE~1\AppData\Local\Temp\cc3zEZMe.s 			page 2


  22:..\Source\portable\GCC\ARM_CM3/port.c ****     FOR A PARTICULAR PURPOSE.  Full license text is available on the following
  23:..\Source\portable\GCC\ARM_CM3/port.c ****     link: http://www.freertos.org/a00114.html
  24:..\Source\portable\GCC\ARM_CM3/port.c **** 
  25:..\Source\portable\GCC\ARM_CM3/port.c ****     ***************************************************************************
  26:..\Source\portable\GCC\ARM_CM3/port.c ****      *                                                                       *
  27:..\Source\portable\GCC\ARM_CM3/port.c ****      *    FreeRTOS provides completely free yet professionally developed,    *
  28:..\Source\portable\GCC\ARM_CM3/port.c ****      *    robust, strictly quality controlled, supported, and cross          *
  29:..\Source\portable\GCC\ARM_CM3/port.c ****      *    platform software that is more than just the market leader, it     *
  30:..\Source\portable\GCC\ARM_CM3/port.c ****      *    is the industry's de facto standard.                               *
  31:..\Source\portable\GCC\ARM_CM3/port.c ****      *                                                                       *
  32:..\Source\portable\GCC\ARM_CM3/port.c ****      *    Help yourself get started quickly while simultaneously helping     *
  33:..\Source\portable\GCC\ARM_CM3/port.c ****      *    to support the FreeRTOS project by purchasing a FreeRTOS           *
  34:..\Source\portable\GCC\ARM_CM3/port.c ****      *    tutorial book, reference manual, or both:                          *
  35:..\Source\portable\GCC\ARM_CM3/port.c ****      *    http://www.FreeRTOS.org/Documentation                              *
  36:..\Source\portable\GCC\ARM_CM3/port.c ****      *                                                                       *
  37:..\Source\portable\GCC\ARM_CM3/port.c ****     ***************************************************************************
  38:..\Source\portable\GCC\ARM_CM3/port.c **** 
  39:..\Source\portable\GCC\ARM_CM3/port.c ****     http://www.FreeRTOS.org/FAQHelp.html - Having a problem?  Start by reading
  40:..\Source\portable\GCC\ARM_CM3/port.c ****     the FAQ page "My application does not run, what could be wrong?".  Have you
  41:..\Source\portable\GCC\ARM_CM3/port.c ****     defined configASSERT()?
  42:..\Source\portable\GCC\ARM_CM3/port.c **** 
  43:..\Source\portable\GCC\ARM_CM3/port.c ****     http://www.FreeRTOS.org/support - In return for receiving this top quality
  44:..\Source\portable\GCC\ARM_CM3/port.c ****     embedded software for free we request you assist our global community by
  45:..\Source\portable\GCC\ARM_CM3/port.c ****     participating in the support forum.
  46:..\Source\portable\GCC\ARM_CM3/port.c **** 
  47:..\Source\portable\GCC\ARM_CM3/port.c ****     http://www.FreeRTOS.org/training - Investing in training allows your team to
  48:..\Source\portable\GCC\ARM_CM3/port.c ****     be as productive as possible as early as possible.  Now you can receive
  49:..\Source\portable\GCC\ARM_CM3/port.c ****     FreeRTOS training directly from Richard Barry, CEO of Real Time Engineers
  50:..\Source\portable\GCC\ARM_CM3/port.c ****     Ltd, and the world's leading authority on the world's leading RTOS.
  51:..\Source\portable\GCC\ARM_CM3/port.c **** 
  52:..\Source\portable\GCC\ARM_CM3/port.c ****     http://www.FreeRTOS.org/plus - A selection of FreeRTOS ecosystem products,
  53:..\Source\portable\GCC\ARM_CM3/port.c ****     including FreeRTOS+Trace - an indispensable productivity tool, a DOS
  54:..\Source\portable\GCC\ARM_CM3/port.c ****     compatible FAT file system, and our tiny thread aware UDP/IP stack.
  55:..\Source\portable\GCC\ARM_CM3/port.c **** 
  56:..\Source\portable\GCC\ARM_CM3/port.c ****     http://www.FreeRTOS.org/labs - Where new FreeRTOS products go to incubate.
  57:..\Source\portable\GCC\ARM_CM3/port.c ****     Come and try FreeRTOS+TCP, our new open source TCP/IP stack for FreeRTOS.
  58:..\Source\portable\GCC\ARM_CM3/port.c **** 
  59:..\Source\portable\GCC\ARM_CM3/port.c ****     http://www.OpenRTOS.com - Real Time Engineers ltd. license FreeRTOS to High
  60:..\Source\portable\GCC\ARM_CM3/port.c ****     Integrity Systems ltd. to sell under the OpenRTOS brand.  Low cost OpenRTOS
  61:..\Source\portable\GCC\ARM_CM3/port.c ****     licenses offer ticketed support, indemnification and commercial middleware.
  62:..\Source\portable\GCC\ARM_CM3/port.c **** 
  63:..\Source\portable\GCC\ARM_CM3/port.c ****     http://www.SafeRTOS.com - High Integrity Systems also provide a safety
  64:..\Source\portable\GCC\ARM_CM3/port.c ****     engineered and independently SIL3 certified version for use in safety and
  65:..\Source\portable\GCC\ARM_CM3/port.c ****     mission critical applications that require provable dependability.
  66:..\Source\portable\GCC\ARM_CM3/port.c **** 
  67:..\Source\portable\GCC\ARM_CM3/port.c ****     1 tab == 4 spaces!
  68:..\Source\portable\GCC\ARM_CM3/port.c **** */
  69:..\Source\portable\GCC\ARM_CM3/port.c **** 
  70:..\Source\portable\GCC\ARM_CM3/port.c **** /*-----------------------------------------------------------
  71:..\Source\portable\GCC\ARM_CM3/port.c ****  * Implementation of functions defined in portable.h for the ARM CM3 port.
  72:..\Source\portable\GCC\ARM_CM3/port.c ****  *----------------------------------------------------------*/
  73:..\Source\portable\GCC\ARM_CM3/port.c **** 
  74:..\Source\portable\GCC\ARM_CM3/port.c **** /* Scheduler includes. */
  75:..\Source\portable\GCC\ARM_CM3/port.c **** #include "FreeRTOS.h"
  76:..\Source\portable\GCC\ARM_CM3/port.c **** #include "task.h"
  77:..\Source\portable\GCC\ARM_CM3/port.c **** 
  78:..\Source\portable\GCC\ARM_CM3/port.c **** /* For backward compatibility, ensure configKERNEL_INTERRUPT_PRIORITY is
ARM GAS  C:\Users\THUNDE~1\AppData\Local\Temp\cc3zEZMe.s 			page 3


  79:..\Source\portable\GCC\ARM_CM3/port.c **** defined.  The value should also ensure backward compatibility.
  80:..\Source\portable\GCC\ARM_CM3/port.c **** FreeRTOS.org versions prior to V4.4.0 did not include this definition. */
  81:..\Source\portable\GCC\ARM_CM3/port.c **** #ifndef configKERNEL_INTERRUPT_PRIORITY
  82:..\Source\portable\GCC\ARM_CM3/port.c **** 	#define configKERNEL_INTERRUPT_PRIORITY 255
  83:..\Source\portable\GCC\ARM_CM3/port.c **** #endif
  84:..\Source\portable\GCC\ARM_CM3/port.c **** 
  85:..\Source\portable\GCC\ARM_CM3/port.c **** #ifndef configSYSTICK_CLOCK_HZ
  86:..\Source\portable\GCC\ARM_CM3/port.c **** 	#define configSYSTICK_CLOCK_HZ configCPU_CLOCK_HZ
  87:..\Source\portable\GCC\ARM_CM3/port.c **** 	/* Ensure the SysTick is clocked at the same frequency as the core. */
  88:..\Source\portable\GCC\ARM_CM3/port.c **** 	#define portNVIC_SYSTICK_CLK_BIT	( 1UL << 2UL )
  89:..\Source\portable\GCC\ARM_CM3/port.c **** #else
  90:..\Source\portable\GCC\ARM_CM3/port.c **** 	/* The way the SysTick is clocked is not modified in case it is not the same
  91:..\Source\portable\GCC\ARM_CM3/port.c **** 	as the core. */
  92:..\Source\portable\GCC\ARM_CM3/port.c **** 	#define portNVIC_SYSTICK_CLK_BIT	( 0 )
  93:..\Source\portable\GCC\ARM_CM3/port.c **** #endif
  94:..\Source\portable\GCC\ARM_CM3/port.c **** 
  95:..\Source\portable\GCC\ARM_CM3/port.c **** /* Constants required to manipulate the core.  Registers first... */
  96:..\Source\portable\GCC\ARM_CM3/port.c **** #define portNVIC_SYSTICK_CTRL_REG			( * ( ( volatile uint32_t * ) 0xe000e010 ) )
  97:..\Source\portable\GCC\ARM_CM3/port.c **** #define portNVIC_SYSTICK_LOAD_REG			( * ( ( volatile uint32_t * ) 0xe000e014 ) )
  98:..\Source\portable\GCC\ARM_CM3/port.c **** #define portNVIC_SYSTICK_CURRENT_VALUE_REG	( * ( ( volatile uint32_t * ) 0xe000e018 ) )
  99:..\Source\portable\GCC\ARM_CM3/port.c **** #define portNVIC_SYSPRI2_REG				( * ( ( volatile uint32_t * ) 0xe000ed20 ) )
 100:..\Source\portable\GCC\ARM_CM3/port.c **** /* ...then bits in the registers. */
 101:..\Source\portable\GCC\ARM_CM3/port.c **** #define portNVIC_SYSTICK_INT_BIT			( 1UL << 1UL )
 102:..\Source\portable\GCC\ARM_CM3/port.c **** #define portNVIC_SYSTICK_ENABLE_BIT			( 1UL << 0UL )
 103:..\Source\portable\GCC\ARM_CM3/port.c **** #define portNVIC_SYSTICK_COUNT_FLAG_BIT		( 1UL << 16UL )
 104:..\Source\portable\GCC\ARM_CM3/port.c **** #define portNVIC_PENDSVCLEAR_BIT 			( 1UL << 27UL )
 105:..\Source\portable\GCC\ARM_CM3/port.c **** #define portNVIC_PEND_SYSTICK_CLEAR_BIT		( 1UL << 25UL )
 106:..\Source\portable\GCC\ARM_CM3/port.c **** 
 107:..\Source\portable\GCC\ARM_CM3/port.c **** #define portNVIC_PENDSV_PRI					( ( ( uint32_t ) configKERNEL_INTERRUPT_PRIORITY ) << 16UL )
 108:..\Source\portable\GCC\ARM_CM3/port.c **** #define portNVIC_SYSTICK_PRI				( ( ( uint32_t ) configKERNEL_INTERRUPT_PRIORITY ) << 24UL )
 109:..\Source\portable\GCC\ARM_CM3/port.c **** 
 110:..\Source\portable\GCC\ARM_CM3/port.c **** /* Constants required to check the validity of an interrupt priority. */
 111:..\Source\portable\GCC\ARM_CM3/port.c **** #define portFIRST_USER_INTERRUPT_NUMBER		( 16 )
 112:..\Source\portable\GCC\ARM_CM3/port.c **** #define portNVIC_IP_REGISTERS_OFFSET_16 	( 0xE000E3F0 )
 113:..\Source\portable\GCC\ARM_CM3/port.c **** #define portAIRCR_REG						( * ( ( volatile uint32_t * ) 0xE000ED0C ) )
 114:..\Source\portable\GCC\ARM_CM3/port.c **** #define portMAX_8_BIT_VALUE					( ( uint8_t ) 0xff )
 115:..\Source\portable\GCC\ARM_CM3/port.c **** #define portTOP_BIT_OF_BYTE					( ( uint8_t ) 0x80 )
 116:..\Source\portable\GCC\ARM_CM3/port.c **** #define portMAX_PRIGROUP_BITS				( ( uint8_t ) 7 )
 117:..\Source\portable\GCC\ARM_CM3/port.c **** #define portPRIORITY_GROUP_MASK				( 0x07UL << 8UL )
 118:..\Source\portable\GCC\ARM_CM3/port.c **** #define portPRIGROUP_SHIFT					( 8UL )
 119:..\Source\portable\GCC\ARM_CM3/port.c **** 
 120:..\Source\portable\GCC\ARM_CM3/port.c **** /* Masks off all bits but the VECTACTIVE bits in the ICSR register. */
 121:..\Source\portable\GCC\ARM_CM3/port.c **** #define portVECTACTIVE_MASK					( 0xFFUL )
 122:..\Source\portable\GCC\ARM_CM3/port.c **** 
 123:..\Source\portable\GCC\ARM_CM3/port.c **** /* Constants required to set up the initial stack. */
 124:..\Source\portable\GCC\ARM_CM3/port.c **** #define portINITIAL_XPSR					( 0x01000000UL )
 125:..\Source\portable\GCC\ARM_CM3/port.c **** 
 126:..\Source\portable\GCC\ARM_CM3/port.c **** /* The systick is a 24-bit counter. */
 127:..\Source\portable\GCC\ARM_CM3/port.c **** #define portMAX_24_BIT_NUMBER				( 0xffffffUL )
 128:..\Source\portable\GCC\ARM_CM3/port.c **** 
 129:..\Source\portable\GCC\ARM_CM3/port.c **** /* A fiddle factor to estimate the number of SysTick counts that would have
 130:..\Source\portable\GCC\ARM_CM3/port.c **** occurred while the SysTick counter is stopped during tickless idle
 131:..\Source\portable\GCC\ARM_CM3/port.c **** calculations. */
 132:..\Source\portable\GCC\ARM_CM3/port.c **** #define portMISSED_COUNTS_FACTOR			( 45UL )
 133:..\Source\portable\GCC\ARM_CM3/port.c **** 
 134:..\Source\portable\GCC\ARM_CM3/port.c **** /* For strict compliance with the Cortex-M spec the task start address should
 135:..\Source\portable\GCC\ARM_CM3/port.c **** have bit-0 clear, as it is loaded into the PC on exit from an ISR. */
ARM GAS  C:\Users\THUNDE~1\AppData\Local\Temp\cc3zEZMe.s 			page 4


 136:..\Source\portable\GCC\ARM_CM3/port.c **** #define portSTART_ADDRESS_MASK				( ( StackType_t ) 0xfffffffeUL )
 137:..\Source\portable\GCC\ARM_CM3/port.c **** 
 138:..\Source\portable\GCC\ARM_CM3/port.c **** /* Let the user override the pre-loading of the initial LR with the address of
 139:..\Source\portable\GCC\ARM_CM3/port.c **** prvTaskExitError() in case it messes up unwinding of the stack in the
 140:..\Source\portable\GCC\ARM_CM3/port.c **** debugger. */
 141:..\Source\portable\GCC\ARM_CM3/port.c **** #ifdef configTASK_RETURN_ADDRESS
 142:..\Source\portable\GCC\ARM_CM3/port.c **** 	#define portTASK_RETURN_ADDRESS	configTASK_RETURN_ADDRESS
 143:..\Source\portable\GCC\ARM_CM3/port.c **** #else
 144:..\Source\portable\GCC\ARM_CM3/port.c **** 	#define portTASK_RETURN_ADDRESS	prvTaskExitError
 145:..\Source\portable\GCC\ARM_CM3/port.c **** #endif
 146:..\Source\portable\GCC\ARM_CM3/port.c **** 
 147:..\Source\portable\GCC\ARM_CM3/port.c **** /* Each task maintains its own interrupt status in the critical nesting
 148:..\Source\portable\GCC\ARM_CM3/port.c **** variable. */
 149:..\Source\portable\GCC\ARM_CM3/port.c **** static UBaseType_t uxCriticalNesting = 0xaaaaaaaa;
 150:..\Source\portable\GCC\ARM_CM3/port.c **** 
 151:..\Source\portable\GCC\ARM_CM3/port.c **** /*
 152:..\Source\portable\GCC\ARM_CM3/port.c ****  * Setup the timer to generate the tick interrupts.  The implementation in this
 153:..\Source\portable\GCC\ARM_CM3/port.c ****  * file is weak to allow application writers to change the timer used to
 154:..\Source\portable\GCC\ARM_CM3/port.c ****  * generate the tick interrupt.
 155:..\Source\portable\GCC\ARM_CM3/port.c ****  */
 156:..\Source\portable\GCC\ARM_CM3/port.c **** void vPortSetupTimerInterrupt( void );
 157:..\Source\portable\GCC\ARM_CM3/port.c **** 
 158:..\Source\portable\GCC\ARM_CM3/port.c **** /*
 159:..\Source\portable\GCC\ARM_CM3/port.c ****  * Exception handlers.
 160:..\Source\portable\GCC\ARM_CM3/port.c ****  */
 161:..\Source\portable\GCC\ARM_CM3/port.c **** void xPortPendSVHandler( void ) __attribute__ (( naked ));
 162:..\Source\portable\GCC\ARM_CM3/port.c **** void xPortSysTickHandler( void );
 163:..\Source\portable\GCC\ARM_CM3/port.c **** void vPortSVCHandler( void ) __attribute__ (( naked ));
 164:..\Source\portable\GCC\ARM_CM3/port.c **** 
 165:..\Source\portable\GCC\ARM_CM3/port.c **** /*
 166:..\Source\portable\GCC\ARM_CM3/port.c ****  * Start first task is a separate function so it can be tested in isolation.
 167:..\Source\portable\GCC\ARM_CM3/port.c ****  */
 168:..\Source\portable\GCC\ARM_CM3/port.c **** static void prvPortStartFirstTask( void ) __attribute__ (( naked ));
 169:..\Source\portable\GCC\ARM_CM3/port.c **** 
 170:..\Source\portable\GCC\ARM_CM3/port.c **** /*
 171:..\Source\portable\GCC\ARM_CM3/port.c ****  * Used to catch tasks that attempt to return from their implementing function.
 172:..\Source\portable\GCC\ARM_CM3/port.c ****  */
 173:..\Source\portable\GCC\ARM_CM3/port.c **** static void prvTaskExitError( void );
 174:..\Source\portable\GCC\ARM_CM3/port.c **** 
 175:..\Source\portable\GCC\ARM_CM3/port.c **** /*-----------------------------------------------------------*/
 176:..\Source\portable\GCC\ARM_CM3/port.c **** 
 177:..\Source\portable\GCC\ARM_CM3/port.c **** /*
 178:..\Source\portable\GCC\ARM_CM3/port.c ****  * The number of SysTick increments that make up one tick period.
 179:..\Source\portable\GCC\ARM_CM3/port.c ****  */
 180:..\Source\portable\GCC\ARM_CM3/port.c **** #if configUSE_TICKLESS_IDLE == 1
 181:..\Source\portable\GCC\ARM_CM3/port.c **** 	static uint32_t ulTimerCountsForOneTick = 0;
 182:..\Source\portable\GCC\ARM_CM3/port.c **** #endif /* configUSE_TICKLESS_IDLE */
 183:..\Source\portable\GCC\ARM_CM3/port.c **** 
 184:..\Source\portable\GCC\ARM_CM3/port.c **** /*
 185:..\Source\portable\GCC\ARM_CM3/port.c ****  * The maximum number of tick periods that can be suppressed is limited by the
 186:..\Source\portable\GCC\ARM_CM3/port.c ****  * 24 bit resolution of the SysTick timer.
 187:..\Source\portable\GCC\ARM_CM3/port.c ****  */
 188:..\Source\portable\GCC\ARM_CM3/port.c **** #if configUSE_TICKLESS_IDLE == 1
 189:..\Source\portable\GCC\ARM_CM3/port.c **** 	static uint32_t xMaximumPossibleSuppressedTicks = 0;
 190:..\Source\portable\GCC\ARM_CM3/port.c **** #endif /* configUSE_TICKLESS_IDLE */
 191:..\Source\portable\GCC\ARM_CM3/port.c **** 
 192:..\Source\portable\GCC\ARM_CM3/port.c **** /*
ARM GAS  C:\Users\THUNDE~1\AppData\Local\Temp\cc3zEZMe.s 			page 5


 193:..\Source\portable\GCC\ARM_CM3/port.c ****  * Compensate for the CPU cycles that pass while the SysTick is stopped (low
 194:..\Source\portable\GCC\ARM_CM3/port.c ****  * power functionality only.
 195:..\Source\portable\GCC\ARM_CM3/port.c ****  */
 196:..\Source\portable\GCC\ARM_CM3/port.c **** #if configUSE_TICKLESS_IDLE == 1
 197:..\Source\portable\GCC\ARM_CM3/port.c **** 	static uint32_t ulStoppedTimerCompensation = 0;
 198:..\Source\portable\GCC\ARM_CM3/port.c **** #endif /* configUSE_TICKLESS_IDLE */
 199:..\Source\portable\GCC\ARM_CM3/port.c **** 
 200:..\Source\portable\GCC\ARM_CM3/port.c **** /*
 201:..\Source\portable\GCC\ARM_CM3/port.c ****  * Used by the portASSERT_IF_INTERRUPT_PRIORITY_INVALID() macro to ensure
 202:..\Source\portable\GCC\ARM_CM3/port.c ****  * FreeRTOS API functions are not called from interrupts that have been assigned
 203:..\Source\portable\GCC\ARM_CM3/port.c ****  * a priority above configMAX_SYSCALL_INTERRUPT_PRIORITY.
 204:..\Source\portable\GCC\ARM_CM3/port.c ****  */
 205:..\Source\portable\GCC\ARM_CM3/port.c **** #if ( configASSERT_DEFINED == 1 )
 206:..\Source\portable\GCC\ARM_CM3/port.c **** 	 static uint8_t ucMaxSysCallPriority = 0;
 207:..\Source\portable\GCC\ARM_CM3/port.c **** 	 static uint32_t ulMaxPRIGROUPValue = 0;
 208:..\Source\portable\GCC\ARM_CM3/port.c **** 	 static const volatile uint8_t * const pcInterruptPriorityRegisters = ( const volatile uint8_t * c
 209:..\Source\portable\GCC\ARM_CM3/port.c **** #endif /* configASSERT_DEFINED */
 210:..\Source\portable\GCC\ARM_CM3/port.c **** 
 211:..\Source\portable\GCC\ARM_CM3/port.c **** /*-----------------------------------------------------------*/
 212:..\Source\portable\GCC\ARM_CM3/port.c **** 
 213:..\Source\portable\GCC\ARM_CM3/port.c **** /*
 214:..\Source\portable\GCC\ARM_CM3/port.c ****  * See header file for description.
 215:..\Source\portable\GCC\ARM_CM3/port.c ****  */
 216:..\Source\portable\GCC\ARM_CM3/port.c **** StackType_t *pxPortInitialiseStack( StackType_t *pxTopOfStack, TaskFunction_t pxCode, void *pvParam
 217:..\Source\portable\GCC\ARM_CM3/port.c **** {
  37              		.loc 1 217 0
  38              		.cfi_startproc
  39              		@ args = 0, pretend = 0, frame = 16
  40              		@ frame_needed = 1, uses_anonymous_args = 0
  41              		@ link register save eliminated.
  42 0000 80B4     		push	{r7}
  43              		.cfi_def_cfa_offset 4
  44              		.cfi_offset 7, -4
  45 0002 85B0     		sub	sp, sp, #20
  46              		.cfi_def_cfa_offset 24
  47 0004 00AF     		add	r7, sp, #0
  48              		.cfi_def_cfa_register 7
  49 0006 F860     		str	r0, [r7, #12]
  50 0008 B960     		str	r1, [r7, #8]
  51 000a 7A60     		str	r2, [r7, #4]
 218:..\Source\portable\GCC\ARM_CM3/port.c **** 	/* Simulate the stack frame as it would be created by a context switch
 219:..\Source\portable\GCC\ARM_CM3/port.c **** 	interrupt. */
 220:..\Source\portable\GCC\ARM_CM3/port.c **** 	pxTopOfStack--; /* Offset added to account for the way the MCU uses the stack on entry/exit of int
  52              		.loc 1 220 0
  53 000c FB68     		ldr	r3, [r7, #12]
  54 000e 043B     		subs	r3, r3, #4
  55 0010 FB60     		str	r3, [r7, #12]
 221:..\Source\portable\GCC\ARM_CM3/port.c **** 	*pxTopOfStack = portINITIAL_XPSR;	/* xPSR */
  56              		.loc 1 221 0
  57 0012 FB68     		ldr	r3, [r7, #12]
  58 0014 4FF08072 		mov	r2, #16777216
  59 0018 1A60     		str	r2, [r3]
 222:..\Source\portable\GCC\ARM_CM3/port.c **** 	pxTopOfStack--;
  60              		.loc 1 222 0
  61 001a FB68     		ldr	r3, [r7, #12]
  62 001c 043B     		subs	r3, r3, #4
  63 001e FB60     		str	r3, [r7, #12]
ARM GAS  C:\Users\THUNDE~1\AppData\Local\Temp\cc3zEZMe.s 			page 6


 223:..\Source\portable\GCC\ARM_CM3/port.c **** 	*pxTopOfStack = ( ( StackType_t ) pxCode ) & portSTART_ADDRESS_MASK;	/* PC */
  64              		.loc 1 223 0
  65 0020 BB68     		ldr	r3, [r7, #8]
  66 0022 23F00102 		bic	r2, r3, #1
  67 0026 FB68     		ldr	r3, [r7, #12]
  68 0028 1A60     		str	r2, [r3]
 224:..\Source\portable\GCC\ARM_CM3/port.c **** 	pxTopOfStack--;
  69              		.loc 1 224 0
  70 002a FB68     		ldr	r3, [r7, #12]
  71 002c 043B     		subs	r3, r3, #4
  72 002e FB60     		str	r3, [r7, #12]
 225:..\Source\portable\GCC\ARM_CM3/port.c **** 	*pxTopOfStack = ( StackType_t ) portTASK_RETURN_ADDRESS;	/* LR */
  73              		.loc 1 225 0
  74 0030 084A     		ldr	r2, .L3
  75 0032 FB68     		ldr	r3, [r7, #12]
  76 0034 1A60     		str	r2, [r3]
 226:..\Source\portable\GCC\ARM_CM3/port.c **** 	pxTopOfStack -= 5;	/* R12, R3, R2 and R1. */
  77              		.loc 1 226 0
  78 0036 FB68     		ldr	r3, [r7, #12]
  79 0038 143B     		subs	r3, r3, #20
  80 003a FB60     		str	r3, [r7, #12]
 227:..\Source\portable\GCC\ARM_CM3/port.c **** 	*pxTopOfStack = ( StackType_t ) pvParameters;	/* R0 */
  81              		.loc 1 227 0
  82 003c 7A68     		ldr	r2, [r7, #4]
  83 003e FB68     		ldr	r3, [r7, #12]
  84 0040 1A60     		str	r2, [r3]
 228:..\Source\portable\GCC\ARM_CM3/port.c **** 	pxTopOfStack -= 8;	/* R11, R10, R9, R8, R7, R6, R5 and R4. */
  85              		.loc 1 228 0
  86 0042 FB68     		ldr	r3, [r7, #12]
  87 0044 203B     		subs	r3, r3, #32
  88 0046 FB60     		str	r3, [r7, #12]
 229:..\Source\portable\GCC\ARM_CM3/port.c **** 
 230:..\Source\portable\GCC\ARM_CM3/port.c **** 	return pxTopOfStack;
  89              		.loc 1 230 0
  90 0048 FB68     		ldr	r3, [r7, #12]
 231:..\Source\portable\GCC\ARM_CM3/port.c **** }
  91              		.loc 1 231 0
  92 004a 1846     		mov	r0, r3
  93 004c 1437     		adds	r7, r7, #20
  94              		.cfi_def_cfa_offset 4
  95 004e BD46     		mov	sp, r7
  96              		.cfi_def_cfa_register 13
  97              		@ sp needed
  98 0050 80BC     		pop	{r7}
  99              		.cfi_restore 7
 100              		.cfi_def_cfa_offset 0
 101 0052 7047     		bx	lr
 102              	.L4:
 103              		.align	2
 104              	.L3:
 105 0054 00000000 		.word	prvTaskExitError
 106              		.cfi_endproc
 107              	.LFE68:
 108              		.size	pxPortInitialiseStack, .-pxPortInitialiseStack
 109              		.section	.text.prvTaskExitError,"ax",%progbits
 110              		.align	2
 111              		.thumb
ARM GAS  C:\Users\THUNDE~1\AppData\Local\Temp\cc3zEZMe.s 			page 7


 112              		.thumb_func
 113              		.type	prvTaskExitError, %function
 114              	prvTaskExitError:
 115              	.LFB69:
 232:..\Source\portable\GCC\ARM_CM3/port.c **** /*-----------------------------------------------------------*/
 233:..\Source\portable\GCC\ARM_CM3/port.c **** 
 234:..\Source\portable\GCC\ARM_CM3/port.c **** static void prvTaskExitError( void )
 235:..\Source\portable\GCC\ARM_CM3/port.c **** {
 116              		.loc 1 235 0
 117              		.cfi_startproc
 118              		@ args = 0, pretend = 0, frame = 8
 119              		@ frame_needed = 1, uses_anonymous_args = 0
 120              		@ link register save eliminated.
 121 0000 80B4     		push	{r7}
 122              		.cfi_def_cfa_offset 4
 123              		.cfi_offset 7, -4
 124 0002 83B0     		sub	sp, sp, #12
 125              		.cfi_def_cfa_offset 16
 126 0004 00AF     		add	r7, sp, #0
 127              		.cfi_def_cfa_register 7
 128              	.LBB12:
 129              	.LBB13:
 130              		.file 2 "..\\Source\\portable\\GCC\\ARM_CM3/portmacro.h"
   1:..\Source\portable\GCC\ARM_CM3/portmacro.h **** /*
   2:..\Source\portable\GCC\ARM_CM3/portmacro.h ****     FreeRTOS V9.0.0 - Copyright (C) 2016 Real Time Engineers Ltd.
   3:..\Source\portable\GCC\ARM_CM3/portmacro.h ****     All rights reserved
   4:..\Source\portable\GCC\ARM_CM3/portmacro.h **** 
   5:..\Source\portable\GCC\ARM_CM3/portmacro.h ****     VISIT http://www.FreeRTOS.org TO ENSURE YOU ARE USING THE LATEST VERSION.
   6:..\Source\portable\GCC\ARM_CM3/portmacro.h **** 
   7:..\Source\portable\GCC\ARM_CM3/portmacro.h ****     This file is part of the FreeRTOS distribution.
   8:..\Source\portable\GCC\ARM_CM3/portmacro.h **** 
   9:..\Source\portable\GCC\ARM_CM3/portmacro.h ****     FreeRTOS is free software; you can redistribute it and/or modify it under
  10:..\Source\portable\GCC\ARM_CM3/portmacro.h ****     the terms of the GNU General Public License (version 2) as published by the
  11:..\Source\portable\GCC\ARM_CM3/portmacro.h ****     Free Software Foundation >>>> AND MODIFIED BY <<<< the FreeRTOS exception.
  12:..\Source\portable\GCC\ARM_CM3/portmacro.h **** 
  13:..\Source\portable\GCC\ARM_CM3/portmacro.h ****     ***************************************************************************
  14:..\Source\portable\GCC\ARM_CM3/portmacro.h ****     >>!   NOTE: The modification to the GPL is included to allow you to     !<<
  15:..\Source\portable\GCC\ARM_CM3/portmacro.h ****     >>!   distribute a combined work that includes FreeRTOS without being   !<<
  16:..\Source\portable\GCC\ARM_CM3/portmacro.h ****     >>!   obliged to provide the source code for proprietary components     !<<
  17:..\Source\portable\GCC\ARM_CM3/portmacro.h ****     >>!   outside of the FreeRTOS kernel.                                   !<<
  18:..\Source\portable\GCC\ARM_CM3/portmacro.h ****     ***************************************************************************
  19:..\Source\portable\GCC\ARM_CM3/portmacro.h **** 
  20:..\Source\portable\GCC\ARM_CM3/portmacro.h ****     FreeRTOS is distributed in the hope that it will be useful, but WITHOUT ANY
  21:..\Source\portable\GCC\ARM_CM3/portmacro.h ****     WARRANTY; without even the implied warranty of MERCHANTABILITY or FITNESS
  22:..\Source\portable\GCC\ARM_CM3/portmacro.h ****     FOR A PARTICULAR PURPOSE.  Full license text is available on the following
  23:..\Source\portable\GCC\ARM_CM3/portmacro.h ****     link: http://www.freertos.org/a00114.html
  24:..\Source\portable\GCC\ARM_CM3/portmacro.h **** 
  25:..\Source\portable\GCC\ARM_CM3/portmacro.h ****     ***************************************************************************
  26:..\Source\portable\GCC\ARM_CM3/portmacro.h ****      *                                                                       *
  27:..\Source\portable\GCC\ARM_CM3/portmacro.h ****      *    FreeRTOS provides completely free yet professionally developed,    *
  28:..\Source\portable\GCC\ARM_CM3/portmacro.h ****      *    robust, strictly quality controlled, supported, and cross          *
  29:..\Source\portable\GCC\ARM_CM3/portmacro.h ****      *    platform software that is more than just the market leader, it     *
  30:..\Source\portable\GCC\ARM_CM3/portmacro.h ****      *    is the industry's de facto standard.                               *
  31:..\Source\portable\GCC\ARM_CM3/portmacro.h ****      *                                                                       *
  32:..\Source\portable\GCC\ARM_CM3/portmacro.h ****      *    Help yourself get started quickly while simultaneously helping     *
  33:..\Source\portable\GCC\ARM_CM3/portmacro.h ****      *    to support the FreeRTOS project by purchasing a FreeRTOS           *
  34:..\Source\portable\GCC\ARM_CM3/portmacro.h ****      *    tutorial book, reference manual, or both:                          *
ARM GAS  C:\Users\THUNDE~1\AppData\Local\Temp\cc3zEZMe.s 			page 8


  35:..\Source\portable\GCC\ARM_CM3/portmacro.h ****      *    http://www.FreeRTOS.org/Documentation                              *
  36:..\Source\portable\GCC\ARM_CM3/portmacro.h ****      *                                                                       *
  37:..\Source\portable\GCC\ARM_CM3/portmacro.h ****     ***************************************************************************
  38:..\Source\portable\GCC\ARM_CM3/portmacro.h **** 
  39:..\Source\portable\GCC\ARM_CM3/portmacro.h ****     http://www.FreeRTOS.org/FAQHelp.html - Having a problem?  Start by reading
  40:..\Source\portable\GCC\ARM_CM3/portmacro.h ****     the FAQ page "My application does not run, what could be wrong?".  Have you
  41:..\Source\portable\GCC\ARM_CM3/portmacro.h ****     defined configASSERT()?
  42:..\Source\portable\GCC\ARM_CM3/portmacro.h **** 
  43:..\Source\portable\GCC\ARM_CM3/portmacro.h ****     http://www.FreeRTOS.org/support - In return for receiving this top quality
  44:..\Source\portable\GCC\ARM_CM3/portmacro.h ****     embedded software for free we request you assist our global community by
  45:..\Source\portable\GCC\ARM_CM3/portmacro.h ****     participating in the support forum.
  46:..\Source\portable\GCC\ARM_CM3/portmacro.h **** 
  47:..\Source\portable\GCC\ARM_CM3/portmacro.h ****     http://www.FreeRTOS.org/training - Investing in training allows your team to
  48:..\Source\portable\GCC\ARM_CM3/portmacro.h ****     be as productive as possible as early as possible.  Now you can receive
  49:..\Source\portable\GCC\ARM_CM3/portmacro.h ****     FreeRTOS training directly from Richard Barry, CEO of Real Time Engineers
  50:..\Source\portable\GCC\ARM_CM3/portmacro.h ****     Ltd, and the world's leading authority on the world's leading RTOS.
  51:..\Source\portable\GCC\ARM_CM3/portmacro.h **** 
  52:..\Source\portable\GCC\ARM_CM3/portmacro.h ****     http://www.FreeRTOS.org/plus - A selection of FreeRTOS ecosystem products,
  53:..\Source\portable\GCC\ARM_CM3/portmacro.h ****     including FreeRTOS+Trace - an indispensable productivity tool, a DOS
  54:..\Source\portable\GCC\ARM_CM3/portmacro.h ****     compatible FAT file system, and our tiny thread aware UDP/IP stack.
  55:..\Source\portable\GCC\ARM_CM3/portmacro.h **** 
  56:..\Source\portable\GCC\ARM_CM3/portmacro.h ****     http://www.FreeRTOS.org/labs - Where new FreeRTOS products go to incubate.
  57:..\Source\portable\GCC\ARM_CM3/portmacro.h ****     Come and try FreeRTOS+TCP, our new open source TCP/IP stack for FreeRTOS.
  58:..\Source\portable\GCC\ARM_CM3/portmacro.h **** 
  59:..\Source\portable\GCC\ARM_CM3/portmacro.h ****     http://www.OpenRTOS.com - Real Time Engineers ltd. license FreeRTOS to High
  60:..\Source\portable\GCC\ARM_CM3/portmacro.h ****     Integrity Systems ltd. to sell under the OpenRTOS brand.  Low cost OpenRTOS
  61:..\Source\portable\GCC\ARM_CM3/portmacro.h ****     licenses offer ticketed support, indemnification and commercial middleware.
  62:..\Source\portable\GCC\ARM_CM3/portmacro.h **** 
  63:..\Source\portable\GCC\ARM_CM3/portmacro.h ****     http://www.SafeRTOS.com - High Integrity Systems also provide a safety
  64:..\Source\portable\GCC\ARM_CM3/portmacro.h ****     engineered and independently SIL3 certified version for use in safety and
  65:..\Source\portable\GCC\ARM_CM3/portmacro.h ****     mission critical applications that require provable dependability.
  66:..\Source\portable\GCC\ARM_CM3/portmacro.h **** 
  67:..\Source\portable\GCC\ARM_CM3/portmacro.h ****     1 tab == 4 spaces!
  68:..\Source\portable\GCC\ARM_CM3/portmacro.h **** */
  69:..\Source\portable\GCC\ARM_CM3/portmacro.h **** 
  70:..\Source\portable\GCC\ARM_CM3/portmacro.h **** 
  71:..\Source\portable\GCC\ARM_CM3/portmacro.h **** #ifndef PORTMACRO_H
  72:..\Source\portable\GCC\ARM_CM3/portmacro.h **** #define PORTMACRO_H
  73:..\Source\portable\GCC\ARM_CM3/portmacro.h **** 
  74:..\Source\portable\GCC\ARM_CM3/portmacro.h **** #ifdef __cplusplus
  75:..\Source\portable\GCC\ARM_CM3/portmacro.h **** extern "C" {
  76:..\Source\portable\GCC\ARM_CM3/portmacro.h **** #endif
  77:..\Source\portable\GCC\ARM_CM3/portmacro.h **** 
  78:..\Source\portable\GCC\ARM_CM3/portmacro.h **** /*-----------------------------------------------------------
  79:..\Source\portable\GCC\ARM_CM3/portmacro.h ****  * Port specific definitions.
  80:..\Source\portable\GCC\ARM_CM3/portmacro.h ****  *
  81:..\Source\portable\GCC\ARM_CM3/portmacro.h ****  * The settings in this file configure FreeRTOS correctly for the
  82:..\Source\portable\GCC\ARM_CM3/portmacro.h ****  * given hardware and compiler.
  83:..\Source\portable\GCC\ARM_CM3/portmacro.h ****  *
  84:..\Source\portable\GCC\ARM_CM3/portmacro.h ****  * These settings should not be altered.
  85:..\Source\portable\GCC\ARM_CM3/portmacro.h ****  *-----------------------------------------------------------
  86:..\Source\portable\GCC\ARM_CM3/portmacro.h ****  */
  87:..\Source\portable\GCC\ARM_CM3/portmacro.h **** 
  88:..\Source\portable\GCC\ARM_CM3/portmacro.h **** /* Type definitions. */
  89:..\Source\portable\GCC\ARM_CM3/portmacro.h **** #define portCHAR		char
  90:..\Source\portable\GCC\ARM_CM3/portmacro.h **** #define portFLOAT		float
  91:..\Source\portable\GCC\ARM_CM3/portmacro.h **** #define portDOUBLE		double
ARM GAS  C:\Users\THUNDE~1\AppData\Local\Temp\cc3zEZMe.s 			page 9


  92:..\Source\portable\GCC\ARM_CM3/portmacro.h **** #define portLONG		long
  93:..\Source\portable\GCC\ARM_CM3/portmacro.h **** #define portSHORT		short
  94:..\Source\portable\GCC\ARM_CM3/portmacro.h **** #define portSTACK_TYPE	uint32_t
  95:..\Source\portable\GCC\ARM_CM3/portmacro.h **** #define portBASE_TYPE	long
  96:..\Source\portable\GCC\ARM_CM3/portmacro.h **** 
  97:..\Source\portable\GCC\ARM_CM3/portmacro.h **** typedef portSTACK_TYPE StackType_t;
  98:..\Source\portable\GCC\ARM_CM3/portmacro.h **** typedef long BaseType_t;
  99:..\Source\portable\GCC\ARM_CM3/portmacro.h **** typedef unsigned long UBaseType_t;
 100:..\Source\portable\GCC\ARM_CM3/portmacro.h **** 
 101:..\Source\portable\GCC\ARM_CM3/portmacro.h **** #if( configUSE_16_BIT_TICKS == 1 )
 102:..\Source\portable\GCC\ARM_CM3/portmacro.h **** 	typedef uint16_t TickType_t;
 103:..\Source\portable\GCC\ARM_CM3/portmacro.h **** 	#define portMAX_DELAY ( TickType_t ) 0xffff
 104:..\Source\portable\GCC\ARM_CM3/portmacro.h **** #else
 105:..\Source\portable\GCC\ARM_CM3/portmacro.h **** 	typedef uint32_t TickType_t;
 106:..\Source\portable\GCC\ARM_CM3/portmacro.h **** 	#define portMAX_DELAY ( TickType_t ) 0xffffffffUL
 107:..\Source\portable\GCC\ARM_CM3/portmacro.h **** 
 108:..\Source\portable\GCC\ARM_CM3/portmacro.h **** 	/* 32-bit tick type on a 32-bit architecture, so reads of the tick count do
 109:..\Source\portable\GCC\ARM_CM3/portmacro.h **** 	not need to be guarded with a critical section. */
 110:..\Source\portable\GCC\ARM_CM3/portmacro.h **** 	#define portTICK_TYPE_IS_ATOMIC 1
 111:..\Source\portable\GCC\ARM_CM3/portmacro.h **** #endif
 112:..\Source\portable\GCC\ARM_CM3/portmacro.h **** /*-----------------------------------------------------------*/
 113:..\Source\portable\GCC\ARM_CM3/portmacro.h **** 
 114:..\Source\portable\GCC\ARM_CM3/portmacro.h **** /* Architecture specifics. */
 115:..\Source\portable\GCC\ARM_CM3/portmacro.h **** #define portSTACK_GROWTH			( -1 )
 116:..\Source\portable\GCC\ARM_CM3/portmacro.h **** #define portTICK_PERIOD_MS			( ( TickType_t ) 1000 / configTICK_RATE_HZ )
 117:..\Source\portable\GCC\ARM_CM3/portmacro.h **** #define portBYTE_ALIGNMENT			8
 118:..\Source\portable\GCC\ARM_CM3/portmacro.h **** /*-----------------------------------------------------------*/
 119:..\Source\portable\GCC\ARM_CM3/portmacro.h **** 
 120:..\Source\portable\GCC\ARM_CM3/portmacro.h **** /* Scheduler utilities. */
 121:..\Source\portable\GCC\ARM_CM3/portmacro.h **** #define portYIELD() 															\
 122:..\Source\portable\GCC\ARM_CM3/portmacro.h **** {																				\
 123:..\Source\portable\GCC\ARM_CM3/portmacro.h **** 	/* Set a PendSV to request a context switch. */								\
 124:..\Source\portable\GCC\ARM_CM3/portmacro.h **** 	portNVIC_INT_CTRL_REG = portNVIC_PENDSVSET_BIT;								\
 125:..\Source\portable\GCC\ARM_CM3/portmacro.h **** 																				\
 126:..\Source\portable\GCC\ARM_CM3/portmacro.h **** 	/* Barriers are normally not required but do ensure the code is completely	\
 127:..\Source\portable\GCC\ARM_CM3/portmacro.h **** 	within the specified behaviour for the architecture. */						\
 128:..\Source\portable\GCC\ARM_CM3/portmacro.h **** 	__asm volatile( "dsb" );													\
 129:..\Source\portable\GCC\ARM_CM3/portmacro.h **** 	__asm volatile( "isb" );													\
 130:..\Source\portable\GCC\ARM_CM3/portmacro.h **** }
 131:..\Source\portable\GCC\ARM_CM3/portmacro.h **** 
 132:..\Source\portable\GCC\ARM_CM3/portmacro.h **** #define portNVIC_INT_CTRL_REG		( * ( ( volatile uint32_t * ) 0xe000ed04 ) )
 133:..\Source\portable\GCC\ARM_CM3/portmacro.h **** #define portNVIC_PENDSVSET_BIT		( 1UL << 28UL )
 134:..\Source\portable\GCC\ARM_CM3/portmacro.h **** #define portEND_SWITCHING_ISR( xSwitchRequired ) if( xSwitchRequired != pdFALSE ) portYIELD()
 135:..\Source\portable\GCC\ARM_CM3/portmacro.h **** #define portYIELD_FROM_ISR( x ) portEND_SWITCHING_ISR( x )
 136:..\Source\portable\GCC\ARM_CM3/portmacro.h **** /*-----------------------------------------------------------*/
 137:..\Source\portable\GCC\ARM_CM3/portmacro.h **** 
 138:..\Source\portable\GCC\ARM_CM3/portmacro.h **** /* Critical section management. */
 139:..\Source\portable\GCC\ARM_CM3/portmacro.h **** extern void vPortEnterCritical( void );
 140:..\Source\portable\GCC\ARM_CM3/portmacro.h **** extern void vPortExitCritical( void );
 141:..\Source\portable\GCC\ARM_CM3/portmacro.h **** #define portSET_INTERRUPT_MASK_FROM_ISR()		ulPortRaiseBASEPRI()
 142:..\Source\portable\GCC\ARM_CM3/portmacro.h **** #define portCLEAR_INTERRUPT_MASK_FROM_ISR(x)	vPortSetBASEPRI(x)
 143:..\Source\portable\GCC\ARM_CM3/portmacro.h **** #define portDISABLE_INTERRUPTS()				vPortRaiseBASEPRI()
 144:..\Source\portable\GCC\ARM_CM3/portmacro.h **** #define portENABLE_INTERRUPTS()					vPortSetBASEPRI(0)
 145:..\Source\portable\GCC\ARM_CM3/portmacro.h **** #define portENTER_CRITICAL()					vPortEnterCritical()
 146:..\Source\portable\GCC\ARM_CM3/portmacro.h **** #define portEXIT_CRITICAL()						vPortExitCritical()
 147:..\Source\portable\GCC\ARM_CM3/portmacro.h **** 
 148:..\Source\portable\GCC\ARM_CM3/portmacro.h **** /*-----------------------------------------------------------*/
ARM GAS  C:\Users\THUNDE~1\AppData\Local\Temp\cc3zEZMe.s 			page 10


 149:..\Source\portable\GCC\ARM_CM3/portmacro.h **** 
 150:..\Source\portable\GCC\ARM_CM3/portmacro.h **** /* Task function macros as described on the FreeRTOS.org WEB site.  These are
 151:..\Source\portable\GCC\ARM_CM3/portmacro.h **** not necessary for to use this port.  They are defined so the common demo files
 152:..\Source\portable\GCC\ARM_CM3/portmacro.h **** (which build with all the ports) will build. */
 153:..\Source\portable\GCC\ARM_CM3/portmacro.h **** #define portTASK_FUNCTION_PROTO( vFunction, pvParameters ) void vFunction( void *pvParameters )
 154:..\Source\portable\GCC\ARM_CM3/portmacro.h **** #define portTASK_FUNCTION( vFunction, pvParameters ) void vFunction( void *pvParameters )
 155:..\Source\portable\GCC\ARM_CM3/portmacro.h **** /*-----------------------------------------------------------*/
 156:..\Source\portable\GCC\ARM_CM3/portmacro.h **** 
 157:..\Source\portable\GCC\ARM_CM3/portmacro.h **** /* Tickless idle/low power functionality. */
 158:..\Source\portable\GCC\ARM_CM3/portmacro.h **** #ifndef portSUPPRESS_TICKS_AND_SLEEP
 159:..\Source\portable\GCC\ARM_CM3/portmacro.h **** 	extern void vPortSuppressTicksAndSleep( TickType_t xExpectedIdleTime );
 160:..\Source\portable\GCC\ARM_CM3/portmacro.h **** 	#define portSUPPRESS_TICKS_AND_SLEEP( xExpectedIdleTime ) vPortSuppressTicksAndSleep( xExpectedIdl
 161:..\Source\portable\GCC\ARM_CM3/portmacro.h **** #endif
 162:..\Source\portable\GCC\ARM_CM3/portmacro.h **** /*-----------------------------------------------------------*/
 163:..\Source\portable\GCC\ARM_CM3/portmacro.h **** 
 164:..\Source\portable\GCC\ARM_CM3/portmacro.h **** /* Architecture specific optimisations. */
 165:..\Source\portable\GCC\ARM_CM3/portmacro.h **** #ifndef configUSE_PORT_OPTIMISED_TASK_SELECTION
 166:..\Source\portable\GCC\ARM_CM3/portmacro.h **** 	#define configUSE_PORT_OPTIMISED_TASK_SELECTION 1
 167:..\Source\portable\GCC\ARM_CM3/portmacro.h **** #endif
 168:..\Source\portable\GCC\ARM_CM3/portmacro.h **** 
 169:..\Source\portable\GCC\ARM_CM3/portmacro.h **** #if configUSE_PORT_OPTIMISED_TASK_SELECTION == 1
 170:..\Source\portable\GCC\ARM_CM3/portmacro.h **** 
 171:..\Source\portable\GCC\ARM_CM3/portmacro.h **** 	/* Generic helper function. */
 172:..\Source\portable\GCC\ARM_CM3/portmacro.h **** 	__attribute__( ( always_inline ) ) static inline uint8_t ucPortCountLeadingZeros( uint32_t ulBitma
 173:..\Source\portable\GCC\ARM_CM3/portmacro.h **** 	{
 174:..\Source\portable\GCC\ARM_CM3/portmacro.h **** 	uint8_t ucReturn;
 175:..\Source\portable\GCC\ARM_CM3/portmacro.h **** 
 176:..\Source\portable\GCC\ARM_CM3/portmacro.h **** 		__asm volatile ( "clz %0, %1" : "=r" ( ucReturn ) : "r" ( ulBitmap ) );
 177:..\Source\portable\GCC\ARM_CM3/portmacro.h **** 		return ucReturn;
 178:..\Source\portable\GCC\ARM_CM3/portmacro.h **** 	}
 179:..\Source\portable\GCC\ARM_CM3/portmacro.h **** 
 180:..\Source\portable\GCC\ARM_CM3/portmacro.h **** 	/* Check the configuration. */
 181:..\Source\portable\GCC\ARM_CM3/portmacro.h **** 	#if( configMAX_PRIORITIES > 32 )
 182:..\Source\portable\GCC\ARM_CM3/portmacro.h **** 		#error configUSE_PORT_OPTIMISED_TASK_SELECTION can only be set to 1 when configMAX_PRIORITIES is 
 183:..\Source\portable\GCC\ARM_CM3/portmacro.h **** 	#endif
 184:..\Source\portable\GCC\ARM_CM3/portmacro.h **** 
 185:..\Source\portable\GCC\ARM_CM3/portmacro.h **** 	/* Store/clear the ready priorities in a bit map. */
 186:..\Source\portable\GCC\ARM_CM3/portmacro.h **** 	#define portRECORD_READY_PRIORITY( uxPriority, uxReadyPriorities ) ( uxReadyPriorities ) |= ( 1UL 
 187:..\Source\portable\GCC\ARM_CM3/portmacro.h **** 	#define portRESET_READY_PRIORITY( uxPriority, uxReadyPriorities ) ( uxReadyPriorities ) &= ~( 1UL 
 188:..\Source\portable\GCC\ARM_CM3/portmacro.h **** 
 189:..\Source\portable\GCC\ARM_CM3/portmacro.h **** 	/*-----------------------------------------------------------*/
 190:..\Source\portable\GCC\ARM_CM3/portmacro.h **** 
 191:..\Source\portable\GCC\ARM_CM3/portmacro.h **** 	#define portGET_HIGHEST_PRIORITY( uxTopPriority, uxReadyPriorities ) uxTopPriority = ( 31UL - ( ui
 192:..\Source\portable\GCC\ARM_CM3/portmacro.h **** 
 193:..\Source\portable\GCC\ARM_CM3/portmacro.h **** #endif /* configUSE_PORT_OPTIMISED_TASK_SELECTION */
 194:..\Source\portable\GCC\ARM_CM3/portmacro.h **** 
 195:..\Source\portable\GCC\ARM_CM3/portmacro.h **** /*-----------------------------------------------------------*/
 196:..\Source\portable\GCC\ARM_CM3/portmacro.h **** 
 197:..\Source\portable\GCC\ARM_CM3/portmacro.h **** #ifdef configASSERT
 198:..\Source\portable\GCC\ARM_CM3/portmacro.h **** 	void vPortValidateInterruptPriority( void );
 199:..\Source\portable\GCC\ARM_CM3/portmacro.h **** 	#define portASSERT_IF_INTERRUPT_PRIORITY_INVALID() 	vPortValidateInterruptPriority()
 200:..\Source\portable\GCC\ARM_CM3/portmacro.h **** #endif
 201:..\Source\portable\GCC\ARM_CM3/portmacro.h **** 
 202:..\Source\portable\GCC\ARM_CM3/portmacro.h **** /* portNOP() is not required by this port. */
 203:..\Source\portable\GCC\ARM_CM3/portmacro.h **** #define portNOP()
 204:..\Source\portable\GCC\ARM_CM3/portmacro.h **** 
 205:..\Source\portable\GCC\ARM_CM3/portmacro.h **** #define portINLINE	__inline
ARM GAS  C:\Users\THUNDE~1\AppData\Local\Temp\cc3zEZMe.s 			page 11


 206:..\Source\portable\GCC\ARM_CM3/portmacro.h **** 
 207:..\Source\portable\GCC\ARM_CM3/portmacro.h **** #ifndef portFORCE_INLINE
 208:..\Source\portable\GCC\ARM_CM3/portmacro.h **** 	#define portFORCE_INLINE inline __attribute__(( always_inline))
 209:..\Source\portable\GCC\ARM_CM3/portmacro.h **** #endif
 210:..\Source\portable\GCC\ARM_CM3/portmacro.h **** 
 211:..\Source\portable\GCC\ARM_CM3/portmacro.h **** portFORCE_INLINE static BaseType_t xPortIsInsideInterrupt( void )
 212:..\Source\portable\GCC\ARM_CM3/portmacro.h **** {
 213:..\Source\portable\GCC\ARM_CM3/portmacro.h **** uint32_t ulCurrentInterrupt;
 214:..\Source\portable\GCC\ARM_CM3/portmacro.h **** BaseType_t xReturn;
 215:..\Source\portable\GCC\ARM_CM3/portmacro.h **** 
 216:..\Source\portable\GCC\ARM_CM3/portmacro.h **** 	/* Obtain the number of the currently executing interrupt. */
 217:..\Source\portable\GCC\ARM_CM3/portmacro.h **** 	__asm volatile( "mrs %0, ipsr" : "=r"( ulCurrentInterrupt ) );
 218:..\Source\portable\GCC\ARM_CM3/portmacro.h **** 
 219:..\Source\portable\GCC\ARM_CM3/portmacro.h **** 	if( ulCurrentInterrupt == 0 )
 220:..\Source\portable\GCC\ARM_CM3/portmacro.h **** 	{
 221:..\Source\portable\GCC\ARM_CM3/portmacro.h **** 		xReturn = pdFALSE;
 222:..\Source\portable\GCC\ARM_CM3/portmacro.h **** 	}
 223:..\Source\portable\GCC\ARM_CM3/portmacro.h **** 	else
 224:..\Source\portable\GCC\ARM_CM3/portmacro.h **** 	{
 225:..\Source\portable\GCC\ARM_CM3/portmacro.h **** 		xReturn = pdTRUE;
 226:..\Source\portable\GCC\ARM_CM3/portmacro.h **** 	}
 227:..\Source\portable\GCC\ARM_CM3/portmacro.h **** 
 228:..\Source\portable\GCC\ARM_CM3/portmacro.h **** 	return xReturn;
 229:..\Source\portable\GCC\ARM_CM3/portmacro.h **** }
 230:..\Source\portable\GCC\ARM_CM3/portmacro.h **** 
 231:..\Source\portable\GCC\ARM_CM3/portmacro.h **** /*-----------------------------------------------------------*/
 232:..\Source\portable\GCC\ARM_CM3/portmacro.h **** 
 233:..\Source\portable\GCC\ARM_CM3/portmacro.h **** portFORCE_INLINE static void vPortRaiseBASEPRI( void )
 234:..\Source\portable\GCC\ARM_CM3/portmacro.h **** {
 235:..\Source\portable\GCC\ARM_CM3/portmacro.h **** uint32_t ulNewBASEPRI;
 236:..\Source\portable\GCC\ARM_CM3/portmacro.h **** 
 237:..\Source\portable\GCC\ARM_CM3/portmacro.h **** 	__asm volatile
 131              		.loc 2 237 0
 132              		.syntax unified
 133              	@ 237 "..\Source\portable\GCC\ARM_CM3/portmacro.h" 1
 134 0006 4FF0A003 			mov r3, #160												
 135 000a 83F31188 		msr basepri, r3											
 136 000e BFF36F8F 		isb														
 137 0012 BFF34F8F 		dsb														
 138              	
 139              	@ 0 "" 2
 140              		.thumb
 141              		.syntax unified
 142 0016 7B60     		str	r3, [r7, #4]
 143              	.L6:
 144              	.LBE13:
 145              	.LBE12:
 236:..\Source\portable\GCC\ARM_CM3/port.c **** 	/* A function that implements a task must not exit or attempt to return to
 237:..\Source\portable\GCC\ARM_CM3/port.c **** 	its caller as there is nothing to return to.  If a task wants to exit it
 238:..\Source\portable\GCC\ARM_CM3/port.c **** 	should instead call vTaskDelete( NULL ).
 239:..\Source\portable\GCC\ARM_CM3/port.c **** 
 240:..\Source\portable\GCC\ARM_CM3/port.c **** 	Artificially force an assert() to be triggered if configASSERT() is
 241:..\Source\portable\GCC\ARM_CM3/port.c **** 	defined, then stop here so application writers can catch the error. */
 242:..\Source\portable\GCC\ARM_CM3/port.c **** 	configASSERT( uxCriticalNesting == ~0UL );
 243:..\Source\portable\GCC\ARM_CM3/port.c **** 	portDISABLE_INTERRUPTS();
 244:..\Source\portable\GCC\ARM_CM3/port.c **** 	for( ;; );
 146              		.loc 1 244 0 discriminator 1
ARM GAS  C:\Users\THUNDE~1\AppData\Local\Temp\cc3zEZMe.s 			page 12


 147 0018 FEE7     		b	.L6
 148              		.cfi_endproc
 149              	.LFE69:
 150              		.size	prvTaskExitError, .-prvTaskExitError
 151 001a 00BF     		.section	.text.vPortSVCHandler,"ax",%progbits
 152              		.align	2
 153              		.global	vPortSVCHandler
 154              		.thumb
 155              		.thumb_func
 156              		.type	vPortSVCHandler, %function
 157              	vPortSVCHandler:
 158              	.LFB70:
 245:..\Source\portable\GCC\ARM_CM3/port.c **** }
 246:..\Source\portable\GCC\ARM_CM3/port.c **** /*-----------------------------------------------------------*/
 247:..\Source\portable\GCC\ARM_CM3/port.c **** 
 248:..\Source\portable\GCC\ARM_CM3/port.c **** void vPortSVCHandler( void )
 249:..\Source\portable\GCC\ARM_CM3/port.c **** {
 159              		.loc 1 249 0
 160              		.cfi_startproc
 161              		@ Naked Function: prologue and epilogue provided by programmer.
 162              		@ args = 0, pretend = 0, frame = 0
 163              		@ frame_needed = 1, uses_anonymous_args = 0
 250:..\Source\portable\GCC\ARM_CM3/port.c **** 	__asm volatile (
 164              		.loc 1 250 0
 165              		.syntax unified
 166              	@ 250 "..\Source\portable\GCC\ARM_CM3\port.c" 1
 167 0000 074B     			ldr	r3, pxCurrentTCBConst2		
 168 0002 1968     		ldr r1, [r3]					
 169 0004 0868     		ldr r0, [r1]					
 170 0006 B0E8F00F 		ldmia r0!, {r4-r11}				
 171 000a 80F30988 		msr psp, r0						
 172 000e BFF36F8F 		isb								
 173 0012 4FF00000 		mov r0, #0 						
 174 0016 80F31188 		msr	basepri, r0					
 175 001a 4EF00D0E 		orr r14, #0xd					
 176 001e 7047     		bx r14							
 177              										
 178              		.align 4						
 179 0020 00000000 	pxCurrentTCBConst2: .word pxCurrentTCB				
 180              	
 181              	@ 0 "" 2
 251:..\Source\portable\GCC\ARM_CM3/port.c **** 					"	ldr	r3, pxCurrentTCBConst2		\n" /* Restore the context. */
 252:..\Source\portable\GCC\ARM_CM3/port.c **** 					"	ldr r1, [r3]					\n" /* Use pxCurrentTCBConst to get the pxCurrentTCB address. */
 253:..\Source\portable\GCC\ARM_CM3/port.c **** 					"	ldr r0, [r1]					\n" /* The first item in pxCurrentTCB is the task top of stack. */
 254:..\Source\portable\GCC\ARM_CM3/port.c **** 					"	ldmia r0!, {r4-r11}				\n" /* Pop the registers that are not automatically saved on exceptio
 255:..\Source\portable\GCC\ARM_CM3/port.c **** 					"	msr psp, r0						\n" /* Restore the task stack pointer. */
 256:..\Source\portable\GCC\ARM_CM3/port.c **** 					"	isb								\n"
 257:..\Source\portable\GCC\ARM_CM3/port.c **** 					"	mov r0, #0 						\n"
 258:..\Source\portable\GCC\ARM_CM3/port.c **** 					"	msr	basepri, r0					\n"
 259:..\Source\portable\GCC\ARM_CM3/port.c **** 					"	orr r14, #0xd					\n"
 260:..\Source\portable\GCC\ARM_CM3/port.c **** 					"	bx r14							\n"
 261:..\Source\portable\GCC\ARM_CM3/port.c **** 					"									\n"
 262:..\Source\portable\GCC\ARM_CM3/port.c **** 					"	.align 4						\n"
 263:..\Source\portable\GCC\ARM_CM3/port.c **** 					"pxCurrentTCBConst2: .word pxCurrentTCB				\n"
 264:..\Source\portable\GCC\ARM_CM3/port.c **** 				);
 265:..\Source\portable\GCC\ARM_CM3/port.c **** }
 182              		.loc 1 265 0
ARM GAS  C:\Users\THUNDE~1\AppData\Local\Temp\cc3zEZMe.s 			page 13


 183              		.thumb
 184              		.syntax unified
 185 0024 00BF     		nop
 186              		.cfi_endproc
 187              	.LFE70:
 188              		.size	vPortSVCHandler, .-vPortSVCHandler
 189 0026 00BF     		.section	.text.prvPortStartFirstTask,"ax",%progbits
 190              		.align	2
 191              		.thumb
 192              		.thumb_func
 193              		.type	prvPortStartFirstTask, %function
 194              	prvPortStartFirstTask:
 195              	.LFB71:
 266:..\Source\portable\GCC\ARM_CM3/port.c **** /*-----------------------------------------------------------*/
 267:..\Source\portable\GCC\ARM_CM3/port.c **** 
 268:..\Source\portable\GCC\ARM_CM3/port.c **** static void prvPortStartFirstTask( void )
 269:..\Source\portable\GCC\ARM_CM3/port.c **** {
 196              		.loc 1 269 0
 197              		.cfi_startproc
 198              		@ Naked Function: prologue and epilogue provided by programmer.
 199              		@ args = 0, pretend = 0, frame = 0
 200              		@ frame_needed = 1, uses_anonymous_args = 0
 270:..\Source\portable\GCC\ARM_CM3/port.c **** 	__asm volatile(
 201              		.loc 1 270 0
 202              		.syntax unified
 203              	@ 270 "..\Source\portable\GCC\ARM_CM3\port.c" 1
 204 0000 0648     		 ldr r0, =0xE000ED08 	
 205 0002 0068     	 ldr r0, [r0] 			
 206 0004 0068     	 ldr r0, [r0] 			
 207 0006 80F30888 	 msr msp, r0			
 208 000a 62B6     	 cpsie i				
 209 000c 61B6     	 cpsie f				
 210 000e BFF34F8F 	 dsb					
 211 0012 BFF36F8F 	 isb					
 212 0016 00DF     	 svc 0					
 213 0018 00BF     	 nop					
 214              	
 215              	@ 0 "" 2
 271:..\Source\portable\GCC\ARM_CM3/port.c **** 					" ldr r0, =0xE000ED08 	\n" /* Use the NVIC offset register to locate the stack. */
 272:..\Source\portable\GCC\ARM_CM3/port.c **** 					" ldr r0, [r0] 			\n"
 273:..\Source\portable\GCC\ARM_CM3/port.c **** 					" ldr r0, [r0] 			\n"
 274:..\Source\portable\GCC\ARM_CM3/port.c **** 					" msr msp, r0			\n" /* Set the msp back to the start of the stack. */
 275:..\Source\portable\GCC\ARM_CM3/port.c **** 					" cpsie i				\n" /* Globally enable interrupts. */
 276:..\Source\portable\GCC\ARM_CM3/port.c **** 					" cpsie f				\n"
 277:..\Source\portable\GCC\ARM_CM3/port.c **** 					" dsb					\n"
 278:..\Source\portable\GCC\ARM_CM3/port.c **** 					" isb					\n"
 279:..\Source\portable\GCC\ARM_CM3/port.c **** 					" svc 0					\n" /* System call to start first task. */
 280:..\Source\portable\GCC\ARM_CM3/port.c **** 					" nop					\n"
 281:..\Source\portable\GCC\ARM_CM3/port.c **** 				);
 282:..\Source\portable\GCC\ARM_CM3/port.c **** }
 216              		.loc 1 282 0
 217              		.thumb
 218              		.syntax unified
 219 001a 00BF     		nop
 220              		.cfi_endproc
 221              	.LFE71:
 222              		.size	prvPortStartFirstTask, .-prvPortStartFirstTask
ARM GAS  C:\Users\THUNDE~1\AppData\Local\Temp\cc3zEZMe.s 			page 14


 223              		.section	.text.xPortStartScheduler,"ax",%progbits
 224              		.align	2
 225              		.global	xPortStartScheduler
 226              		.thumb
 227              		.thumb_func
 228              		.type	xPortStartScheduler, %function
 229              	xPortStartScheduler:
 230              	.LFB72:
 283:..\Source\portable\GCC\ARM_CM3/port.c **** /*-----------------------------------------------------------*/
 284:..\Source\portable\GCC\ARM_CM3/port.c **** 
 285:..\Source\portable\GCC\ARM_CM3/port.c **** /*
 286:..\Source\portable\GCC\ARM_CM3/port.c ****  * See header file for description.
 287:..\Source\portable\GCC\ARM_CM3/port.c ****  */
 288:..\Source\portable\GCC\ARM_CM3/port.c **** BaseType_t xPortStartScheduler( void )
 289:..\Source\portable\GCC\ARM_CM3/port.c **** {
 231              		.loc 1 289 0
 232              		.cfi_startproc
 233              		@ args = 0, pretend = 0, frame = 0
 234              		@ frame_needed = 1, uses_anonymous_args = 0
 235 0000 80B5     		push	{r7, lr}
 236              		.cfi_def_cfa_offset 8
 237              		.cfi_offset 7, -8
 238              		.cfi_offset 14, -4
 239 0002 00AF     		add	r7, sp, #0
 240              		.cfi_def_cfa_register 7
 290:..\Source\portable\GCC\ARM_CM3/port.c **** 	/* configMAX_SYSCALL_INTERRUPT_PRIORITY must not be set to 0.
 291:..\Source\portable\GCC\ARM_CM3/port.c **** 	See http://www.FreeRTOS.org/RTOS-Cortex-M3-M4.html */
 292:..\Source\portable\GCC\ARM_CM3/port.c **** 	configASSERT( configMAX_SYSCALL_INTERRUPT_PRIORITY );
 293:..\Source\portable\GCC\ARM_CM3/port.c **** 
 294:..\Source\portable\GCC\ARM_CM3/port.c **** 	#if( configASSERT_DEFINED == 1 )
 295:..\Source\portable\GCC\ARM_CM3/port.c **** 	{
 296:..\Source\portable\GCC\ARM_CM3/port.c **** 		volatile uint32_t ulOriginalPriority;
 297:..\Source\portable\GCC\ARM_CM3/port.c **** 		volatile uint8_t * const pucFirstUserPriorityRegister = ( volatile uint8_t * const ) ( portNVIC_I
 298:..\Source\portable\GCC\ARM_CM3/port.c **** 		volatile uint8_t ucMaxPriorityValue;
 299:..\Source\portable\GCC\ARM_CM3/port.c **** 
 300:..\Source\portable\GCC\ARM_CM3/port.c **** 		/* Determine the maximum priority from which ISR safe FreeRTOS API
 301:..\Source\portable\GCC\ARM_CM3/port.c **** 		functions can be called.  ISR safe functions are those that end in
 302:..\Source\portable\GCC\ARM_CM3/port.c **** 		"FromISR".  FreeRTOS maintains separate thread and ISR API functions to
 303:..\Source\portable\GCC\ARM_CM3/port.c **** 		ensure interrupt entry is as fast and simple as possible.
 304:..\Source\portable\GCC\ARM_CM3/port.c **** 
 305:..\Source\portable\GCC\ARM_CM3/port.c **** 		Save the interrupt priority value that is about to be clobbered. */
 306:..\Source\portable\GCC\ARM_CM3/port.c **** 		ulOriginalPriority = *pucFirstUserPriorityRegister;
 307:..\Source\portable\GCC\ARM_CM3/port.c **** 
 308:..\Source\portable\GCC\ARM_CM3/port.c **** 		/* Determine the number of priority bits available.  First write to all
 309:..\Source\portable\GCC\ARM_CM3/port.c **** 		possible bits. */
 310:..\Source\portable\GCC\ARM_CM3/port.c **** 		*pucFirstUserPriorityRegister = portMAX_8_BIT_VALUE;
 311:..\Source\portable\GCC\ARM_CM3/port.c **** 
 312:..\Source\portable\GCC\ARM_CM3/port.c **** 		/* Read the value back to see how many bits stuck. */
 313:..\Source\portable\GCC\ARM_CM3/port.c **** 		ucMaxPriorityValue = *pucFirstUserPriorityRegister;
 314:..\Source\portable\GCC\ARM_CM3/port.c **** 
 315:..\Source\portable\GCC\ARM_CM3/port.c **** 		/* Use the same mask on the maximum system call priority. */
 316:..\Source\portable\GCC\ARM_CM3/port.c **** 		ucMaxSysCallPriority = configMAX_SYSCALL_INTERRUPT_PRIORITY & ucMaxPriorityValue;
 317:..\Source\portable\GCC\ARM_CM3/port.c **** 
 318:..\Source\portable\GCC\ARM_CM3/port.c **** 		/* Calculate the maximum acceptable priority group value for the number
 319:..\Source\portable\GCC\ARM_CM3/port.c **** 		of bits read back. */
 320:..\Source\portable\GCC\ARM_CM3/port.c **** 		ulMaxPRIGROUPValue = portMAX_PRIGROUP_BITS;
 321:..\Source\portable\GCC\ARM_CM3/port.c **** 		while( ( ucMaxPriorityValue & portTOP_BIT_OF_BYTE ) == portTOP_BIT_OF_BYTE )
ARM GAS  C:\Users\THUNDE~1\AppData\Local\Temp\cc3zEZMe.s 			page 15


 322:..\Source\portable\GCC\ARM_CM3/port.c **** 		{
 323:..\Source\portable\GCC\ARM_CM3/port.c **** 			ulMaxPRIGROUPValue--;
 324:..\Source\portable\GCC\ARM_CM3/port.c **** 			ucMaxPriorityValue <<= ( uint8_t ) 0x01;
 325:..\Source\portable\GCC\ARM_CM3/port.c **** 		}
 326:..\Source\portable\GCC\ARM_CM3/port.c **** 
 327:..\Source\portable\GCC\ARM_CM3/port.c **** 		/* Shift the priority group value back to its position within the AIRCR
 328:..\Source\portable\GCC\ARM_CM3/port.c **** 		register. */
 329:..\Source\portable\GCC\ARM_CM3/port.c **** 		ulMaxPRIGROUPValue <<= portPRIGROUP_SHIFT;
 330:..\Source\portable\GCC\ARM_CM3/port.c **** 		ulMaxPRIGROUPValue &= portPRIORITY_GROUP_MASK;
 331:..\Source\portable\GCC\ARM_CM3/port.c **** 
 332:..\Source\portable\GCC\ARM_CM3/port.c **** 		/* Restore the clobbered interrupt priority register to its original
 333:..\Source\portable\GCC\ARM_CM3/port.c **** 		value. */
 334:..\Source\portable\GCC\ARM_CM3/port.c **** 		*pucFirstUserPriorityRegister = ulOriginalPriority;
 335:..\Source\portable\GCC\ARM_CM3/port.c **** 	}
 336:..\Source\portable\GCC\ARM_CM3/port.c **** 	#endif /* conifgASSERT_DEFINED */
 337:..\Source\portable\GCC\ARM_CM3/port.c **** 
 338:..\Source\portable\GCC\ARM_CM3/port.c **** 	/* Make PendSV and SysTick the lowest priority interrupts. */
 339:..\Source\portable\GCC\ARM_CM3/port.c **** 	portNVIC_SYSPRI2_REG |= portNVIC_PENDSV_PRI;
 241              		.loc 1 339 0
 242 0004 0B4A     		ldr	r2, .L11
 243 0006 0B4B     		ldr	r3, .L11
 244 0008 1B68     		ldr	r3, [r3]
 245 000a 43F46003 		orr	r3, r3, #14680064
 246 000e 1360     		str	r3, [r2]
 340:..\Source\portable\GCC\ARM_CM3/port.c **** 	portNVIC_SYSPRI2_REG |= portNVIC_SYSTICK_PRI;
 247              		.loc 1 340 0
 248 0010 084A     		ldr	r2, .L11
 249 0012 084B     		ldr	r3, .L11
 250 0014 1B68     		ldr	r3, [r3]
 251 0016 43F06043 		orr	r3, r3, #-536870912
 252 001a 1360     		str	r3, [r2]
 341:..\Source\portable\GCC\ARM_CM3/port.c **** 
 342:..\Source\portable\GCC\ARM_CM3/port.c **** 	/* Start the timer that generates the tick ISR.  Interrupts are disabled
 343:..\Source\portable\GCC\ARM_CM3/port.c **** 	here already. */
 344:..\Source\portable\GCC\ARM_CM3/port.c **** 	vPortSetupTimerInterrupt();
 253              		.loc 1 344 0
 254 001c FFF7FEFF 		bl	vPortSetupTimerInterrupt
 345:..\Source\portable\GCC\ARM_CM3/port.c **** 
 346:..\Source\portable\GCC\ARM_CM3/port.c **** 	/* Initialise the critical nesting count ready for the first task. */
 347:..\Source\portable\GCC\ARM_CM3/port.c **** 	uxCriticalNesting = 0;
 255              		.loc 1 347 0
 256 0020 054B     		ldr	r3, .L11+4
 257 0022 0022     		movs	r2, #0
 258 0024 1A60     		str	r2, [r3]
 348:..\Source\portable\GCC\ARM_CM3/port.c **** 
 349:..\Source\portable\GCC\ARM_CM3/port.c **** 	/* Start the first task. */
 350:..\Source\portable\GCC\ARM_CM3/port.c **** 	prvPortStartFirstTask();
 259              		.loc 1 350 0
 260 0026 FFF7FEFF 		bl	prvPortStartFirstTask
 351:..\Source\portable\GCC\ARM_CM3/port.c **** 
 352:..\Source\portable\GCC\ARM_CM3/port.c **** 	/* Should never get here as the tasks will now be executing!  Call the task
 353:..\Source\portable\GCC\ARM_CM3/port.c **** 	exit error function to prevent compiler warnings about a static function
 354:..\Source\portable\GCC\ARM_CM3/port.c **** 	not being called in the case that the application writer overrides this
 355:..\Source\portable\GCC\ARM_CM3/port.c **** 	functionality by defining configTASK_RETURN_ADDRESS. */
 356:..\Source\portable\GCC\ARM_CM3/port.c **** 	prvTaskExitError();
 261              		.loc 1 356 0
 262 002a FFF7FEFF 		bl	prvTaskExitError
ARM GAS  C:\Users\THUNDE~1\AppData\Local\Temp\cc3zEZMe.s 			page 16


 357:..\Source\portable\GCC\ARM_CM3/port.c **** 
 358:..\Source\portable\GCC\ARM_CM3/port.c **** 	/* Should not get here! */
 359:..\Source\portable\GCC\ARM_CM3/port.c **** 	return 0;
 263              		.loc 1 359 0
 264 002e 0023     		movs	r3, #0
 360:..\Source\portable\GCC\ARM_CM3/port.c **** }
 265              		.loc 1 360 0
 266 0030 1846     		mov	r0, r3
 267 0032 80BD     		pop	{r7, pc}
 268              	.L12:
 269              		.align	2
 270              	.L11:
 271 0034 20ED00E0 		.word	-536810208
 272 0038 00000000 		.word	uxCriticalNesting
 273              		.cfi_endproc
 274              	.LFE72:
 275              		.size	xPortStartScheduler, .-xPortStartScheduler
 276              		.section	.text.vPortEndScheduler,"ax",%progbits
 277              		.align	2
 278              		.global	vPortEndScheduler
 279              		.thumb
 280              		.thumb_func
 281              		.type	vPortEndScheduler, %function
 282              	vPortEndScheduler:
 283              	.LFB73:
 361:..\Source\portable\GCC\ARM_CM3/port.c **** /*-----------------------------------------------------------*/
 362:..\Source\portable\GCC\ARM_CM3/port.c **** 
 363:..\Source\portable\GCC\ARM_CM3/port.c **** void vPortEndScheduler( void )
 364:..\Source\portable\GCC\ARM_CM3/port.c **** {
 284              		.loc 1 364 0
 285              		.cfi_startproc
 286              		@ args = 0, pretend = 0, frame = 0
 287              		@ frame_needed = 1, uses_anonymous_args = 0
 288              		@ link register save eliminated.
 289 0000 80B4     		push	{r7}
 290              		.cfi_def_cfa_offset 4
 291              		.cfi_offset 7, -4
 292 0002 00AF     		add	r7, sp, #0
 293              		.cfi_def_cfa_register 7
 365:..\Source\portable\GCC\ARM_CM3/port.c **** 	/* Not implemented in ports where there is nothing to return to.
 366:..\Source\portable\GCC\ARM_CM3/port.c **** 	Artificially force an assert. */
 367:..\Source\portable\GCC\ARM_CM3/port.c **** 	configASSERT( uxCriticalNesting == 1000UL );
 368:..\Source\portable\GCC\ARM_CM3/port.c **** }
 294              		.loc 1 368 0
 295 0004 00BF     		nop
 296 0006 BD46     		mov	sp, r7
 297              		.cfi_def_cfa_register 13
 298              		@ sp needed
 299 0008 80BC     		pop	{r7}
 300              		.cfi_restore 7
 301              		.cfi_def_cfa_offset 0
 302 000a 7047     		bx	lr
 303              		.cfi_endproc
 304              	.LFE73:
 305              		.size	vPortEndScheduler, .-vPortEndScheduler
 306              		.section	.text.vPortEnterCritical,"ax",%progbits
 307              		.align	2
ARM GAS  C:\Users\THUNDE~1\AppData\Local\Temp\cc3zEZMe.s 			page 17


 308              		.global	vPortEnterCritical
 309              		.thumb
 310              		.thumb_func
 311              		.type	vPortEnterCritical, %function
 312              	vPortEnterCritical:
 313              	.LFB74:
 369:..\Source\portable\GCC\ARM_CM3/port.c **** /*-----------------------------------------------------------*/
 370:..\Source\portable\GCC\ARM_CM3/port.c **** 
 371:..\Source\portable\GCC\ARM_CM3/port.c **** void vPortEnterCritical( void )
 372:..\Source\portable\GCC\ARM_CM3/port.c **** {
 314              		.loc 1 372 0
 315              		.cfi_startproc
 316              		@ args = 0, pretend = 0, frame = 8
 317              		@ frame_needed = 1, uses_anonymous_args = 0
 318              		@ link register save eliminated.
 319 0000 80B4     		push	{r7}
 320              		.cfi_def_cfa_offset 4
 321              		.cfi_offset 7, -4
 322 0002 83B0     		sub	sp, sp, #12
 323              		.cfi_def_cfa_offset 16
 324 0004 00AF     		add	r7, sp, #0
 325              		.cfi_def_cfa_register 7
 326              	.LBB14:
 327              	.LBB15:
 328              		.loc 2 237 0
 329              		.syntax unified
 330              	@ 237 "..\Source\portable\GCC\ARM_CM3/portmacro.h" 1
 331 0006 4FF0A003 			mov r3, #160												
 332 000a 83F31188 		msr basepri, r3											
 333 000e BFF36F8F 		isb														
 334 0012 BFF34F8F 		dsb														
 335              	
 336              	@ 0 "" 2
 337              		.thumb
 338              		.syntax unified
 339 0016 7B60     		str	r3, [r7, #4]
 340              	.LBE15:
 341              	.LBE14:
 373:..\Source\portable\GCC\ARM_CM3/port.c **** 	portDISABLE_INTERRUPTS();
 374:..\Source\portable\GCC\ARM_CM3/port.c **** 	uxCriticalNesting++;
 342              		.loc 1 374 0
 343 0018 044B     		ldr	r3, .L15
 344 001a 1B68     		ldr	r3, [r3]
 345 001c 0133     		adds	r3, r3, #1
 346 001e 034A     		ldr	r2, .L15
 347 0020 1360     		str	r3, [r2]
 375:..\Source\portable\GCC\ARM_CM3/port.c **** 
 376:..\Source\portable\GCC\ARM_CM3/port.c **** 	/* This is not the interrupt safe version of the enter critical function so
 377:..\Source\portable\GCC\ARM_CM3/port.c **** 	assert() if it is being called from an interrupt context.  Only API
 378:..\Source\portable\GCC\ARM_CM3/port.c **** 	functions that end in "FromISR" can be used in an interrupt.  Only assert if
 379:..\Source\portable\GCC\ARM_CM3/port.c **** 	the critical nesting count is 1 to protect against recursive calls if the
 380:..\Source\portable\GCC\ARM_CM3/port.c **** 	assert function also uses a critical section. */
 381:..\Source\portable\GCC\ARM_CM3/port.c **** 	if( uxCriticalNesting == 1 )
 382:..\Source\portable\GCC\ARM_CM3/port.c **** 	{
 383:..\Source\portable\GCC\ARM_CM3/port.c **** 		configASSERT( ( portNVIC_INT_CTRL_REG & portVECTACTIVE_MASK ) == 0 );
 384:..\Source\portable\GCC\ARM_CM3/port.c **** 	}
 385:..\Source\portable\GCC\ARM_CM3/port.c **** }
ARM GAS  C:\Users\THUNDE~1\AppData\Local\Temp\cc3zEZMe.s 			page 18


 348              		.loc 1 385 0
 349 0022 00BF     		nop
 350 0024 0C37     		adds	r7, r7, #12
 351              		.cfi_def_cfa_offset 4
 352 0026 BD46     		mov	sp, r7
 353              		.cfi_def_cfa_register 13
 354              		@ sp needed
 355 0028 80BC     		pop	{r7}
 356              		.cfi_restore 7
 357              		.cfi_def_cfa_offset 0
 358 002a 7047     		bx	lr
 359              	.L16:
 360              		.align	2
 361              	.L15:
 362 002c 00000000 		.word	uxCriticalNesting
 363              		.cfi_endproc
 364              	.LFE74:
 365              		.size	vPortEnterCritical, .-vPortEnterCritical
 366              		.section	.text.vPortExitCritical,"ax",%progbits
 367              		.align	2
 368              		.global	vPortExitCritical
 369              		.thumb
 370              		.thumb_func
 371              		.type	vPortExitCritical, %function
 372              	vPortExitCritical:
 373              	.LFB75:
 386:..\Source\portable\GCC\ARM_CM3/port.c **** /*-----------------------------------------------------------*/
 387:..\Source\portable\GCC\ARM_CM3/port.c **** 
 388:..\Source\portable\GCC\ARM_CM3/port.c **** void vPortExitCritical( void )
 389:..\Source\portable\GCC\ARM_CM3/port.c **** {
 374              		.loc 1 389 0
 375              		.cfi_startproc
 376              		@ args = 0, pretend = 0, frame = 8
 377              		@ frame_needed = 1, uses_anonymous_args = 0
 378              		@ link register save eliminated.
 379 0000 80B4     		push	{r7}
 380              		.cfi_def_cfa_offset 4
 381              		.cfi_offset 7, -4
 382 0002 83B0     		sub	sp, sp, #12
 383              		.cfi_def_cfa_offset 16
 384 0004 00AF     		add	r7, sp, #0
 385              		.cfi_def_cfa_register 7
 390:..\Source\portable\GCC\ARM_CM3/port.c **** 	configASSERT( uxCriticalNesting );
 391:..\Source\portable\GCC\ARM_CM3/port.c **** 	uxCriticalNesting--;
 386              		.loc 1 391 0
 387 0006 094B     		ldr	r3, .L20
 388 0008 1B68     		ldr	r3, [r3]
 389 000a 013B     		subs	r3, r3, #1
 390 000c 074A     		ldr	r2, .L20
 391 000e 1360     		str	r3, [r2]
 392:..\Source\portable\GCC\ARM_CM3/port.c **** 	if( uxCriticalNesting == 0 )
 392              		.loc 1 392 0
 393 0010 064B     		ldr	r3, .L20
 394 0012 1B68     		ldr	r3, [r3]
 395 0014 002B     		cmp	r3, #0
 396 0016 04D1     		bne	.L19
 397 0018 0023     		movs	r3, #0
ARM GAS  C:\Users\THUNDE~1\AppData\Local\Temp\cc3zEZMe.s 			page 19


 398 001a 7B60     		str	r3, [r7, #4]
 399              	.LBB16:
 400              	.LBB17:
 238:..\Source\portable\GCC\ARM_CM3/portmacro.h **** 	(
 239:..\Source\portable\GCC\ARM_CM3/portmacro.h **** 		"	mov %0, %1												\n"	\
 240:..\Source\portable\GCC\ARM_CM3/portmacro.h **** 		"	msr basepri, %0											\n" \
 241:..\Source\portable\GCC\ARM_CM3/portmacro.h **** 		"	isb														\n" \
 242:..\Source\portable\GCC\ARM_CM3/portmacro.h **** 		"	dsb														\n" \
 243:..\Source\portable\GCC\ARM_CM3/portmacro.h **** 		:"=r" (ulNewBASEPRI) : "i" ( configMAX_SYSCALL_INTERRUPT_PRIORITY )
 244:..\Source\portable\GCC\ARM_CM3/portmacro.h **** 	);
 245:..\Source\portable\GCC\ARM_CM3/portmacro.h **** }
 246:..\Source\portable\GCC\ARM_CM3/portmacro.h **** 
 247:..\Source\portable\GCC\ARM_CM3/portmacro.h **** /*-----------------------------------------------------------*/
 248:..\Source\portable\GCC\ARM_CM3/portmacro.h **** 
 249:..\Source\portable\GCC\ARM_CM3/portmacro.h **** portFORCE_INLINE static uint32_t ulPortRaiseBASEPRI( void )
 250:..\Source\portable\GCC\ARM_CM3/portmacro.h **** {
 251:..\Source\portable\GCC\ARM_CM3/portmacro.h **** uint32_t ulOriginalBASEPRI, ulNewBASEPRI;
 252:..\Source\portable\GCC\ARM_CM3/portmacro.h **** 
 253:..\Source\portable\GCC\ARM_CM3/portmacro.h **** 	__asm volatile
 254:..\Source\portable\GCC\ARM_CM3/portmacro.h **** 	(
 255:..\Source\portable\GCC\ARM_CM3/portmacro.h **** 		"	mrs %0, basepri											\n" \
 256:..\Source\portable\GCC\ARM_CM3/portmacro.h **** 		"	mov %1, %2												\n"	\
 257:..\Source\portable\GCC\ARM_CM3/portmacro.h **** 		"	msr basepri, %1											\n" \
 258:..\Source\portable\GCC\ARM_CM3/portmacro.h **** 		"	isb														\n" \
 259:..\Source\portable\GCC\ARM_CM3/portmacro.h **** 		"	dsb														\n" \
 260:..\Source\portable\GCC\ARM_CM3/portmacro.h **** 		:"=r" (ulOriginalBASEPRI), "=r" (ulNewBASEPRI) : "i" ( configMAX_SYSCALL_INTERRUPT_PRIORITY )
 261:..\Source\portable\GCC\ARM_CM3/portmacro.h **** 	);
 262:..\Source\portable\GCC\ARM_CM3/portmacro.h **** 
 263:..\Source\portable\GCC\ARM_CM3/portmacro.h **** 	/* This return will not be reached but is necessary to prevent compiler
 264:..\Source\portable\GCC\ARM_CM3/portmacro.h **** 	warnings. */
 265:..\Source\portable\GCC\ARM_CM3/portmacro.h **** 	return ulOriginalBASEPRI;
 266:..\Source\portable\GCC\ARM_CM3/portmacro.h **** }
 267:..\Source\portable\GCC\ARM_CM3/portmacro.h **** /*-----------------------------------------------------------*/
 268:..\Source\portable\GCC\ARM_CM3/portmacro.h **** 
 269:..\Source\portable\GCC\ARM_CM3/portmacro.h **** portFORCE_INLINE static void vPortSetBASEPRI( uint32_t ulNewMaskValue )
 270:..\Source\portable\GCC\ARM_CM3/portmacro.h **** {
 271:..\Source\portable\GCC\ARM_CM3/portmacro.h **** 	__asm volatile
 401              		.loc 2 271 0
 402 001c 7B68     		ldr	r3, [r7, #4]
 403              		.syntax unified
 404              	@ 271 "..\Source\portable\GCC\ARM_CM3/portmacro.h" 1
 405 001e 83F31188 			msr basepri, r3	
 406              	@ 0 "" 2
 407              		.thumb
 408              		.syntax unified
 409              	.L19:
 410              	.LBE17:
 411              	.LBE16:
 393:..\Source\portable\GCC\ARM_CM3/port.c **** 	{
 394:..\Source\portable\GCC\ARM_CM3/port.c **** 		portENABLE_INTERRUPTS();
 395:..\Source\portable\GCC\ARM_CM3/port.c **** 	}
 396:..\Source\portable\GCC\ARM_CM3/port.c **** }
 412              		.loc 1 396 0
 413 0022 00BF     		nop
 414 0024 0C37     		adds	r7, r7, #12
 415              		.cfi_def_cfa_offset 4
 416 0026 BD46     		mov	sp, r7
ARM GAS  C:\Users\THUNDE~1\AppData\Local\Temp\cc3zEZMe.s 			page 20


 417              		.cfi_def_cfa_register 13
 418              		@ sp needed
 419 0028 80BC     		pop	{r7}
 420              		.cfi_restore 7
 421              		.cfi_def_cfa_offset 0
 422 002a 7047     		bx	lr
 423              	.L21:
 424              		.align	2
 425              	.L20:
 426 002c 00000000 		.word	uxCriticalNesting
 427              		.cfi_endproc
 428              	.LFE75:
 429              		.size	vPortExitCritical, .-vPortExitCritical
 430              		.section	.text.xPortPendSVHandler,"ax",%progbits
 431              		.align	2
 432              		.global	xPortPendSVHandler
 433              		.thumb
 434              		.thumb_func
 435              		.type	xPortPendSVHandler, %function
 436              	xPortPendSVHandler:
 437              	.LFB76:
 397:..\Source\portable\GCC\ARM_CM3/port.c **** /*-----------------------------------------------------------*/
 398:..\Source\portable\GCC\ARM_CM3/port.c **** 
 399:..\Source\portable\GCC\ARM_CM3/port.c **** void xPortPendSVHandler( void )
 400:..\Source\portable\GCC\ARM_CM3/port.c **** {
 438              		.loc 1 400 0
 439              		.cfi_startproc
 440              		@ Naked Function: prologue and epilogue provided by programmer.
 441              		@ args = 0, pretend = 0, frame = 0
 442              		@ frame_needed = 1, uses_anonymous_args = 0
 401:..\Source\portable\GCC\ARM_CM3/port.c **** 	/* This is a naked function. */
 402:..\Source\portable\GCC\ARM_CM3/port.c **** 
 403:..\Source\portable\GCC\ARM_CM3/port.c **** 	__asm volatile
 443              		.loc 1 403 0
 444              		.syntax unified
 445              	@ 403 "..\Source\portable\GCC\ARM_CM3\port.c" 1
 446 0000 EFF30980 			mrs r0, psp							
 447 0004 BFF36F8F 		isb									
 448              											
 449 0008 0D4B     		ldr	r3, pxCurrentTCBConst			
 450 000a 1A68     		ldr	r2, [r3]						
 451              											
 452 000c 20E9F00F 		stmdb r0!, {r4-r11}					
 453 0010 1060     		str r0, [r2]						
 454              											
 455 0012 2DE90840 		stmdb sp!, {r3, r14}				
 456 0016 4FF0A000 		mov r0, #160							
 457 001a 80F31188 		msr basepri, r0						
 458 001e FFF7FEFF 		bl vTaskSwitchContext				
 459 0022 4FF00000 		mov r0, #0							
 460 0026 80F31188 		msr basepri, r0						
 461 002a BDE80840 		ldmia sp!, {r3, r14}				
 462              											
 463 002e 1968     		ldr r1, [r3]						
 464 0030 0868     		ldr r0, [r1]						
 465 0032 B0E8F00F 		ldmia r0!, {r4-r11}					
 466 0036 80F30988 		msr psp, r0							
ARM GAS  C:\Users\THUNDE~1\AppData\Local\Temp\cc3zEZMe.s 			page 21


 467 003a BFF36F8F 		isb									
 468 003e 7047     		bx r14								
 469              											
 470              		.align 4							
 471 0040 00000000 	pxCurrentTCBConst: .word pxCurrentTCB	
 472              	
 473              	@ 0 "" 2
 404:..\Source\portable\GCC\ARM_CM3/port.c **** 	(
 405:..\Source\portable\GCC\ARM_CM3/port.c **** 	"	mrs r0, psp							\n"
 406:..\Source\portable\GCC\ARM_CM3/port.c **** 	"	isb									\n"
 407:..\Source\portable\GCC\ARM_CM3/port.c **** 	"										\n"
 408:..\Source\portable\GCC\ARM_CM3/port.c **** 	"	ldr	r3, pxCurrentTCBConst			\n" /* Get the location of the current TCB. */
 409:..\Source\portable\GCC\ARM_CM3/port.c **** 	"	ldr	r2, [r3]						\n"
 410:..\Source\portable\GCC\ARM_CM3/port.c **** 	"										\n"
 411:..\Source\portable\GCC\ARM_CM3/port.c **** 	"	stmdb r0!, {r4-r11}					\n" /* Save the remaining registers. */
 412:..\Source\portable\GCC\ARM_CM3/port.c **** 	"	str r0, [r2]						\n" /* Save the new top of stack into the first member of the TCB. */
 413:..\Source\portable\GCC\ARM_CM3/port.c **** 	"										\n"
 414:..\Source\portable\GCC\ARM_CM3/port.c **** 	"	stmdb sp!, {r3, r14}				\n"
 415:..\Source\portable\GCC\ARM_CM3/port.c **** 	"	mov r0, %0							\n"
 416:..\Source\portable\GCC\ARM_CM3/port.c **** 	"	msr basepri, r0						\n"
 417:..\Source\portable\GCC\ARM_CM3/port.c **** 	"	bl vTaskSwitchContext				\n"
 418:..\Source\portable\GCC\ARM_CM3/port.c **** 	"	mov r0, #0							\n"
 419:..\Source\portable\GCC\ARM_CM3/port.c **** 	"	msr basepri, r0						\n"
 420:..\Source\portable\GCC\ARM_CM3/port.c **** 	"	ldmia sp!, {r3, r14}				\n"
 421:..\Source\portable\GCC\ARM_CM3/port.c **** 	"										\n"	/* Restore the context, including the critical nesting count. */
 422:..\Source\portable\GCC\ARM_CM3/port.c **** 	"	ldr r1, [r3]						\n"
 423:..\Source\portable\GCC\ARM_CM3/port.c **** 	"	ldr r0, [r1]						\n" /* The first item in pxCurrentTCB is the task top of stack. */
 424:..\Source\portable\GCC\ARM_CM3/port.c **** 	"	ldmia r0!, {r4-r11}					\n" /* Pop the registers. */
 425:..\Source\portable\GCC\ARM_CM3/port.c **** 	"	msr psp, r0							\n"
 426:..\Source\portable\GCC\ARM_CM3/port.c **** 	"	isb									\n"
 427:..\Source\portable\GCC\ARM_CM3/port.c **** 	"	bx r14								\n"
 428:..\Source\portable\GCC\ARM_CM3/port.c **** 	"										\n"
 429:..\Source\portable\GCC\ARM_CM3/port.c **** 	"	.align 4							\n"
 430:..\Source\portable\GCC\ARM_CM3/port.c **** 	"pxCurrentTCBConst: .word pxCurrentTCB	\n"
 431:..\Source\portable\GCC\ARM_CM3/port.c **** 	::"i"(configMAX_SYSCALL_INTERRUPT_PRIORITY)
 432:..\Source\portable\GCC\ARM_CM3/port.c **** 	);
 433:..\Source\portable\GCC\ARM_CM3/port.c **** }
 474              		.loc 1 433 0
 475              		.thumb
 476              		.syntax unified
 477 0044 00BF     		nop
 478              		.cfi_endproc
 479              	.LFE76:
 480              		.size	xPortPendSVHandler, .-xPortPendSVHandler
 481 0046 00BF     		.section	.text.xPortSysTickHandler,"ax",%progbits
 482              		.align	2
 483              		.global	xPortSysTickHandler
 484              		.thumb
 485              		.thumb_func
 486              		.type	xPortSysTickHandler, %function
 487              	xPortSysTickHandler:
 488              	.LFB77:
 434:..\Source\portable\GCC\ARM_CM3/port.c **** /*-----------------------------------------------------------*/
 435:..\Source\portable\GCC\ARM_CM3/port.c **** 
 436:..\Source\portable\GCC\ARM_CM3/port.c **** void xPortSysTickHandler( void )
 437:..\Source\portable\GCC\ARM_CM3/port.c **** {
 489              		.loc 1 437 0
ARM GAS  C:\Users\THUNDE~1\AppData\Local\Temp\cc3zEZMe.s 			page 22


 490              		.cfi_startproc
 491              		@ args = 0, pretend = 0, frame = 8
 492              		@ frame_needed = 1, uses_anonymous_args = 0
 493 0000 80B5     		push	{r7, lr}
 494              		.cfi_def_cfa_offset 8
 495              		.cfi_offset 7, -8
 496              		.cfi_offset 14, -4
 497 0002 82B0     		sub	sp, sp, #8
 498              		.cfi_def_cfa_offset 16
 499 0004 00AF     		add	r7, sp, #0
 500              		.cfi_def_cfa_register 7
 501              	.LBB18:
 502              	.LBB19:
 237:..\Source\portable\GCC\ARM_CM3/portmacro.h **** 	(
 503              		.loc 2 237 0
 504              		.syntax unified
 505              	@ 237 "..\Source\portable\GCC\ARM_CM3/portmacro.h" 1
 506 0006 4FF0A003 			mov r3, #160												
 507 000a 83F31188 		msr basepri, r3											
 508 000e BFF36F8F 		isb														
 509 0012 BFF34F8F 		dsb														
 510              	
 511              	@ 0 "" 2
 512              		.thumb
 513              		.syntax unified
 514 0016 3B60     		str	r3, [r7]
 515              	.LBE19:
 516              	.LBE18:
 438:..\Source\portable\GCC\ARM_CM3/port.c **** 	/* The SysTick runs at the lowest interrupt priority, so when this interrupt
 439:..\Source\portable\GCC\ARM_CM3/port.c **** 	executes all interrupts must be unmasked.  There is therefore no need to
 440:..\Source\portable\GCC\ARM_CM3/port.c **** 	save and then restore the interrupt mask value as its value is already
 441:..\Source\portable\GCC\ARM_CM3/port.c **** 	known. */
 442:..\Source\portable\GCC\ARM_CM3/port.c **** 	portDISABLE_INTERRUPTS();
 443:..\Source\portable\GCC\ARM_CM3/port.c **** 	{
 444:..\Source\portable\GCC\ARM_CM3/port.c **** 		/* Increment the RTOS tick. */
 445:..\Source\portable\GCC\ARM_CM3/port.c **** 		if( xTaskIncrementTick() != pdFALSE )
 517              		.loc 1 445 0
 518 0018 FFF7FEFF 		bl	xTaskIncrementTick
 519 001c 0346     		mov	r3, r0
 520 001e 002B     		cmp	r3, #0
 521 0020 03D0     		beq	.L24
 446:..\Source\portable\GCC\ARM_CM3/port.c **** 		{
 447:..\Source\portable\GCC\ARM_CM3/port.c **** 			/* A context switch is required.  Context switching is performed in
 448:..\Source\portable\GCC\ARM_CM3/port.c **** 			the PendSV interrupt.  Pend the PendSV interrupt. */
 449:..\Source\portable\GCC\ARM_CM3/port.c **** 			portNVIC_INT_CTRL_REG = portNVIC_PENDSVSET_BIT;
 522              		.loc 1 449 0
 523 0022 064B     		ldr	r3, .L25
 524 0024 4FF08052 		mov	r2, #268435456
 525 0028 1A60     		str	r2, [r3]
 526              	.L24:
 527 002a 0023     		movs	r3, #0
 528 002c 7B60     		str	r3, [r7, #4]
 529              	.LBB20:
 530              	.LBB21:
 531              		.loc 2 271 0
 532 002e 7B68     		ldr	r3, [r7, #4]
 533              		.syntax unified
ARM GAS  C:\Users\THUNDE~1\AppData\Local\Temp\cc3zEZMe.s 			page 23


 534              	@ 271 "..\Source\portable\GCC\ARM_CM3/portmacro.h" 1
 535 0030 83F31188 			msr basepri, r3	
 536              	@ 0 "" 2
 537              		.thumb
 538              		.syntax unified
 539              	.LBE21:
 540              	.LBE20:
 450:..\Source\portable\GCC\ARM_CM3/port.c **** 		}
 451:..\Source\portable\GCC\ARM_CM3/port.c **** 	}
 452:..\Source\portable\GCC\ARM_CM3/port.c **** 	portENABLE_INTERRUPTS();
 453:..\Source\portable\GCC\ARM_CM3/port.c **** }
 541              		.loc 1 453 0
 542 0034 00BF     		nop
 543 0036 0837     		adds	r7, r7, #8
 544              		.cfi_def_cfa_offset 8
 545 0038 BD46     		mov	sp, r7
 546              		.cfi_def_cfa_register 13
 547              		@ sp needed
 548 003a 80BD     		pop	{r7, pc}
 549              	.L26:
 550              		.align	2
 551              	.L25:
 552 003c 04ED00E0 		.word	-536810236
 553              		.cfi_endproc
 554              	.LFE77:
 555              		.size	xPortSysTickHandler, .-xPortSysTickHandler
 556              		.section	.text.vPortSetupTimerInterrupt,"ax",%progbits
 557              		.align	2
 558              		.weak	vPortSetupTimerInterrupt
 559              		.thumb
 560              		.thumb_func
 561              		.type	vPortSetupTimerInterrupt, %function
 562              	vPortSetupTimerInterrupt:
 563              	.LFB78:
 454:..\Source\portable\GCC\ARM_CM3/port.c **** /*-----------------------------------------------------------*/
 455:..\Source\portable\GCC\ARM_CM3/port.c **** 
 456:..\Source\portable\GCC\ARM_CM3/port.c **** #if configUSE_TICKLESS_IDLE == 1
 457:..\Source\portable\GCC\ARM_CM3/port.c **** 
 458:..\Source\portable\GCC\ARM_CM3/port.c **** 	__attribute__((weak)) void vPortSuppressTicksAndSleep( TickType_t xExpectedIdleTime )
 459:..\Source\portable\GCC\ARM_CM3/port.c **** 	{
 460:..\Source\portable\GCC\ARM_CM3/port.c **** 	uint32_t ulReloadValue, ulCompleteTickPeriods, ulCompletedSysTickDecrements, ulSysTickCTRL;
 461:..\Source\portable\GCC\ARM_CM3/port.c **** 	TickType_t xModifiableIdleTime;
 462:..\Source\portable\GCC\ARM_CM3/port.c **** 
 463:..\Source\portable\GCC\ARM_CM3/port.c **** 		/* Make sure the SysTick reload value does not overflow the counter. */
 464:..\Source\portable\GCC\ARM_CM3/port.c **** 		if( xExpectedIdleTime > xMaximumPossibleSuppressedTicks )
 465:..\Source\portable\GCC\ARM_CM3/port.c **** 		{
 466:..\Source\portable\GCC\ARM_CM3/port.c **** 			xExpectedIdleTime = xMaximumPossibleSuppressedTicks;
 467:..\Source\portable\GCC\ARM_CM3/port.c **** 		}
 468:..\Source\portable\GCC\ARM_CM3/port.c **** 
 469:..\Source\portable\GCC\ARM_CM3/port.c **** 		/* Stop the SysTick momentarily.  The time the SysTick is stopped for
 470:..\Source\portable\GCC\ARM_CM3/port.c **** 		is accounted for as best it can be, but using the tickless mode will
 471:..\Source\portable\GCC\ARM_CM3/port.c **** 		inevitably result in some tiny drift of the time maintained by the
 472:..\Source\portable\GCC\ARM_CM3/port.c **** 		kernel with respect to calendar time. */
 473:..\Source\portable\GCC\ARM_CM3/port.c **** 		portNVIC_SYSTICK_CTRL_REG &= ~portNVIC_SYSTICK_ENABLE_BIT;
 474:..\Source\portable\GCC\ARM_CM3/port.c **** 
 475:..\Source\portable\GCC\ARM_CM3/port.c **** 		/* Calculate the reload value required to wait xExpectedIdleTime
 476:..\Source\portable\GCC\ARM_CM3/port.c **** 		tick periods.  -1 is used because this code will execute part way
ARM GAS  C:\Users\THUNDE~1\AppData\Local\Temp\cc3zEZMe.s 			page 24


 477:..\Source\portable\GCC\ARM_CM3/port.c **** 		through one of the tick periods. */
 478:..\Source\portable\GCC\ARM_CM3/port.c **** 		ulReloadValue = portNVIC_SYSTICK_CURRENT_VALUE_REG + ( ulTimerCountsForOneTick * ( xExpectedIdleT
 479:..\Source\portable\GCC\ARM_CM3/port.c **** 		if( ulReloadValue > ulStoppedTimerCompensation )
 480:..\Source\portable\GCC\ARM_CM3/port.c **** 		{
 481:..\Source\portable\GCC\ARM_CM3/port.c **** 			ulReloadValue -= ulStoppedTimerCompensation;
 482:..\Source\portable\GCC\ARM_CM3/port.c **** 		}
 483:..\Source\portable\GCC\ARM_CM3/port.c **** 
 484:..\Source\portable\GCC\ARM_CM3/port.c **** 		/* Enter a critical section but don't use the taskENTER_CRITICAL()
 485:..\Source\portable\GCC\ARM_CM3/port.c **** 		method as that will mask interrupts that should exit sleep mode. */
 486:..\Source\portable\GCC\ARM_CM3/port.c **** 		__asm volatile( "cpsid i" );
 487:..\Source\portable\GCC\ARM_CM3/port.c **** 		__asm volatile( "dsb" );
 488:..\Source\portable\GCC\ARM_CM3/port.c **** 		__asm volatile( "isb" );
 489:..\Source\portable\GCC\ARM_CM3/port.c **** 
 490:..\Source\portable\GCC\ARM_CM3/port.c **** 		/* If a context switch is pending or a task is waiting for the scheduler
 491:..\Source\portable\GCC\ARM_CM3/port.c **** 		to be unsuspended then abandon the low power entry. */
 492:..\Source\portable\GCC\ARM_CM3/port.c **** 		if( eTaskConfirmSleepModeStatus() == eAbortSleep )
 493:..\Source\portable\GCC\ARM_CM3/port.c **** 		{
 494:..\Source\portable\GCC\ARM_CM3/port.c **** 			/* Restart from whatever is left in the count register to complete
 495:..\Source\portable\GCC\ARM_CM3/port.c **** 			this tick period. */
 496:..\Source\portable\GCC\ARM_CM3/port.c **** 			portNVIC_SYSTICK_LOAD_REG = portNVIC_SYSTICK_CURRENT_VALUE_REG;
 497:..\Source\portable\GCC\ARM_CM3/port.c **** 
 498:..\Source\portable\GCC\ARM_CM3/port.c **** 			/* Restart SysTick. */
 499:..\Source\portable\GCC\ARM_CM3/port.c **** 			portNVIC_SYSTICK_CTRL_REG |= portNVIC_SYSTICK_ENABLE_BIT;
 500:..\Source\portable\GCC\ARM_CM3/port.c **** 
 501:..\Source\portable\GCC\ARM_CM3/port.c **** 			/* Reset the reload register to the value required for normal tick
 502:..\Source\portable\GCC\ARM_CM3/port.c **** 			periods. */
 503:..\Source\portable\GCC\ARM_CM3/port.c **** 			portNVIC_SYSTICK_LOAD_REG = ulTimerCountsForOneTick - 1UL;
 504:..\Source\portable\GCC\ARM_CM3/port.c **** 
 505:..\Source\portable\GCC\ARM_CM3/port.c **** 			/* Re-enable interrupts - see comments above the cpsid instruction()
 506:..\Source\portable\GCC\ARM_CM3/port.c **** 			above. */
 507:..\Source\portable\GCC\ARM_CM3/port.c **** 			__asm volatile( "cpsie i" );
 508:..\Source\portable\GCC\ARM_CM3/port.c **** 		}
 509:..\Source\portable\GCC\ARM_CM3/port.c **** 		else
 510:..\Source\portable\GCC\ARM_CM3/port.c **** 		{
 511:..\Source\portable\GCC\ARM_CM3/port.c **** 			/* Set the new reload value. */
 512:..\Source\portable\GCC\ARM_CM3/port.c **** 			portNVIC_SYSTICK_LOAD_REG = ulReloadValue;
 513:..\Source\portable\GCC\ARM_CM3/port.c **** 
 514:..\Source\portable\GCC\ARM_CM3/port.c **** 			/* Clear the SysTick count flag and set the count value back to
 515:..\Source\portable\GCC\ARM_CM3/port.c **** 			zero. */
 516:..\Source\portable\GCC\ARM_CM3/port.c **** 			portNVIC_SYSTICK_CURRENT_VALUE_REG = 0UL;
 517:..\Source\portable\GCC\ARM_CM3/port.c **** 
 518:..\Source\portable\GCC\ARM_CM3/port.c **** 			/* Restart SysTick. */
 519:..\Source\portable\GCC\ARM_CM3/port.c **** 			portNVIC_SYSTICK_CTRL_REG |= portNVIC_SYSTICK_ENABLE_BIT;
 520:..\Source\portable\GCC\ARM_CM3/port.c **** 
 521:..\Source\portable\GCC\ARM_CM3/port.c **** 			/* Sleep until something happens.  configPRE_SLEEP_PROCESSING() can
 522:..\Source\portable\GCC\ARM_CM3/port.c **** 			set its parameter to 0 to indicate that its implementation contains
 523:..\Source\portable\GCC\ARM_CM3/port.c **** 			its own wait for interrupt or wait for event instruction, and so wfi
 524:..\Source\portable\GCC\ARM_CM3/port.c **** 			should not be executed again.  However, the original expected idle
 525:..\Source\portable\GCC\ARM_CM3/port.c **** 			time variable must remain unmodified, so a copy is taken. */
 526:..\Source\portable\GCC\ARM_CM3/port.c **** 			xModifiableIdleTime = xExpectedIdleTime;
 527:..\Source\portable\GCC\ARM_CM3/port.c **** 			configPRE_SLEEP_PROCESSING( xModifiableIdleTime );
 528:..\Source\portable\GCC\ARM_CM3/port.c **** 			if( xModifiableIdleTime > 0 )
 529:..\Source\portable\GCC\ARM_CM3/port.c **** 			{
 530:..\Source\portable\GCC\ARM_CM3/port.c **** 				__asm volatile( "dsb" );
 531:..\Source\portable\GCC\ARM_CM3/port.c **** 				__asm volatile( "wfi" );
 532:..\Source\portable\GCC\ARM_CM3/port.c **** 				__asm volatile( "isb" );
 533:..\Source\portable\GCC\ARM_CM3/port.c **** 			}
ARM GAS  C:\Users\THUNDE~1\AppData\Local\Temp\cc3zEZMe.s 			page 25


 534:..\Source\portable\GCC\ARM_CM3/port.c **** 			configPOST_SLEEP_PROCESSING( xExpectedIdleTime );
 535:..\Source\portable\GCC\ARM_CM3/port.c **** 
 536:..\Source\portable\GCC\ARM_CM3/port.c **** 			/* Stop SysTick.  Again, the time the SysTick is stopped for is
 537:..\Source\portable\GCC\ARM_CM3/port.c **** 			accounted for as best it can be, but using the tickless mode will
 538:..\Source\portable\GCC\ARM_CM3/port.c **** 			inevitably result in some tiny drift of the time maintained by the
 539:..\Source\portable\GCC\ARM_CM3/port.c **** 			kernel with respect to calendar time. */
 540:..\Source\portable\GCC\ARM_CM3/port.c **** 			ulSysTickCTRL = portNVIC_SYSTICK_CTRL_REG;
 541:..\Source\portable\GCC\ARM_CM3/port.c **** 			portNVIC_SYSTICK_CTRL_REG = ( ulSysTickCTRL & ~portNVIC_SYSTICK_ENABLE_BIT );
 542:..\Source\portable\GCC\ARM_CM3/port.c **** 
 543:..\Source\portable\GCC\ARM_CM3/port.c **** 			/* Re-enable interrupts - see comments above the cpsid instruction()
 544:..\Source\portable\GCC\ARM_CM3/port.c **** 			above. */
 545:..\Source\portable\GCC\ARM_CM3/port.c **** 			__asm volatile( "cpsie i" );
 546:..\Source\portable\GCC\ARM_CM3/port.c **** 
 547:..\Source\portable\GCC\ARM_CM3/port.c **** 			if( ( ulSysTickCTRL & portNVIC_SYSTICK_COUNT_FLAG_BIT ) != 0 )
 548:..\Source\portable\GCC\ARM_CM3/port.c **** 			{
 549:..\Source\portable\GCC\ARM_CM3/port.c **** 				uint32_t ulCalculatedLoadValue;
 550:..\Source\portable\GCC\ARM_CM3/port.c **** 
 551:..\Source\portable\GCC\ARM_CM3/port.c **** 				/* The tick interrupt has already executed, and the SysTick
 552:..\Source\portable\GCC\ARM_CM3/port.c **** 				count reloaded with ulReloadValue.  Reset the
 553:..\Source\portable\GCC\ARM_CM3/port.c **** 				portNVIC_SYSTICK_LOAD_REG with whatever remains of this tick
 554:..\Source\portable\GCC\ARM_CM3/port.c **** 				period. */
 555:..\Source\portable\GCC\ARM_CM3/port.c **** 				ulCalculatedLoadValue = ( ulTimerCountsForOneTick - 1UL ) - ( ulReloadValue - portNVIC_SYSTICK_
 556:..\Source\portable\GCC\ARM_CM3/port.c **** 
 557:..\Source\portable\GCC\ARM_CM3/port.c **** 				/* Don't allow a tiny value, or values that have somehow
 558:..\Source\portable\GCC\ARM_CM3/port.c **** 				underflowed because the post sleep hook did something
 559:..\Source\portable\GCC\ARM_CM3/port.c **** 				that took too long. */
 560:..\Source\portable\GCC\ARM_CM3/port.c **** 				if( ( ulCalculatedLoadValue < ulStoppedTimerCompensation ) || ( ulCalculatedLoadValue > ulTimer
 561:..\Source\portable\GCC\ARM_CM3/port.c **** 				{
 562:..\Source\portable\GCC\ARM_CM3/port.c **** 					ulCalculatedLoadValue = ( ulTimerCountsForOneTick - 1UL );
 563:..\Source\portable\GCC\ARM_CM3/port.c **** 				}
 564:..\Source\portable\GCC\ARM_CM3/port.c **** 
 565:..\Source\portable\GCC\ARM_CM3/port.c **** 				portNVIC_SYSTICK_LOAD_REG = ulCalculatedLoadValue;
 566:..\Source\portable\GCC\ARM_CM3/port.c **** 
 567:..\Source\portable\GCC\ARM_CM3/port.c **** 				/* The tick interrupt handler will already have pended the tick
 568:..\Source\portable\GCC\ARM_CM3/port.c **** 				processing in the kernel.  As the pending tick will be
 569:..\Source\portable\GCC\ARM_CM3/port.c **** 				processed as soon as this function exits, the tick value
 570:..\Source\portable\GCC\ARM_CM3/port.c **** 				maintained by the tick is stepped forward by one less than the
 571:..\Source\portable\GCC\ARM_CM3/port.c **** 				time spent waiting. */
 572:..\Source\portable\GCC\ARM_CM3/port.c **** 				ulCompleteTickPeriods = xExpectedIdleTime - 1UL;
 573:..\Source\portable\GCC\ARM_CM3/port.c **** 			}
 574:..\Source\portable\GCC\ARM_CM3/port.c **** 			else
 575:..\Source\portable\GCC\ARM_CM3/port.c **** 			{
 576:..\Source\portable\GCC\ARM_CM3/port.c **** 				/* Something other than the tick interrupt ended the sleep.
 577:..\Source\portable\GCC\ARM_CM3/port.c **** 				Work out how long the sleep lasted rounded to complete tick
 578:..\Source\portable\GCC\ARM_CM3/port.c **** 				periods (not the ulReload value which accounted for part
 579:..\Source\portable\GCC\ARM_CM3/port.c **** 				ticks). */
 580:..\Source\portable\GCC\ARM_CM3/port.c **** 				ulCompletedSysTickDecrements = ( xExpectedIdleTime * ulTimerCountsForOneTick ) - portNVIC_SYSTI
 581:..\Source\portable\GCC\ARM_CM3/port.c **** 
 582:..\Source\portable\GCC\ARM_CM3/port.c **** 				/* How many complete tick periods passed while the processor
 583:..\Source\portable\GCC\ARM_CM3/port.c **** 				was waiting? */
 584:..\Source\portable\GCC\ARM_CM3/port.c **** 				ulCompleteTickPeriods = ulCompletedSysTickDecrements / ulTimerCountsForOneTick;
 585:..\Source\portable\GCC\ARM_CM3/port.c **** 
 586:..\Source\portable\GCC\ARM_CM3/port.c **** 				/* The reload value is set to whatever fraction of a single tick
 587:..\Source\portable\GCC\ARM_CM3/port.c **** 				period remains. */
 588:..\Source\portable\GCC\ARM_CM3/port.c **** 				portNVIC_SYSTICK_LOAD_REG = ( ( ulCompleteTickPeriods + 1UL ) * ulTimerCountsForOneTick ) - ulC
 589:..\Source\portable\GCC\ARM_CM3/port.c **** 			}
 590:..\Source\portable\GCC\ARM_CM3/port.c **** 
ARM GAS  C:\Users\THUNDE~1\AppData\Local\Temp\cc3zEZMe.s 			page 26


 591:..\Source\portable\GCC\ARM_CM3/port.c **** 			/* Restart SysTick so it runs from portNVIC_SYSTICK_LOAD_REG
 592:..\Source\portable\GCC\ARM_CM3/port.c **** 			again, then set portNVIC_SYSTICK_LOAD_REG back to its standard
 593:..\Source\portable\GCC\ARM_CM3/port.c **** 			value.  The critical section is used to ensure the tick interrupt
 594:..\Source\portable\GCC\ARM_CM3/port.c **** 			can only execute once in the case that the reload register is near
 595:..\Source\portable\GCC\ARM_CM3/port.c **** 			zero. */
 596:..\Source\portable\GCC\ARM_CM3/port.c **** 			portNVIC_SYSTICK_CURRENT_VALUE_REG = 0UL;
 597:..\Source\portable\GCC\ARM_CM3/port.c **** 			portENTER_CRITICAL();
 598:..\Source\portable\GCC\ARM_CM3/port.c **** 			{
 599:..\Source\portable\GCC\ARM_CM3/port.c **** 				portNVIC_SYSTICK_CTRL_REG |= portNVIC_SYSTICK_ENABLE_BIT;
 600:..\Source\portable\GCC\ARM_CM3/port.c **** 				vTaskStepTick( ulCompleteTickPeriods );
 601:..\Source\portable\GCC\ARM_CM3/port.c **** 				portNVIC_SYSTICK_LOAD_REG = ulTimerCountsForOneTick - 1UL;
 602:..\Source\portable\GCC\ARM_CM3/port.c **** 			}
 603:..\Source\portable\GCC\ARM_CM3/port.c **** 			portEXIT_CRITICAL();
 604:..\Source\portable\GCC\ARM_CM3/port.c **** 		}
 605:..\Source\portable\GCC\ARM_CM3/port.c **** 	}
 606:..\Source\portable\GCC\ARM_CM3/port.c **** 
 607:..\Source\portable\GCC\ARM_CM3/port.c **** #endif /* #if configUSE_TICKLESS_IDLE */
 608:..\Source\portable\GCC\ARM_CM3/port.c **** /*-----------------------------------------------------------*/
 609:..\Source\portable\GCC\ARM_CM3/port.c **** 
 610:..\Source\portable\GCC\ARM_CM3/port.c **** /*
 611:..\Source\portable\GCC\ARM_CM3/port.c ****  * Setup the systick timer to generate the tick interrupts at the required
 612:..\Source\portable\GCC\ARM_CM3/port.c ****  * frequency.
 613:..\Source\portable\GCC\ARM_CM3/port.c ****  */
 614:..\Source\portable\GCC\ARM_CM3/port.c **** __attribute__(( weak )) void vPortSetupTimerInterrupt( void )
 615:..\Source\portable\GCC\ARM_CM3/port.c **** {
 564              		.loc 1 615 0
 565              		.cfi_startproc
 566              		@ args = 0, pretend = 0, frame = 0
 567              		@ frame_needed = 1, uses_anonymous_args = 0
 568              		@ link register save eliminated.
 569 0000 80B4     		push	{r7}
 570              		.cfi_def_cfa_offset 4
 571              		.cfi_offset 7, -4
 572 0002 00AF     		add	r7, sp, #0
 573              		.cfi_def_cfa_register 7
 616:..\Source\portable\GCC\ARM_CM3/port.c **** 	/* Calculate the constants required to configure the tick interrupt. */
 617:..\Source\portable\GCC\ARM_CM3/port.c **** 	#if configUSE_TICKLESS_IDLE == 1
 618:..\Source\portable\GCC\ARM_CM3/port.c **** 	{
 619:..\Source\portable\GCC\ARM_CM3/port.c **** 		ulTimerCountsForOneTick = ( configSYSTICK_CLOCK_HZ / configTICK_RATE_HZ );
 620:..\Source\portable\GCC\ARM_CM3/port.c **** 		xMaximumPossibleSuppressedTicks = portMAX_24_BIT_NUMBER / ulTimerCountsForOneTick;
 621:..\Source\portable\GCC\ARM_CM3/port.c **** 		ulStoppedTimerCompensation = portMISSED_COUNTS_FACTOR / ( configCPU_CLOCK_HZ / configSYSTICK_CLOC
 622:..\Source\portable\GCC\ARM_CM3/port.c **** 	}
 623:..\Source\portable\GCC\ARM_CM3/port.c **** 	#endif /* configUSE_TICKLESS_IDLE */
 624:..\Source\portable\GCC\ARM_CM3/port.c **** 
 625:..\Source\portable\GCC\ARM_CM3/port.c **** 	/* Configure SysTick to interrupt at the requested rate. */
 626:..\Source\portable\GCC\ARM_CM3/port.c **** 	portNVIC_SYSTICK_LOAD_REG = ( configSYSTICK_CLOCK_HZ / configTICK_RATE_HZ ) - 1UL;
 574              		.loc 1 626 0
 575 0004 044B     		ldr	r3, .L28
 576 0006 054A     		ldr	r2, .L28+4
 577 0008 1A60     		str	r2, [r3]
 627:..\Source\portable\GCC\ARM_CM3/port.c **** 	portNVIC_SYSTICK_CTRL_REG = ( portNVIC_SYSTICK_CLK_BIT | portNVIC_SYSTICK_INT_BIT | portNVIC_SYSTI
 578              		.loc 1 627 0
 579 000a 054B     		ldr	r3, .L28+8
 580 000c 0722     		movs	r2, #7
 581 000e 1A60     		str	r2, [r3]
 628:..\Source\portable\GCC\ARM_CM3/port.c ****     
 629:..\Source\portable\GCC\ARM_CM3/port.c **** }
ARM GAS  C:\Users\THUNDE~1\AppData\Local\Temp\cc3zEZMe.s 			page 27


 582              		.loc 1 629 0
 583 0010 00BF     		nop
 584 0012 BD46     		mov	sp, r7
 585              		.cfi_def_cfa_register 13
 586              		@ sp needed
 587 0014 80BC     		pop	{r7}
 588              		.cfi_restore 7
 589              		.cfi_def_cfa_offset 0
 590 0016 7047     		bx	lr
 591              	.L29:
 592              		.align	2
 593              	.L28:
 594 0018 14E000E0 		.word	-536813548
 595 001c F7240100 		.word	74999
 596 0020 10E000E0 		.word	-536813552
 597              		.cfi_endproc
 598              	.LFE78:
 599              		.size	vPortSetupTimerInterrupt, .-vPortSetupTimerInterrupt
 600              		.text
 601              	.Letext0:
 602              		.file 3 "c:\\program files (x86)\\cypress\\psoc creator\\4.2\\psoc creator\\import\\gnu\\arm\\5.4.
 603              		.file 4 "c:\\program files (x86)\\cypress\\psoc creator\\4.2\\psoc creator\\import\\gnu\\arm\\5.4.
 604              		.file 5 ".\\Tracer/sniffPayload.h"
 605              		.file 6 ".\\Tracer/selfFIFO.h"
 606              		.file 7 "..\\Source\\include/projdefs.h"
 607              		.file 8 "Generated_Source\\PSoC5/core_cm3.h"
 608              		.file 9 ".\\Tracer/sniffTask.h"