ARM GAS  C:\Users\THUNDE~1\AppData\Local\Temp\ccrS2uzS.s 			page 1


   1              		.syntax unified
   2              		.cpu cortex-m3
   3              		.fpu softvfp
   4              		.eabi_attribute 20, 1
   5              		.eabi_attribute 21, 1
   6              		.eabi_attribute 23, 3
   7              		.eabi_attribute 24, 1
   8              		.eabi_attribute 25, 1
   9              		.eabi_attribute 26, 1
  10              		.eabi_attribute 30, 6
  11              		.eabi_attribute 34, 1
  12              		.eabi_attribute 18, 4
  13              		.thumb
  14              		.syntax unified
  15              		.file	"QPeek.c"
  16              		.text
  17              	.Ltext0:
  18              		.cfi_sections	.debug_frame
  19              		.comm	sniffIDFilter,13,4
  20              		.comm	buffer,4098,4
  21              		.comm	objectList,1704,4
  22              		.bss
  23              		.align	2
  24              	xErrorDetected:
  25 0000 00000000 		.space	4
  26              		.align	2
  27              	ulLoopCounter:
  28 0004 00000000 		.space	4
  29              		.comm	xMediumPriorityTask,4,4
  30              		.comm	xHighPriorityTask,4,4
  31              		.comm	xHighestPriorityTask,4,4
  32              		.section	.rodata
  33              		.align	2
  34              	.LC0:
  35 0000 51506565 		.ascii	"QPeek_Test_Queue\000"
  35      6B5F5465 
  35      73745F51 
  35      75657565 
  35      00
  36 0011 000000   		.align	2
  37              	.LC1:
  38 0014 5065656B 		.ascii	"PeekL\000"
  38      4C00
  39 001a 0000     		.align	2
  40              	.LC2:
  41 001c 5065656B 		.ascii	"PeekM\000"
  41      4D00
  42 0022 0000     		.align	2
  43              	.LC3:
  44 0024 5065656B 		.ascii	"PeekH1\000"
  44      483100
  45 002b 00       		.align	2
  46              	.LC4:
  47 002c 5065656B 		.ascii	"PeekH2\000"
  47      483200
  48              		.section	.text.vStartQueuePeekTasks,"ax",%progbits
  49              		.align	2
ARM GAS  C:\Users\THUNDE~1\AppData\Local\Temp\ccrS2uzS.s 			page 2


  50              		.global	vStartQueuePeekTasks
  51              		.thumb
  52              		.thumb_func
  53              		.type	vStartQueuePeekTasks, %function
  54              	vStartQueuePeekTasks:
  55              	.LFB68:
  56              		.file 1 "..\\Common\\Minimal\\QPeek.c"
   1:..\Common\Minimal/QPeek.c **** /*
   2:..\Common\Minimal/QPeek.c ****     FreeRTOS V9.0.0 - Copyright (C) 2016 Real Time Engineers Ltd.
   3:..\Common\Minimal/QPeek.c ****     All rights reserved
   4:..\Common\Minimal/QPeek.c **** 
   5:..\Common\Minimal/QPeek.c ****     VISIT http://www.FreeRTOS.org TO ENSURE YOU ARE USING THE LATEST VERSION.
   6:..\Common\Minimal/QPeek.c **** 
   7:..\Common\Minimal/QPeek.c ****     This file is part of the FreeRTOS distribution.
   8:..\Common\Minimal/QPeek.c **** 
   9:..\Common\Minimal/QPeek.c ****     FreeRTOS is free software; you can redistribute it and/or modify it under
  10:..\Common\Minimal/QPeek.c ****     the terms of the GNU General Public License (version 2) as published by the
  11:..\Common\Minimal/QPeek.c ****     Free Software Foundation >>>> AND MODIFIED BY <<<< the FreeRTOS exception.
  12:..\Common\Minimal/QPeek.c **** 
  13:..\Common\Minimal/QPeek.c ****     ***************************************************************************
  14:..\Common\Minimal/QPeek.c ****     >>!   NOTE: The modification to the GPL is included to allow you to     !<<
  15:..\Common\Minimal/QPeek.c ****     >>!   distribute a combined work that includes FreeRTOS without being   !<<
  16:..\Common\Minimal/QPeek.c ****     >>!   obliged to provide the source code for proprietary components     !<<
  17:..\Common\Minimal/QPeek.c ****     >>!   outside of the FreeRTOS kernel.                                   !<<
  18:..\Common\Minimal/QPeek.c ****     ***************************************************************************
  19:..\Common\Minimal/QPeek.c **** 
  20:..\Common\Minimal/QPeek.c ****     FreeRTOS is distributed in the hope that it will be useful, but WITHOUT ANY
  21:..\Common\Minimal/QPeek.c ****     WARRANTY; without even the implied warranty of MERCHANTABILITY or FITNESS
  22:..\Common\Minimal/QPeek.c ****     FOR A PARTICULAR PURPOSE.  Full license text is available on the following
  23:..\Common\Minimal/QPeek.c ****     link: http://www.freertos.org/a00114.html
  24:..\Common\Minimal/QPeek.c **** 
  25:..\Common\Minimal/QPeek.c ****     ***************************************************************************
  26:..\Common\Minimal/QPeek.c ****      *                                                                       *
  27:..\Common\Minimal/QPeek.c ****      *    FreeRTOS provides completely free yet professionally developed,    *
  28:..\Common\Minimal/QPeek.c ****      *    robust, strictly quality controlled, supported, and cross          *
  29:..\Common\Minimal/QPeek.c ****      *    platform software that is more than just the market leader, it     *
  30:..\Common\Minimal/QPeek.c ****      *    is the industry's de facto standard.                               *
  31:..\Common\Minimal/QPeek.c ****      *                                                                       *
  32:..\Common\Minimal/QPeek.c ****      *    Help yourself get started quickly while simultaneously helping     *
  33:..\Common\Minimal/QPeek.c ****      *    to support the FreeRTOS project by purchasing a FreeRTOS           *
  34:..\Common\Minimal/QPeek.c ****      *    tutorial book, reference manual, or both:                          *
  35:..\Common\Minimal/QPeek.c ****      *    http://www.FreeRTOS.org/Documentation                              *
  36:..\Common\Minimal/QPeek.c ****      *                                                                       *
  37:..\Common\Minimal/QPeek.c ****     ***************************************************************************
  38:..\Common\Minimal/QPeek.c **** 
  39:..\Common\Minimal/QPeek.c ****     http://www.FreeRTOS.org/FAQHelp.html - Having a problem?  Start by reading
  40:..\Common\Minimal/QPeek.c ****     the FAQ page "My application does not run, what could be wrong?".  Have you
  41:..\Common\Minimal/QPeek.c ****     defined configASSERT()?
  42:..\Common\Minimal/QPeek.c **** 
  43:..\Common\Minimal/QPeek.c ****     http://www.FreeRTOS.org/support - In return for receiving this top quality
  44:..\Common\Minimal/QPeek.c ****     embedded software for free we request you assist our global community by
  45:..\Common\Minimal/QPeek.c ****     participating in the support forum.
  46:..\Common\Minimal/QPeek.c **** 
  47:..\Common\Minimal/QPeek.c ****     http://www.FreeRTOS.org/training - Investing in training allows your team to
  48:..\Common\Minimal/QPeek.c ****     be as productive as possible as early as possible.  Now you can receive
  49:..\Common\Minimal/QPeek.c ****     FreeRTOS training directly from Richard Barry, CEO of Real Time Engineers
  50:..\Common\Minimal/QPeek.c ****     Ltd, and the world's leading authority on the world's leading RTOS.
ARM GAS  C:\Users\THUNDE~1\AppData\Local\Temp\ccrS2uzS.s 			page 3


  51:..\Common\Minimal/QPeek.c **** 
  52:..\Common\Minimal/QPeek.c ****     http://www.FreeRTOS.org/plus - A selection of FreeRTOS ecosystem products,
  53:..\Common\Minimal/QPeek.c ****     including FreeRTOS+Trace - an indispensable productivity tool, a DOS
  54:..\Common\Minimal/QPeek.c ****     compatible FAT file system, and our tiny thread aware UDP/IP stack.
  55:..\Common\Minimal/QPeek.c **** 
  56:..\Common\Minimal/QPeek.c ****     http://www.FreeRTOS.org/labs - Where new FreeRTOS products go to incubate.
  57:..\Common\Minimal/QPeek.c ****     Come and try FreeRTOS+TCP, our new open source TCP/IP stack for FreeRTOS.
  58:..\Common\Minimal/QPeek.c **** 
  59:..\Common\Minimal/QPeek.c ****     http://www.OpenRTOS.com - Real Time Engineers ltd. license FreeRTOS to High
  60:..\Common\Minimal/QPeek.c ****     Integrity Systems ltd. to sell under the OpenRTOS brand.  Low cost OpenRTOS
  61:..\Common\Minimal/QPeek.c ****     licenses offer ticketed support, indemnification and commercial middleware.
  62:..\Common\Minimal/QPeek.c **** 
  63:..\Common\Minimal/QPeek.c ****     http://www.SafeRTOS.com - High Integrity Systems also provide a safety
  64:..\Common\Minimal/QPeek.c ****     engineered and independently SIL3 certified version for use in safety and
  65:..\Common\Minimal/QPeek.c ****     mission critical applications that require provable dependability.
  66:..\Common\Minimal/QPeek.c **** 
  67:..\Common\Minimal/QPeek.c ****     1 tab == 4 spaces!
  68:..\Common\Minimal/QPeek.c **** */
  69:..\Common\Minimal/QPeek.c **** 
  70:..\Common\Minimal/QPeek.c **** 
  71:..\Common\Minimal/QPeek.c **** /*
  72:..\Common\Minimal/QPeek.c ****  * Tests the behaviour when data is peeked from a queue when there are
  73:..\Common\Minimal/QPeek.c ****  * multiple tasks blocked on the queue.
  74:..\Common\Minimal/QPeek.c ****  */
  75:..\Common\Minimal/QPeek.c **** 
  76:..\Common\Minimal/QPeek.c **** 
  77:..\Common\Minimal/QPeek.c **** #include <stdlib.h>
  78:..\Common\Minimal/QPeek.c **** 
  79:..\Common\Minimal/QPeek.c **** /* Scheduler include files. */
  80:..\Common\Minimal/QPeek.c **** #include "FreeRTOS.h"
  81:..\Common\Minimal/QPeek.c **** #include "task.h"
  82:..\Common\Minimal/QPeek.c **** #include "queue.h"
  83:..\Common\Minimal/QPeek.c **** #include "semphr.h"
  84:..\Common\Minimal/QPeek.c **** 
  85:..\Common\Minimal/QPeek.c **** /* Demo program include files. */
  86:..\Common\Minimal/QPeek.c **** #include "QPeek.h"
  87:..\Common\Minimal/QPeek.c **** 
  88:..\Common\Minimal/QPeek.c **** #define qpeekQUEUE_LENGTH		( 5 )
  89:..\Common\Minimal/QPeek.c **** #define qpeekNO_BLOCK			( 0 )
  90:..\Common\Minimal/QPeek.c **** #define qpeekSHORT_DELAY		( 10 )
  91:..\Common\Minimal/QPeek.c **** 
  92:..\Common\Minimal/QPeek.c **** #define qpeekLOW_PRIORITY			( tskIDLE_PRIORITY + 0 )
  93:..\Common\Minimal/QPeek.c **** #define qpeekMEDIUM_PRIORITY		( tskIDLE_PRIORITY + 1 )
  94:..\Common\Minimal/QPeek.c **** #define qpeekHIGH_PRIORITY			( tskIDLE_PRIORITY + 2 )
  95:..\Common\Minimal/QPeek.c **** #define qpeekHIGHEST_PRIORITY		( tskIDLE_PRIORITY + 3 )
  96:..\Common\Minimal/QPeek.c **** 
  97:..\Common\Minimal/QPeek.c **** /*-----------------------------------------------------------*/
  98:..\Common\Minimal/QPeek.c **** 
  99:..\Common\Minimal/QPeek.c **** /*
 100:..\Common\Minimal/QPeek.c ****  * The following three tasks are used to demonstrate the peeking behaviour.
 101:..\Common\Minimal/QPeek.c ****  * Each task is given a different priority to demonstrate the order in which
 102:..\Common\Minimal/QPeek.c ****  * tasks are woken as data is peeked from a queue.
 103:..\Common\Minimal/QPeek.c ****  */
 104:..\Common\Minimal/QPeek.c **** static void prvLowPriorityPeekTask( void *pvParameters );
 105:..\Common\Minimal/QPeek.c **** static void prvMediumPriorityPeekTask( void *pvParameters );
 106:..\Common\Minimal/QPeek.c **** static void prvHighPriorityPeekTask( void *pvParameters );
 107:..\Common\Minimal/QPeek.c **** static void prvHighestPriorityPeekTask( void *pvParameters );
ARM GAS  C:\Users\THUNDE~1\AppData\Local\Temp\ccrS2uzS.s 			page 4


 108:..\Common\Minimal/QPeek.c **** 
 109:..\Common\Minimal/QPeek.c **** /*-----------------------------------------------------------*/
 110:..\Common\Minimal/QPeek.c **** 
 111:..\Common\Minimal/QPeek.c **** /* Flag that will be latched to pdTRUE should any unexpected behaviour be
 112:..\Common\Minimal/QPeek.c **** detected in any of the tasks. */
 113:..\Common\Minimal/QPeek.c **** static volatile BaseType_t xErrorDetected = pdFALSE;
 114:..\Common\Minimal/QPeek.c **** 
 115:..\Common\Minimal/QPeek.c **** /* Counter that is incremented on each cycle of a test.  This is used to
 116:..\Common\Minimal/QPeek.c **** detect a stalled task - a test that is no longer running. */
 117:..\Common\Minimal/QPeek.c **** static volatile uint32_t ulLoopCounter = 0;
 118:..\Common\Minimal/QPeek.c **** 
 119:..\Common\Minimal/QPeek.c **** /* Handles to the test tasks. */
 120:..\Common\Minimal/QPeek.c **** TaskHandle_t xMediumPriorityTask, xHighPriorityTask, xHighestPriorityTask;
 121:..\Common\Minimal/QPeek.c **** /*-----------------------------------------------------------*/
 122:..\Common\Minimal/QPeek.c **** 
 123:..\Common\Minimal/QPeek.c **** void vStartQueuePeekTasks( void )
 124:..\Common\Minimal/QPeek.c **** {
  57              		.loc 1 124 0
  58              		.cfi_startproc
  59              		@ args = 0, pretend = 0, frame = 8
  60              		@ frame_needed = 1, uses_anonymous_args = 0
  61 0000 80B5     		push	{r7, lr}
  62              		.cfi_def_cfa_offset 8
  63              		.cfi_offset 7, -8
  64              		.cfi_offset 14, -4
  65 0002 84B0     		sub	sp, sp, #16
  66              		.cfi_def_cfa_offset 24
  67 0004 02AF     		add	r7, sp, #8
  68              		.cfi_def_cfa 7, 16
 125:..\Common\Minimal/QPeek.c **** QueueHandle_t xQueue;
 126:..\Common\Minimal/QPeek.c **** 
 127:..\Common\Minimal/QPeek.c **** 	/* Create the queue that we are going to use for the test/demo. */
 128:..\Common\Minimal/QPeek.c **** 	xQueue = xQueueCreate( qpeekQUEUE_LENGTH, sizeof( uint32_t ) );
  69              		.loc 1 128 0
  70 0006 0022     		movs	r2, #0
  71 0008 0421     		movs	r1, #4
  72 000a 0520     		movs	r0, #5
  73 000c FFF7FEFF 		bl	xQueueGenericCreate
  74 0010 7860     		str	r0, [r7, #4]
 129:..\Common\Minimal/QPeek.c **** 
 130:..\Common\Minimal/QPeek.c **** 	if( xQueue != NULL )
  75              		.loc 1 130 0
  76 0012 7B68     		ldr	r3, [r7, #4]
  77 0014 002B     		cmp	r3, #0
  78 0016 2BD0     		beq	.L3
 131:..\Common\Minimal/QPeek.c **** 	{
 132:..\Common\Minimal/QPeek.c **** 		/* vQueueAddToRegistry() adds the queue to the queue registry, if one is
 133:..\Common\Minimal/QPeek.c **** 		in use.  The queue registry is provided as a means for kernel aware
 134:..\Common\Minimal/QPeek.c **** 		debuggers to locate queues and has no purpose if a kernel aware debugger
 135:..\Common\Minimal/QPeek.c **** 		is not being used.  The call to vQueueAddToRegistry() will be removed
 136:..\Common\Minimal/QPeek.c **** 		by the pre-processor if configQUEUE_REGISTRY_SIZE is not defined or is
 137:..\Common\Minimal/QPeek.c **** 		defined to be less than 1. */
 138:..\Common\Minimal/QPeek.c **** 		vQueueAddToRegistry( xQueue, "QPeek_Test_Queue" );
  79              		.loc 1 138 0
  80 0018 1749     		ldr	r1, .L4
  81 001a 7868     		ldr	r0, [r7, #4]
  82 001c FFF7FEFF 		bl	vQueueAddToRegistry
ARM GAS  C:\Users\THUNDE~1\AppData\Local\Temp\ccrS2uzS.s 			page 5


 139:..\Common\Minimal/QPeek.c **** 
 140:..\Common\Minimal/QPeek.c **** 		/* Create the demo tasks and pass it the queue just created.  We are
 141:..\Common\Minimal/QPeek.c **** 		passing the queue handle by value so it does not matter that it is declared
 142:..\Common\Minimal/QPeek.c **** 		on the stack here. */
 143:..\Common\Minimal/QPeek.c **** 		xTaskCreate( prvLowPriorityPeekTask, "PeekL", configMINIMAL_STACK_SIZE, ( void * ) xQueue, qpeekL
  83              		.loc 1 143 0
  84 0020 0023     		movs	r3, #0
  85 0022 0193     		str	r3, [sp, #4]
  86 0024 0023     		movs	r3, #0
  87 0026 0093     		str	r3, [sp]
  88 0028 7B68     		ldr	r3, [r7, #4]
  89 002a 6422     		movs	r2, #100
  90 002c 1349     		ldr	r1, .L4+4
  91 002e 1448     		ldr	r0, .L4+8
  92 0030 FFF7FEFF 		bl	xTaskCreate
 144:..\Common\Minimal/QPeek.c **** 		xTaskCreate( prvMediumPriorityPeekTask, "PeekM", configMINIMAL_STACK_SIZE, ( void * ) xQueue, qpe
  93              		.loc 1 144 0
  94 0034 134B     		ldr	r3, .L4+12
  95 0036 0193     		str	r3, [sp, #4]
  96 0038 0123     		movs	r3, #1
  97 003a 0093     		str	r3, [sp]
  98 003c 7B68     		ldr	r3, [r7, #4]
  99 003e 6422     		movs	r2, #100
 100 0040 1149     		ldr	r1, .L4+16
 101 0042 1248     		ldr	r0, .L4+20
 102 0044 FFF7FEFF 		bl	xTaskCreate
 145:..\Common\Minimal/QPeek.c **** 		xTaskCreate( prvHighPriorityPeekTask, "PeekH1", configMINIMAL_STACK_SIZE, ( void * ) xQueue, qpee
 103              		.loc 1 145 0
 104 0048 114B     		ldr	r3, .L4+24
 105 004a 0193     		str	r3, [sp, #4]
 106 004c 0223     		movs	r3, #2
 107 004e 0093     		str	r3, [sp]
 108 0050 7B68     		ldr	r3, [r7, #4]
 109 0052 6422     		movs	r2, #100
 110 0054 0F49     		ldr	r1, .L4+28
 111 0056 1048     		ldr	r0, .L4+32
 112 0058 FFF7FEFF 		bl	xTaskCreate
 146:..\Common\Minimal/QPeek.c **** 		xTaskCreate( prvHighestPriorityPeekTask, "PeekH2", configMINIMAL_STACK_SIZE, ( void * ) xQueue, q
 113              		.loc 1 146 0
 114 005c 0F4B     		ldr	r3, .L4+36
 115 005e 0193     		str	r3, [sp, #4]
 116 0060 0323     		movs	r3, #3
 117 0062 0093     		str	r3, [sp]
 118 0064 7B68     		ldr	r3, [r7, #4]
 119 0066 6422     		movs	r2, #100
 120 0068 0D49     		ldr	r1, .L4+40
 121 006a 0E48     		ldr	r0, .L4+44
 122 006c FFF7FEFF 		bl	xTaskCreate
 123              	.L3:
 147:..\Common\Minimal/QPeek.c **** 	}
 148:..\Common\Minimal/QPeek.c **** }
 124              		.loc 1 148 0
 125 0070 00BF     		nop
 126 0072 0837     		adds	r7, r7, #8
 127              		.cfi_def_cfa_offset 8
 128 0074 BD46     		mov	sp, r7
 129              		.cfi_def_cfa_register 13
ARM GAS  C:\Users\THUNDE~1\AppData\Local\Temp\ccrS2uzS.s 			page 6


 130              		@ sp needed
 131 0076 80BD     		pop	{r7, pc}
 132              	.L5:
 133              		.align	2
 134              	.L4:
 135 0078 00000000 		.word	.LC0
 136 007c 14000000 		.word	.LC1
 137 0080 00000000 		.word	prvLowPriorityPeekTask
 138 0084 00000000 		.word	xMediumPriorityTask
 139 0088 1C000000 		.word	.LC2
 140 008c 00000000 		.word	prvMediumPriorityPeekTask
 141 0090 00000000 		.word	xHighPriorityTask
 142 0094 24000000 		.word	.LC3
 143 0098 00000000 		.word	prvHighPriorityPeekTask
 144 009c 00000000 		.word	xHighestPriorityTask
 145 00a0 2C000000 		.word	.LC4
 146 00a4 00000000 		.word	prvHighestPriorityPeekTask
 147              		.cfi_endproc
 148              	.LFE68:
 149              		.size	vStartQueuePeekTasks, .-vStartQueuePeekTasks
 150              		.section	.text.prvHighestPriorityPeekTask,"ax",%progbits
 151              		.align	2
 152              		.thumb
 153              		.thumb_func
 154              		.type	prvHighestPriorityPeekTask, %function
 155              	prvHighestPriorityPeekTask:
 156              	.LFB69:
 149:..\Common\Minimal/QPeek.c **** /*-----------------------------------------------------------*/
 150:..\Common\Minimal/QPeek.c **** 
 151:..\Common\Minimal/QPeek.c **** static void prvHighestPriorityPeekTask( void *pvParameters )
 152:..\Common\Minimal/QPeek.c **** {
 157              		.loc 1 152 0
 158              		.cfi_startproc
 159              		@ args = 0, pretend = 0, frame = 16
 160              		@ frame_needed = 1, uses_anonymous_args = 0
 161 0000 80B5     		push	{r7, lr}
 162              		.cfi_def_cfa_offset 8
 163              		.cfi_offset 7, -8
 164              		.cfi_offset 14, -4
 165 0002 84B0     		sub	sp, sp, #16
 166              		.cfi_def_cfa_offset 24
 167 0004 00AF     		add	r7, sp, #0
 168              		.cfi_def_cfa_register 7
 169 0006 7860     		str	r0, [r7, #4]
 153:..\Common\Minimal/QPeek.c **** QueueHandle_t xQueue = ( QueueHandle_t ) pvParameters;
 170              		.loc 1 153 0
 171 0008 7B68     		ldr	r3, [r7, #4]
 172 000a FB60     		str	r3, [r7, #12]
 173              	.L17:
 154:..\Common\Minimal/QPeek.c **** uint32_t ulValue;
 155:..\Common\Minimal/QPeek.c **** 
 156:..\Common\Minimal/QPeek.c **** 	#ifdef USE_STDIO
 157:..\Common\Minimal/QPeek.c **** 	{
 158:..\Common\Minimal/QPeek.c **** 		void vPrintDisplayMessage( const char * const * ppcMessageToSend );
 159:..\Common\Minimal/QPeek.c **** 
 160:..\Common\Minimal/QPeek.c **** 		const char * const pcTaskStartMsg = "Queue peek test started.\r\n";
 161:..\Common\Minimal/QPeek.c **** 
ARM GAS  C:\Users\THUNDE~1\AppData\Local\Temp\ccrS2uzS.s 			page 7


 162:..\Common\Minimal/QPeek.c **** 		/* Queue a message for printing to say the task has started. */
 163:..\Common\Minimal/QPeek.c **** 		vPrintDisplayMessage( &pcTaskStartMsg );
 164:..\Common\Minimal/QPeek.c **** 	}
 165:..\Common\Minimal/QPeek.c **** 	#endif
 166:..\Common\Minimal/QPeek.c **** 
 167:..\Common\Minimal/QPeek.c **** 	for( ;; )
 168:..\Common\Minimal/QPeek.c **** 	{
 169:..\Common\Minimal/QPeek.c **** 		/* Try peeking from the queue.  The queue should be empty so we will
 170:..\Common\Minimal/QPeek.c **** 		block, allowing the high priority task to execute. */
 171:..\Common\Minimal/QPeek.c **** 		if( xQueuePeek( xQueue, &ulValue, portMAX_DELAY ) != pdPASS )
 174              		.loc 1 171 0
 175 000c 07F10801 		add	r1, r7, #8
 176 0010 0123     		movs	r3, #1
 177 0012 4FF0FF32 		mov	r2, #-1
 178 0016 F868     		ldr	r0, [r7, #12]
 179 0018 FFF7FEFF 		bl	xQueueGenericReceive
 180 001c 0346     		mov	r3, r0
 181 001e 012B     		cmp	r3, #1
 182 0020 02D0     		beq	.L7
 172:..\Common\Minimal/QPeek.c **** 		{
 173:..\Common\Minimal/QPeek.c **** 			/* We expected to have received something by the time we unblock. */
 174:..\Common\Minimal/QPeek.c **** 			xErrorDetected = pdTRUE;
 183              		.loc 1 174 0
 184 0022 314B     		ldr	r3, .L18
 185 0024 0122     		movs	r2, #1
 186 0026 1A60     		str	r2, [r3]
 187              	.L7:
 175:..\Common\Minimal/QPeek.c **** 		}
 176:..\Common\Minimal/QPeek.c **** 
 177:..\Common\Minimal/QPeek.c **** 		/* When we reach here the high and medium priority tasks should still
 178:..\Common\Minimal/QPeek.c **** 		be blocked on the queue.  We unblocked because the low priority task
 179:..\Common\Minimal/QPeek.c **** 		wrote a value to the queue, which we should have peeked.  Peeking the
 180:..\Common\Minimal/QPeek.c **** 		data (rather than receiving it) will leave the data on the queue, so
 181:..\Common\Minimal/QPeek.c **** 		the high priority task should then have also been unblocked, but not
 182:..\Common\Minimal/QPeek.c **** 		yet executed. */
 183:..\Common\Minimal/QPeek.c **** 		if( ulValue != 0x11223344 )
 188              		.loc 1 183 0
 189 0028 BB68     		ldr	r3, [r7, #8]
 190 002a 304A     		ldr	r2, .L18+4
 191 002c 9342     		cmp	r3, r2
 192 002e 02D0     		beq	.L8
 184:..\Common\Minimal/QPeek.c **** 		{
 185:..\Common\Minimal/QPeek.c **** 			/* We did not receive the expected value. */
 186:..\Common\Minimal/QPeek.c **** 			xErrorDetected = pdTRUE;
 193              		.loc 1 186 0
 194 0030 2D4B     		ldr	r3, .L18
 195 0032 0122     		movs	r2, #1
 196 0034 1A60     		str	r2, [r3]
 197              	.L8:
 187:..\Common\Minimal/QPeek.c **** 		}
 188:..\Common\Minimal/QPeek.c **** 
 189:..\Common\Minimal/QPeek.c **** 		if( uxQueueMessagesWaiting( xQueue ) != 1 )
 198              		.loc 1 189 0
 199 0036 F868     		ldr	r0, [r7, #12]
 200 0038 FFF7FEFF 		bl	uxQueueMessagesWaiting
 201 003c 0346     		mov	r3, r0
 202 003e 012B     		cmp	r3, #1
ARM GAS  C:\Users\THUNDE~1\AppData\Local\Temp\ccrS2uzS.s 			page 8


 203 0040 02D0     		beq	.L9
 190:..\Common\Minimal/QPeek.c **** 		{
 191:..\Common\Minimal/QPeek.c **** 			/* The message should have been left on the queue. */
 192:..\Common\Minimal/QPeek.c **** 			xErrorDetected = pdTRUE;
 204              		.loc 1 192 0
 205 0042 294B     		ldr	r3, .L18
 206 0044 0122     		movs	r2, #1
 207 0046 1A60     		str	r2, [r3]
 208              	.L9:
 193:..\Common\Minimal/QPeek.c **** 		}
 194:..\Common\Minimal/QPeek.c **** 
 195:..\Common\Minimal/QPeek.c **** 		/* Now we are going to actually receive the data, so when the high
 196:..\Common\Minimal/QPeek.c **** 		priority task runs it will find the queue empty and return to the
 197:..\Common\Minimal/QPeek.c **** 		blocked state. */
 198:..\Common\Minimal/QPeek.c **** 		ulValue = 0;
 209              		.loc 1 198 0
 210 0048 0023     		movs	r3, #0
 211 004a BB60     		str	r3, [r7, #8]
 199:..\Common\Minimal/QPeek.c **** 		if( xQueueReceive( xQueue, &ulValue, qpeekNO_BLOCK ) != pdPASS )
 212              		.loc 1 199 0
 213 004c 07F10801 		add	r1, r7, #8
 214 0050 0023     		movs	r3, #0
 215 0052 0022     		movs	r2, #0
 216 0054 F868     		ldr	r0, [r7, #12]
 217 0056 FFF7FEFF 		bl	xQueueGenericReceive
 218 005a 0346     		mov	r3, r0
 219 005c 012B     		cmp	r3, #1
 220 005e 02D0     		beq	.L10
 200:..\Common\Minimal/QPeek.c **** 		{
 201:..\Common\Minimal/QPeek.c **** 			/* We expected to receive the value. */
 202:..\Common\Minimal/QPeek.c **** 			xErrorDetected = pdTRUE;
 221              		.loc 1 202 0
 222 0060 214B     		ldr	r3, .L18
 223 0062 0122     		movs	r2, #1
 224 0064 1A60     		str	r2, [r3]
 225              	.L10:
 203:..\Common\Minimal/QPeek.c **** 		}
 204:..\Common\Minimal/QPeek.c **** 
 205:..\Common\Minimal/QPeek.c **** 		if( ulValue != 0x11223344 )
 226              		.loc 1 205 0
 227 0066 BB68     		ldr	r3, [r7, #8]
 228 0068 204A     		ldr	r2, .L18+4
 229 006a 9342     		cmp	r3, r2
 230 006c 02D0     		beq	.L11
 206:..\Common\Minimal/QPeek.c **** 		{
 207:..\Common\Minimal/QPeek.c **** 			/* We did not receive the expected value - which should have been
 208:..\Common\Minimal/QPeek.c **** 			the same value as was peeked. */
 209:..\Common\Minimal/QPeek.c **** 			xErrorDetected = pdTRUE;
 231              		.loc 1 209 0
 232 006e 1E4B     		ldr	r3, .L18
 233 0070 0122     		movs	r2, #1
 234 0072 1A60     		str	r2, [r3]
 235              	.L11:
 210:..\Common\Minimal/QPeek.c **** 		}
 211:..\Common\Minimal/QPeek.c **** 
 212:..\Common\Minimal/QPeek.c **** 		/* Now we will block again as the queue is once more empty.  The low
 213:..\Common\Minimal/QPeek.c **** 		priority task can then execute again. */
ARM GAS  C:\Users\THUNDE~1\AppData\Local\Temp\ccrS2uzS.s 			page 9


 214:..\Common\Minimal/QPeek.c **** 		if( xQueuePeek( xQueue, &ulValue, portMAX_DELAY ) != pdPASS )
 236              		.loc 1 214 0
 237 0074 07F10801 		add	r1, r7, #8
 238 0078 0123     		movs	r3, #1
 239 007a 4FF0FF32 		mov	r2, #-1
 240 007e F868     		ldr	r0, [r7, #12]
 241 0080 FFF7FEFF 		bl	xQueueGenericReceive
 242 0084 0346     		mov	r3, r0
 243 0086 012B     		cmp	r3, #1
 244 0088 02D0     		beq	.L12
 215:..\Common\Minimal/QPeek.c **** 		{
 216:..\Common\Minimal/QPeek.c **** 			/* We expected to have received something by the time we unblock. */
 217:..\Common\Minimal/QPeek.c **** 			xErrorDetected = pdTRUE;
 245              		.loc 1 217 0
 246 008a 174B     		ldr	r3, .L18
 247 008c 0122     		movs	r2, #1
 248 008e 1A60     		str	r2, [r3]
 249              	.L12:
 218:..\Common\Minimal/QPeek.c **** 		}
 219:..\Common\Minimal/QPeek.c **** 
 220:..\Common\Minimal/QPeek.c **** 		/* When we get here the low priority task should have again written to the
 221:..\Common\Minimal/QPeek.c **** 		queue. */
 222:..\Common\Minimal/QPeek.c **** 		if( ulValue != 0x01234567 )
 250              		.loc 1 222 0
 251 0090 BB68     		ldr	r3, [r7, #8]
 252 0092 174A     		ldr	r2, .L18+8
 253 0094 9342     		cmp	r3, r2
 254 0096 02D0     		beq	.L13
 223:..\Common\Minimal/QPeek.c **** 		{
 224:..\Common\Minimal/QPeek.c **** 			/* We did not receive the expected value. */
 225:..\Common\Minimal/QPeek.c **** 			xErrorDetected = pdTRUE;
 255              		.loc 1 225 0
 256 0098 134B     		ldr	r3, .L18
 257 009a 0122     		movs	r2, #1
 258 009c 1A60     		str	r2, [r3]
 259              	.L13:
 226:..\Common\Minimal/QPeek.c **** 		}
 227:..\Common\Minimal/QPeek.c **** 
 228:..\Common\Minimal/QPeek.c **** 		if( uxQueueMessagesWaiting( xQueue ) != 1 )
 260              		.loc 1 228 0
 261 009e F868     		ldr	r0, [r7, #12]
 262 00a0 FFF7FEFF 		bl	uxQueueMessagesWaiting
 263 00a4 0346     		mov	r3, r0
 264 00a6 012B     		cmp	r3, #1
 265 00a8 02D0     		beq	.L14
 229:..\Common\Minimal/QPeek.c **** 		{
 230:..\Common\Minimal/QPeek.c **** 			/* The message should have been left on the queue. */
 231:..\Common\Minimal/QPeek.c **** 			xErrorDetected = pdTRUE;
 266              		.loc 1 231 0
 267 00aa 0F4B     		ldr	r3, .L18
 268 00ac 0122     		movs	r2, #1
 269 00ae 1A60     		str	r2, [r3]
 270              	.L14:
 232:..\Common\Minimal/QPeek.c **** 		}
 233:..\Common\Minimal/QPeek.c **** 
 234:..\Common\Minimal/QPeek.c **** 		/* We only peeked the data, so suspending ourselves now should enable
 235:..\Common\Minimal/QPeek.c **** 		the high priority task to also peek the data.  The high priority task
ARM GAS  C:\Users\THUNDE~1\AppData\Local\Temp\ccrS2uzS.s 			page 10


 236:..\Common\Minimal/QPeek.c **** 		will have been unblocked when we peeked the data as we left the data
 237:..\Common\Minimal/QPeek.c **** 		in the queue. */
 238:..\Common\Minimal/QPeek.c **** 		vTaskSuspend( NULL );
 271              		.loc 1 238 0
 272 00b0 0020     		movs	r0, #0
 273 00b2 FFF7FEFF 		bl	vTaskSuspend
 239:..\Common\Minimal/QPeek.c **** 
 240:..\Common\Minimal/QPeek.c **** 
 241:..\Common\Minimal/QPeek.c **** 
 242:..\Common\Minimal/QPeek.c **** 		/* This time we are going to do the same as the above test, but the
 243:..\Common\Minimal/QPeek.c **** 		high priority task is going to receive the data, rather than peek it.
 244:..\Common\Minimal/QPeek.c **** 		This means that the medium priority task should never peek the value. */
 245:..\Common\Minimal/QPeek.c **** 		if( xQueuePeek( xQueue, &ulValue, portMAX_DELAY ) != pdPASS )
 274              		.loc 1 245 0
 275 00b6 07F10801 		add	r1, r7, #8
 276 00ba 0123     		movs	r3, #1
 277 00bc 4FF0FF32 		mov	r2, #-1
 278 00c0 F868     		ldr	r0, [r7, #12]
 279 00c2 FFF7FEFF 		bl	xQueueGenericReceive
 280 00c6 0346     		mov	r3, r0
 281 00c8 012B     		cmp	r3, #1
 282 00ca 02D0     		beq	.L15
 246:..\Common\Minimal/QPeek.c **** 		{
 247:..\Common\Minimal/QPeek.c **** 			xErrorDetected = pdTRUE;
 283              		.loc 1 247 0
 284 00cc 064B     		ldr	r3, .L18
 285 00ce 0122     		movs	r2, #1
 286 00d0 1A60     		str	r2, [r3]
 287              	.L15:
 248:..\Common\Minimal/QPeek.c **** 		}
 249:..\Common\Minimal/QPeek.c **** 
 250:..\Common\Minimal/QPeek.c **** 		if( ulValue != 0xaabbaabb )
 288              		.loc 1 250 0
 289 00d2 BB68     		ldr	r3, [r7, #8]
 290 00d4 074A     		ldr	r2, .L18+12
 291 00d6 9342     		cmp	r3, r2
 292 00d8 02D0     		beq	.L16
 251:..\Common\Minimal/QPeek.c **** 		{
 252:..\Common\Minimal/QPeek.c **** 			xErrorDetected = pdTRUE;
 293              		.loc 1 252 0
 294 00da 034B     		ldr	r3, .L18
 295 00dc 0122     		movs	r2, #1
 296 00de 1A60     		str	r2, [r3]
 297              	.L16:
 253:..\Common\Minimal/QPeek.c **** 		}
 254:..\Common\Minimal/QPeek.c **** 
 255:..\Common\Minimal/QPeek.c **** 		vTaskSuspend( NULL );
 298              		.loc 1 255 0
 299 00e0 0020     		movs	r0, #0
 300 00e2 FFF7FEFF 		bl	vTaskSuspend
 256:..\Common\Minimal/QPeek.c **** 	}
 301              		.loc 1 256 0
 302 00e6 91E7     		b	.L17
 303              	.L19:
 304              		.align	2
 305              	.L18:
 306 00e8 00000000 		.word	xErrorDetected
ARM GAS  C:\Users\THUNDE~1\AppData\Local\Temp\ccrS2uzS.s 			page 11


 307 00ec 44332211 		.word	287454020
 308 00f0 67452301 		.word	19088743
 309 00f4 BBAABBAA 		.word	-1430541637
 310              		.cfi_endproc
 311              	.LFE69:
 312              		.size	prvHighestPriorityPeekTask, .-prvHighestPriorityPeekTask
 313              		.section	.text.prvHighPriorityPeekTask,"ax",%progbits
 314              		.align	2
 315              		.thumb
 316              		.thumb_func
 317              		.type	prvHighPriorityPeekTask, %function
 318              	prvHighPriorityPeekTask:
 319              	.LFB70:
 257:..\Common\Minimal/QPeek.c **** }
 258:..\Common\Minimal/QPeek.c **** /*-----------------------------------------------------------*/
 259:..\Common\Minimal/QPeek.c **** 
 260:..\Common\Minimal/QPeek.c **** static void prvHighPriorityPeekTask( void *pvParameters )
 261:..\Common\Minimal/QPeek.c **** {
 320              		.loc 1 261 0
 321              		.cfi_startproc
 322              		@ args = 0, pretend = 0, frame = 16
 323              		@ frame_needed = 1, uses_anonymous_args = 0
 324 0000 80B5     		push	{r7, lr}
 325              		.cfi_def_cfa_offset 8
 326              		.cfi_offset 7, -8
 327              		.cfi_offset 14, -4
 328 0002 84B0     		sub	sp, sp, #16
 329              		.cfi_def_cfa_offset 24
 330 0004 00AF     		add	r7, sp, #0
 331              		.cfi_def_cfa_register 7
 332 0006 7860     		str	r0, [r7, #4]
 262:..\Common\Minimal/QPeek.c **** QueueHandle_t xQueue = ( QueueHandle_t ) pvParameters;
 333              		.loc 1 262 0
 334 0008 7B68     		ldr	r3, [r7, #4]
 335 000a FB60     		str	r3, [r7, #12]
 336              	.L26:
 263:..\Common\Minimal/QPeek.c **** uint32_t ulValue;
 264:..\Common\Minimal/QPeek.c **** 
 265:..\Common\Minimal/QPeek.c **** 	for( ;; )
 266:..\Common\Minimal/QPeek.c **** 	{
 267:..\Common\Minimal/QPeek.c **** 		/* Try peeking from the queue.  The queue should be empty so we will
 268:..\Common\Minimal/QPeek.c **** 		block, allowing the medium priority task to execute.  Both the high
 269:..\Common\Minimal/QPeek.c **** 		and highest priority tasks will then be blocked on the queue. */
 270:..\Common\Minimal/QPeek.c **** 		if( xQueuePeek( xQueue, &ulValue, portMAX_DELAY ) != pdPASS )
 337              		.loc 1 270 0
 338 000c 07F10801 		add	r1, r7, #8
 339 0010 0123     		movs	r3, #1
 340 0012 4FF0FF32 		mov	r2, #-1
 341 0016 F868     		ldr	r0, [r7, #12]
 342 0018 FFF7FEFF 		bl	xQueueGenericReceive
 343 001c 0346     		mov	r3, r0
 344 001e 012B     		cmp	r3, #1
 345 0020 02D0     		beq	.L21
 271:..\Common\Minimal/QPeek.c **** 		{
 272:..\Common\Minimal/QPeek.c **** 			/* We expected to have received something by the time we unblock. */
 273:..\Common\Minimal/QPeek.c **** 			xErrorDetected = pdTRUE;
 346              		.loc 1 273 0
ARM GAS  C:\Users\THUNDE~1\AppData\Local\Temp\ccrS2uzS.s 			page 12


 347 0022 174B     		ldr	r3, .L27
 348 0024 0122     		movs	r2, #1
 349 0026 1A60     		str	r2, [r3]
 350              	.L21:
 274:..\Common\Minimal/QPeek.c **** 		}
 275:..\Common\Minimal/QPeek.c **** 
 276:..\Common\Minimal/QPeek.c **** 		/* When we get here the highest priority task should have peeked the data
 277:..\Common\Minimal/QPeek.c **** 		(unblocking this task) then suspended (allowing this task to also peek
 278:..\Common\Minimal/QPeek.c **** 		the data). */
 279:..\Common\Minimal/QPeek.c **** 		if( ulValue != 0x01234567 )
 351              		.loc 1 279 0
 352 0028 BB68     		ldr	r3, [r7, #8]
 353 002a 164A     		ldr	r2, .L27+4
 354 002c 9342     		cmp	r3, r2
 355 002e 02D0     		beq	.L22
 280:..\Common\Minimal/QPeek.c **** 		{
 281:..\Common\Minimal/QPeek.c **** 			/* We did not receive the expected value. */
 282:..\Common\Minimal/QPeek.c **** 			xErrorDetected = pdTRUE;
 356              		.loc 1 282 0
 357 0030 134B     		ldr	r3, .L27
 358 0032 0122     		movs	r2, #1
 359 0034 1A60     		str	r2, [r3]
 360              	.L22:
 283:..\Common\Minimal/QPeek.c **** 		}
 284:..\Common\Minimal/QPeek.c **** 
 285:..\Common\Minimal/QPeek.c **** 		if( uxQueueMessagesWaiting( xQueue ) != 1 )
 361              		.loc 1 285 0
 362 0036 F868     		ldr	r0, [r7, #12]
 363 0038 FFF7FEFF 		bl	uxQueueMessagesWaiting
 364 003c 0346     		mov	r3, r0
 365 003e 012B     		cmp	r3, #1
 366 0040 02D0     		beq	.L23
 286:..\Common\Minimal/QPeek.c **** 		{
 287:..\Common\Minimal/QPeek.c **** 			/* The message should have been left on the queue. */
 288:..\Common\Minimal/QPeek.c **** 			xErrorDetected = pdTRUE;
 367              		.loc 1 288 0
 368 0042 0F4B     		ldr	r3, .L27
 369 0044 0122     		movs	r2, #1
 370 0046 1A60     		str	r2, [r3]
 371              	.L23:
 289:..\Common\Minimal/QPeek.c **** 		}
 290:..\Common\Minimal/QPeek.c **** 
 291:..\Common\Minimal/QPeek.c **** 		/* We only peeked the data, so suspending ourselves now should enable
 292:..\Common\Minimal/QPeek.c **** 		the medium priority task to also peek the data.  The medium priority task
 293:..\Common\Minimal/QPeek.c **** 		will have been unblocked when we peeked the data as we left the data
 294:..\Common\Minimal/QPeek.c **** 		in the queue. */
 295:..\Common\Minimal/QPeek.c **** 		vTaskSuspend( NULL );
 372              		.loc 1 295 0
 373 0048 0020     		movs	r0, #0
 374 004a FFF7FEFF 		bl	vTaskSuspend
 296:..\Common\Minimal/QPeek.c **** 
 297:..\Common\Minimal/QPeek.c **** 
 298:..\Common\Minimal/QPeek.c **** 		/* This time we are going actually receive the value, so the medium
 299:..\Common\Minimal/QPeek.c **** 		priority task will never peek the data - we removed it from the queue. */
 300:..\Common\Minimal/QPeek.c **** 		if( xQueueReceive( xQueue, &ulValue, portMAX_DELAY ) != pdPASS )
 375              		.loc 1 300 0
 376 004e 07F10801 		add	r1, r7, #8
ARM GAS  C:\Users\THUNDE~1\AppData\Local\Temp\ccrS2uzS.s 			page 13


 377 0052 0023     		movs	r3, #0
 378 0054 4FF0FF32 		mov	r2, #-1
 379 0058 F868     		ldr	r0, [r7, #12]
 380 005a FFF7FEFF 		bl	xQueueGenericReceive
 381 005e 0346     		mov	r3, r0
 382 0060 012B     		cmp	r3, #1
 383 0062 02D0     		beq	.L24
 301:..\Common\Minimal/QPeek.c **** 		{
 302:..\Common\Minimal/QPeek.c **** 			xErrorDetected = pdTRUE;
 384              		.loc 1 302 0
 385 0064 064B     		ldr	r3, .L27
 386 0066 0122     		movs	r2, #1
 387 0068 1A60     		str	r2, [r3]
 388              	.L24:
 303:..\Common\Minimal/QPeek.c **** 		}
 304:..\Common\Minimal/QPeek.c **** 
 305:..\Common\Minimal/QPeek.c **** 		if( ulValue != 0xaabbaabb )
 389              		.loc 1 305 0
 390 006a BB68     		ldr	r3, [r7, #8]
 391 006c 064A     		ldr	r2, .L27+8
 392 006e 9342     		cmp	r3, r2
 393 0070 02D0     		beq	.L25
 306:..\Common\Minimal/QPeek.c **** 		{
 307:..\Common\Minimal/QPeek.c **** 			xErrorDetected = pdTRUE;
 394              		.loc 1 307 0
 395 0072 034B     		ldr	r3, .L27
 396 0074 0122     		movs	r2, #1
 397 0076 1A60     		str	r2, [r3]
 398              	.L25:
 308:..\Common\Minimal/QPeek.c **** 		}
 309:..\Common\Minimal/QPeek.c **** 
 310:..\Common\Minimal/QPeek.c **** 		vTaskSuspend( NULL );
 399              		.loc 1 310 0
 400 0078 0020     		movs	r0, #0
 401 007a FFF7FEFF 		bl	vTaskSuspend
 311:..\Common\Minimal/QPeek.c **** 	}
 402              		.loc 1 311 0
 403 007e C5E7     		b	.L26
 404              	.L28:
 405              		.align	2
 406              	.L27:
 407 0080 00000000 		.word	xErrorDetected
 408 0084 67452301 		.word	19088743
 409 0088 BBAABBAA 		.word	-1430541637
 410              		.cfi_endproc
 411              	.LFE70:
 412              		.size	prvHighPriorityPeekTask, .-prvHighPriorityPeekTask
 413              		.section	.text.prvMediumPriorityPeekTask,"ax",%progbits
 414              		.align	2
 415              		.thumb
 416              		.thumb_func
 417              		.type	prvMediumPriorityPeekTask, %function
 418              	prvMediumPriorityPeekTask:
 419              	.LFB71:
 312:..\Common\Minimal/QPeek.c **** }
 313:..\Common\Minimal/QPeek.c **** /*-----------------------------------------------------------*/
 314:..\Common\Minimal/QPeek.c **** 
ARM GAS  C:\Users\THUNDE~1\AppData\Local\Temp\ccrS2uzS.s 			page 14


 315:..\Common\Minimal/QPeek.c **** static void prvMediumPriorityPeekTask( void *pvParameters )
 316:..\Common\Minimal/QPeek.c **** {
 420              		.loc 1 316 0
 421              		.cfi_startproc
 422              		@ args = 0, pretend = 0, frame = 16
 423              		@ frame_needed = 1, uses_anonymous_args = 0
 424 0000 80B5     		push	{r7, lr}
 425              		.cfi_def_cfa_offset 8
 426              		.cfi_offset 7, -8
 427              		.cfi_offset 14, -4
 428 0002 84B0     		sub	sp, sp, #16
 429              		.cfi_def_cfa_offset 24
 430 0004 00AF     		add	r7, sp, #0
 431              		.cfi_def_cfa_register 7
 432 0006 7860     		str	r0, [r7, #4]
 317:..\Common\Minimal/QPeek.c **** QueueHandle_t xQueue = ( QueueHandle_t ) pvParameters;
 433              		.loc 1 317 0
 434 0008 7B68     		ldr	r3, [r7, #4]
 435 000a FB60     		str	r3, [r7, #12]
 436              	.L33:
 318:..\Common\Minimal/QPeek.c **** uint32_t ulValue;
 319:..\Common\Minimal/QPeek.c **** 
 320:..\Common\Minimal/QPeek.c **** 	for( ;; )
 321:..\Common\Minimal/QPeek.c **** 	{
 322:..\Common\Minimal/QPeek.c **** 		/* Try peeking from the queue.  The queue should be empty so we will
 323:..\Common\Minimal/QPeek.c **** 		block, allowing the low priority task to execute.  The highest, high
 324:..\Common\Minimal/QPeek.c **** 		and medium priority tasks will then all be blocked on the queue. */
 325:..\Common\Minimal/QPeek.c **** 		if( xQueuePeek( xQueue, &ulValue, portMAX_DELAY ) != pdPASS )
 437              		.loc 1 325 0
 438 000c 07F10801 		add	r1, r7, #8
 439 0010 0123     		movs	r3, #1
 440 0012 4FF0FF32 		mov	r2, #-1
 441 0016 F868     		ldr	r0, [r7, #12]
 442 0018 FFF7FEFF 		bl	xQueueGenericReceive
 443 001c 0346     		mov	r3, r0
 444 001e 012B     		cmp	r3, #1
 445 0020 02D0     		beq	.L30
 326:..\Common\Minimal/QPeek.c **** 		{
 327:..\Common\Minimal/QPeek.c **** 			/* We expected to have received something by the time we unblock. */
 328:..\Common\Minimal/QPeek.c **** 			xErrorDetected = pdTRUE;
 446              		.loc 1 328 0
 447 0022 0E4B     		ldr	r3, .L34
 448 0024 0122     		movs	r2, #1
 449 0026 1A60     		str	r2, [r3]
 450              	.L30:
 329:..\Common\Minimal/QPeek.c **** 		}
 330:..\Common\Minimal/QPeek.c **** 
 331:..\Common\Minimal/QPeek.c **** 		/* When we get here the high priority task should have peeked the data
 332:..\Common\Minimal/QPeek.c **** 		(unblocking this task) then suspended (allowing this task to also peek
 333:..\Common\Minimal/QPeek.c **** 		the data). */
 334:..\Common\Minimal/QPeek.c **** 		if( ulValue != 0x01234567 )
 451              		.loc 1 334 0
 452 0028 BB68     		ldr	r3, [r7, #8]
 453 002a 0D4A     		ldr	r2, .L34+4
 454 002c 9342     		cmp	r3, r2
 455 002e 02D0     		beq	.L31
 335:..\Common\Minimal/QPeek.c **** 		{
ARM GAS  C:\Users\THUNDE~1\AppData\Local\Temp\ccrS2uzS.s 			page 15


 336:..\Common\Minimal/QPeek.c **** 			/* We did not receive the expected value. */
 337:..\Common\Minimal/QPeek.c **** 			xErrorDetected = pdTRUE;
 456              		.loc 1 337 0
 457 0030 0A4B     		ldr	r3, .L34
 458 0032 0122     		movs	r2, #1
 459 0034 1A60     		str	r2, [r3]
 460              	.L31:
 338:..\Common\Minimal/QPeek.c **** 		}
 339:..\Common\Minimal/QPeek.c **** 
 340:..\Common\Minimal/QPeek.c **** 		if( uxQueueMessagesWaiting( xQueue ) != 1 )
 461              		.loc 1 340 0
 462 0036 F868     		ldr	r0, [r7, #12]
 463 0038 FFF7FEFF 		bl	uxQueueMessagesWaiting
 464 003c 0346     		mov	r3, r0
 465 003e 012B     		cmp	r3, #1
 466 0040 02D0     		beq	.L32
 341:..\Common\Minimal/QPeek.c **** 		{
 342:..\Common\Minimal/QPeek.c **** 			/* The message should have been left on the queue. */
 343:..\Common\Minimal/QPeek.c **** 			xErrorDetected = pdTRUE;
 467              		.loc 1 343 0
 468 0042 064B     		ldr	r3, .L34
 469 0044 0122     		movs	r2, #1
 470 0046 1A60     		str	r2, [r3]
 471              	.L32:
 344:..\Common\Minimal/QPeek.c **** 		}
 345:..\Common\Minimal/QPeek.c **** 
 346:..\Common\Minimal/QPeek.c **** 		/* Just so we know the test is still running. */
 347:..\Common\Minimal/QPeek.c **** 		ulLoopCounter++;
 472              		.loc 1 347 0
 473 0048 064B     		ldr	r3, .L34+8
 474 004a 1B68     		ldr	r3, [r3]
 475 004c 0133     		adds	r3, r3, #1
 476 004e 054A     		ldr	r2, .L34+8
 477 0050 1360     		str	r3, [r2]
 348:..\Common\Minimal/QPeek.c **** 
 349:..\Common\Minimal/QPeek.c **** 		/* Now we can suspend ourselves so the low priority task can execute
 350:..\Common\Minimal/QPeek.c **** 		again. */
 351:..\Common\Minimal/QPeek.c **** 		vTaskSuspend( NULL );
 478              		.loc 1 351 0
 479 0052 0020     		movs	r0, #0
 480 0054 FFF7FEFF 		bl	vTaskSuspend
 352:..\Common\Minimal/QPeek.c **** 	}
 481              		.loc 1 352 0
 482 0058 D8E7     		b	.L33
 483              	.L35:
 484 005a 00BF     		.align	2
 485              	.L34:
 486 005c 00000000 		.word	xErrorDetected
 487 0060 67452301 		.word	19088743
 488 0064 04000000 		.word	ulLoopCounter
 489              		.cfi_endproc
 490              	.LFE71:
 491              		.size	prvMediumPriorityPeekTask, .-prvMediumPriorityPeekTask
 492              		.section	.text.prvLowPriorityPeekTask,"ax",%progbits
 493              		.align	2
 494              		.thumb
 495              		.thumb_func
ARM GAS  C:\Users\THUNDE~1\AppData\Local\Temp\ccrS2uzS.s 			page 16


 496              		.type	prvLowPriorityPeekTask, %function
 497              	prvLowPriorityPeekTask:
 498              	.LFB72:
 353:..\Common\Minimal/QPeek.c **** }
 354:..\Common\Minimal/QPeek.c **** /*-----------------------------------------------------------*/
 355:..\Common\Minimal/QPeek.c **** 
 356:..\Common\Minimal/QPeek.c **** static void prvLowPriorityPeekTask( void *pvParameters )
 357:..\Common\Minimal/QPeek.c **** {
 499              		.loc 1 357 0
 500              		.cfi_startproc
 501              		@ args = 0, pretend = 0, frame = 16
 502              		@ frame_needed = 1, uses_anonymous_args = 0
 503 0000 80B5     		push	{r7, lr}
 504              		.cfi_def_cfa_offset 8
 505              		.cfi_offset 7, -8
 506              		.cfi_offset 14, -4
 507 0002 84B0     		sub	sp, sp, #16
 508              		.cfi_def_cfa_offset 24
 509 0004 00AF     		add	r7, sp, #0
 510              		.cfi_def_cfa_register 7
 511 0006 7860     		str	r0, [r7, #4]
 358:..\Common\Minimal/QPeek.c **** QueueHandle_t xQueue = ( QueueHandle_t ) pvParameters;
 512              		.loc 1 358 0
 513 0008 7B68     		ldr	r3, [r7, #4]
 514 000a FB60     		str	r3, [r7, #12]
 515              	.L43:
 359:..\Common\Minimal/QPeek.c **** uint32_t ulValue;
 360:..\Common\Minimal/QPeek.c **** 
 361:..\Common\Minimal/QPeek.c **** 	for( ;; )
 362:..\Common\Minimal/QPeek.c **** 	{
 363:..\Common\Minimal/QPeek.c **** 		/* Write some data to the queue.  This should unblock the highest
 364:..\Common\Minimal/QPeek.c **** 		priority task that is waiting to peek data from the queue. */
 365:..\Common\Minimal/QPeek.c **** 		ulValue = 0x11223344;
 516              		.loc 1 365 0
 517 000c 384B     		ldr	r3, .L44
 518 000e BB60     		str	r3, [r7, #8]
 366:..\Common\Minimal/QPeek.c **** 		if( xQueueSendToBack( xQueue, &ulValue, qpeekNO_BLOCK ) != pdPASS )
 519              		.loc 1 366 0
 520 0010 07F10801 		add	r1, r7, #8
 521 0014 0023     		movs	r3, #0
 522 0016 0022     		movs	r2, #0
 523 0018 F868     		ldr	r0, [r7, #12]
 524 001a FFF7FEFF 		bl	xQueueGenericSend
 525 001e 0346     		mov	r3, r0
 526 0020 012B     		cmp	r3, #1
 527 0022 02D0     		beq	.L37
 367:..\Common\Minimal/QPeek.c **** 		{
 368:..\Common\Minimal/QPeek.c **** 			/* We were expecting the queue to be empty so we should not of
 369:..\Common\Minimal/QPeek.c **** 			had a problem writing to the queue. */
 370:..\Common\Minimal/QPeek.c **** 			xErrorDetected = pdTRUE;
 528              		.loc 1 370 0
 529 0024 334B     		ldr	r3, .L44+4
 530 0026 0122     		movs	r2, #1
 531 0028 1A60     		str	r2, [r3]
 532              	.L37:
 371:..\Common\Minimal/QPeek.c **** 		}
 372:..\Common\Minimal/QPeek.c **** 
ARM GAS  C:\Users\THUNDE~1\AppData\Local\Temp\ccrS2uzS.s 			page 17


 373:..\Common\Minimal/QPeek.c **** 		#if configUSE_PREEMPTION == 0
 374:..\Common\Minimal/QPeek.c **** 			taskYIELD();
 375:..\Common\Minimal/QPeek.c **** 		#endif
 376:..\Common\Minimal/QPeek.c **** 
 377:..\Common\Minimal/QPeek.c **** 		/* By the time we get here the data should have been removed from
 378:..\Common\Minimal/QPeek.c **** 		the queue. */
 379:..\Common\Minimal/QPeek.c **** 		if( uxQueueMessagesWaiting( xQueue ) != 0 )
 533              		.loc 1 379 0
 534 002a F868     		ldr	r0, [r7, #12]
 535 002c FFF7FEFF 		bl	uxQueueMessagesWaiting
 536 0030 0346     		mov	r3, r0
 537 0032 002B     		cmp	r3, #0
 538 0034 02D0     		beq	.L38
 380:..\Common\Minimal/QPeek.c **** 		{
 381:..\Common\Minimal/QPeek.c **** 			xErrorDetected = pdTRUE;
 539              		.loc 1 381 0
 540 0036 2F4B     		ldr	r3, .L44+4
 541 0038 0122     		movs	r2, #1
 542 003a 1A60     		str	r2, [r3]
 543              	.L38:
 382:..\Common\Minimal/QPeek.c **** 		}
 383:..\Common\Minimal/QPeek.c **** 
 384:..\Common\Minimal/QPeek.c **** 		/* Write another value to the queue, again waking the highest priority
 385:..\Common\Minimal/QPeek.c **** 		task that is blocked on the queue. */
 386:..\Common\Minimal/QPeek.c **** 		ulValue = 0x01234567;
 544              		.loc 1 386 0
 545 003c 2E4B     		ldr	r3, .L44+8
 546 003e BB60     		str	r3, [r7, #8]
 387:..\Common\Minimal/QPeek.c **** 		if( xQueueSendToBack( xQueue, &ulValue, qpeekNO_BLOCK ) != pdPASS )
 547              		.loc 1 387 0
 548 0040 07F10801 		add	r1, r7, #8
 549 0044 0023     		movs	r3, #0
 550 0046 0022     		movs	r2, #0
 551 0048 F868     		ldr	r0, [r7, #12]
 552 004a FFF7FEFF 		bl	xQueueGenericSend
 553 004e 0346     		mov	r3, r0
 554 0050 012B     		cmp	r3, #1
 555 0052 02D0     		beq	.L39
 388:..\Common\Minimal/QPeek.c **** 		{
 389:..\Common\Minimal/QPeek.c **** 			/* We were expecting the queue to be empty so we should not of
 390:..\Common\Minimal/QPeek.c **** 			had a problem writing to the queue. */
 391:..\Common\Minimal/QPeek.c **** 			xErrorDetected = pdTRUE;
 556              		.loc 1 391 0
 557 0054 274B     		ldr	r3, .L44+4
 558 0056 0122     		movs	r2, #1
 559 0058 1A60     		str	r2, [r3]
 560              	.L39:
 392:..\Common\Minimal/QPeek.c **** 		}
 393:..\Common\Minimal/QPeek.c **** 
 394:..\Common\Minimal/QPeek.c **** 		#if configUSE_PREEMPTION == 0
 395:..\Common\Minimal/QPeek.c **** 			taskYIELD();
 396:..\Common\Minimal/QPeek.c **** 		#endif
 397:..\Common\Minimal/QPeek.c **** 
 398:..\Common\Minimal/QPeek.c **** 		/* All the other tasks should now have successfully peeked the data.
 399:..\Common\Minimal/QPeek.c **** 		The data is still in the queue so we should be able to receive it. */
 400:..\Common\Minimal/QPeek.c **** 		ulValue = 0;
 561              		.loc 1 400 0
ARM GAS  C:\Users\THUNDE~1\AppData\Local\Temp\ccrS2uzS.s 			page 18


 562 005a 0023     		movs	r3, #0
 563 005c BB60     		str	r3, [r7, #8]
 401:..\Common\Minimal/QPeek.c **** 		if( xQueueReceive( xQueue, &ulValue, qpeekNO_BLOCK ) != pdPASS )
 564              		.loc 1 401 0
 565 005e 07F10801 		add	r1, r7, #8
 566 0062 0023     		movs	r3, #0
 567 0064 0022     		movs	r2, #0
 568 0066 F868     		ldr	r0, [r7, #12]
 569 0068 FFF7FEFF 		bl	xQueueGenericReceive
 570 006c 0346     		mov	r3, r0
 571 006e 012B     		cmp	r3, #1
 572 0070 02D0     		beq	.L40
 402:..\Common\Minimal/QPeek.c **** 		{
 403:..\Common\Minimal/QPeek.c **** 			/* We expected to receive the data. */
 404:..\Common\Minimal/QPeek.c **** 			xErrorDetected = pdTRUE;
 573              		.loc 1 404 0
 574 0072 204B     		ldr	r3, .L44+4
 575 0074 0122     		movs	r2, #1
 576 0076 1A60     		str	r2, [r3]
 577              	.L40:
 405:..\Common\Minimal/QPeek.c **** 		}
 406:..\Common\Minimal/QPeek.c **** 
 407:..\Common\Minimal/QPeek.c **** 		if( ulValue != 0x01234567 )
 408:..\Common\Minimal/QPeek.c **** 		{
 409:..\Common\Minimal/QPeek.c **** 			/* We did not receive the expected value. */
 410:..\Common\Minimal/QPeek.c **** 		}
 411:..\Common\Minimal/QPeek.c **** 
 412:..\Common\Minimal/QPeek.c **** 		/* Lets just delay a while as this is an intensive test as we don't
 413:..\Common\Minimal/QPeek.c **** 		want to starve other tests of processing time. */
 414:..\Common\Minimal/QPeek.c **** 		vTaskDelay( qpeekSHORT_DELAY );
 578              		.loc 1 414 0
 579 0078 0A20     		movs	r0, #10
 580 007a FFF7FEFF 		bl	vTaskDelay
 415:..\Common\Minimal/QPeek.c **** 
 416:..\Common\Minimal/QPeek.c **** 		/* Unsuspend the other tasks so we can repeat the test - this time
 417:..\Common\Minimal/QPeek.c **** 		however not all the other tasks will peek the data as the high
 418:..\Common\Minimal/QPeek.c **** 		priority task is actually going to remove it from the queue.  Send
 419:..\Common\Minimal/QPeek.c **** 		to front is used just to be different.  As the queue is empty it
 420:..\Common\Minimal/QPeek.c **** 		makes no difference to the result. */
 421:..\Common\Minimal/QPeek.c **** 		vTaskResume( xMediumPriorityTask );
 581              		.loc 1 421 0
 582 007e 1F4B     		ldr	r3, .L44+12
 583 0080 1B68     		ldr	r3, [r3]
 584 0082 1846     		mov	r0, r3
 585 0084 FFF7FEFF 		bl	vTaskResume
 422:..\Common\Minimal/QPeek.c **** 		vTaskResume( xHighPriorityTask );
 586              		.loc 1 422 0
 587 0088 1D4B     		ldr	r3, .L44+16
 588 008a 1B68     		ldr	r3, [r3]
 589 008c 1846     		mov	r0, r3
 590 008e FFF7FEFF 		bl	vTaskResume
 423:..\Common\Minimal/QPeek.c **** 		vTaskResume( xHighestPriorityTask );
 591              		.loc 1 423 0
 592 0092 1C4B     		ldr	r3, .L44+20
 593 0094 1B68     		ldr	r3, [r3]
 594 0096 1846     		mov	r0, r3
 595 0098 FFF7FEFF 		bl	vTaskResume
ARM GAS  C:\Users\THUNDE~1\AppData\Local\Temp\ccrS2uzS.s 			page 19


 424:..\Common\Minimal/QPeek.c **** 
 425:..\Common\Minimal/QPeek.c **** 		#if( configUSE_PREEMPTION == 0 )
 426:..\Common\Minimal/QPeek.c **** 			taskYIELD();
 427:..\Common\Minimal/QPeek.c **** 		#endif
 428:..\Common\Minimal/QPeek.c **** 
 429:..\Common\Minimal/QPeek.c **** 		ulValue = 0xaabbaabb;
 596              		.loc 1 429 0
 597 009c 1A4B     		ldr	r3, .L44+24
 598 009e BB60     		str	r3, [r7, #8]
 430:..\Common\Minimal/QPeek.c **** 		if( xQueueSendToFront( xQueue, &ulValue, qpeekNO_BLOCK ) != pdPASS )
 599              		.loc 1 430 0
 600 00a0 07F10801 		add	r1, r7, #8
 601 00a4 0123     		movs	r3, #1
 602 00a6 0022     		movs	r2, #0
 603 00a8 F868     		ldr	r0, [r7, #12]
 604 00aa FFF7FEFF 		bl	xQueueGenericSend
 605 00ae 0346     		mov	r3, r0
 606 00b0 012B     		cmp	r3, #1
 607 00b2 02D0     		beq	.L41
 431:..\Common\Minimal/QPeek.c **** 		{
 432:..\Common\Minimal/QPeek.c **** 			/* We were expecting the queue to be empty so we should not of
 433:..\Common\Minimal/QPeek.c **** 			had a problem writing to the queue. */
 434:..\Common\Minimal/QPeek.c **** 			xErrorDetected = pdTRUE;
 608              		.loc 1 434 0
 609 00b4 0F4B     		ldr	r3, .L44+4
 610 00b6 0122     		movs	r2, #1
 611 00b8 1A60     		str	r2, [r3]
 612              	.L41:
 435:..\Common\Minimal/QPeek.c **** 		}
 436:..\Common\Minimal/QPeek.c **** 
 437:..\Common\Minimal/QPeek.c **** 		#if configUSE_PREEMPTION == 0
 438:..\Common\Minimal/QPeek.c **** 			taskYIELD();
 439:..\Common\Minimal/QPeek.c **** 		#endif
 440:..\Common\Minimal/QPeek.c **** 
 441:..\Common\Minimal/QPeek.c **** 		/* This time we should find that the queue is empty.  The high priority
 442:..\Common\Minimal/QPeek.c **** 		task actually removed the data rather than just peeking it. */
 443:..\Common\Minimal/QPeek.c **** 		if( xQueuePeek( xQueue, &ulValue, qpeekNO_BLOCK ) != errQUEUE_EMPTY )
 613              		.loc 1 443 0
 614 00ba 07F10801 		add	r1, r7, #8
 615 00be 0123     		movs	r3, #1
 616 00c0 0022     		movs	r2, #0
 617 00c2 F868     		ldr	r0, [r7, #12]
 618 00c4 FFF7FEFF 		bl	xQueueGenericReceive
 619 00c8 0346     		mov	r3, r0
 620 00ca 002B     		cmp	r3, #0
 621 00cc 02D0     		beq	.L42
 444:..\Common\Minimal/QPeek.c **** 		{
 445:..\Common\Minimal/QPeek.c **** 			/* We expected to receive the data. */
 446:..\Common\Minimal/QPeek.c **** 			xErrorDetected = pdTRUE;
 622              		.loc 1 446 0
 623 00ce 094B     		ldr	r3, .L44+4
 624 00d0 0122     		movs	r2, #1
 625 00d2 1A60     		str	r2, [r3]
 626              	.L42:
 447:..\Common\Minimal/QPeek.c **** 		}
 448:..\Common\Minimal/QPeek.c **** 
 449:..\Common\Minimal/QPeek.c **** 		/* Unsuspend the highest and high priority tasks so we can go back
ARM GAS  C:\Users\THUNDE~1\AppData\Local\Temp\ccrS2uzS.s 			page 20


 450:..\Common\Minimal/QPeek.c **** 		and repeat the whole thing.  The medium priority task should not be
 451:..\Common\Minimal/QPeek.c **** 		suspended as it was not able to peek the data in this last case. */
 452:..\Common\Minimal/QPeek.c **** 		vTaskResume( xHighPriorityTask );
 627              		.loc 1 452 0
 628 00d4 0A4B     		ldr	r3, .L44+16
 629 00d6 1B68     		ldr	r3, [r3]
 630 00d8 1846     		mov	r0, r3
 631 00da FFF7FEFF 		bl	vTaskResume
 453:..\Common\Minimal/QPeek.c **** 		vTaskResume( xHighestPriorityTask );
 632              		.loc 1 453 0
 633 00de 094B     		ldr	r3, .L44+20
 634 00e0 1B68     		ldr	r3, [r3]
 635 00e2 1846     		mov	r0, r3
 636 00e4 FFF7FEFF 		bl	vTaskResume
 454:..\Common\Minimal/QPeek.c **** 
 455:..\Common\Minimal/QPeek.c **** 		/* Lets just delay a while as this is an intensive test as we don't
 456:..\Common\Minimal/QPeek.c **** 		want to starve other tests of processing time. */
 457:..\Common\Minimal/QPeek.c **** 		vTaskDelay( qpeekSHORT_DELAY );
 637              		.loc 1 457 0
 638 00e8 0A20     		movs	r0, #10
 639 00ea FFF7FEFF 		bl	vTaskDelay
 458:..\Common\Minimal/QPeek.c **** 	}
 640              		.loc 1 458 0
 641 00ee 8DE7     		b	.L43
 642              	.L45:
 643              		.align	2
 644              	.L44:
 645 00f0 44332211 		.word	287454020
 646 00f4 00000000 		.word	xErrorDetected
 647 00f8 67452301 		.word	19088743
 648 00fc 00000000 		.word	xMediumPriorityTask
 649 0100 00000000 		.word	xHighPriorityTask
 650 0104 00000000 		.word	xHighestPriorityTask
 651 0108 BBAABBAA 		.word	-1430541637
 652              		.cfi_endproc
 653              	.LFE72:
 654              		.size	prvLowPriorityPeekTask, .-prvLowPriorityPeekTask
 655              		.section	.text.xAreQueuePeekTasksStillRunning,"ax",%progbits
 656              		.align	2
 657              		.global	xAreQueuePeekTasksStillRunning
 658              		.thumb
 659              		.thumb_func
 660              		.type	xAreQueuePeekTasksStillRunning, %function
 661              	xAreQueuePeekTasksStillRunning:
 662              	.LFB73:
 459:..\Common\Minimal/QPeek.c **** }
 460:..\Common\Minimal/QPeek.c **** /*-----------------------------------------------------------*/
 461:..\Common\Minimal/QPeek.c **** 
 462:..\Common\Minimal/QPeek.c **** /* This is called to check that all the created tasks are still running. */
 463:..\Common\Minimal/QPeek.c **** BaseType_t xAreQueuePeekTasksStillRunning( void )
 464:..\Common\Minimal/QPeek.c **** {
 663              		.loc 1 464 0
 664              		.cfi_startproc
 665              		@ args = 0, pretend = 0, frame = 0
 666              		@ frame_needed = 1, uses_anonymous_args = 0
 667              		@ link register save eliminated.
 668 0000 80B4     		push	{r7}
ARM GAS  C:\Users\THUNDE~1\AppData\Local\Temp\ccrS2uzS.s 			page 21


 669              		.cfi_def_cfa_offset 4
 670              		.cfi_offset 7, -4
 671 0002 00AF     		add	r7, sp, #0
 672              		.cfi_def_cfa_register 7
 465:..\Common\Minimal/QPeek.c **** static uint32_t ulLastLoopCounter = 0;
 466:..\Common\Minimal/QPeek.c **** 
 467:..\Common\Minimal/QPeek.c **** 	/* If the demo task is still running then we expect the loopcounter to
 468:..\Common\Minimal/QPeek.c **** 	have incremented since this function was last called. */
 469:..\Common\Minimal/QPeek.c **** 	if( ulLastLoopCounter == ulLoopCounter )
 673              		.loc 1 469 0
 674 0004 0B4B     		ldr	r3, .L49
 675 0006 1A68     		ldr	r2, [r3]
 676 0008 0B4B     		ldr	r3, .L49+4
 677 000a 1B68     		ldr	r3, [r3]
 678 000c 9A42     		cmp	r2, r3
 679 000e 02D1     		bne	.L47
 470:..\Common\Minimal/QPeek.c **** 	{
 471:..\Common\Minimal/QPeek.c **** 		xErrorDetected = pdTRUE;
 680              		.loc 1 471 0
 681 0010 0A4B     		ldr	r3, .L49+8
 682 0012 0122     		movs	r2, #1
 683 0014 1A60     		str	r2, [r3]
 684              	.L47:
 472:..\Common\Minimal/QPeek.c **** 	}
 473:..\Common\Minimal/QPeek.c **** 
 474:..\Common\Minimal/QPeek.c **** 	ulLastLoopCounter = ulLoopCounter;
 685              		.loc 1 474 0
 686 0016 084B     		ldr	r3, .L49+4
 687 0018 1B68     		ldr	r3, [r3]
 688 001a 064A     		ldr	r2, .L49
 689 001c 1360     		str	r3, [r2]
 475:..\Common\Minimal/QPeek.c **** 
 476:..\Common\Minimal/QPeek.c **** 	/* Errors detected in the task itself will have latched xErrorDetected
 477:..\Common\Minimal/QPeek.c **** 	to true. */
 478:..\Common\Minimal/QPeek.c **** 
 479:..\Common\Minimal/QPeek.c **** 	return ( BaseType_t ) !xErrorDetected;
 690              		.loc 1 479 0
 691 001e 074B     		ldr	r3, .L49+8
 692 0020 1B68     		ldr	r3, [r3]
 693 0022 002B     		cmp	r3, #0
 694 0024 0CBF     		ite	eq
 695 0026 0123     		moveq	r3, #1
 696 0028 0023     		movne	r3, #0
 697 002a DBB2     		uxtb	r3, r3
 480:..\Common\Minimal/QPeek.c **** }
 698              		.loc 1 480 0
 699 002c 1846     		mov	r0, r3
 700 002e BD46     		mov	sp, r7
 701              		.cfi_def_cfa_register 13
 702              		@ sp needed
 703 0030 80BC     		pop	{r7}
 704              		.cfi_restore 7
 705              		.cfi_def_cfa_offset 0
 706 0032 7047     		bx	lr
 707              	.L50:
 708              		.align	2
 709              	.L49:
ARM GAS  C:\Users\THUNDE~1\AppData\Local\Temp\ccrS2uzS.s 			page 22


 710 0034 08000000 		.word	ulLastLoopCounter.7576
 711 0038 04000000 		.word	ulLoopCounter
 712 003c 00000000 		.word	xErrorDetected
 713              		.cfi_endproc
 714              	.LFE73:
 715              		.size	xAreQueuePeekTasksStillRunning, .-xAreQueuePeekTasksStillRunning
 716              		.bss
 717              		.align	2
 718              	ulLastLoopCounter.7576:
 719 0008 00000000 		.space	4
 720              		.text
 721              	.Letext0:
 722              		.file 2 "c:\\program files (x86)\\cypress\\psoc creator\\4.2\\psoc creator\\import\\gnu\\arm\\5.4.
 723              		.file 3 "c:\\program files (x86)\\cypress\\psoc creator\\4.2\\psoc creator\\import\\gnu\\arm\\5.4.
 724              		.file 4 ".\\Tracer/sniffPayload.h"
 725              		.file 5 ".\\Tracer/selfFIFO.h"
 726              		.file 6 "..\\Source\\portable\\GCC\\ARM_CM3/portmacro.h"
 727              		.file 7 "..\\Source\\include/task.h"
 728              		.file 8 "..\\Source\\include/queue.h"
 729              		.file 9 "Generated_Source\\PSoC5/core_cm3.h"
 730              		.file 10 ".\\Tracer/sniffTask.h"