ARM GAS  C:\Users\THUNDE~1\AppData\Local\Temp\ccfOsMdS.s 			page 1


   1              		.syntax unified
   2              		.cpu cortex-m3
   3              		.fpu softvfp
   4              		.eabi_attribute 20, 1
   5              		.eabi_attribute 21, 1
   6              		.eabi_attribute 23, 3
   7              		.eabi_attribute 24, 1
   8              		.eabi_attribute 25, 1
   9              		.eabi_attribute 26, 1
  10              		.eabi_attribute 30, 6
  11              		.eabi_attribute 34, 1
  12              		.eabi_attribute 18, 4
  13              		.thumb
  14              		.syntax unified
  15              		.file	"selfFIFO.c"
  16              		.text
  17              	.Ltext0:
  18              		.cfi_sections	.debug_frame
  19              		.comm	buffer,4098,4
  20              		.section	.text.BufferIn,"ax",%progbits
  21              		.align	2
  22              		.global	BufferIn
  23              		.thumb
  24              		.thumb_func
  25              		.type	BufferIn, %function
  26              	BufferIn:
  27              	.LFB0:
  28              		.file 1 "Tracer\\selfFIFO.c"
   1:Tracer/selfFIFO.c **** 
   2:Tracer/selfFIFO.c **** 
   3:Tracer/selfFIFO.c **** 
   4:Tracer/selfFIFO.c **** 
   5:Tracer/selfFIFO.c **** //
   6:Tracer/selfFIFO.c **** // Stellt 1 Byte in den Ringbuffer
   7:Tracer/selfFIFO.c **** //
   8:Tracer/selfFIFO.c **** // Returns:
   9:Tracer/selfFIFO.c **** //     BUFFER_FAIL       der Ringbuffer ist voll. Es kann kein weiteres Byte gespeichert werden
  10:Tracer/selfFIFO.c **** //     BUFFER_SUCCESS    das Byte wurde gespeichert
  11:Tracer/selfFIFO.c **** //
  12:Tracer/selfFIFO.c **** #include "selfFIFO.h"
  13:Tracer/selfFIFO.c **** 
  14:Tracer/selfFIFO.c **** uint8_t BufferIn(uint8_t byte)
  15:Tracer/selfFIFO.c **** {
  29              		.loc 1 15 0
  30              		.cfi_startproc
  31              		@ args = 0, pretend = 0, frame = 16
  32              		@ frame_needed = 1, uses_anonymous_args = 0
  33              		@ link register save eliminated.
  34 0000 80B4     		push	{r7}
  35              		.cfi_def_cfa_offset 4
  36              		.cfi_offset 7, -4
  37 0002 85B0     		sub	sp, sp, #20
  38              		.cfi_def_cfa_offset 24
  39 0004 00AF     		add	r7, sp, #0
  40              		.cfi_def_cfa_register 7
  41 0006 0346     		mov	r3, r0
  42 0008 FB71     		strb	r3, [r7, #7]
ARM GAS  C:\Users\THUNDE~1\AppData\Local\Temp\ccfOsMdS.s 			page 2


  16:Tracer/selfFIFO.c ****   uint8_t next = ((buffer.write + 1) & BUFFER_MASK);
  43              		.loc 1 16 0
  44 000a 124B     		ldr	r3, .L4
  45 000c 03F58053 		add	r3, r3, #4096
  46 0010 0133     		adds	r3, r3, #1
  47 0012 1B78     		ldrb	r3, [r3]	@ zero_extendqisi2
  48 0014 0133     		adds	r3, r3, #1
  49 0016 FB73     		strb	r3, [r7, #15]
  17:Tracer/selfFIFO.c **** 
  18:Tracer/selfFIFO.c ****   if (buffer.read == next)
  50              		.loc 1 18 0
  51 0018 0E4B     		ldr	r3, .L4
  52 001a 03F58053 		add	r3, r3, #4096
  53 001e 1B78     		ldrb	r3, [r3]	@ zero_extendqisi2
  54 0020 FA7B     		ldrb	r2, [r7, #15]	@ zero_extendqisi2
  55 0022 9A42     		cmp	r2, r3
  56 0024 01D1     		bne	.L2
  19:Tracer/selfFIFO.c ****     return BUFFER_FAIL; // voll
  57              		.loc 1 19 0
  58 0026 0023     		movs	r3, #0
  59 0028 0FE0     		b	.L3
  60              	.L2:
  20:Tracer/selfFIFO.c **** 
  21:Tracer/selfFIFO.c ****   buffer.data[buffer.write] = byte;
  61              		.loc 1 21 0
  62 002a 0A4B     		ldr	r3, .L4
  63 002c 03F58053 		add	r3, r3, #4096
  64 0030 0133     		adds	r3, r3, #1
  65 0032 1B78     		ldrb	r3, [r3]	@ zero_extendqisi2
  66 0034 1946     		mov	r1, r3
  67 0036 074A     		ldr	r2, .L4
  68 0038 FB79     		ldrb	r3, [r7, #7]
  69 003a 5354     		strb	r3, [r2, r1]
  22:Tracer/selfFIFO.c ****   // buffer.data[buffer.write & BUFFER_MASK] = byte; // absolut Sicher
  23:Tracer/selfFIFO.c ****   buffer.write = next;
  70              		.loc 1 23 0
  71 003c 054B     		ldr	r3, .L4
  72 003e 03F58053 		add	r3, r3, #4096
  73 0042 0133     		adds	r3, r3, #1
  74 0044 FA7B     		ldrb	r2, [r7, #15]
  75 0046 1A70     		strb	r2, [r3]
  24:Tracer/selfFIFO.c **** 
  25:Tracer/selfFIFO.c ****   return BUFFER_SUCCESS;
  76              		.loc 1 25 0
  77 0048 0123     		movs	r3, #1
  78              	.L3:
  26:Tracer/selfFIFO.c **** }
  79              		.loc 1 26 0
  80 004a 1846     		mov	r0, r3
  81 004c 1437     		adds	r7, r7, #20
  82              		.cfi_def_cfa_offset 4
  83 004e BD46     		mov	sp, r7
  84              		.cfi_def_cfa_register 13
  85              		@ sp needed
  86 0050 80BC     		pop	{r7}
  87              		.cfi_restore 7
  88              		.cfi_def_cfa_offset 0
ARM GAS  C:\Users\THUNDE~1\AppData\Local\Temp\ccfOsMdS.s 			page 3


  89 0052 7047     		bx	lr
  90              	.L5:
  91              		.align	2
  92              	.L4:
  93 0054 00000000 		.word	buffer
  94              		.cfi_endproc
  95              	.LFE0:
  96              		.size	BufferIn, .-BufferIn
  97              		.section	.text.BufferOut,"ax",%progbits
  98              		.align	2
  99              		.global	BufferOut
 100              		.thumb
 101              		.thumb_func
 102              		.type	BufferOut, %function
 103              	BufferOut:
 104              	.LFB1:
  27:Tracer/selfFIFO.c **** 
  28:Tracer/selfFIFO.c **** //
  29:Tracer/selfFIFO.c **** // Holt 1 Byte aus dem Ringbuffer, sofern mindestens eines abholbereit ist
  30:Tracer/selfFIFO.c **** //
  31:Tracer/selfFIFO.c **** // Returns:
  32:Tracer/selfFIFO.c **** //     BUFFER_FAIL       der Ringbuffer ist leer. Es kann kein Byte geliefert werden.
  33:Tracer/selfFIFO.c **** //     BUFFER_SUCCESS    1 Byte wurde geliefert
  34:Tracer/selfFIFO.c **** //
  35:Tracer/selfFIFO.c **** uint8_t BufferOut(uint8_t *pByte)
  36:Tracer/selfFIFO.c **** {
 105              		.loc 1 36 0
 106              		.cfi_startproc
 107              		@ args = 0, pretend = 0, frame = 8
 108              		@ frame_needed = 1, uses_anonymous_args = 0
 109              		@ link register save eliminated.
 110 0000 80B4     		push	{r7}
 111              		.cfi_def_cfa_offset 4
 112              		.cfi_offset 7, -4
 113 0002 83B0     		sub	sp, sp, #12
 114              		.cfi_def_cfa_offset 16
 115 0004 00AF     		add	r7, sp, #0
 116              		.cfi_def_cfa_register 7
 117 0006 7860     		str	r0, [r7, #4]
  37:Tracer/selfFIFO.c ****   if (buffer.read == buffer.write)
 118              		.loc 1 37 0
 119 0008 124B     		ldr	r3, .L9
 120 000a 03F58053 		add	r3, r3, #4096
 121 000e 1A78     		ldrb	r2, [r3]	@ zero_extendqisi2
 122 0010 104B     		ldr	r3, .L9
 123 0012 03F58053 		add	r3, r3, #4096
 124 0016 0133     		adds	r3, r3, #1
 125 0018 1B78     		ldrb	r3, [r3]	@ zero_extendqisi2
 126 001a 9A42     		cmp	r2, r3
 127 001c 01D1     		bne	.L7
  38:Tracer/selfFIFO.c ****     return BUFFER_FAIL;
 128              		.loc 1 38 0
 129 001e 0023     		movs	r3, #0
 130 0020 13E0     		b	.L8
 131              	.L7:
  39:Tracer/selfFIFO.c **** 
  40:Tracer/selfFIFO.c ****   *pByte = buffer.data[buffer.read];
ARM GAS  C:\Users\THUNDE~1\AppData\Local\Temp\ccfOsMdS.s 			page 4


 132              		.loc 1 40 0
 133 0022 0C4B     		ldr	r3, .L9
 134 0024 03F58053 		add	r3, r3, #4096
 135 0028 1B78     		ldrb	r3, [r3]	@ zero_extendqisi2
 136 002a 1A46     		mov	r2, r3
 137 002c 094B     		ldr	r3, .L9
 138 002e 9A5C     		ldrb	r2, [r3, r2]	@ zero_extendqisi2
 139 0030 7B68     		ldr	r3, [r7, #4]
 140 0032 1A70     		strb	r2, [r3]
  41:Tracer/selfFIFO.c **** 
  42:Tracer/selfFIFO.c ****   buffer.read = (buffer.read+1) & BUFFER_MASK;
 141              		.loc 1 42 0
 142 0034 074B     		ldr	r3, .L9
 143 0036 03F58053 		add	r3, r3, #4096
 144 003a 1B78     		ldrb	r3, [r3]	@ zero_extendqisi2
 145 003c 0133     		adds	r3, r3, #1
 146 003e DAB2     		uxtb	r2, r3
 147 0040 044B     		ldr	r3, .L9
 148 0042 03F58053 		add	r3, r3, #4096
 149 0046 1A70     		strb	r2, [r3]
  43:Tracer/selfFIFO.c **** 
  44:Tracer/selfFIFO.c ****   return BUFFER_SUCCESS;
 150              		.loc 1 44 0
 151 0048 0123     		movs	r3, #1
 152              	.L8:
  45:Tracer/selfFIFO.c **** }
 153              		.loc 1 45 0
 154 004a 1846     		mov	r0, r3
 155 004c 0C37     		adds	r7, r7, #12
 156              		.cfi_def_cfa_offset 4
 157 004e BD46     		mov	sp, r7
 158              		.cfi_def_cfa_register 13
 159              		@ sp needed
 160 0050 80BC     		pop	{r7}
 161              		.cfi_restore 7
 162              		.cfi_def_cfa_offset 0
 163 0052 7047     		bx	lr
 164              	.L10:
 165              		.align	2
 166              	.L9:
 167 0054 00000000 		.word	buffer
 168              		.cfi_endproc
 169              	.LFE1:
 170              		.size	BufferOut, .-BufferOut
 171              		.text
 172              	.Letext0:
 173              		.file 2 "c:\\program files (x86)\\cypress\\psoc creator\\4.2\\psoc creator\\import\\gnu\\arm\\5.4.
 174              		.file 3 "c:\\program files (x86)\\cypress\\psoc creator\\4.2\\psoc creator\\import\\gnu\\arm\\5.4.
 175              		.file 4 "Tracer\\selfFIFO.h"