ARM GAS  C:\Users\THUNDE~1\AppData\Local\Temp\ccVjaDR5.s 			page 1


   1              		.syntax unified
   2              		.cpu cortex-m3
   3              		.fpu softvfp
   4              		.eabi_attribute 20, 1
   5              		.eabi_attribute 21, 1
   6              		.eabi_attribute 23, 3
   7              		.eabi_attribute 24, 1
   8              		.eabi_attribute 25, 1
   9              		.eabi_attribute 26, 1
  10              		.eabi_attribute 30, 6
  11              		.eabi_attribute 34, 1
  12              		.eabi_attribute 18, 4
  13              		.thumb
  14              		.syntax unified
  15              		.file	"semtest.c"
  16              		.text
  17              	.Ltext0:
  18              		.cfi_sections	.debug_frame
  19              		.comm	sniffIDFilter,13,4
  20              		.comm	buffer,4098,4
  21              		.comm	objectList,1704,4
  22              		.bss
  23              		.align	2
  24              	sCheckVariables:
  25 0000 00000000 		.space	8
  25      00000000 
  26              		.align	1
  27              	sNextCheckVariable:
  28 0008 0000     		.space	2
  29              		.section	.rodata
  30              		.align	2
  31              	.LC0:
  32 0000 506F6C53 		.ascii	"PolSEM1\000"
  32      454D3100 
  33              		.align	2
  34              	.LC1:
  35 0008 506F6C53 		.ascii	"PolSEM2\000"
  35      454D3200 
  36              		.align	2
  37              	.LC2:
  38 0010 436F756E 		.ascii	"Counting_Sem_1\000"
  38      74696E67 
  38      5F53656D 
  38      5F3100
  39 001f 00       		.align	2
  40              	.LC3:
  41 0020 426C6B53 		.ascii	"BlkSEM1\000"
  41      454D3100 
  42              		.align	2
  43              	.LC4:
  44 0028 426C6B53 		.ascii	"BlkSEM2\000"
  44      454D3200 
  45              		.align	2
  46              	.LC5:
  47 0030 436F756E 		.ascii	"Counting_Sem_2\000"
  47      74696E67 
  47      5F53656D 
ARM GAS  C:\Users\THUNDE~1\AppData\Local\Temp\ccVjaDR5.s 			page 2


  47      5F3200
  48              		.section	.text.vStartSemaphoreTasks,"ax",%progbits
  49              		.align	2
  50              		.global	vStartSemaphoreTasks
  51              		.thumb
  52              		.thumb_func
  53              		.type	vStartSemaphoreTasks, %function
  54              	vStartSemaphoreTasks:
  55              	.LFB68:
  56              		.file 1 "..\\Common\\Minimal\\semtest.c"
   1:..\Common\Minimal/semtest.c **** /*
   2:..\Common\Minimal/semtest.c ****     FreeRTOS V9.0.0 - Copyright (C) 2016 Real Time Engineers Ltd.
   3:..\Common\Minimal/semtest.c ****     All rights reserved
   4:..\Common\Minimal/semtest.c **** 
   5:..\Common\Minimal/semtest.c ****     VISIT http://www.FreeRTOS.org TO ENSURE YOU ARE USING THE LATEST VERSION.
   6:..\Common\Minimal/semtest.c **** 
   7:..\Common\Minimal/semtest.c ****     This file is part of the FreeRTOS distribution.
   8:..\Common\Minimal/semtest.c **** 
   9:..\Common\Minimal/semtest.c ****     FreeRTOS is free software; you can redistribute it and/or modify it under
  10:..\Common\Minimal/semtest.c ****     the terms of the GNU General Public License (version 2) as published by the
  11:..\Common\Minimal/semtest.c ****     Free Software Foundation >>>> AND MODIFIED BY <<<< the FreeRTOS exception.
  12:..\Common\Minimal/semtest.c **** 
  13:..\Common\Minimal/semtest.c ****     ***************************************************************************
  14:..\Common\Minimal/semtest.c ****     >>!   NOTE: The modification to the GPL is included to allow you to     !<<
  15:..\Common\Minimal/semtest.c ****     >>!   distribute a combined work that includes FreeRTOS without being   !<<
  16:..\Common\Minimal/semtest.c ****     >>!   obliged to provide the source code for proprietary components     !<<
  17:..\Common\Minimal/semtest.c ****     >>!   outside of the FreeRTOS kernel.                                   !<<
  18:..\Common\Minimal/semtest.c ****     ***************************************************************************
  19:..\Common\Minimal/semtest.c **** 
  20:..\Common\Minimal/semtest.c ****     FreeRTOS is distributed in the hope that it will be useful, but WITHOUT ANY
  21:..\Common\Minimal/semtest.c ****     WARRANTY; without even the implied warranty of MERCHANTABILITY or FITNESS
  22:..\Common\Minimal/semtest.c ****     FOR A PARTICULAR PURPOSE.  Full license text is available on the following
  23:..\Common\Minimal/semtest.c ****     link: http://www.freertos.org/a00114.html
  24:..\Common\Minimal/semtest.c **** 
  25:..\Common\Minimal/semtest.c ****     ***************************************************************************
  26:..\Common\Minimal/semtest.c ****      *                                                                       *
  27:..\Common\Minimal/semtest.c ****      *    FreeRTOS provides completely free yet professionally developed,    *
  28:..\Common\Minimal/semtest.c ****      *    robust, strictly quality controlled, supported, and cross          *
  29:..\Common\Minimal/semtest.c ****      *    platform software that is more than just the market leader, it     *
  30:..\Common\Minimal/semtest.c ****      *    is the industry's de facto standard.                               *
  31:..\Common\Minimal/semtest.c ****      *                                                                       *
  32:..\Common\Minimal/semtest.c ****      *    Help yourself get started quickly while simultaneously helping     *
  33:..\Common\Minimal/semtest.c ****      *    to support the FreeRTOS project by purchasing a FreeRTOS           *
  34:..\Common\Minimal/semtest.c ****      *    tutorial book, reference manual, or both:                          *
  35:..\Common\Minimal/semtest.c ****      *    http://www.FreeRTOS.org/Documentation                              *
  36:..\Common\Minimal/semtest.c ****      *                                                                       *
  37:..\Common\Minimal/semtest.c ****     ***************************************************************************
  38:..\Common\Minimal/semtest.c **** 
  39:..\Common\Minimal/semtest.c ****     http://www.FreeRTOS.org/FAQHelp.html - Having a problem?  Start by reading
  40:..\Common\Minimal/semtest.c ****     the FAQ page "My application does not run, what could be wrong?".  Have you
  41:..\Common\Minimal/semtest.c ****     defined configASSERT()?
  42:..\Common\Minimal/semtest.c **** 
  43:..\Common\Minimal/semtest.c ****     http://www.FreeRTOS.org/support - In return for receiving this top quality
  44:..\Common\Minimal/semtest.c ****     embedded software for free we request you assist our global community by
  45:..\Common\Minimal/semtest.c ****     participating in the support forum.
  46:..\Common\Minimal/semtest.c **** 
  47:..\Common\Minimal/semtest.c ****     http://www.FreeRTOS.org/training - Investing in training allows your team to
ARM GAS  C:\Users\THUNDE~1\AppData\Local\Temp\ccVjaDR5.s 			page 3


  48:..\Common\Minimal/semtest.c ****     be as productive as possible as early as possible.  Now you can receive
  49:..\Common\Minimal/semtest.c ****     FreeRTOS training directly from Richard Barry, CEO of Real Time Engineers
  50:..\Common\Minimal/semtest.c ****     Ltd, and the world's leading authority on the world's leading RTOS.
  51:..\Common\Minimal/semtest.c **** 
  52:..\Common\Minimal/semtest.c ****     http://www.FreeRTOS.org/plus - A selection of FreeRTOS ecosystem products,
  53:..\Common\Minimal/semtest.c ****     including FreeRTOS+Trace - an indispensable productivity tool, a DOS
  54:..\Common\Minimal/semtest.c ****     compatible FAT file system, and our tiny thread aware UDP/IP stack.
  55:..\Common\Minimal/semtest.c **** 
  56:..\Common\Minimal/semtest.c ****     http://www.FreeRTOS.org/labs - Where new FreeRTOS products go to incubate.
  57:..\Common\Minimal/semtest.c ****     Come and try FreeRTOS+TCP, our new open source TCP/IP stack for FreeRTOS.
  58:..\Common\Minimal/semtest.c **** 
  59:..\Common\Minimal/semtest.c ****     http://www.OpenRTOS.com - Real Time Engineers ltd. license FreeRTOS to High
  60:..\Common\Minimal/semtest.c ****     Integrity Systems ltd. to sell under the OpenRTOS brand.  Low cost OpenRTOS
  61:..\Common\Minimal/semtest.c ****     licenses offer ticketed support, indemnification and commercial middleware.
  62:..\Common\Minimal/semtest.c **** 
  63:..\Common\Minimal/semtest.c ****     http://www.SafeRTOS.com - High Integrity Systems also provide a safety
  64:..\Common\Minimal/semtest.c ****     engineered and independently SIL3 certified version for use in safety and
  65:..\Common\Minimal/semtest.c ****     mission critical applications that require provable dependability.
  66:..\Common\Minimal/semtest.c **** 
  67:..\Common\Minimal/semtest.c ****     1 tab == 4 spaces!
  68:..\Common\Minimal/semtest.c **** */
  69:..\Common\Minimal/semtest.c **** 
  70:..\Common\Minimal/semtest.c **** /*
  71:..\Common\Minimal/semtest.c ****  * Creates two sets of two tasks.  The tasks within a set share a variable, access
  72:..\Common\Minimal/semtest.c ****  * to which is guarded by a semaphore.
  73:..\Common\Minimal/semtest.c ****  *
  74:..\Common\Minimal/semtest.c ****  * Each task starts by attempting to obtain the semaphore.  On obtaining a
  75:..\Common\Minimal/semtest.c ****  * semaphore a task checks to ensure that the guarded variable has an expected
  76:..\Common\Minimal/semtest.c ****  * value.  It then clears the variable to zero before counting it back up to the
  77:..\Common\Minimal/semtest.c ****  * expected value in increments of 1.  After each increment the variable is checked
  78:..\Common\Minimal/semtest.c ****  * to ensure it contains the value to which it was just set. When the starting
  79:..\Common\Minimal/semtest.c ****  * value is again reached the task releases the semaphore giving the other task in
  80:..\Common\Minimal/semtest.c ****  * the set a chance to do exactly the same thing.  The starting value is high
  81:..\Common\Minimal/semtest.c ****  * enough to ensure that a tick is likely to occur during the incrementing loop.
  82:..\Common\Minimal/semtest.c ****  *
  83:..\Common\Minimal/semtest.c ****  * An error is flagged if at any time during the process a shared variable is
  84:..\Common\Minimal/semtest.c ****  * found to have a value other than that expected.  Such an occurrence would
  85:..\Common\Minimal/semtest.c ****  * suggest an error in the mutual exclusion mechanism by which access to the
  86:..\Common\Minimal/semtest.c ****  * variable is restricted.
  87:..\Common\Minimal/semtest.c ****  *
  88:..\Common\Minimal/semtest.c ****  * The first set of two tasks poll their semaphore.  The second set use blocking
  89:..\Common\Minimal/semtest.c ****  * calls.
  90:..\Common\Minimal/semtest.c ****  *
  91:..\Common\Minimal/semtest.c ****  */
  92:..\Common\Minimal/semtest.c **** 
  93:..\Common\Minimal/semtest.c **** 
  94:..\Common\Minimal/semtest.c **** #include <stdlib.h>
  95:..\Common\Minimal/semtest.c **** 
  96:..\Common\Minimal/semtest.c **** /* Scheduler include files. */
  97:..\Common\Minimal/semtest.c **** #include "FreeRTOS.h"
  98:..\Common\Minimal/semtest.c **** #include "task.h"
  99:..\Common\Minimal/semtest.c **** #include "semphr.h"
 100:..\Common\Minimal/semtest.c **** 
 101:..\Common\Minimal/semtest.c **** /* Demo app include files. */
 102:..\Common\Minimal/semtest.c **** #include "semtest.h"
 103:..\Common\Minimal/semtest.c **** 
 104:..\Common\Minimal/semtest.c **** /* The value to which the shared variables are counted. */
ARM GAS  C:\Users\THUNDE~1\AppData\Local\Temp\ccVjaDR5.s 			page 4


 105:..\Common\Minimal/semtest.c **** #define semtstBLOCKING_EXPECTED_VALUE		( ( uint32_t ) 0xfff )
 106:..\Common\Minimal/semtest.c **** #define semtstNON_BLOCKING_EXPECTED_VALUE	( ( uint32_t ) 0xff  )
 107:..\Common\Minimal/semtest.c **** 
 108:..\Common\Minimal/semtest.c **** #define semtstSTACK_SIZE			configMINIMAL_STACK_SIZE
 109:..\Common\Minimal/semtest.c **** 
 110:..\Common\Minimal/semtest.c **** #define semtstNUM_TASKS				( 4 )
 111:..\Common\Minimal/semtest.c **** 
 112:..\Common\Minimal/semtest.c **** #define semtstDELAY_FACTOR			( ( TickType_t ) 10 )
 113:..\Common\Minimal/semtest.c **** 
 114:..\Common\Minimal/semtest.c **** /* The task function as described at the top of the file. */
 115:..\Common\Minimal/semtest.c **** static portTASK_FUNCTION_PROTO( prvSemaphoreTest, pvParameters );
 116:..\Common\Minimal/semtest.c **** 
 117:..\Common\Minimal/semtest.c **** /* Structure used to pass parameters to each task. */
 118:..\Common\Minimal/semtest.c **** typedef struct SEMAPHORE_PARAMETERS
 119:..\Common\Minimal/semtest.c **** {
 120:..\Common\Minimal/semtest.c **** 	SemaphoreHandle_t xSemaphore;
 121:..\Common\Minimal/semtest.c **** 	volatile uint32_t *pulSharedVariable;
 122:..\Common\Minimal/semtest.c **** 	TickType_t xBlockTime;
 123:..\Common\Minimal/semtest.c **** } xSemaphoreParameters;
 124:..\Common\Minimal/semtest.c **** 
 125:..\Common\Minimal/semtest.c **** /* Variables used to check that all the tasks are still running without errors. */
 126:..\Common\Minimal/semtest.c **** static volatile short sCheckVariables[ semtstNUM_TASKS ] = { 0 };
 127:..\Common\Minimal/semtest.c **** static volatile short sNextCheckVariable = 0;
 128:..\Common\Minimal/semtest.c **** 
 129:..\Common\Minimal/semtest.c **** /*-----------------------------------------------------------*/
 130:..\Common\Minimal/semtest.c **** 
 131:..\Common\Minimal/semtest.c **** void vStartSemaphoreTasks( UBaseType_t uxPriority )
 132:..\Common\Minimal/semtest.c **** {
  57              		.loc 1 132 0
  58              		.cfi_startproc
  59              		@ args = 0, pretend = 0, frame = 24
  60              		@ frame_needed = 1, uses_anonymous_args = 0
  61 0000 80B5     		push	{r7, lr}
  62              		.cfi_def_cfa_offset 8
  63              		.cfi_offset 7, -8
  64              		.cfi_offset 14, -4
  65 0002 88B0     		sub	sp, sp, #32
  66              		.cfi_def_cfa_offset 40
  67 0004 02AF     		add	r7, sp, #8
  68              		.cfi_def_cfa 7, 32
  69 0006 7860     		str	r0, [r7, #4]
 133:..\Common\Minimal/semtest.c **** xSemaphoreParameters *pxFirstSemaphoreParameters, *pxSecondSemaphoreParameters;
 134:..\Common\Minimal/semtest.c **** const TickType_t xBlockTime = ( TickType_t ) 100;
  70              		.loc 1 134 0
  71 0008 6423     		movs	r3, #100
  72 000a 7B61     		str	r3, [r7, #20]
 135:..\Common\Minimal/semtest.c **** 
 136:..\Common\Minimal/semtest.c **** 	/* Create the structure used to pass parameters to the first two tasks. */
 137:..\Common\Minimal/semtest.c **** 	pxFirstSemaphoreParameters = ( xSemaphoreParameters * ) pvPortMalloc( sizeof( xSemaphoreParameters
  73              		.loc 1 137 0
  74 000c 0C20     		movs	r0, #12
  75 000e FFF7FEFF 		bl	pvPortMalloc
  76 0012 3861     		str	r0, [r7, #16]
 138:..\Common\Minimal/semtest.c **** 
 139:..\Common\Minimal/semtest.c **** 	if( pxFirstSemaphoreParameters != NULL )
  77              		.loc 1 139 0
  78 0014 3B69     		ldr	r3, [r7, #16]
ARM GAS  C:\Users\THUNDE~1\AppData\Local\Temp\ccVjaDR5.s 			page 5


  79 0016 002B     		cmp	r3, #0
  80 0018 39D0     		beq	.L2
 140:..\Common\Minimal/semtest.c **** 	{
 141:..\Common\Minimal/semtest.c **** 		/* Create the semaphore used by the first two tasks. */
 142:..\Common\Minimal/semtest.c **** 		pxFirstSemaphoreParameters->xSemaphore = xSemaphoreCreateBinary();		
  81              		.loc 1 142 0
  82 001a 0322     		movs	r2, #3
  83 001c 0021     		movs	r1, #0
  84 001e 0120     		movs	r0, #1
  85 0020 FFF7FEFF 		bl	xQueueGenericCreate
  86 0024 0246     		mov	r2, r0
  87 0026 3B69     		ldr	r3, [r7, #16]
  88 0028 1A60     		str	r2, [r3]
 143:..\Common\Minimal/semtest.c **** 
 144:..\Common\Minimal/semtest.c **** 		if( pxFirstSemaphoreParameters->xSemaphore != NULL )
  89              		.loc 1 144 0
  90 002a 3B69     		ldr	r3, [r7, #16]
  91 002c 1B68     		ldr	r3, [r3]
  92 002e 002B     		cmp	r3, #0
  93 0030 2DD0     		beq	.L2
 145:..\Common\Minimal/semtest.c **** 		{
 146:..\Common\Minimal/semtest.c **** 			xSemaphoreGive( pxFirstSemaphoreParameters->xSemaphore );
  94              		.loc 1 146 0
  95 0032 3B69     		ldr	r3, [r7, #16]
  96 0034 1868     		ldr	r0, [r3]
  97 0036 0023     		movs	r3, #0
  98 0038 0022     		movs	r2, #0
  99 003a 0021     		movs	r1, #0
 100 003c FFF7FEFF 		bl	xQueueGenericSend
 147:..\Common\Minimal/semtest.c **** 			
 148:..\Common\Minimal/semtest.c **** 			/* Create the variable which is to be shared by the first two tasks. */
 149:..\Common\Minimal/semtest.c **** 			pxFirstSemaphoreParameters->pulSharedVariable = ( uint32_t * ) pvPortMalloc( sizeof( uint32_t ) 
 101              		.loc 1 149 0
 102 0040 0420     		movs	r0, #4
 103 0042 FFF7FEFF 		bl	pvPortMalloc
 104 0046 0246     		mov	r2, r0
 105 0048 3B69     		ldr	r3, [r7, #16]
 106 004a 5A60     		str	r2, [r3, #4]
 150:..\Common\Minimal/semtest.c **** 
 151:..\Common\Minimal/semtest.c **** 			/* Initialise the share variable to the value the tasks expect. */
 152:..\Common\Minimal/semtest.c **** 			*( pxFirstSemaphoreParameters->pulSharedVariable ) = semtstNON_BLOCKING_EXPECTED_VALUE;
 107              		.loc 1 152 0
 108 004c 3B69     		ldr	r3, [r7, #16]
 109 004e 5B68     		ldr	r3, [r3, #4]
 110 0050 FF22     		movs	r2, #255
 111 0052 1A60     		str	r2, [r3]
 153:..\Common\Minimal/semtest.c **** 
 154:..\Common\Minimal/semtest.c **** 			/* The first two tasks do not block on semaphore calls. */
 155:..\Common\Minimal/semtest.c **** 			pxFirstSemaphoreParameters->xBlockTime = ( TickType_t ) 0;
 112              		.loc 1 155 0
 113 0054 3B69     		ldr	r3, [r7, #16]
 114 0056 0022     		movs	r2, #0
 115 0058 9A60     		str	r2, [r3, #8]
 156:..\Common\Minimal/semtest.c **** 
 157:..\Common\Minimal/semtest.c **** 			/* Spawn the first two tasks.  As they poll they operate at the idle priority. */
 158:..\Common\Minimal/semtest.c **** 			xTaskCreate( prvSemaphoreTest, "PolSEM1", semtstSTACK_SIZE, ( void * ) pxFirstSemaphoreParameter
 116              		.loc 1 158 0
ARM GAS  C:\Users\THUNDE~1\AppData\Local\Temp\ccVjaDR5.s 			page 6


 117 005a 0023     		movs	r3, #0
 118 005c 0193     		str	r3, [sp, #4]
 119 005e 0023     		movs	r3, #0
 120 0060 0093     		str	r3, [sp]
 121 0062 3B69     		ldr	r3, [r7, #16]
 122 0064 6422     		movs	r2, #100
 123 0066 2D49     		ldr	r1, .L5
 124 0068 2D48     		ldr	r0, .L5+4
 125 006a FFF7FEFF 		bl	xTaskCreate
 159:..\Common\Minimal/semtest.c **** 			xTaskCreate( prvSemaphoreTest, "PolSEM2", semtstSTACK_SIZE, ( void * ) pxFirstSemaphoreParameter
 126              		.loc 1 159 0
 127 006e 0023     		movs	r3, #0
 128 0070 0193     		str	r3, [sp, #4]
 129 0072 0023     		movs	r3, #0
 130 0074 0093     		str	r3, [sp]
 131 0076 3B69     		ldr	r3, [r7, #16]
 132 0078 6422     		movs	r2, #100
 133 007a 2A49     		ldr	r1, .L5+8
 134 007c 2848     		ldr	r0, .L5+4
 135 007e FFF7FEFF 		bl	xTaskCreate
 160:..\Common\Minimal/semtest.c **** 
 161:..\Common\Minimal/semtest.c **** 			/* vQueueAddToRegistry() adds the semaphore to the registry, if one
 162:..\Common\Minimal/semtest.c **** 			is in use.  The registry is provided as a means for kernel aware
 163:..\Common\Minimal/semtest.c **** 			debuggers to locate semaphores and has no purpose if a kernel aware
 164:..\Common\Minimal/semtest.c **** 			debugger is not being used.  The call to vQueueAddToRegistry() will
 165:..\Common\Minimal/semtest.c **** 			be removed by the pre-processor if configQUEUE_REGISTRY_SIZE is not
 166:..\Common\Minimal/semtest.c **** 			defined or is defined to be less than 1. */
 167:..\Common\Minimal/semtest.c **** 			vQueueAddToRegistry( ( QueueHandle_t ) pxFirstSemaphoreParameters->xSemaphore, "Counting_Sem_1" 
 136              		.loc 1 167 0
 137 0082 3B69     		ldr	r3, [r7, #16]
 138 0084 1B68     		ldr	r3, [r3]
 139 0086 2849     		ldr	r1, .L5+12
 140 0088 1846     		mov	r0, r3
 141 008a FFF7FEFF 		bl	vQueueAddToRegistry
 142              	.L2:
 168:..\Common\Minimal/semtest.c **** 		}
 169:..\Common\Minimal/semtest.c **** 	}
 170:..\Common\Minimal/semtest.c **** 
 171:..\Common\Minimal/semtest.c **** 	/* Do exactly the same to create the second set of tasks, only this time
 172:..\Common\Minimal/semtest.c **** 	provide a block time for the semaphore calls. */
 173:..\Common\Minimal/semtest.c **** 	pxSecondSemaphoreParameters = ( xSemaphoreParameters * ) pvPortMalloc( sizeof( xSemaphoreParameter
 143              		.loc 1 173 0
 144 008e 0C20     		movs	r0, #12
 145 0090 FFF7FEFF 		bl	pvPortMalloc
 146 0094 F860     		str	r0, [r7, #12]
 174:..\Common\Minimal/semtest.c **** 	if( pxSecondSemaphoreParameters != NULL )
 147              		.loc 1 174 0
 148 0096 FB68     		ldr	r3, [r7, #12]
 149 0098 002B     		cmp	r3, #0
 150 009a 3AD0     		beq	.L4
 175:..\Common\Minimal/semtest.c **** 	{
 176:..\Common\Minimal/semtest.c **** 		pxSecondSemaphoreParameters->xSemaphore = xSemaphoreCreateBinary();		
 151              		.loc 1 176 0
 152 009c 0322     		movs	r2, #3
 153 009e 0021     		movs	r1, #0
 154 00a0 0120     		movs	r0, #1
 155 00a2 FFF7FEFF 		bl	xQueueGenericCreate
ARM GAS  C:\Users\THUNDE~1\AppData\Local\Temp\ccVjaDR5.s 			page 7


 156 00a6 0246     		mov	r2, r0
 157 00a8 FB68     		ldr	r3, [r7, #12]
 158 00aa 1A60     		str	r2, [r3]
 177:..\Common\Minimal/semtest.c **** 
 178:..\Common\Minimal/semtest.c **** 		if( pxSecondSemaphoreParameters->xSemaphore != NULL )
 159              		.loc 1 178 0
 160 00ac FB68     		ldr	r3, [r7, #12]
 161 00ae 1B68     		ldr	r3, [r3]
 162 00b0 002B     		cmp	r3, #0
 163 00b2 2ED0     		beq	.L4
 179:..\Common\Minimal/semtest.c **** 		{
 180:..\Common\Minimal/semtest.c **** 			xSemaphoreGive( pxSecondSemaphoreParameters->xSemaphore );
 164              		.loc 1 180 0
 165 00b4 FB68     		ldr	r3, [r7, #12]
 166 00b6 1868     		ldr	r0, [r3]
 167 00b8 0023     		movs	r3, #0
 168 00ba 0022     		movs	r2, #0
 169 00bc 0021     		movs	r1, #0
 170 00be FFF7FEFF 		bl	xQueueGenericSend
 181:..\Common\Minimal/semtest.c **** 			
 182:..\Common\Minimal/semtest.c **** 			pxSecondSemaphoreParameters->pulSharedVariable = ( uint32_t * ) pvPortMalloc( sizeof( uint32_t )
 171              		.loc 1 182 0
 172 00c2 0420     		movs	r0, #4
 173 00c4 FFF7FEFF 		bl	pvPortMalloc
 174 00c8 0246     		mov	r2, r0
 175 00ca FB68     		ldr	r3, [r7, #12]
 176 00cc 5A60     		str	r2, [r3, #4]
 183:..\Common\Minimal/semtest.c **** 			*( pxSecondSemaphoreParameters->pulSharedVariable ) = semtstBLOCKING_EXPECTED_VALUE;
 177              		.loc 1 183 0
 178 00ce FB68     		ldr	r3, [r7, #12]
 179 00d0 5B68     		ldr	r3, [r3, #4]
 180 00d2 40F6FF72 		movw	r2, #4095
 181 00d6 1A60     		str	r2, [r3]
 184:..\Common\Minimal/semtest.c **** 			pxSecondSemaphoreParameters->xBlockTime = xBlockTime / portTICK_PERIOD_MS;
 182              		.loc 1 184 0
 183 00d8 FB68     		ldr	r3, [r7, #12]
 184 00da 7A69     		ldr	r2, [r7, #20]
 185 00dc 9A60     		str	r2, [r3, #8]
 185:..\Common\Minimal/semtest.c **** 
 186:..\Common\Minimal/semtest.c **** 			xTaskCreate( prvSemaphoreTest, "BlkSEM1", semtstSTACK_SIZE, ( void * ) pxSecondSemaphoreParamete
 186              		.loc 1 186 0
 187 00de 0023     		movs	r3, #0
 188 00e0 0193     		str	r3, [sp, #4]
 189 00e2 7B68     		ldr	r3, [r7, #4]
 190 00e4 0093     		str	r3, [sp]
 191 00e6 FB68     		ldr	r3, [r7, #12]
 192 00e8 6422     		movs	r2, #100
 193 00ea 1049     		ldr	r1, .L5+16
 194 00ec 0C48     		ldr	r0, .L5+4
 195 00ee FFF7FEFF 		bl	xTaskCreate
 187:..\Common\Minimal/semtest.c **** 			xTaskCreate( prvSemaphoreTest, "BlkSEM2", semtstSTACK_SIZE, ( void * ) pxSecondSemaphoreParamete
 196              		.loc 1 187 0
 197 00f2 0023     		movs	r3, #0
 198 00f4 0193     		str	r3, [sp, #4]
 199 00f6 7B68     		ldr	r3, [r7, #4]
 200 00f8 0093     		str	r3, [sp]
 201 00fa FB68     		ldr	r3, [r7, #12]
ARM GAS  C:\Users\THUNDE~1\AppData\Local\Temp\ccVjaDR5.s 			page 8


 202 00fc 6422     		movs	r2, #100
 203 00fe 0C49     		ldr	r1, .L5+20
 204 0100 0748     		ldr	r0, .L5+4
 205 0102 FFF7FEFF 		bl	xTaskCreate
 188:..\Common\Minimal/semtest.c **** 
 189:..\Common\Minimal/semtest.c **** 			/* vQueueAddToRegistry() adds the semaphore to the registry, if one
 190:..\Common\Minimal/semtest.c **** 			is in use.  The registry is provided as a means for kernel aware
 191:..\Common\Minimal/semtest.c **** 			debuggers to locate semaphores and has no purpose if a kernel aware
 192:..\Common\Minimal/semtest.c **** 			debugger is not being used.  The call to vQueueAddToRegistry() will
 193:..\Common\Minimal/semtest.c **** 			be removed by the pre-processor if configQUEUE_REGISTRY_SIZE is not
 194:..\Common\Minimal/semtest.c **** 			defined or is defined to be less than 1. */
 195:..\Common\Minimal/semtest.c **** 			vQueueAddToRegistry( ( QueueHandle_t ) pxSecondSemaphoreParameters->xSemaphore, "Counting_Sem_2"
 206              		.loc 1 195 0
 207 0106 FB68     		ldr	r3, [r7, #12]
 208 0108 1B68     		ldr	r3, [r3]
 209 010a 0A49     		ldr	r1, .L5+24
 210 010c 1846     		mov	r0, r3
 211 010e FFF7FEFF 		bl	vQueueAddToRegistry
 212              	.L4:
 196:..\Common\Minimal/semtest.c **** 		}
 197:..\Common\Minimal/semtest.c **** 	}
 198:..\Common\Minimal/semtest.c **** }
 213              		.loc 1 198 0
 214 0112 00BF     		nop
 215 0114 1837     		adds	r7, r7, #24
 216              		.cfi_def_cfa_offset 8
 217 0116 BD46     		mov	sp, r7
 218              		.cfi_def_cfa_register 13
 219              		@ sp needed
 220 0118 80BD     		pop	{r7, pc}
 221              	.L6:
 222 011a 00BF     		.align	2
 223              	.L5:
 224 011c 00000000 		.word	.LC0
 225 0120 00000000 		.word	prvSemaphoreTest
 226 0124 08000000 		.word	.LC1
 227 0128 10000000 		.word	.LC2
 228 012c 20000000 		.word	.LC3
 229 0130 28000000 		.word	.LC4
 230 0134 30000000 		.word	.LC5
 231              		.cfi_endproc
 232              	.LFE68:
 233              		.size	vStartSemaphoreTasks, .-vStartSemaphoreTasks
 234              		.section	.text.prvSemaphoreTest,"ax",%progbits
 235              		.align	2
 236              		.thumb
 237              		.thumb_func
 238              		.type	prvSemaphoreTest, %function
 239              	prvSemaphoreTest:
 240              	.LFB69:
 199:..\Common\Minimal/semtest.c **** /*-----------------------------------------------------------*/
 200:..\Common\Minimal/semtest.c **** 
 201:..\Common\Minimal/semtest.c **** static portTASK_FUNCTION( prvSemaphoreTest, pvParameters )
 202:..\Common\Minimal/semtest.c **** {
 241              		.loc 1 202 0
 242              		.cfi_startproc
 243              		@ args = 0, pretend = 0, frame = 32
ARM GAS  C:\Users\THUNDE~1\AppData\Local\Temp\ccVjaDR5.s 			page 9


 244              		@ frame_needed = 1, uses_anonymous_args = 0
 245 0000 80B5     		push	{r7, lr}
 246              		.cfi_def_cfa_offset 8
 247              		.cfi_offset 7, -8
 248              		.cfi_offset 14, -4
 249 0002 88B0     		sub	sp, sp, #32
 250              		.cfi_def_cfa_offset 40
 251 0004 00AF     		add	r7, sp, #0
 252              		.cfi_def_cfa_register 7
 253 0006 7860     		str	r0, [r7, #4]
 203:..\Common\Minimal/semtest.c **** xSemaphoreParameters *pxParameters;
 204:..\Common\Minimal/semtest.c **** volatile uint32_t *pulSharedVariable, ulExpectedValue;
 205:..\Common\Minimal/semtest.c **** uint32_t ulCounter;
 206:..\Common\Minimal/semtest.c **** short sError = pdFALSE, sCheckVariableToUse;
 254              		.loc 1 206 0
 255 0008 0023     		movs	r3, #0
 256 000a 7B83     		strh	r3, [r7, #26]	@ movhi
 207:..\Common\Minimal/semtest.c **** 
 208:..\Common\Minimal/semtest.c **** 	/* See which check variable to use.  sNextCheckVariable is not semaphore
 209:..\Common\Minimal/semtest.c **** 	protected! */
 210:..\Common\Minimal/semtest.c **** 	portENTER_CRITICAL();
 257              		.loc 1 210 0
 258 000c FFF7FEFF 		bl	vPortEnterCritical
 211:..\Common\Minimal/semtest.c **** 		sCheckVariableToUse = sNextCheckVariable;
 259              		.loc 1 211 0
 260 0010 3D4B     		ldr	r3, .L18
 261 0012 1B88     		ldrh	r3, [r3]	@ movhi
 262 0014 3B83     		strh	r3, [r7, #24]	@ movhi
 212:..\Common\Minimal/semtest.c **** 		sNextCheckVariable++;
 263              		.loc 1 212 0
 264 0016 3C4B     		ldr	r3, .L18
 265 0018 1B88     		ldrh	r3, [r3]	@ movhi
 266 001a 1BB2     		sxth	r3, r3
 267 001c 9BB2     		uxth	r3, r3
 268 001e 0133     		adds	r3, r3, #1
 269 0020 9BB2     		uxth	r3, r3
 270 0022 1AB2     		sxth	r2, r3
 271 0024 384B     		ldr	r3, .L18
 272 0026 1A80     		strh	r2, [r3]	@ movhi
 213:..\Common\Minimal/semtest.c **** 	portEXIT_CRITICAL();
 273              		.loc 1 213 0
 274 0028 FFF7FEFF 		bl	vPortExitCritical
 214:..\Common\Minimal/semtest.c **** 
 215:..\Common\Minimal/semtest.c **** 	/* A structure is passed in as the parameter.  This contains the shared
 216:..\Common\Minimal/semtest.c **** 	variable being guarded. */
 217:..\Common\Minimal/semtest.c **** 	pxParameters = ( xSemaphoreParameters * ) pvParameters;
 275              		.loc 1 217 0
 276 002c 7B68     		ldr	r3, [r7, #4]
 277 002e 7B61     		str	r3, [r7, #20]
 218:..\Common\Minimal/semtest.c **** 	pulSharedVariable = pxParameters->pulSharedVariable;
 278              		.loc 1 218 0
 279 0030 7B69     		ldr	r3, [r7, #20]
 280 0032 5B68     		ldr	r3, [r3, #4]
 281 0034 3B61     		str	r3, [r7, #16]
 219:..\Common\Minimal/semtest.c **** 
 220:..\Common\Minimal/semtest.c **** 	/* If we are blocking we use a much higher count to ensure loads of context
 221:..\Common\Minimal/semtest.c **** 	switches occur during the count. */
ARM GAS  C:\Users\THUNDE~1\AppData\Local\Temp\ccVjaDR5.s 			page 10


 222:..\Common\Minimal/semtest.c **** 	if( pxParameters->xBlockTime > ( TickType_t ) 0 )
 282              		.loc 1 222 0
 283 0036 7B69     		ldr	r3, [r7, #20]
 284 0038 9B68     		ldr	r3, [r3, #8]
 285 003a 002B     		cmp	r3, #0
 286 003c 03D0     		beq	.L8
 223:..\Common\Minimal/semtest.c **** 	{
 224:..\Common\Minimal/semtest.c **** 		ulExpectedValue = semtstBLOCKING_EXPECTED_VALUE;
 287              		.loc 1 224 0
 288 003e 40F6FF73 		movw	r3, #4095
 289 0042 FB60     		str	r3, [r7, #12]
 290 0044 01E0     		b	.L9
 291              	.L8:
 225:..\Common\Minimal/semtest.c **** 	}
 226:..\Common\Minimal/semtest.c **** 	else
 227:..\Common\Minimal/semtest.c **** 	{
 228:..\Common\Minimal/semtest.c **** 		ulExpectedValue = semtstNON_BLOCKING_EXPECTED_VALUE;
 292              		.loc 1 228 0
 293 0046 FF23     		movs	r3, #255
 294 0048 FB60     		str	r3, [r7, #12]
 295              	.L9:
 229:..\Common\Minimal/semtest.c **** 	}
 230:..\Common\Minimal/semtest.c **** 
 231:..\Common\Minimal/semtest.c **** 	for( ;; )
 232:..\Common\Minimal/semtest.c **** 	{
 233:..\Common\Minimal/semtest.c **** 		/* Try to obtain the semaphore. */
 234:..\Common\Minimal/semtest.c **** 		if( xSemaphoreTake( pxParameters->xSemaphore, pxParameters->xBlockTime ) == pdPASS )
 296              		.loc 1 234 0
 297 004a 7B69     		ldr	r3, [r7, #20]
 298 004c 1868     		ldr	r0, [r3]
 299 004e 7B69     		ldr	r3, [r7, #20]
 300 0050 9A68     		ldr	r2, [r3, #8]
 301 0052 0023     		movs	r3, #0
 302 0054 0021     		movs	r1, #0
 303 0056 FFF7FEFF 		bl	xQueueGenericReceive
 304 005a 0346     		mov	r3, r0
 305 005c 012B     		cmp	r3, #1
 306 005e 45D1     		bne	.L10
 235:..\Common\Minimal/semtest.c **** 		{
 236:..\Common\Minimal/semtest.c **** 			/* We have the semaphore and so expect any other tasks using the
 237:..\Common\Minimal/semtest.c **** 			shared variable to have left it in the state we expect to find
 238:..\Common\Minimal/semtest.c **** 			it. */
 239:..\Common\Minimal/semtest.c **** 			if( *pulSharedVariable != ulExpectedValue )
 307              		.loc 1 239 0
 308 0060 3B69     		ldr	r3, [r7, #16]
 309 0062 1A68     		ldr	r2, [r3]
 310 0064 FB68     		ldr	r3, [r7, #12]
 311 0066 9A42     		cmp	r2, r3
 312 0068 01D0     		beq	.L11
 240:..\Common\Minimal/semtest.c **** 			{
 241:..\Common\Minimal/semtest.c **** 				sError = pdTRUE;
 313              		.loc 1 241 0
 314 006a 0123     		movs	r3, #1
 315 006c 7B83     		strh	r3, [r7, #26]	@ movhi
 316              	.L11:
 242:..\Common\Minimal/semtest.c **** 			}
 243:..\Common\Minimal/semtest.c **** 
ARM GAS  C:\Users\THUNDE~1\AppData\Local\Temp\ccVjaDR5.s 			page 11


 244:..\Common\Minimal/semtest.c **** 			/* Clear the variable, then count it back up to the expected value
 245:..\Common\Minimal/semtest.c **** 			before releasing the semaphore.  Would expect a context switch or
 246:..\Common\Minimal/semtest.c **** 			two during this time. */
 247:..\Common\Minimal/semtest.c **** 			for( ulCounter = ( uint32_t ) 0; ulCounter <= ulExpectedValue; ulCounter++ )
 317              		.loc 1 247 0
 318 006e 0023     		movs	r3, #0
 319 0070 FB61     		str	r3, [r7, #28]
 320 0072 0CE0     		b	.L12
 321              	.L14:
 248:..\Common\Minimal/semtest.c **** 			{
 249:..\Common\Minimal/semtest.c **** 				*pulSharedVariable = ulCounter;
 322              		.loc 1 249 0
 323 0074 3B69     		ldr	r3, [r7, #16]
 324 0076 FA69     		ldr	r2, [r7, #28]
 325 0078 1A60     		str	r2, [r3]
 250:..\Common\Minimal/semtest.c **** 				if( *pulSharedVariable != ulCounter )
 326              		.loc 1 250 0
 327 007a 3B69     		ldr	r3, [r7, #16]
 328 007c 1A68     		ldr	r2, [r3]
 329 007e FB69     		ldr	r3, [r7, #28]
 330 0080 9A42     		cmp	r2, r3
 331 0082 01D0     		beq	.L13
 251:..\Common\Minimal/semtest.c **** 				{
 252:..\Common\Minimal/semtest.c **** 					sError = pdTRUE;
 332              		.loc 1 252 0
 333 0084 0123     		movs	r3, #1
 334 0086 7B83     		strh	r3, [r7, #26]	@ movhi
 335              	.L13:
 247:..\Common\Minimal/semtest.c **** 			{
 336              		.loc 1 247 0 discriminator 2
 337 0088 FB69     		ldr	r3, [r7, #28]
 338 008a 0133     		adds	r3, r3, #1
 339 008c FB61     		str	r3, [r7, #28]
 340              	.L12:
 247:..\Common\Minimal/semtest.c **** 			{
 341              		.loc 1 247 0 is_stmt 0 discriminator 1
 342 008e FB68     		ldr	r3, [r7, #12]
 343 0090 FA69     		ldr	r2, [r7, #28]
 344 0092 9A42     		cmp	r2, r3
 345 0094 EED9     		bls	.L14
 253:..\Common\Minimal/semtest.c **** 				}
 254:..\Common\Minimal/semtest.c **** 			}
 255:..\Common\Minimal/semtest.c **** 
 256:..\Common\Minimal/semtest.c **** 			/* Release the semaphore, and if no errors have occurred increment the check
 257:..\Common\Minimal/semtest.c **** 			variable. */
 258:..\Common\Minimal/semtest.c **** 			if(	xSemaphoreGive( pxParameters->xSemaphore ) == pdFALSE )
 346              		.loc 1 258 0 is_stmt 1
 347 0096 7B69     		ldr	r3, [r7, #20]
 348 0098 1868     		ldr	r0, [r3]
 349 009a 0023     		movs	r3, #0
 350 009c 0022     		movs	r2, #0
 351 009e 0021     		movs	r1, #0
 352 00a0 FFF7FEFF 		bl	xQueueGenericSend
 353 00a4 0346     		mov	r3, r0
 354 00a6 002B     		cmp	r3, #0
 355 00a8 01D1     		bne	.L15
 259:..\Common\Minimal/semtest.c **** 			{
ARM GAS  C:\Users\THUNDE~1\AppData\Local\Temp\ccVjaDR5.s 			page 12


 260:..\Common\Minimal/semtest.c **** 				sError = pdTRUE;
 356              		.loc 1 260 0
 357 00aa 0123     		movs	r3, #1
 358 00ac 7B83     		strh	r3, [r7, #26]	@ movhi
 359              	.L15:
 261:..\Common\Minimal/semtest.c **** 			}
 262:..\Common\Minimal/semtest.c **** 
 263:..\Common\Minimal/semtest.c **** 			if( sError == pdFALSE )
 360              		.loc 1 263 0
 361 00ae B7F91A30 		ldrsh	r3, [r7, #26]
 362 00b2 002B     		cmp	r3, #0
 363 00b4 10D1     		bne	.L16
 264:..\Common\Minimal/semtest.c **** 			{
 265:..\Common\Minimal/semtest.c **** 				if( sCheckVariableToUse < semtstNUM_TASKS )
 364              		.loc 1 265 0
 365 00b6 B7F91830 		ldrsh	r3, [r7, #24]
 366 00ba 032B     		cmp	r3, #3
 367 00bc 0CDC     		bgt	.L16
 266:..\Common\Minimal/semtest.c **** 				{
 267:..\Common\Minimal/semtest.c **** 					( sCheckVariables[ sCheckVariableToUse ] )++;
 368              		.loc 1 267 0
 369 00be B7F91830 		ldrsh	r3, [r7, #24]
 370 00c2 124A     		ldr	r2, .L18+4
 371 00c4 32F81320 		ldrh	r2, [r2, r3, lsl #1]	@ movhi
 372 00c8 12B2     		sxth	r2, r2
 373 00ca 92B2     		uxth	r2, r2
 374 00cc 0132     		adds	r2, r2, #1
 375 00ce 92B2     		uxth	r2, r2
 376 00d0 11B2     		sxth	r1, r2
 377 00d2 0E4A     		ldr	r2, .L18+4
 378 00d4 22F81310 		strh	r1, [r2, r3, lsl #1]	@ movhi
 379              	.L16:
 268:..\Common\Minimal/semtest.c **** 				}
 269:..\Common\Minimal/semtest.c **** 			}
 270:..\Common\Minimal/semtest.c **** 
 271:..\Common\Minimal/semtest.c **** 			/* If we have a block time then we are running at a priority higher
 272:..\Common\Minimal/semtest.c **** 			than the idle priority.  This task takes a long time to complete
 273:..\Common\Minimal/semtest.c **** 			a cycle	(deliberately so to test the guarding) so will be starving
 274:..\Common\Minimal/semtest.c **** 			out lower priority tasks.  Block for some time to allow give lower
 275:..\Common\Minimal/semtest.c **** 			priority tasks some processor time. */
 276:..\Common\Minimal/semtest.c **** 			vTaskDelay( pxParameters->xBlockTime * semtstDELAY_FACTOR );
 380              		.loc 1 276 0
 381 00d8 7B69     		ldr	r3, [r7, #20]
 382 00da 9A68     		ldr	r2, [r3, #8]
 383 00dc 1346     		mov	r3, r2
 384 00de 9B00     		lsls	r3, r3, #2
 385 00e0 1344     		add	r3, r3, r2
 386 00e2 5B00     		lsls	r3, r3, #1
 387 00e4 1846     		mov	r0, r3
 388 00e6 FFF7FEFF 		bl	vTaskDelay
 389 00ea AEE7     		b	.L9
 390              	.L10:
 277:..\Common\Minimal/semtest.c **** 		}
 278:..\Common\Minimal/semtest.c **** 		else
 279:..\Common\Minimal/semtest.c **** 		{
 280:..\Common\Minimal/semtest.c **** 			if( pxParameters->xBlockTime == ( TickType_t ) 0 )
 391              		.loc 1 280 0
ARM GAS  C:\Users\THUNDE~1\AppData\Local\Temp\ccVjaDR5.s 			page 13


 392 00ec 7B69     		ldr	r3, [r7, #20]
 393 00ee 9B68     		ldr	r3, [r3, #8]
 394 00f0 002B     		cmp	r3, #0
 395 00f2 AAD1     		bne	.L9
 281:..\Common\Minimal/semtest.c **** 			{
 282:..\Common\Minimal/semtest.c **** 				/* We have not got the semaphore yet, so no point using the
 283:..\Common\Minimal/semtest.c **** 				processor.  We are not blocking when attempting to obtain the
 284:..\Common\Minimal/semtest.c **** 				semaphore. */
 285:..\Common\Minimal/semtest.c **** 				taskYIELD();
 396              		.loc 1 285 0
 397 00f4 064B     		ldr	r3, .L18+8
 398 00f6 4FF08052 		mov	r2, #268435456
 399 00fa 1A60     		str	r2, [r3]
 400              		.syntax unified
 401              	@ 285 "..\Common\Minimal\semtest.c" 1
 402 00fc BFF34F8F 		dsb
 403              	@ 0 "" 2
 404              	@ 285 "..\Common\Minimal\semtest.c" 1
 405 0100 BFF36F8F 		isb
 406              	@ 0 "" 2
 286:..\Common\Minimal/semtest.c **** 			}
 287:..\Common\Minimal/semtest.c **** 		}
 288:..\Common\Minimal/semtest.c **** 	}
 407              		.loc 1 288 0
 408              		.thumb
 409              		.syntax unified
 410 0104 A1E7     		b	.L9
 411              	.L19:
 412 0106 00BF     		.align	2
 413              	.L18:
 414 0108 08000000 		.word	sNextCheckVariable
 415 010c 00000000 		.word	sCheckVariables
 416 0110 04ED00E0 		.word	-536810236
 417              		.cfi_endproc
 418              	.LFE69:
 419              		.size	prvSemaphoreTest, .-prvSemaphoreTest
 420              		.section	.text.xAreSemaphoreTasksStillRunning,"ax",%progbits
 421              		.align	2
 422              		.global	xAreSemaphoreTasksStillRunning
 423              		.thumb
 424              		.thumb_func
 425              		.type	xAreSemaphoreTasksStillRunning, %function
 426              	xAreSemaphoreTasksStillRunning:
 427              	.LFB70:
 289:..\Common\Minimal/semtest.c **** }
 290:..\Common\Minimal/semtest.c **** /*-----------------------------------------------------------*/
 291:..\Common\Minimal/semtest.c **** 
 292:..\Common\Minimal/semtest.c **** /* This is called to check that all the created tasks are still running. */
 293:..\Common\Minimal/semtest.c **** BaseType_t xAreSemaphoreTasksStillRunning( void )
 294:..\Common\Minimal/semtest.c **** {
 428              		.loc 1 294 0
 429              		.cfi_startproc
 430              		@ args = 0, pretend = 0, frame = 8
 431              		@ frame_needed = 1, uses_anonymous_args = 0
 432              		@ link register save eliminated.
 433 0000 80B4     		push	{r7}
 434              		.cfi_def_cfa_offset 4
ARM GAS  C:\Users\THUNDE~1\AppData\Local\Temp\ccVjaDR5.s 			page 14


 435              		.cfi_offset 7, -4
 436 0002 83B0     		sub	sp, sp, #12
 437              		.cfi_def_cfa_offset 16
 438 0004 00AF     		add	r7, sp, #0
 439              		.cfi_def_cfa_register 7
 295:..\Common\Minimal/semtest.c **** static short sLastCheckVariables[ semtstNUM_TASKS ] = { 0 };
 296:..\Common\Minimal/semtest.c **** BaseType_t xTask, xReturn = pdTRUE;
 440              		.loc 1 296 0
 441 0006 0123     		movs	r3, #1
 442 0008 3B60     		str	r3, [r7]
 297:..\Common\Minimal/semtest.c **** 
 298:..\Common\Minimal/semtest.c **** 	for( xTask = 0; xTask < semtstNUM_TASKS; xTask++ )
 443              		.loc 1 298 0
 444 000a 0023     		movs	r3, #0
 445 000c 7B60     		str	r3, [r7, #4]
 446 000e 18E0     		b	.L21
 447              	.L23:
 299:..\Common\Minimal/semtest.c **** 	{
 300:..\Common\Minimal/semtest.c **** 		if( sLastCheckVariables[ xTask ] == sCheckVariables[ xTask ] )
 448              		.loc 1 300 0
 449 0010 104A     		ldr	r2, .L25
 450 0012 7B68     		ldr	r3, [r7, #4]
 451 0014 32F91320 		ldrsh	r2, [r2, r3, lsl #1]
 452 0018 0F49     		ldr	r1, .L25+4
 453 001a 7B68     		ldr	r3, [r7, #4]
 454 001c 31F81330 		ldrh	r3, [r1, r3, lsl #1]	@ movhi
 455 0020 1BB2     		sxth	r3, r3
 456 0022 9A42     		cmp	r2, r3
 457 0024 01D1     		bne	.L22
 301:..\Common\Minimal/semtest.c **** 		{
 302:..\Common\Minimal/semtest.c **** 			xReturn = pdFALSE;
 458              		.loc 1 302 0
 459 0026 0023     		movs	r3, #0
 460 0028 3B60     		str	r3, [r7]
 461              	.L22:
 303:..\Common\Minimal/semtest.c **** 		}
 304:..\Common\Minimal/semtest.c **** 
 305:..\Common\Minimal/semtest.c **** 		sLastCheckVariables[ xTask ] = sCheckVariables[ xTask ];
 462              		.loc 1 305 0 discriminator 2
 463 002a 0B4A     		ldr	r2, .L25+4
 464 002c 7B68     		ldr	r3, [r7, #4]
 465 002e 32F81330 		ldrh	r3, [r2, r3, lsl #1]	@ movhi
 466 0032 19B2     		sxth	r1, r3
 467 0034 074A     		ldr	r2, .L25
 468 0036 7B68     		ldr	r3, [r7, #4]
 469 0038 22F81310 		strh	r1, [r2, r3, lsl #1]	@ movhi
 298:..\Common\Minimal/semtest.c **** 	{
 470              		.loc 1 298 0 discriminator 2
 471 003c 7B68     		ldr	r3, [r7, #4]
 472 003e 0133     		adds	r3, r3, #1
 473 0040 7B60     		str	r3, [r7, #4]
 474              	.L21:
 298:..\Common\Minimal/semtest.c **** 	{
 475              		.loc 1 298 0 is_stmt 0 discriminator 1
 476 0042 7B68     		ldr	r3, [r7, #4]
 477 0044 032B     		cmp	r3, #3
 478 0046 E3DD     		ble	.L23
ARM GAS  C:\Users\THUNDE~1\AppData\Local\Temp\ccVjaDR5.s 			page 15


 306:..\Common\Minimal/semtest.c **** 	}
 307:..\Common\Minimal/semtest.c **** 
 308:..\Common\Minimal/semtest.c **** 	return xReturn;
 479              		.loc 1 308 0 is_stmt 1
 480 0048 3B68     		ldr	r3, [r7]
 309:..\Common\Minimal/semtest.c **** }
 481              		.loc 1 309 0
 482 004a 1846     		mov	r0, r3
 483 004c 0C37     		adds	r7, r7, #12
 484              		.cfi_def_cfa_offset 4
 485 004e BD46     		mov	sp, r7
 486              		.cfi_def_cfa_register 13
 487              		@ sp needed
 488 0050 80BC     		pop	{r7}
 489              		.cfi_restore 7
 490              		.cfi_def_cfa_offset 0
 491 0052 7047     		bx	lr
 492              	.L26:
 493              		.align	2
 494              	.L25:
 495 0054 0C000000 		.word	sLastCheckVariables.7563
 496 0058 00000000 		.word	sCheckVariables
 497              		.cfi_endproc
 498              	.LFE70:
 499              		.size	xAreSemaphoreTasksStillRunning, .-xAreSemaphoreTasksStillRunning
 500              		.bss
 501 000a 0000     		.align	2
 502              	sLastCheckVariables.7563:
 503 000c 00000000 		.space	8
 503      00000000 
 504              		.text
 505              	.Letext0:
 506              		.file 2 "c:\\program files (x86)\\cypress\\psoc creator\\4.2\\psoc creator\\import\\gnu\\arm\\5.4.
 507              		.file 3 "c:\\program files (x86)\\cypress\\psoc creator\\4.2\\psoc creator\\import\\gnu\\arm\\5.4.
 508              		.file 4 ".\\Tracer/sniffPayload.h"
 509              		.file 5 ".\\Tracer/selfFIFO.h"
 510              		.file 6 "..\\Source\\portable\\GCC\\ARM_CM3/portmacro.h"
 511              		.file 7 "..\\Source\\include/task.h"
 512              		.file 8 "..\\Source\\include/queue.h"
 513              		.file 9 "..\\Source\\include/semphr.h"
 514              		.file 10 "Generated_Source\\PSoC5/core_cm3.h"
 515              		.file 11 ".\\Tracer/sniffTask.h"