ARM GAS  C:\Users\THUNDE~1\AppData\Local\Temp\ccl5cePF.s 			page 1


   1              		.syntax unified
   2              		.cpu cortex-m3
   3              		.fpu softvfp
   4              		.eabi_attribute 20, 1
   5              		.eabi_attribute 21, 1
   6              		.eabi_attribute 23, 3
   7              		.eabi_attribute 24, 1
   8              		.eabi_attribute 25, 1
   9              		.eabi_attribute 26, 1
  10              		.eabi_attribute 30, 6
  11              		.eabi_attribute 34, 1
  12              		.eabi_attribute 18, 4
  13              		.thumb
  14              		.syntax unified
  15              		.file	"sniffPayload.c"
  16              		.text
  17              	.Ltext0:
  18              		.cfi_sections	.debug_frame
  19              		.comm	sniffIDFilter,13,4
  20              		.comm	buffer,4098,4
  21              		.comm	objectCounter,6,4
  22              		.section	.text.packPayload0,"ax",%progbits
  23              		.align	2
  24              		.global	packPayload0
  25              		.thumb
  26              		.thumb_func
  27              		.type	packPayload0, %function
  28              	packPayload0:
  29              	.LFB1:
  30              		.file 1 "Tracer\\sniffPayload.c"
   1:Tracer/sniffPayload.c **** /** \file sniffPayload.c
   2:Tracer/sniffPayload.c ****  * \brief sniffPayload source file.
   3:Tracer/sniffPayload.c ****  * \details Implements all the structs for sending payloads and the used
   4:Tracer/sniffPayload.c ****  * functions for initialising these structs.
   5:Tracer/sniffPayload.c ****  * \author Jonas Mair
   6:Tracer/sniffPayload.c ****  * \date 2018
   7:Tracer/sniffPayload.c ****  */
   8:Tracer/sniffPayload.c **** 
   9:Tracer/sniffPayload.c **** #include <string.h>
  10:Tracer/sniffPayload.c **** #include <stdio.h>
  11:Tracer/sniffPayload.c **** #include <stdlib.h>
  12:Tracer/sniffPayload.c **** 
  13:Tracer/sniffPayload.c **** #include <sniffPayload.h>
  14:Tracer/sniffPayload.c **** #include <sniffFIFO.h>
  15:Tracer/sniffPayload.c **** #include <sniffPort.h>
  16:Tracer/sniffPayload.c **** //Defines
  17:Tracer/sniffPayload.c **** 
  18:Tracer/sniffPayload.c **** uint8_t objectCounter[NUMBER_OF_OBJECTTYPES];
  19:Tracer/sniffPayload.c **** extern ObjectList objectList[NUMBER_OF_OBJECTTYPES];
  20:Tracer/sniffPayload.c **** extern uint32_t xTaskGetTickCount();
  21:Tracer/sniffPayload.c **** 
  22:Tracer/sniffPayload.c **** #if SEND_WITHOUT_SNIFF_TASK == 0
  23:Tracer/sniffPayload.c **** extern void stopTraceSniffer();
  24:Tracer/sniffPayload.c **** #endif
  25:Tracer/sniffPayload.c **** 
  26:Tracer/sniffPayload.c **** #if SEND_WITHOUT_SNIFF_TASK
  27:Tracer/sniffPayload.c **** uint8_t packetCounter;
ARM GAS  C:\Users\THUNDE~1\AppData\Local\Temp\ccl5cePF.s 			page 2


  28:Tracer/sniffPayload.c **** #endif
  29:Tracer/sniffPayload.c **** //Functions
  30:Tracer/sniffPayload.c **** 
  31:Tracer/sniffPayload.c **** //Modulo Alternative      i & (m-1)
  32:Tracer/sniffPayload.c **** 
  33:Tracer/sniffPayload.c **** inline void packPayload0(InformationID informationID) {
  31              		.loc 1 33 0
  32              		.cfi_startproc
  33              		@ args = 0, pretend = 0, frame = 16
  34              		@ frame_needed = 1, uses_anonymous_args = 0
  35 0000 80B5     		push	{r7, lr}
  36              		.cfi_def_cfa_offset 8
  37              		.cfi_offset 7, -8
  38              		.cfi_offset 14, -4
  39 0002 84B0     		sub	sp, sp, #16
  40              		.cfi_def_cfa_offset 24
  41 0004 00AF     		add	r7, sp, #0
  42              		.cfi_def_cfa_register 7
  43 0006 0346     		mov	r3, r0
  44 0008 FB71     		strb	r3, [r7, #7]
  34:Tracer/sniffPayload.c **** #if SEND_WITHOUT_SNIFF_TASK
  35:Tracer/sniffPayload.c **** 	if (applyInformationIDFilter(informationID)) {
  36:Tracer/sniffPayload.c **** 		SEND_PREAMBLE
  37:Tracer/sniffPayload.c **** 		;
  38:Tracer/sniffPayload.c **** 		sendByteOverInterface(packetCounter++);
  39:Tracer/sniffPayload.c **** 		sendByteOverInterface(informationID);
  40:Tracer/sniffPayload.c **** 		sendByteOverInterface(xTaskGetTickCount() >> 8);
  41:Tracer/sniffPayload.c **** 		sendByteOverInterface(xTaskGetTickCount());
  42:Tracer/sniffPayload.c **** 		sendByteOverInterface(readOutSysTimerHigh());
  43:Tracer/sniffPayload.c **** 		sendByteOverInterface(readOutSysTimerLow());
  44:Tracer/sniffPayload.c **** 	}
  45:Tracer/sniffPayload.c **** #else
  46:Tracer/sniffPayload.c **** 	Payload0 payload;
  47:Tracer/sniffPayload.c **** 	payload.payloadHead.informationID = informationID;
  45              		.loc 1 47 0
  46 000a FB79     		ldrb	r3, [r7, #7]
  47 000c 7B72     		strb	r3, [r7, #9]
  48:Tracer/sniffPayload.c **** 	payload.payloadHead.tickCountHigh = xTaskGetTickCount() >> 8;
  48              		.loc 1 48 0
  49 000e FFF7FEFF 		bl	xTaskGetTickCount
  50 0012 0346     		mov	r3, r0
  51 0014 1B0A     		lsrs	r3, r3, #8
  52 0016 DBB2     		uxtb	r3, r3
  53 0018 BB72     		strb	r3, [r7, #10]
  49:Tracer/sniffPayload.c **** 	payload.payloadHead.tickCountLow = xTaskGetTickCount();
  54              		.loc 1 49 0
  55 001a FFF7FEFF 		bl	xTaskGetTickCount
  56 001e 0346     		mov	r3, r0
  57 0020 DBB2     		uxtb	r3, r3
  58 0022 FB72     		strb	r3, [r7, #11]
  50:Tracer/sniffPayload.c **** 	payload.payloadHead.timerByteHigh = readOutSysTimerHigh();
  59              		.loc 1 50 0
  60 0024 0C4B     		ldr	r3, .L4
  61 0026 1B68     		ldr	r3, [r3]
  62 0028 1B0A     		lsrs	r3, r3, #8
  63 002a DBB2     		uxtb	r3, r3
  64 002c 3B73     		strb	r3, [r7, #12]
ARM GAS  C:\Users\THUNDE~1\AppData\Local\Temp\ccl5cePF.s 			page 3


  51:Tracer/sniffPayload.c **** 	payload.payloadHead.timerByteLow = readOutSysTimerLow();
  65              		.loc 1 51 0
  66 002e 0A4B     		ldr	r3, .L4
  67 0030 1B68     		ldr	r3, [r3]
  68 0032 DBB2     		uxtb	r3, r3
  69 0034 7B73     		strb	r3, [r7, #13]
  52:Tracer/sniffPayload.c **** 	if(writeFIFO(&payload,PAYLOAD_0,prioSTREAM)!=0) {
  70              		.loc 1 52 0
  71 0036 07F10803 		add	r3, r7, #8
  72 003a 0122     		movs	r2, #1
  73 003c 0621     		movs	r1, #6
  74 003e 1846     		mov	r0, r3
  75 0040 FFF7FEFF 		bl	writeFIFO
  76 0044 0346     		mov	r3, r0
  77 0046 002B     		cmp	r3, #0
  78 0048 02D0     		beq	.L3
  53:Tracer/sniffPayload.c **** 		packPayloadError(ID_ERROR_STREAM_FIFO_FULL);
  79              		.loc 1 53 0
  80 004a 6520     		movs	r0, #101
  81 004c FFF7FEFF 		bl	packPayloadError
  82              	.L3:
  54:Tracer/sniffPayload.c **** 	}
  55:Tracer/sniffPayload.c **** #endif
  56:Tracer/sniffPayload.c **** }
  83              		.loc 1 56 0
  84 0050 00BF     		nop
  85 0052 1037     		adds	r7, r7, #16
  86              		.cfi_def_cfa_offset 8
  87 0054 BD46     		mov	sp, r7
  88              		.cfi_def_cfa_register 13
  89              		@ sp needed
  90 0056 80BD     		pop	{r7, pc}
  91              	.L5:
  92              		.align	2
  93              	.L4:
  94 0058 18E000E0 		.word	-536813544
  95              		.cfi_endproc
  96              	.LFE1:
  97              		.size	packPayload0, .-packPayload0
  98              		.section	.text.packPayload1,"ax",%progbits
  99              		.align	2
 100              		.global	packPayload1
 101              		.thumb
 102              		.thumb_func
 103              		.type	packPayload1, %function
 104              	packPayload1:
 105              	.LFB2:
  57:Tracer/sniffPayload.c **** 
  58:Tracer/sniffPayload.c **** inline void packPayload1(InformationID informationID, uint8_t data1) {
 106              		.loc 1 58 0
 107              		.cfi_startproc
 108              		@ args = 0, pretend = 0, frame = 16
 109              		@ frame_needed = 1, uses_anonymous_args = 0
 110 0000 80B5     		push	{r7, lr}
 111              		.cfi_def_cfa_offset 8
 112              		.cfi_offset 7, -8
 113              		.cfi_offset 14, -4
ARM GAS  C:\Users\THUNDE~1\AppData\Local\Temp\ccl5cePF.s 			page 4


 114 0002 84B0     		sub	sp, sp, #16
 115              		.cfi_def_cfa_offset 24
 116 0004 00AF     		add	r7, sp, #0
 117              		.cfi_def_cfa_register 7
 118 0006 0346     		mov	r3, r0
 119 0008 0A46     		mov	r2, r1
 120 000a FB71     		strb	r3, [r7, #7]
 121 000c 1346     		mov	r3, r2
 122 000e BB71     		strb	r3, [r7, #6]
  59:Tracer/sniffPayload.c **** #if SEND_WITHOUT_SNIFF_TASK
  60:Tracer/sniffPayload.c **** 
  61:Tracer/sniffPayload.c **** 	if (applyInformationIDFilter(informationID)) {
  62:Tracer/sniffPayload.c **** 		SEND_PREAMBLE
  63:Tracer/sniffPayload.c **** 		sendByteOverInterface(packetCounter++);
  64:Tracer/sniffPayload.c **** 		sendByteOverInterface(informationID);
  65:Tracer/sniffPayload.c **** 		sendByteOverInterface(xTaskGetTickCount() >> 8);
  66:Tracer/sniffPayload.c **** 		sendByteOverInterface(xTaskGetTickCount());
  67:Tracer/sniffPayload.c **** 		sendByteOverInterface(readOutSysTimerHigh());
  68:Tracer/sniffPayload.c **** 		sendByteOverInterface(readOutSysTimerLow());
  69:Tracer/sniffPayload.c **** 		sendByteOverInterface(data1);
  70:Tracer/sniffPayload.c **** 	}
  71:Tracer/sniffPayload.c **** #else
  72:Tracer/sniffPayload.c **** 	Payload1 payload;
  73:Tracer/sniffPayload.c **** 	payload.payloadHead.informationID = informationID;
 123              		.loc 1 73 0
 124 0010 FB79     		ldrb	r3, [r7, #7]
 125 0012 7B72     		strb	r3, [r7, #9]
  74:Tracer/sniffPayload.c **** 	payload.payloadHead.tickCountHigh = xTaskGetTickCount() >> 8;
 126              		.loc 1 74 0
 127 0014 FFF7FEFF 		bl	xTaskGetTickCount
 128 0018 0346     		mov	r3, r0
 129 001a 1B0A     		lsrs	r3, r3, #8
 130 001c DBB2     		uxtb	r3, r3
 131 001e BB72     		strb	r3, [r7, #10]
  75:Tracer/sniffPayload.c **** 	payload.payloadHead.tickCountLow = xTaskGetTickCount();
 132              		.loc 1 75 0
 133 0020 FFF7FEFF 		bl	xTaskGetTickCount
 134 0024 0346     		mov	r3, r0
 135 0026 DBB2     		uxtb	r3, r3
 136 0028 FB72     		strb	r3, [r7, #11]
  76:Tracer/sniffPayload.c **** 	payload.payloadHead.timerByteHigh = readOutSysTimerHigh();
 137              		.loc 1 76 0
 138 002a 0E4B     		ldr	r3, .L9
 139 002c 1B68     		ldr	r3, [r3]
 140 002e 1B0A     		lsrs	r3, r3, #8
 141 0030 DBB2     		uxtb	r3, r3
 142 0032 3B73     		strb	r3, [r7, #12]
  77:Tracer/sniffPayload.c **** 	payload.payloadHead.timerByteLow = readOutSysTimerLow();
 143              		.loc 1 77 0
 144 0034 0B4B     		ldr	r3, .L9
 145 0036 1B68     		ldr	r3, [r3]
 146 0038 DBB2     		uxtb	r3, r3
 147 003a 7B73     		strb	r3, [r7, #13]
  78:Tracer/sniffPayload.c **** 	payload.data1 = data1;
 148              		.loc 1 78 0
 149 003c BB79     		ldrb	r3, [r7, #6]
 150 003e BB73     		strb	r3, [r7, #14]
ARM GAS  C:\Users\THUNDE~1\AppData\Local\Temp\ccl5cePF.s 			page 5


  79:Tracer/sniffPayload.c **** 	if(writeFIFO(&payload,PAYLOAD_1,prioSTREAM)!=0) {
 151              		.loc 1 79 0
 152 0040 07F10803 		add	r3, r7, #8
 153 0044 0122     		movs	r2, #1
 154 0046 0721     		movs	r1, #7
 155 0048 1846     		mov	r0, r3
 156 004a FFF7FEFF 		bl	writeFIFO
 157 004e 0346     		mov	r3, r0
 158 0050 002B     		cmp	r3, #0
 159 0052 02D0     		beq	.L8
  80:Tracer/sniffPayload.c **** 		packPayloadError(ID_ERROR_STREAM_FIFO_FULL);
 160              		.loc 1 80 0
 161 0054 6520     		movs	r0, #101
 162 0056 FFF7FEFF 		bl	packPayloadError
 163              	.L8:
  81:Tracer/sniffPayload.c **** 	}
  82:Tracer/sniffPayload.c **** #endif
  83:Tracer/sniffPayload.c **** }
 164              		.loc 1 83 0
 165 005a 00BF     		nop
 166 005c 1037     		adds	r7, r7, #16
 167              		.cfi_def_cfa_offset 8
 168 005e BD46     		mov	sp, r7
 169              		.cfi_def_cfa_register 13
 170              		@ sp needed
 171 0060 80BD     		pop	{r7, pc}
 172              	.L10:
 173 0062 00BF     		.align	2
 174              	.L9:
 175 0064 18E000E0 		.word	-536813544
 176              		.cfi_endproc
 177              	.LFE2:
 178              		.size	packPayload1, .-packPayload1
 179              		.section	.text.packPayload2,"ax",%progbits
 180              		.align	2
 181              		.global	packPayload2
 182              		.thumb
 183              		.thumb_func
 184              		.type	packPayload2, %function
 185              	packPayload2:
 186              	.LFB3:
  84:Tracer/sniffPayload.c **** 
  85:Tracer/sniffPayload.c **** inline void packPayload2(InformationID informationID, uint8_t data1,
  86:Tracer/sniffPayload.c **** 		uint8_t data2) {
 187              		.loc 1 86 0
 188              		.cfi_startproc
 189              		@ args = 0, pretend = 0, frame = 16
 190              		@ frame_needed = 1, uses_anonymous_args = 0
 191 0000 80B5     		push	{r7, lr}
 192              		.cfi_def_cfa_offset 8
 193              		.cfi_offset 7, -8
 194              		.cfi_offset 14, -4
 195 0002 84B0     		sub	sp, sp, #16
 196              		.cfi_def_cfa_offset 24
 197 0004 00AF     		add	r7, sp, #0
 198              		.cfi_def_cfa_register 7
 199 0006 0346     		mov	r3, r0
ARM GAS  C:\Users\THUNDE~1\AppData\Local\Temp\ccl5cePF.s 			page 6


 200 0008 FB71     		strb	r3, [r7, #7]
 201 000a 0B46     		mov	r3, r1
 202 000c BB71     		strb	r3, [r7, #6]
 203 000e 1346     		mov	r3, r2
 204 0010 7B71     		strb	r3, [r7, #5]
  87:Tracer/sniffPayload.c **** #if SEND_WITHOUT_SNIFF_TASK //TODO: Structs werden nicht gebraucht
  88:Tracer/sniffPayload.c **** 	if (applyInformationIDFilter(informationID)) {
  89:Tracer/sniffPayload.c **** 		SEND_PREAMBLE
  90:Tracer/sniffPayload.c **** 		sendByteOverInterface(packetCounter++);
  91:Tracer/sniffPayload.c **** 		sendByteOverInterface(informationID);
  92:Tracer/sniffPayload.c **** 		sendByteOverInterface(xTaskGetTickCount() >> 8);
  93:Tracer/sniffPayload.c **** 		sendByteOverInterface(xTaskGetTickCount());
  94:Tracer/sniffPayload.c **** 		sendByteOverInterface(readOutSysTimerHigh());
  95:Tracer/sniffPayload.c **** 		sendByteOverInterface(readOutSysTimerLow());
  96:Tracer/sniffPayload.c **** 		sendByteOverInterface(data1);
  97:Tracer/sniffPayload.c **** 		sendByteOverInterface(data2);
  98:Tracer/sniffPayload.c **** 	}
  99:Tracer/sniffPayload.c **** 
 100:Tracer/sniffPayload.c **** #else
 101:Tracer/sniffPayload.c **** 	Payload2 payload;
 102:Tracer/sniffPayload.c **** 	payload.payloadHead.informationID = informationID;
 205              		.loc 1 102 0
 206 0012 FB79     		ldrb	r3, [r7, #7]
 207 0014 7B72     		strb	r3, [r7, #9]
 103:Tracer/sniffPayload.c **** 	payload.payloadHead.tickCountHigh = xTaskGetTickCount() >> 8;
 208              		.loc 1 103 0
 209 0016 FFF7FEFF 		bl	xTaskGetTickCount
 210 001a 0346     		mov	r3, r0
 211 001c 1B0A     		lsrs	r3, r3, #8
 212 001e DBB2     		uxtb	r3, r3
 213 0020 BB72     		strb	r3, [r7, #10]
 104:Tracer/sniffPayload.c **** 	payload.payloadHead.tickCountLow = xTaskGetTickCount();
 214              		.loc 1 104 0
 215 0022 FFF7FEFF 		bl	xTaskGetTickCount
 216 0026 0346     		mov	r3, r0
 217 0028 DBB2     		uxtb	r3, r3
 218 002a FB72     		strb	r3, [r7, #11]
 105:Tracer/sniffPayload.c **** 	payload.payloadHead.timerByteHigh = readOutSysTimerHigh();
 219              		.loc 1 105 0
 220 002c 0E4B     		ldr	r3, .L14
 221 002e 1B68     		ldr	r3, [r3]
 222 0030 1B0A     		lsrs	r3, r3, #8
 223 0032 DBB2     		uxtb	r3, r3
 224 0034 3B73     		strb	r3, [r7, #12]
 106:Tracer/sniffPayload.c **** 	payload.payloadHead.timerByteLow = readOutSysTimerLow();
 225              		.loc 1 106 0
 226 0036 0C4B     		ldr	r3, .L14
 227 0038 1B68     		ldr	r3, [r3]
 228 003a DBB2     		uxtb	r3, r3
 229 003c 7B73     		strb	r3, [r7, #13]
 107:Tracer/sniffPayload.c **** 	payload.data1 = data1;
 230              		.loc 1 107 0
 231 003e BB79     		ldrb	r3, [r7, #6]
 232 0040 BB73     		strb	r3, [r7, #14]
 108:Tracer/sniffPayload.c **** 	payload.data2 = data2;
 233              		.loc 1 108 0
 234 0042 7B79     		ldrb	r3, [r7, #5]
ARM GAS  C:\Users\THUNDE~1\AppData\Local\Temp\ccl5cePF.s 			page 7


 235 0044 FB73     		strb	r3, [r7, #15]
 109:Tracer/sniffPayload.c **** 	if(writeFIFO(&payload,PAYLOAD_2,prioSTREAM)!=0) {
 236              		.loc 1 109 0
 237 0046 07F10803 		add	r3, r7, #8
 238 004a 0122     		movs	r2, #1
 239 004c 0821     		movs	r1, #8
 240 004e 1846     		mov	r0, r3
 241 0050 FFF7FEFF 		bl	writeFIFO
 242 0054 0346     		mov	r3, r0
 243 0056 002B     		cmp	r3, #0
 244 0058 02D0     		beq	.L13
 110:Tracer/sniffPayload.c **** 		packPayloadError(ID_ERROR_STREAM_FIFO_FULL);
 245              		.loc 1 110 0
 246 005a 6520     		movs	r0, #101
 247 005c FFF7FEFF 		bl	packPayloadError
 248              	.L13:
 111:Tracer/sniffPayload.c **** 	}
 112:Tracer/sniffPayload.c **** #endif
 113:Tracer/sniffPayload.c **** }
 249              		.loc 1 113 0
 250 0060 00BF     		nop
 251 0062 1037     		adds	r7, r7, #16
 252              		.cfi_def_cfa_offset 8
 253 0064 BD46     		mov	sp, r7
 254              		.cfi_def_cfa_register 13
 255              		@ sp needed
 256 0066 80BD     		pop	{r7, pc}
 257              	.L15:
 258              		.align	2
 259              	.L14:
 260 0068 18E000E0 		.word	-536813544
 261              		.cfi_endproc
 262              	.LFE3:
 263              		.size	packPayload2, .-packPayload2
 264              		.section	.text.packPayload3,"ax",%progbits
 265              		.align	2
 266              		.global	packPayload3
 267              		.thumb
 268              		.thumb_func
 269              		.type	packPayload3, %function
 270              	packPayload3:
 271              	.LFB4:
 114:Tracer/sniffPayload.c **** 
 115:Tracer/sniffPayload.c **** inline void packPayload3(InformationID informationID, uint8_t data1,
 116:Tracer/sniffPayload.c **** 		uint8_t data2, uint8_t data3) {
 272              		.loc 1 116 0
 273              		.cfi_startproc
 274              		@ args = 0, pretend = 0, frame = 24
 275              		@ frame_needed = 1, uses_anonymous_args = 0
 276 0000 90B5     		push	{r4, r7, lr}
 277              		.cfi_def_cfa_offset 12
 278              		.cfi_offset 4, -12
 279              		.cfi_offset 7, -8
 280              		.cfi_offset 14, -4
 281 0002 87B0     		sub	sp, sp, #28
 282              		.cfi_def_cfa_offset 40
 283 0004 00AF     		add	r7, sp, #0
ARM GAS  C:\Users\THUNDE~1\AppData\Local\Temp\ccl5cePF.s 			page 8


 284              		.cfi_def_cfa_register 7
 285 0006 0446     		mov	r4, r0
 286 0008 0846     		mov	r0, r1
 287 000a 1146     		mov	r1, r2
 288 000c 1A46     		mov	r2, r3
 289 000e 2346     		mov	r3, r4
 290 0010 FB71     		strb	r3, [r7, #7]
 291 0012 0346     		mov	r3, r0
 292 0014 BB71     		strb	r3, [r7, #6]
 293 0016 0B46     		mov	r3, r1
 294 0018 7B71     		strb	r3, [r7, #5]
 295 001a 1346     		mov	r3, r2
 296 001c 3B71     		strb	r3, [r7, #4]
 117:Tracer/sniffPayload.c **** #if SEND_WITHOUT_SNIFF_TASK
 118:Tracer/sniffPayload.c **** 	if (applyInformationIDFilter(informationID)) {
 119:Tracer/sniffPayload.c **** 		SEND_PREAMBLE
 120:Tracer/sniffPayload.c **** 		sendByteOverInterface(packetCounter++);
 121:Tracer/sniffPayload.c **** 		sendByteOverInterface(informationID);
 122:Tracer/sniffPayload.c **** 		sendByteOverInterface(xTaskGetTickCount() >> 8);
 123:Tracer/sniffPayload.c **** 		sendByteOverInterface(xTaskGetTickCount());
 124:Tracer/sniffPayload.c **** 		sendByteOverInterface(readOutSysTimerHigh());
 125:Tracer/sniffPayload.c **** 		sendByteOverInterface(readOutSysTimerLow());
 126:Tracer/sniffPayload.c **** 		sendByteOverInterface(data1);
 127:Tracer/sniffPayload.c **** 		sendByteOverInterface(data2);
 128:Tracer/sniffPayload.c **** 		sendByteOverInterface(data3);
 129:Tracer/sniffPayload.c **** 	}
 130:Tracer/sniffPayload.c **** #else
 131:Tracer/sniffPayload.c **** 	Payload3 payload;
 132:Tracer/sniffPayload.c **** 	payload.payloadHead.packetID = 0; // packetCounter++;
 297              		.loc 1 132 0
 298 001e 0023     		movs	r3, #0
 299 0020 3B73     		strb	r3, [r7, #12]
 133:Tracer/sniffPayload.c **** 	payload.payloadHead.informationID = informationID;
 300              		.loc 1 133 0
 301 0022 FB79     		ldrb	r3, [r7, #7]
 302 0024 7B73     		strb	r3, [r7, #13]
 134:Tracer/sniffPayload.c **** 	payload.payloadHead.tickCountHigh = xTaskGetTickCount() >> 8;
 303              		.loc 1 134 0
 304 0026 FFF7FEFF 		bl	xTaskGetTickCount
 305 002a 0346     		mov	r3, r0
 306 002c 1B0A     		lsrs	r3, r3, #8
 307 002e DBB2     		uxtb	r3, r3
 308 0030 BB73     		strb	r3, [r7, #14]
 135:Tracer/sniffPayload.c **** 	payload.payloadHead.tickCountLow = xTaskGetTickCount();
 309              		.loc 1 135 0
 310 0032 FFF7FEFF 		bl	xTaskGetTickCount
 311 0036 0346     		mov	r3, r0
 312 0038 DBB2     		uxtb	r3, r3
 313 003a FB73     		strb	r3, [r7, #15]
 136:Tracer/sniffPayload.c **** 	payload.payloadHead.timerByteHigh = readOutSysTimerHigh();
 314              		.loc 1 136 0
 315 003c 0F4B     		ldr	r3, .L19
 316 003e 1B68     		ldr	r3, [r3]
 317 0040 1B0A     		lsrs	r3, r3, #8
 318 0042 DBB2     		uxtb	r3, r3
 319 0044 3B74     		strb	r3, [r7, #16]
 137:Tracer/sniffPayload.c **** 	payload.payloadHead.timerByteLow = readOutSysTimerLow();
ARM GAS  C:\Users\THUNDE~1\AppData\Local\Temp\ccl5cePF.s 			page 9


 320              		.loc 1 137 0
 321 0046 0D4B     		ldr	r3, .L19
 322 0048 1B68     		ldr	r3, [r3]
 323 004a DBB2     		uxtb	r3, r3
 324 004c 7B74     		strb	r3, [r7, #17]
 138:Tracer/sniffPayload.c **** 	payload.data1 = data1;
 325              		.loc 1 138 0
 326 004e BB79     		ldrb	r3, [r7, #6]
 327 0050 BB74     		strb	r3, [r7, #18]
 139:Tracer/sniffPayload.c **** 	payload.data2 = data2;
 328              		.loc 1 139 0
 329 0052 7B79     		ldrb	r3, [r7, #5]
 330 0054 FB74     		strb	r3, [r7, #19]
 140:Tracer/sniffPayload.c **** 	payload.data3 = data3;
 331              		.loc 1 140 0
 332 0056 3B79     		ldrb	r3, [r7, #4]
 333 0058 3B75     		strb	r3, [r7, #20]
 141:Tracer/sniffPayload.c **** 
 142:Tracer/sniffPayload.c **** 	if(writeFIFO(&payload,PAYLOAD_3,prioSTREAM)!=0) {
 334              		.loc 1 142 0
 335 005a 07F10C03 		add	r3, r7, #12
 336 005e 0122     		movs	r2, #1
 337 0060 0921     		movs	r1, #9
 338 0062 1846     		mov	r0, r3
 339 0064 FFF7FEFF 		bl	writeFIFO
 340 0068 0346     		mov	r3, r0
 341 006a 002B     		cmp	r3, #0
 342 006c 02D0     		beq	.L18
 143:Tracer/sniffPayload.c **** 		packPayloadError(ID_ERROR_STREAM_FIFO_FULL);
 343              		.loc 1 143 0
 344 006e 6520     		movs	r0, #101
 345 0070 FFF7FEFF 		bl	packPayloadError
 346              	.L18:
 144:Tracer/sniffPayload.c **** 	}
 145:Tracer/sniffPayload.c **** #endif
 146:Tracer/sniffPayload.c **** }
 347              		.loc 1 146 0
 348 0074 00BF     		nop
 349 0076 1C37     		adds	r7, r7, #28
 350              		.cfi_def_cfa_offset 12
 351 0078 BD46     		mov	sp, r7
 352              		.cfi_def_cfa_register 13
 353              		@ sp needed
 354 007a 90BD     		pop	{r4, r7, pc}
 355              	.L20:
 356              		.align	2
 357              	.L19:
 358 007c 18E000E0 		.word	-536813544
 359              		.cfi_endproc
 360              	.LFE4:
 361              		.size	packPayload3, .-packPayload3
 362              		.section	.text.packPayloadError,"ax",%progbits
 363              		.align	2
 364              		.global	packPayloadError
 365              		.thumb
 366              		.thumb_func
 367              		.type	packPayloadError, %function
ARM GAS  C:\Users\THUNDE~1\AppData\Local\Temp\ccl5cePF.s 			page 10


 368              	packPayloadError:
 369              	.LFB5:
 147:Tracer/sniffPayload.c **** 
 148:Tracer/sniffPayload.c **** inline void packPayloadError(ErrorID errorID) {
 370              		.loc 1 148 0
 371              		.cfi_startproc
 372              		@ args = 0, pretend = 0, frame = 16
 373              		@ frame_needed = 1, uses_anonymous_args = 0
 374 0000 80B5     		push	{r7, lr}
 375              		.cfi_def_cfa_offset 8
 376              		.cfi_offset 7, -8
 377              		.cfi_offset 14, -4
 378 0002 84B0     		sub	sp, sp, #16
 379              		.cfi_def_cfa_offset 24
 380 0004 00AF     		add	r7, sp, #0
 381              		.cfi_def_cfa_register 7
 382 0006 0346     		mov	r3, r0
 383 0008 FB71     		strb	r3, [r7, #7]
 149:Tracer/sniffPayload.c **** #if SEND_WITHOUT_SNIFF_TASK
 150:Tracer/sniffPayload.c **** 	SEND_PREAMBLE
 151:Tracer/sniffPayload.c **** 	sendByteOverInterface(packetCounter);
 152:Tracer/sniffPayload.c **** 	sendByteOverInterface(errorID);
 153:Tracer/sniffPayload.c **** 	sendByteOverInterface(xTaskGetTickCount() >> 8);
 154:Tracer/sniffPayload.c **** 	sendByteOverInterface(xTaskGetTickCount());
 155:Tracer/sniffPayload.c **** 	sendByteOverInterface(readOutSysTimerHigh());
 156:Tracer/sniffPayload.c **** 	sendByteOverInterface(readOutSysTimerLow());
 157:Tracer/sniffPayload.c **** #else
 158:Tracer/sniffPayload.c **** 	PayloadError payload;
 159:Tracer/sniffPayload.c **** 	payload.payloadHead.informationID = errorID;
 384              		.loc 1 159 0
 385 000a FB79     		ldrb	r3, [r7, #7]
 386 000c 7B72     		strb	r3, [r7, #9]
 160:Tracer/sniffPayload.c **** 	payload.payloadHead.tickCountHigh = xTaskGetTickCount() >> 8;
 387              		.loc 1 160 0
 388 000e FFF7FEFF 		bl	xTaskGetTickCount
 389 0012 0346     		mov	r3, r0
 390 0014 1B0A     		lsrs	r3, r3, #8
 391 0016 DBB2     		uxtb	r3, r3
 392 0018 BB72     		strb	r3, [r7, #10]
 161:Tracer/sniffPayload.c **** 	payload.payloadHead.tickCountLow = xTaskGetTickCount();
 393              		.loc 1 161 0
 394 001a FFF7FEFF 		bl	xTaskGetTickCount
 395 001e 0346     		mov	r3, r0
 396 0020 DBB2     		uxtb	r3, r3
 397 0022 FB72     		strb	r3, [r7, #11]
 162:Tracer/sniffPayload.c **** 	payload.payloadHead.timerByteHigh = readOutSysTimerHigh();
 398              		.loc 1 162 0
 399 0024 0C4B     		ldr	r3, .L24
 400 0026 1B68     		ldr	r3, [r3]
 401 0028 1B0A     		lsrs	r3, r3, #8
 402 002a DBB2     		uxtb	r3, r3
 403 002c 3B73     		strb	r3, [r7, #12]
 163:Tracer/sniffPayload.c **** 	payload.payloadHead.timerByteLow = readOutSysTimerLow();
 404              		.loc 1 163 0
 405 002e 0A4B     		ldr	r3, .L24
 406 0030 1B68     		ldr	r3, [r3]
 407 0032 DBB2     		uxtb	r3, r3
ARM GAS  C:\Users\THUNDE~1\AppData\Local\Temp\ccl5cePF.s 			page 11


 408 0034 7B73     		strb	r3, [r7, #13]
 164:Tracer/sniffPayload.c **** 	if(writeFIFO(&payload,PAYLOAD_ERROR,prioERROR)!=0) {
 409              		.loc 1 164 0
 410 0036 07F10803 		add	r3, r7, #8
 411 003a 0022     		movs	r2, #0
 412 003c 0621     		movs	r1, #6
 413 003e 1846     		mov	r0, r3
 414 0040 FFF7FEFF 		bl	writeFIFO
 415 0044 0346     		mov	r3, r0
 416 0046 002B     		cmp	r3, #0
 417 0048 01D0     		beq	.L23
 165:Tracer/sniffPayload.c **** 		stopTraceSniffer();
 418              		.loc 1 165 0
 419 004a FFF7FEFF 		bl	stopTraceSniffer
 420              	.L23:
 166:Tracer/sniffPayload.c **** 	}
 167:Tracer/sniffPayload.c **** #endif
 168:Tracer/sniffPayload.c **** }
 421              		.loc 1 168 0
 422 004e 00BF     		nop
 423 0050 1037     		adds	r7, r7, #16
 424              		.cfi_def_cfa_offset 8
 425 0052 BD46     		mov	sp, r7
 426              		.cfi_def_cfa_register 13
 427              		@ sp needed
 428 0054 80BD     		pop	{r7, pc}
 429              	.L25:
 430 0056 00BF     		.align	2
 431              	.L24:
 432 0058 18E000E0 		.word	-536813544
 433              		.cfi_endproc
 434              	.LFE5:
 435              		.size	packPayloadError, .-packPayloadError
 436              		.section	.text.initialiseObjectList,"ax",%progbits
 437              		.align	2
 438              		.global	initialiseObjectList
 439              		.thumb
 440              		.thumb_func
 441              		.type	initialiseObjectList, %function
 442              	initialiseObjectList:
 443              	.LFB6:
 169:Tracer/sniffPayload.c **** // To Call before tasks are created
 170:Tracer/sniffPayload.c **** void initialiseObjectList() {
 444              		.loc 1 170 0
 445              		.cfi_startproc
 446              		@ args = 0, pretend = 0, frame = 8
 447              		@ frame_needed = 1, uses_anonymous_args = 0
 448              		@ link register save eliminated.
 449 0000 80B4     		push	{r7}
 450              		.cfi_def_cfa_offset 4
 451              		.cfi_offset 7, -4
 452 0002 83B0     		sub	sp, sp, #12
 453              		.cfi_def_cfa_offset 16
 454 0004 00AF     		add	r7, sp, #0
 455              		.cfi_def_cfa_register 7
 456              	.LBB2:
 171:Tracer/sniffPayload.c **** 
ARM GAS  C:\Users\THUNDE~1\AppData\Local\Temp\ccl5cePF.s 			page 12


 172:Tracer/sniffPayload.c **** 	for (unsigned int i = 0; i < NUMBER_OF_OBJECTTYPES; ++i) {
 457              		.loc 1 172 0
 458 0006 0023     		movs	r3, #0
 459 0008 7B60     		str	r3, [r7, #4]
 460 000a 27E0     		b	.L27
 461              	.L28:
 173:Tracer/sniffPayload.c **** 		objectCounter[i] = 1;
 462              		.loc 1 173 0 discriminator 3
 463 000c 174A     		ldr	r2, .L29
 464 000e 7B68     		ldr	r3, [r7, #4]
 465 0010 1344     		add	r3, r3, r2
 466 0012 0122     		movs	r2, #1
 467 0014 1A70     		strb	r2, [r3]
 174:Tracer/sniffPayload.c **** 		objectList[i].objectHeader.objectType = i;
 468              		.loc 1 174 0 discriminator 3
 469 0016 7B68     		ldr	r3, [r7, #4]
 470 0018 D8B2     		uxtb	r0, r3
 471 001a 154A     		ldr	r2, .L29+4
 472 001c 7B68     		ldr	r3, [r7, #4]
 473 001e 4FF48E71 		mov	r1, #284
 474 0022 01FB03F3 		mul	r3, r1, r3
 475 0026 1344     		add	r3, r3, r2
 476 0028 0233     		adds	r3, r3, #2
 477 002a 0246     		mov	r2, r0
 478 002c 1A70     		strb	r2, [r3]
 175:Tracer/sniffPayload.c **** 		objectList[i].objectHeader.informationID = ID_OBJECT_LIST;
 479              		.loc 1 175 0 discriminator 3
 480 002e 104A     		ldr	r2, .L29+4
 481 0030 7B68     		ldr	r3, [r7, #4]
 482 0032 4FF48E71 		mov	r1, #284
 483 0036 01FB03F3 		mul	r3, r1, r3
 484 003a 1344     		add	r3, r3, r2
 485 003c 0133     		adds	r3, r3, #1
 486 003e 9722     		movs	r2, #151
 487 0040 1A70     		strb	r2, [r3]
 176:Tracer/sniffPayload.c **** 		objectList[i].objectHeader.length = 0;
 488              		.loc 1 176 0 discriminator 3
 489 0042 0B4A     		ldr	r2, .L29+4
 490 0044 7B68     		ldr	r3, [r7, #4]
 491 0046 4FF48E71 		mov	r1, #284
 492 004a 01FB03F3 		mul	r3, r1, r3
 493 004e 1344     		add	r3, r3, r2
 494 0050 0333     		adds	r3, r3, #3
 495 0052 0022     		movs	r2, #0
 496 0054 1A70     		strb	r2, [r3]
 172:Tracer/sniffPayload.c **** 		objectCounter[i] = 1;
 497              		.loc 1 172 0 discriminator 3
 498 0056 7B68     		ldr	r3, [r7, #4]
 499 0058 0133     		adds	r3, r3, #1
 500 005a 7B60     		str	r3, [r7, #4]
 501              	.L27:
 172:Tracer/sniffPayload.c **** 		objectCounter[i] = 1;
 502              		.loc 1 172 0 is_stmt 0 discriminator 1
 503 005c 7B68     		ldr	r3, [r7, #4]
 504 005e 052B     		cmp	r3, #5
 505 0060 D4D9     		bls	.L28
 506              	.LBE2:
ARM GAS  C:\Users\THUNDE~1\AppData\Local\Temp\ccl5cePF.s 			page 13


 177:Tracer/sniffPayload.c **** 	}
 178:Tracer/sniffPayload.c **** }
 507              		.loc 1 178 0 is_stmt 1
 508 0062 00BF     		nop
 509 0064 0C37     		adds	r7, r7, #12
 510              		.cfi_def_cfa_offset 4
 511 0066 BD46     		mov	sp, r7
 512              		.cfi_def_cfa_register 13
 513              		@ sp needed
 514 0068 80BC     		pop	{r7}
 515              		.cfi_restore 7
 516              		.cfi_def_cfa_offset 0
 517 006a 7047     		bx	lr
 518              	.L30:
 519              		.align	2
 520              	.L29:
 521 006c 00000000 		.word	objectCounter
 522 0070 00000000 		.word	objectList
 523              		.cfi_endproc
 524              	.LFE6:
 525              		.size	initialiseObjectList, .-initialiseObjectList
 526              		.section	.text.increaseObjectCounter,"ax",%progbits
 527              		.align	2
 528              		.global	increaseObjectCounter
 529              		.thumb
 530              		.thumb_func
 531              		.type	increaseObjectCounter, %function
 532              	increaseObjectCounter:
 533              	.LFB7:
 179:Tracer/sniffPayload.c **** 
 180:Tracer/sniffPayload.c **** inline unsigned int increaseObjectCounter(ObjectType objectType) {
 534              		.loc 1 180 0
 535              		.cfi_startproc
 536              		@ args = 0, pretend = 0, frame = 8
 537              		@ frame_needed = 1, uses_anonymous_args = 0
 538              		@ link register save eliminated.
 539 0000 80B4     		push	{r7}
 540              		.cfi_def_cfa_offset 4
 541              		.cfi_offset 7, -4
 542 0002 83B0     		sub	sp, sp, #12
 543              		.cfi_def_cfa_offset 16
 544 0004 00AF     		add	r7, sp, #0
 545              		.cfi_def_cfa_register 7
 546 0006 0346     		mov	r3, r0
 547 0008 FB71     		strb	r3, [r7, #7]
 181:Tracer/sniffPayload.c **** 
 182:Tracer/sniffPayload.c **** 	if (0xff == objectCounter[objectType]) {
 548              		.loc 1 182 0
 549 000a FB79     		ldrb	r3, [r7, #7]	@ zero_extendqisi2
 550 000c 094A     		ldr	r2, .L34
 551 000e D35C     		ldrb	r3, [r2, r3]	@ zero_extendqisi2
 552 0010 FF2B     		cmp	r3, #255
 553 0012 01D1     		bne	.L32
 183:Tracer/sniffPayload.c **** 		//TODO: error -> Counter voll
 184:Tracer/sniffPayload.c **** 		return 0x0;
 554              		.loc 1 184 0
 555 0014 0023     		movs	r3, #0
ARM GAS  C:\Users\THUNDE~1\AppData\Local\Temp\ccl5cePF.s 			page 14


 556 0016 07E0     		b	.L33
 557              	.L32:
 185:Tracer/sniffPayload.c **** 	}
 186:Tracer/sniffPayload.c **** 	return objectCounter[objectType]++;
 558              		.loc 1 186 0
 559 0018 FB79     		ldrb	r3, [r7, #7]	@ zero_extendqisi2
 560 001a 064A     		ldr	r2, .L34
 561 001c D25C     		ldrb	r2, [r2, r3]	@ zero_extendqisi2
 562 001e 511C     		adds	r1, r2, #1
 563 0020 C8B2     		uxtb	r0, r1
 564 0022 0449     		ldr	r1, .L34
 565 0024 C854     		strb	r0, [r1, r3]
 566 0026 1346     		mov	r3, r2
 567              	.L33:
 187:Tracer/sniffPayload.c **** }
 568              		.loc 1 187 0
 569 0028 1846     		mov	r0, r3
 570 002a 0C37     		adds	r7, r7, #12
 571              		.cfi_def_cfa_offset 4
 572 002c BD46     		mov	sp, r7
 573              		.cfi_def_cfa_register 13
 574              		@ sp needed
 575 002e 80BC     		pop	{r7}
 576              		.cfi_restore 7
 577              		.cfi_def_cfa_offset 0
 578 0030 7047     		bx	lr
 579              	.L35:
 580 0032 00BF     		.align	2
 581              	.L34:
 582 0034 00000000 		.word	objectCounter
 583              		.cfi_endproc
 584              	.LFE7:
 585              		.size	increaseObjectCounter, .-increaseObjectCounter
 586              		.section	.text.updateObjectList,"ax",%progbits
 587              		.align	2
 588              		.global	updateObjectList
 589              		.thumb
 590              		.thumb_func
 591              		.type	updateObjectList, %function
 592              	updateObjectList:
 593              	.LFB8:
 188:Tracer/sniffPayload.c **** 
 189:Tracer/sniffPayload.c **** inline unsigned int updateObjectList(ObjectType objectType,
 190:Tracer/sniffPayload.c **** 		char* objectNameExtern) { // count is 1 based while the array place is 0 based -> count-1, the 0 
 594              		.loc 1 190 0
 595              		.cfi_startproc
 596              		@ args = 0, pretend = 0, frame = 24
 597              		@ frame_needed = 1, uses_anonymous_args = 0
 598 0000 90B5     		push	{r4, r7, lr}
 599              		.cfi_def_cfa_offset 12
 600              		.cfi_offset 4, -12
 601              		.cfi_offset 7, -8
 602              		.cfi_offset 14, -4
 603 0002 87B0     		sub	sp, sp, #28
 604              		.cfi_def_cfa_offset 40
 605 0004 00AF     		add	r7, sp, #0
 606              		.cfi_def_cfa_register 7
ARM GAS  C:\Users\THUNDE~1\AppData\Local\Temp\ccl5cePF.s 			page 15


 607 0006 0346     		mov	r3, r0
 608 0008 3960     		str	r1, [r7]
 609 000a FB71     		strb	r3, [r7, #7]
 191:Tracer/sniffPayload.c **** 	size_t len;
 192:Tracer/sniffPayload.c **** 	size_t lengthObjectName = strlen(objectNameExtern);
 610              		.loc 1 192 0
 611 000c 3868     		ldr	r0, [r7]
 612 000e FFF7FEFF 		bl	strlen
 613 0012 3861     		str	r0, [r7, #16]
 193:Tracer/sniffPayload.c **** 	uint8_t count = increaseObjectCounter(objectType);
 614              		.loc 1 193 0
 615 0014 FB79     		ldrb	r3, [r7, #7]	@ zero_extendqisi2
 616 0016 1846     		mov	r0, r3
 617 0018 FFF7FEFF 		bl	increaseObjectCounter
 618 001c 0346     		mov	r3, r0
 619 001e FB73     		strb	r3, [r7, #15]
 194:Tracer/sniffPayload.c **** 
 195:Tracer/sniffPayload.c **** 	objectList[objectType].objectArray[count - 1].objectNumber = count;
 620              		.loc 1 195 0
 621 0020 F979     		ldrb	r1, [r7, #7]	@ zero_extendqisi2
 622 0022 FB7B     		ldrb	r3, [r7, #15]	@ zero_extendqisi2
 623 0024 5A1E     		subs	r2, r3, #1
 624 0026 3448     		ldr	r0, .L40
 625 0028 1346     		mov	r3, r2
 626 002a DB00     		lsls	r3, r3, #3
 627 002c 9B1A     		subs	r3, r3, r2
 628 002e 5B00     		lsls	r3, r3, #1
 629 0030 4FF48E72 		mov	r2, #284
 630 0034 02FB01F2 		mul	r2, r2, r1
 631 0038 1344     		add	r3, r3, r2
 632 003a 0344     		add	r3, r3, r0
 633 003c 0433     		adds	r3, r3, #4
 634 003e FA7B     		ldrb	r2, [r7, #15]
 635 0040 1A70     		strb	r2, [r3]
 196:Tracer/sniffPayload.c **** 
 197:Tracer/sniffPayload.c **** 	if ((MAX_LENGTH_OF_OBJECTNAME - 1) < lengthObjectName) {
 636              		.loc 1 197 0
 637 0042 3B69     		ldr	r3, [r7, #16]
 638 0044 0B2B     		cmp	r3, #11
 639 0046 02D9     		bls	.L37
 198:Tracer/sniffPayload.c **** 		len = MAX_LENGTH_OF_OBJECTNAME;
 640              		.loc 1 198 0
 641 0048 0C23     		movs	r3, #12
 642 004a 7B61     		str	r3, [r7, #20]
 643 004c 01E0     		b	.L38
 644              	.L37:
 199:Tracer/sniffPayload.c **** 	} else {
 200:Tracer/sniffPayload.c **** 		len = lengthObjectName;
 645              		.loc 1 200 0
 646 004e 3B69     		ldr	r3, [r7, #16]
 647 0050 7B61     		str	r3, [r7, #20]
 648              	.L38:
 201:Tracer/sniffPayload.c **** 	}
 202:Tracer/sniffPayload.c **** 
 203:Tracer/sniffPayload.c **** 	memcpy(objectList[objectType].objectArray[count - 1].objectName,
 649              		.loc 1 203 0
 650 0052 F979     		ldrb	r1, [r7, #7]	@ zero_extendqisi2
ARM GAS  C:\Users\THUNDE~1\AppData\Local\Temp\ccl5cePF.s 			page 16


 651 0054 FB7B     		ldrb	r3, [r7, #15]	@ zero_extendqisi2
 652 0056 5A1E     		subs	r2, r3, #1
 653 0058 1346     		mov	r3, r2
 654 005a DB00     		lsls	r3, r3, #3
 655 005c 9B1A     		subs	r3, r3, r2
 656 005e 5B00     		lsls	r3, r3, #1
 657 0060 4FF48E72 		mov	r2, #284
 658 0064 02FB01F2 		mul	r2, r2, r1
 659 0068 1344     		add	r3, r3, r2
 660 006a 234A     		ldr	r2, .L40
 661 006c 1344     		add	r3, r3, r2
 662 006e 0633     		adds	r3, r3, #6
 663 0070 7A69     		ldr	r2, [r7, #20]
 664 0072 3968     		ldr	r1, [r7]
 665 0074 1846     		mov	r0, r3
 666 0076 FFF7FEFF 		bl	memcpy
 204:Tracer/sniffPayload.c **** 			objectNameExtern, len);
 205:Tracer/sniffPayload.c **** 	objectList[objectType].objectArray[count - 1].objectName[len] = '\0';
 667              		.loc 1 205 0
 668 007a F979     		ldrb	r1, [r7, #7]	@ zero_extendqisi2
 669 007c FB7B     		ldrb	r3, [r7, #15]	@ zero_extendqisi2
 670 007e 5A1E     		subs	r2, r3, #1
 671 0080 1D48     		ldr	r0, .L40
 672 0082 1346     		mov	r3, r2
 673 0084 DB00     		lsls	r3, r3, #3
 674 0086 9B1A     		subs	r3, r3, r2
 675 0088 5B00     		lsls	r3, r3, #1
 676 008a 4FF48E72 		mov	r2, #284
 677 008e 02FB01F2 		mul	r2, r2, r1
 678 0092 1344     		add	r3, r3, r2
 679 0094 C218     		adds	r2, r0, r3
 680 0096 7B69     		ldr	r3, [r7, #20]
 681 0098 1344     		add	r3, r3, r2
 682 009a 0633     		adds	r3, r3, #6
 683 009c 0022     		movs	r2, #0
 684 009e 1A70     		strb	r2, [r3]
 206:Tracer/sniffPayload.c **** 	objectList[objectType].objectArray[count - 1].lenObjectName = len;
 685              		.loc 1 206 0
 686 00a0 F979     		ldrb	r1, [r7, #7]	@ zero_extendqisi2
 687 00a2 FB7B     		ldrb	r3, [r7, #15]	@ zero_extendqisi2
 688 00a4 5A1E     		subs	r2, r3, #1
 689 00a6 7B69     		ldr	r3, [r7, #20]
 690 00a8 DCB2     		uxtb	r4, r3
 691 00aa 1348     		ldr	r0, .L40
 692 00ac 1346     		mov	r3, r2
 693 00ae DB00     		lsls	r3, r3, #3
 694 00b0 9B1A     		subs	r3, r3, r2
 695 00b2 5B00     		lsls	r3, r3, #1
 696 00b4 4FF48E72 		mov	r2, #284
 697 00b8 02FB01F2 		mul	r2, r2, r1
 698 00bc 1344     		add	r3, r3, r2
 699 00be 0344     		add	r3, r3, r0
 700 00c0 0533     		adds	r3, r3, #5
 701 00c2 2246     		mov	r2, r4
 702 00c4 1A70     		strb	r2, [r3]
 207:Tracer/sniffPayload.c **** 
 208:Tracer/sniffPayload.c **** 	objectList[objectType].objectHeader.length++;
ARM GAS  C:\Users\THUNDE~1\AppData\Local\Temp\ccl5cePF.s 			page 17


 703              		.loc 1 208 0
 704 00c6 FB79     		ldrb	r3, [r7, #7]	@ zero_extendqisi2
 705 00c8 0B49     		ldr	r1, .L40
 706 00ca 4FF48E72 		mov	r2, #284
 707 00ce 02FB03F2 		mul	r2, r2, r3
 708 00d2 0A44     		add	r2, r2, r1
 709 00d4 0332     		adds	r2, r2, #3
 710 00d6 1278     		ldrb	r2, [r2]	@ zero_extendqisi2
 711 00d8 0132     		adds	r2, r2, #1
 712 00da D0B2     		uxtb	r0, r2
 713 00dc 064A     		ldr	r2, .L40
 714 00de 4FF48E71 		mov	r1, #284
 715 00e2 01FB03F3 		mul	r3, r1, r3
 716 00e6 1344     		add	r3, r3, r2
 717 00e8 0333     		adds	r3, r3, #3
 718 00ea 0246     		mov	r2, r0
 719 00ec 1A70     		strb	r2, [r3]
 209:Tracer/sniffPayload.c **** 
 210:Tracer/sniffPayload.c **** 	return count;
 720              		.loc 1 210 0
 721 00ee FB7B     		ldrb	r3, [r7, #15]	@ zero_extendqisi2
 211:Tracer/sniffPayload.c **** }
 722              		.loc 1 211 0
 723 00f0 1846     		mov	r0, r3
 724 00f2 1C37     		adds	r7, r7, #28
 725              		.cfi_def_cfa_offset 12
 726 00f4 BD46     		mov	sp, r7
 727              		.cfi_def_cfa_register 13
 728              		@ sp needed
 729 00f6 90BD     		pop	{r4, r7, pc}
 730              	.L41:
 731              		.align	2
 732              	.L40:
 733 00f8 00000000 		.word	objectList
 734              		.cfi_endproc
 735              	.LFE8:
 736              		.size	updateObjectList, .-updateObjectList
 737              		.section	.text.sendObjectList,"ax",%progbits
 738              		.align	2
 739              		.global	sendObjectList
 740              		.thumb
 741              		.thumb_func
 742              		.type	sendObjectList, %function
 743              	sendObjectList:
 744              	.LFB9:
 212:Tracer/sniffPayload.c **** 
 213:Tracer/sniffPayload.c **** void sendObjectList(uint8_t *packetCounter) {
 745              		.loc 1 213 0
 746              		.cfi_startproc
 747              		@ args = 0, pretend = 0, frame = 32
 748              		@ frame_needed = 1, uses_anonymous_args = 0
 749 0000 80B5     		push	{r7, lr}
 750              		.cfi_def_cfa_offset 8
 751              		.cfi_offset 7, -8
 752              		.cfi_offset 14, -4
 753 0002 88B0     		sub	sp, sp, #32
 754              		.cfi_def_cfa_offset 40
ARM GAS  C:\Users\THUNDE~1\AppData\Local\Temp\ccl5cePF.s 			page 18


 755 0004 00AF     		add	r7, sp, #0
 756              		.cfi_def_cfa_register 7
 757 0006 7860     		str	r0, [r7, #4]
 214:Tracer/sniffPayload.c **** 	uint8_t lengthList = 0;
 758              		.loc 1 214 0
 759 0008 0023     		movs	r3, #0
 760 000a FB73     		strb	r3, [r7, #15]
 761              	.LBB3:
 215:Tracer/sniffPayload.c **** 	uint8_t lengthObjectName;
 216:Tracer/sniffPayload.c **** 	char* currObjectName;
 217:Tracer/sniffPayload.c **** 
 218:Tracer/sniffPayload.c **** 	for (int i = 0; i < NUMBER_OF_OBJECTTYPES; ++i) {
 762              		.loc 1 218 0
 763 000c 0023     		movs	r3, #0
 764 000e BB61     		str	r3, [r7, #24]
 765 0010 CBE0     		b	.L43
 766              	.L48:
 219:Tracer/sniffPayload.c **** 
 220:Tracer/sniffPayload.c **** 		SEND_PREAMBLE
 767              		.loc 1 220 0
 768 0012 FD20     		movs	r0, #253
 769 0014 FFF7FEFF 		bl	BufferIn
 770 0018 0120     		movs	r0, #1
 771 001a FFF7FEFF 		bl	UART_1_SetTxInterruptMode
 772 001e FE20     		movs	r0, #254
 773 0020 FFF7FEFF 		bl	BufferIn
 774 0024 0120     		movs	r0, #1
 775 0026 FFF7FEFF 		bl	UART_1_SetTxInterruptMode
 776 002a FF20     		movs	r0, #255
 777 002c FFF7FEFF 		bl	BufferIn
 778 0030 0120     		movs	r0, #1
 779 0032 FFF7FEFF 		bl	UART_1_SetTxInterruptMode
 221:Tracer/sniffPayload.c **** 		;
 222:Tracer/sniffPayload.c **** 		objectList[i].objectHeader.packetID = (*packetCounter)++;
 780              		.loc 1 222 0
 781 0036 7B68     		ldr	r3, [r7, #4]
 782 0038 1B78     		ldrb	r3, [r3]	@ zero_extendqisi2
 783 003a 5A1C     		adds	r2, r3, #1
 784 003c D1B2     		uxtb	r1, r2
 785 003e 7A68     		ldr	r2, [r7, #4]
 786 0040 1170     		strb	r1, [r2]
 787 0042 5E49     		ldr	r1, .L49
 788 0044 BA69     		ldr	r2, [r7, #24]
 789 0046 4FF48E70 		mov	r0, #284
 790 004a 00FB02F2 		mul	r2, r0, r2
 791 004e 0A44     		add	r2, r2, r1
 792 0050 1370     		strb	r3, [r2]
 223:Tracer/sniffPayload.c **** 		sendByteOverInterface(objectList[i].objectHeader.packetID);
 793              		.loc 1 223 0
 794 0052 5A4A     		ldr	r2, .L49
 795 0054 BB69     		ldr	r3, [r7, #24]
 796 0056 4FF48E71 		mov	r1, #284
 797 005a 01FB03F3 		mul	r3, r1, r3
 798 005e 1344     		add	r3, r3, r2
 799 0060 1B78     		ldrb	r3, [r3]	@ zero_extendqisi2
 800 0062 1846     		mov	r0, r3
 801 0064 FFF7FEFF 		bl	BufferIn
ARM GAS  C:\Users\THUNDE~1\AppData\Local\Temp\ccl5cePF.s 			page 19


 802 0068 0120     		movs	r0, #1
 803 006a FFF7FEFF 		bl	UART_1_SetTxInterruptMode
 224:Tracer/sniffPayload.c **** 		sendByteOverInterface(objectList[i].objectHeader.informationID);
 804              		.loc 1 224 0
 805 006e 534A     		ldr	r2, .L49
 806 0070 BB69     		ldr	r3, [r7, #24]
 807 0072 4FF48E71 		mov	r1, #284
 808 0076 01FB03F3 		mul	r3, r1, r3
 809 007a 1344     		add	r3, r3, r2
 810 007c 0133     		adds	r3, r3, #1
 811 007e 1B78     		ldrb	r3, [r3]	@ zero_extendqisi2
 812 0080 1846     		mov	r0, r3
 813 0082 FFF7FEFF 		bl	BufferIn
 814 0086 0120     		movs	r0, #1
 815 0088 FFF7FEFF 		bl	UART_1_SetTxInterruptMode
 225:Tracer/sniffPayload.c **** 		sendByteOverInterface(objectList[i].objectHeader.objectType);
 816              		.loc 1 225 0
 817 008c 4B4A     		ldr	r2, .L49
 818 008e BB69     		ldr	r3, [r7, #24]
 819 0090 4FF48E71 		mov	r1, #284
 820 0094 01FB03F3 		mul	r3, r1, r3
 821 0098 1344     		add	r3, r3, r2
 822 009a 0233     		adds	r3, r3, #2
 823 009c 1B78     		ldrb	r3, [r3]	@ zero_extendqisi2
 824 009e 1846     		mov	r0, r3
 825 00a0 FFF7FEFF 		bl	BufferIn
 826 00a4 0120     		movs	r0, #1
 827 00a6 FFF7FEFF 		bl	UART_1_SetTxInterruptMode
 226:Tracer/sniffPayload.c **** 		lengthList = objectList[i].objectHeader.length;
 828              		.loc 1 226 0
 829 00aa 444A     		ldr	r2, .L49
 830 00ac BB69     		ldr	r3, [r7, #24]
 831 00ae 4FF48E71 		mov	r1, #284
 832 00b2 01FB03F3 		mul	r3, r1, r3
 833 00b6 1344     		add	r3, r3, r2
 834 00b8 0333     		adds	r3, r3, #3
 835 00ba 1B78     		ldrb	r3, [r3]
 836 00bc FB73     		strb	r3, [r7, #15]
 227:Tracer/sniffPayload.c **** 		sendByteOverInterface(lengthList);
 837              		.loc 1 227 0
 838 00be FB7B     		ldrb	r3, [r7, #15]	@ zero_extendqisi2
 839 00c0 1846     		mov	r0, r3
 840 00c2 FFF7FEFF 		bl	BufferIn
 841 00c6 0120     		movs	r0, #1
 842 00c8 FFF7FEFF 		bl	UART_1_SetTxInterruptMode
 843              	.LBB4:
 228:Tracer/sniffPayload.c **** 
 229:Tracer/sniffPayload.c **** 		for (int j = 0; j < lengthList; ++j) {
 844              		.loc 1 229 0
 845 00cc 0023     		movs	r3, #0
 846 00ce 7B61     		str	r3, [r7, #20]
 847 00d0 52E0     		b	.L44
 848              	.L47:
 230:Tracer/sniffPayload.c **** 			sendByteOverInterface(objectList[i].objectArray[j].objectNumber);
 849              		.loc 1 230 0
 850 00d2 3A48     		ldr	r0, .L49
 851 00d4 7A69     		ldr	r2, [r7, #20]
ARM GAS  C:\Users\THUNDE~1\AppData\Local\Temp\ccl5cePF.s 			page 20


 852 00d6 B969     		ldr	r1, [r7, #24]
 853 00d8 1346     		mov	r3, r2
 854 00da DB00     		lsls	r3, r3, #3
 855 00dc 9B1A     		subs	r3, r3, r2
 856 00de 5B00     		lsls	r3, r3, #1
 857 00e0 4FF48E72 		mov	r2, #284
 858 00e4 02FB01F2 		mul	r2, r2, r1
 859 00e8 1344     		add	r3, r3, r2
 860 00ea 0344     		add	r3, r3, r0
 861 00ec 0433     		adds	r3, r3, #4
 862 00ee 1B78     		ldrb	r3, [r3]	@ zero_extendqisi2
 863 00f0 1846     		mov	r0, r3
 864 00f2 FFF7FEFF 		bl	BufferIn
 865 00f6 0120     		movs	r0, #1
 866 00f8 FFF7FEFF 		bl	UART_1_SetTxInterruptMode
 231:Tracer/sniffPayload.c **** 			lengthObjectName = objectList[i].objectArray[j].lenObjectName;
 867              		.loc 1 231 0
 868 00fc 2F48     		ldr	r0, .L49
 869 00fe 7A69     		ldr	r2, [r7, #20]
 870 0100 B969     		ldr	r1, [r7, #24]
 871 0102 1346     		mov	r3, r2
 872 0104 DB00     		lsls	r3, r3, #3
 873 0106 9B1A     		subs	r3, r3, r2
 874 0108 5B00     		lsls	r3, r3, #1
 875 010a 4FF48E72 		mov	r2, #284
 876 010e 02FB01F2 		mul	r2, r2, r1
 877 0112 1344     		add	r3, r3, r2
 878 0114 0344     		add	r3, r3, r0
 879 0116 0533     		adds	r3, r3, #5
 880 0118 1B78     		ldrb	r3, [r3]
 881 011a BB73     		strb	r3, [r7, #14]
 232:Tracer/sniffPayload.c **** 			sendByteOverInterface(lengthObjectName);
 882              		.loc 1 232 0
 883 011c BB7B     		ldrb	r3, [r7, #14]	@ zero_extendqisi2
 884 011e 1846     		mov	r0, r3
 885 0120 FFF7FEFF 		bl	BufferIn
 886 0124 0120     		movs	r0, #1
 887 0126 FFF7FEFF 		bl	UART_1_SetTxInterruptMode
 233:Tracer/sniffPayload.c **** 			currObjectName = objectList[i].objectArray[j].objectName;
 888              		.loc 1 233 0
 889 012a 7A69     		ldr	r2, [r7, #20]
 890 012c 1346     		mov	r3, r2
 891 012e DB00     		lsls	r3, r3, #3
 892 0130 9B1A     		subs	r3, r3, r2
 893 0132 5B00     		lsls	r3, r3, #1
 894 0134 BA69     		ldr	r2, [r7, #24]
 895 0136 4FF48E71 		mov	r1, #284
 896 013a 01FB02F2 		mul	r2, r1, r2
 897 013e 1344     		add	r3, r3, r2
 898 0140 1E4A     		ldr	r2, .L49
 899 0142 1344     		add	r3, r3, r2
 900 0144 0633     		adds	r3, r3, #6
 901 0146 FB61     		str	r3, [r7, #28]
 902              	.LBB5:
 234:Tracer/sniffPayload.c **** 			for (int i = 0; i < lengthObjectName; ++i) {
 903              		.loc 1 234 0
 904 0148 0023     		movs	r3, #0
ARM GAS  C:\Users\THUNDE~1\AppData\Local\Temp\ccl5cePF.s 			page 21


 905 014a 3B61     		str	r3, [r7, #16]
 906 014c 0DE0     		b	.L45
 907              	.L46:
 235:Tracer/sniffPayload.c **** 				sendByteOverInterface(*currObjectName);
 908              		.loc 1 235 0 discriminator 3
 909 014e FB69     		ldr	r3, [r7, #28]
 910 0150 1B78     		ldrb	r3, [r3]	@ zero_extendqisi2
 911 0152 1846     		mov	r0, r3
 912 0154 FFF7FEFF 		bl	BufferIn
 913 0158 0120     		movs	r0, #1
 914 015a FFF7FEFF 		bl	UART_1_SetTxInterruptMode
 236:Tracer/sniffPayload.c **** 				currObjectName++;
 915              		.loc 1 236 0 discriminator 3
 916 015e FB69     		ldr	r3, [r7, #28]
 917 0160 0133     		adds	r3, r3, #1
 918 0162 FB61     		str	r3, [r7, #28]
 234:Tracer/sniffPayload.c **** 			for (int i = 0; i < lengthObjectName; ++i) {
 919              		.loc 1 234 0 discriminator 3
 920 0164 3B69     		ldr	r3, [r7, #16]
 921 0166 0133     		adds	r3, r3, #1
 922 0168 3B61     		str	r3, [r7, #16]
 923              	.L45:
 234:Tracer/sniffPayload.c **** 			for (int i = 0; i < lengthObjectName; ++i) {
 924              		.loc 1 234 0 is_stmt 0 discriminator 1
 925 016a BA7B     		ldrb	r2, [r7, #14]	@ zero_extendqisi2
 926 016c 3B69     		ldr	r3, [r7, #16]
 927 016e 9A42     		cmp	r2, r3
 928 0170 EDDC     		bgt	.L46
 929              	.LBE5:
 229:Tracer/sniffPayload.c **** 			sendByteOverInterface(objectList[i].objectArray[j].objectNumber);
 930              		.loc 1 229 0 is_stmt 1 discriminator 2
 931 0172 7B69     		ldr	r3, [r7, #20]
 932 0174 0133     		adds	r3, r3, #1
 933 0176 7B61     		str	r3, [r7, #20]
 934              	.L44:
 229:Tracer/sniffPayload.c **** 			sendByteOverInterface(objectList[i].objectArray[j].objectNumber);
 935              		.loc 1 229 0 is_stmt 0 discriminator 1
 936 0178 FA7B     		ldrb	r2, [r7, #15]	@ zero_extendqisi2
 937 017a 7B69     		ldr	r3, [r7, #20]
 938 017c 9A42     		cmp	r2, r3
 939 017e A8DC     		bgt	.L47
 940              	.LBE4:
 237:Tracer/sniffPayload.c **** 			}
 238:Tracer/sniffPayload.c **** 
 239:Tracer/sniffPayload.c **** 		}
 240:Tracer/sniffPayload.c **** 		SEND_PREAMBLE
 941              		.loc 1 240 0 is_stmt 1 discriminator 2
 942 0180 FD20     		movs	r0, #253
 943 0182 FFF7FEFF 		bl	BufferIn
 944 0186 0120     		movs	r0, #1
 945 0188 FFF7FEFF 		bl	UART_1_SetTxInterruptMode
 946 018c FE20     		movs	r0, #254
 947 018e FFF7FEFF 		bl	BufferIn
 948 0192 0120     		movs	r0, #1
 949 0194 FFF7FEFF 		bl	UART_1_SetTxInterruptMode
 950 0198 FF20     		movs	r0, #255
 951 019a FFF7FEFF 		bl	BufferIn
ARM GAS  C:\Users\THUNDE~1\AppData\Local\Temp\ccl5cePF.s 			page 22


 952 019e 0120     		movs	r0, #1
 953 01a0 FFF7FEFF 		bl	UART_1_SetTxInterruptMode
 218:Tracer/sniffPayload.c **** 
 954              		.loc 1 218 0 discriminator 2
 955 01a4 BB69     		ldr	r3, [r7, #24]
 956 01a6 0133     		adds	r3, r3, #1
 957 01a8 BB61     		str	r3, [r7, #24]
 958              	.L43:
 218:Tracer/sniffPayload.c **** 
 959              		.loc 1 218 0 is_stmt 0 discriminator 1
 960 01aa BB69     		ldr	r3, [r7, #24]
 961 01ac 052B     		cmp	r3, #5
 962 01ae 7FF730AF 		ble	.L48
 963              	.LBE3:
 241:Tracer/sniffPayload.c **** 		;
 242:Tracer/sniffPayload.c **** 	}
 243:Tracer/sniffPayload.c **** }
 964              		.loc 1 243 0 is_stmt 1
 965 01b2 00BF     		nop
 966 01b4 2037     		adds	r7, r7, #32
 967              		.cfi_def_cfa_offset 8
 968 01b6 BD46     		mov	sp, r7
 969              		.cfi_def_cfa_register 13
 970              		@ sp needed
 971 01b8 80BD     		pop	{r7, pc}
 972              	.L50:
 973 01ba 00BF     		.align	2
 974              	.L49:
 975 01bc 00000000 		.word	objectList
 976              		.cfi_endproc
 977              	.LFE9:
 978              		.size	sendObjectList, .-sendObjectList
 979              		.section	.text.applyInformationIDFilter,"ax",%progbits
 980              		.align	2
 981              		.global	applyInformationIDFilter
 982              		.thumb
 983              		.thumb_func
 984              		.type	applyInformationIDFilter, %function
 985              	applyInformationIDFilter:
 986              	.LFB10:
 244:Tracer/sniffPayload.c **** 
 245:Tracer/sniffPayload.c **** //Modulo Alternative      i & (m-1)
 246:Tracer/sniffPayload.c **** 
 247:Tracer/sniffPayload.c **** uint8_t applyInformationIDFilter(uint8_t informationID) {
 987              		.loc 1 247 0
 988              		.cfi_startproc
 989              		@ args = 0, pretend = 0, frame = 16
 990              		@ frame_needed = 1, uses_anonymous_args = 0
 991              		@ link register save eliminated.
 992 0000 80B4     		push	{r7}
 993              		.cfi_def_cfa_offset 4
 994              		.cfi_offset 7, -4
 995 0002 85B0     		sub	sp, sp, #20
 996              		.cfi_def_cfa_offset 24
 997 0004 00AF     		add	r7, sp, #0
 998              		.cfi_def_cfa_register 7
 999 0006 0346     		mov	r3, r0
ARM GAS  C:\Users\THUNDE~1\AppData\Local\Temp\ccl5cePF.s 			page 23


 1000 0008 FB71     		strb	r3, [r7, #7]
 248:Tracer/sniffPayload.c **** 	uint8_t arrayPlace;
 249:Tracer/sniffPayload.c **** 	arrayPlace = informationID >> 3;
 1001              		.loc 1 249 0
 1002 000a FB79     		ldrb	r3, [r7, #7]	@ zero_extendqisi2
 1003 000c DB08     		lsrs	r3, r3, #3
 1004 000e FB73     		strb	r3, [r7, #15]
 250:Tracer/sniffPayload.c **** 	if (sniffIDFilter[arrayPlace] & (1 << (informationID & (7)))) {
 1005              		.loc 1 250 0
 1006 0010 FB7B     		ldrb	r3, [r7, #15]	@ zero_extendqisi2
 1007 0012 0A4A     		ldr	r2, .L54
 1008 0014 D35C     		ldrb	r3, [r2, r3]	@ zero_extendqisi2
 1009 0016 1A46     		mov	r2, r3
 1010 0018 FB79     		ldrb	r3, [r7, #7]	@ zero_extendqisi2
 1011 001a 03F00703 		and	r3, r3, #7
 1012 001e 42FA03F3 		asr	r3, r2, r3
 1013 0022 03F00103 		and	r3, r3, #1
 1014 0026 002B     		cmp	r3, #0
 1015 0028 01D0     		beq	.L52
 251:Tracer/sniffPayload.c **** 		return 1;
 1016              		.loc 1 251 0
 1017 002a 0123     		movs	r3, #1
 1018 002c 00E0     		b	.L53
 1019              	.L52:
 252:Tracer/sniffPayload.c **** 	}
 253:Tracer/sniffPayload.c **** 	return 0;
 1020              		.loc 1 253 0
 1021 002e 0023     		movs	r3, #0
 1022              	.L53:
 254:Tracer/sniffPayload.c **** }
 1023              		.loc 1 254 0
 1024 0030 1846     		mov	r0, r3
 1025 0032 1437     		adds	r7, r7, #20
 1026              		.cfi_def_cfa_offset 4
 1027 0034 BD46     		mov	sp, r7
 1028              		.cfi_def_cfa_register 13
 1029              		@ sp needed
 1030 0036 80BC     		pop	{r7}
 1031              		.cfi_restore 7
 1032              		.cfi_def_cfa_offset 0
 1033 0038 7047     		bx	lr
 1034              	.L55:
 1035 003a 00BF     		.align	2
 1036              	.L54:
 1037 003c 00000000 		.word	sniffIDFilter
 1038              		.cfi_endproc
 1039              	.LFE10:
 1040              		.size	applyInformationIDFilter, .-applyInformationIDFilter
 1041              		.text
 1042              	.Letext0:
 1043              		.file 2 "c:\\program files (x86)\\cypress\\psoc creator\\4.2\\psoc creator\\import\\gnu\\arm\\5.4.
 1044              		.file 3 "c:\\program files (x86)\\cypress\\psoc creator\\4.2\\psoc creator\\import\\gnu\\arm\\5.4.
 1045              		.file 4 "c:\\program files (x86)\\cypress\\psoc creator\\4.2\\psoc creator\\import\\gnu\\arm\\5.4.
 1046              		.file 5 ".\\Tracer/sniffPayload.h"
 1047              		.file 6 ".\\Tracer/selfFIFO.h"
 1048              		.file 7 "Generated_Source\\PSoC5/cytypes.h"