ARM GAS  C:\Users\THUNDE~1\AppData\Local\Temp\ccDMvLMt.s 			page 1


   1              		.syntax unified
   2              		.cpu cortex-m3
   3              		.fpu softvfp
   4              		.eabi_attribute 20, 1
   5              		.eabi_attribute 21, 1
   6              		.eabi_attribute 23, 3
   7              		.eabi_attribute 24, 1
   8              		.eabi_attribute 25, 1
   9              		.eabi_attribute 26, 1
  10              		.eabi_attribute 30, 6
  11              		.eabi_attribute 34, 1
  12              		.eabi_attribute 18, 4
  13              		.thumb
  14              		.syntax unified
  15              		.file	"sniffImport.c"
  16              		.text
  17              	.Ltext0:
  18              		.cfi_sections	.debug_frame
  19              		.comm	sniffIDFilter,13,4
  20              		.comm	buffer,4098,4
  21              		.comm	objectList,1704,4
  22              		.bss
  23              		.align	2
  24              	sniffTaskHandle:
  25 0000 00000000 		.space	4
  26              		.section	.rodata
  27              		.align	2
  28              	.LC0:
  29 0000 736E6966 		.ascii	"sniffTask\000"
  29      66546173 
  29      6B00
  30              		.section	.text.initialiseTraceSniffer,"ax",%progbits
  31              		.align	2
  32              		.global	initialiseTraceSniffer
  33              		.thumb
  34              		.thumb_func
  35              		.type	initialiseTraceSniffer, %function
  36              	initialiseTraceSniffer:
  37              	.LFB0:
  38              		.file 1 "Tracer\\sniffImport.c"
   1:Tracer/sniffImport.c **** /** \file sniffImport.c
   2:Tracer/sniffImport.c ****  * \brief sniffImport source file.
   3:Tracer/sniffImport.c ****  * \details Implements the functions used for initialising the Tracer.
   4:Tracer/sniffImport.c ****  * \author Jonas Mair
   5:Tracer/sniffImport.c ****  * \date 2018
   6:Tracer/sniffImport.c ****  */
   7:Tracer/sniffImport.c **** 
   8:Tracer/sniffImport.c **** #include <string.h>
   9:Tracer/sniffImport.c **** #include <sniffImport.h>
  10:Tracer/sniffImport.c **** 
  11:Tracer/sniffImport.c **** typedef void* TaskHandle_t;
  12:Tracer/sniffImport.c **** static TaskHandle_t sniffTaskHandle = NULL;
  13:Tracer/sniffImport.c **** extern long xTaskCreate();
  14:Tracer/sniffImport.c **** extern void vTaskSuspend(TaskHandle_t xTaskToSuspend);
  15:Tracer/sniffImport.c **** 
  16:Tracer/sniffImport.c **** uint8_t initialiseTraceSniffer() {
  39              		.loc 1 16 0
ARM GAS  C:\Users\THUNDE~1\AppData\Local\Temp\ccDMvLMt.s 			page 2


  40              		.cfi_startproc
  41              		@ args = 0, pretend = 0, frame = 0
  42              		@ frame_needed = 1, uses_anonymous_args = 0
  43 0000 80B5     		push	{r7, lr}
  44              		.cfi_def_cfa_offset 8
  45              		.cfi_offset 7, -8
  46              		.cfi_offset 14, -4
  47 0002 82B0     		sub	sp, sp, #8
  48              		.cfi_def_cfa_offset 16
  49 0004 02AF     		add	r7, sp, #8
  50              		.cfi_def_cfa 7, 8
  17:Tracer/sniffImport.c **** 	initialiseFIFO();
  51              		.loc 1 17 0
  52 0006 FFF7FEFF 		bl	initialiseFIFO
  18:Tracer/sniffImport.c **** 	initialiseObjectList();
  53              		.loc 1 18 0
  54 000a FFF7FEFF 		bl	initialiseObjectList
  19:Tracer/sniffImport.c **** 	enableReceiveInterrupt();
  55              		.loc 1 19 0
  56 000e FFF7FEFF 		bl	UART_1_Start
  57 0012 0020     		movs	r0, #0
  58 0014 FFF7FEFF 		bl	UART_1_SetTxInterruptMode
  59 0018 2020     		movs	r0, #32
  60 001a FFF7FEFF 		bl	UART_1_SetRxInterruptMode
  61 001e FFF7FEFF 		bl	isr_UART1_RX_BYTE_RECEIVED_Start
  62 0022 FFF7FEFF 		bl	isr_UART1_TX_BYTE_COMPLETE_Start
  20:Tracer/sniffImport.c **** 	memset(sniffIDFilter, 0xff, sizeof(uint8_t) * SIZE_OF_FILTER);
  63              		.loc 1 20 0
  64 0026 0D22     		movs	r2, #13
  65 0028 FF21     		movs	r1, #255
  66 002a 0848     		ldr	r0, .L3
  67 002c FFF7FEFF 		bl	memset
  21:Tracer/sniffImport.c **** 	//memset(sniffIDFilter, 0xffffffff, sizeof(uint32_t) * 4);
  22:Tracer/sniffImport.c **** 	//memset(&sniffIDFilter[5],0xff,1);
  23:Tracer/sniffImport.c **** 	//memset(&sniffIDFilter[5],~(1<<4),1);
  24:Tracer/sniffImport.c **** 
  25:Tracer/sniffImport.c **** #if WAIT_FOR_SNIFFER_START
  26:Tracer/sniffImport.c **** 	uint8_t* data;
  27:Tracer/sniffImport.c **** 	payloadType* type;
  28:Tracer/sniffImport.c **** 	while(readReceiveFIFO(data,type)!=0);
  29:Tracer/sniffImport.c **** #endif
  30:Tracer/sniffImport.c **** 	xTaskCreate(sniffTask, "sniffTask", STACK_SIZE_OF_SNIFF_TASK, NULL,
  68              		.loc 1 30 0
  69 0030 074B     		ldr	r3, .L3+4
  70 0032 0193     		str	r3, [sp, #4]
  71 0034 0123     		movs	r3, #1
  72 0036 0093     		str	r3, [sp]
  73 0038 0023     		movs	r3, #0
  74 003a 6422     		movs	r2, #100
  75 003c 0549     		ldr	r1, .L3+8
  76 003e 0648     		ldr	r0, .L3+12
  77 0040 FFF7FEFF 		bl	xTaskCreate
  31:Tracer/sniffImport.c **** 	PRIORITY_OF_SNIFF_TASK, &sniffTaskHandle);
  32:Tracer/sniffImport.c **** 	//Create Task
  33:Tracer/sniffImport.c **** 	return 0;
  78              		.loc 1 33 0
  79 0044 0023     		movs	r3, #0
ARM GAS  C:\Users\THUNDE~1\AppData\Local\Temp\ccDMvLMt.s 			page 3


  34:Tracer/sniffImport.c **** }
  80              		.loc 1 34 0
  81 0046 1846     		mov	r0, r3
  82 0048 BD46     		mov	sp, r7
  83              		.cfi_def_cfa_register 13
  84              		@ sp needed
  85 004a 80BD     		pop	{r7, pc}
  86              	.L4:
  87              		.align	2
  88              	.L3:
  89 004c 00000000 		.word	sniffIDFilter
  90 0050 00000000 		.word	sniffTaskHandle
  91 0054 00000000 		.word	.LC0
  92 0058 00000000 		.word	sniffTask
  93              		.cfi_endproc
  94              	.LFE0:
  95              		.size	initialiseTraceSniffer, .-initialiseTraceSniffer
  96              		.section	.text.stopTraceSniffer,"ax",%progbits
  97              		.align	2
  98              		.global	stopTraceSniffer
  99              		.thumb
 100              		.thumb_func
 101              		.type	stopTraceSniffer, %function
 102              	stopTraceSniffer:
 103              	.LFB1:
  35:Tracer/sniffImport.c **** void stopTraceSniffer() {
 104              		.loc 1 35 0
 105              		.cfi_startproc
 106              		@ args = 0, pretend = 0, frame = 0
 107              		@ frame_needed = 1, uses_anonymous_args = 0
 108 0000 80B5     		push	{r7, lr}
 109              		.cfi_def_cfa_offset 8
 110              		.cfi_offset 7, -8
 111              		.cfi_offset 14, -4
 112 0002 00AF     		add	r7, sp, #0
 113              		.cfi_def_cfa_register 7
  36:Tracer/sniffImport.c **** 	vTaskSuspend(sniffTaskHandle);
 114              		.loc 1 36 0
 115 0004 034B     		ldr	r3, .L6
 116 0006 1B68     		ldr	r3, [r3]
 117 0008 1846     		mov	r0, r3
 118 000a FFF7FEFF 		bl	vTaskSuspend
  37:Tracer/sniffImport.c **** 	//memset(sniffIDFilter, 0x00, sizeof(uint8_t) * SIZE_OF_FILTER);
  38:Tracer/sniffImport.c **** }
 119              		.loc 1 38 0
 120 000e 00BF     		nop
 121 0010 80BD     		pop	{r7, pc}
 122              	.L7:
 123 0012 00BF     		.align	2
 124              	.L6:
 125 0014 00000000 		.word	sniffTaskHandle
 126              		.cfi_endproc
 127              	.LFE1:
 128              		.size	stopTraceSniffer, .-stopTraceSniffer
 129              		.text
 130              	.Letext0:
 131              		.file 2 "c:\\program files (x86)\\cypress\\psoc creator\\4.2\\psoc creator\\import\\gnu\\arm\\5.4.
ARM GAS  C:\Users\THUNDE~1\AppData\Local\Temp\ccDMvLMt.s 			page 4


 132              		.file 3 "c:\\program files (x86)\\cypress\\psoc creator\\4.2\\psoc creator\\import\\gnu\\arm\\5.4.
 133              		.file 4 ".\\Tracer/sniffPayload.h"
 134              		.file 5 ".\\Tracer/selfFIFO.h"
 135              		.file 6 "Generated_Source\\PSoC5/cytypes.h"
 136              		.file 7 ".\\Tracer/sniffTask.h"