ARM GAS  C:\Users\THUNDE~1\AppData\Local\Temp\ccbcT2qU.s 			page 1


   1              		.syntax unified
   2              		.cpu cortex-m3
   3              		.fpu softvfp
   4              		.eabi_attribute 20, 1
   5              		.eabi_attribute 21, 1
   6              		.eabi_attribute 23, 3
   7              		.eabi_attribute 24, 1
   8              		.eabi_attribute 25, 1
   9              		.eabi_attribute 26, 1
  10              		.eabi_attribute 30, 6
  11              		.eabi_attribute 34, 1
  12              		.eabi_attribute 18, 4
  13              		.thumb
  14              		.syntax unified
  15              		.file	"sniffTask.c"
  16              		.text
  17              	.Ltext0:
  18              		.cfi_sections	.debug_frame
  19              		.comm	sniffIDFilter,13,4
  20              		.comm	objectList,1704,4
  21              		.comm	buffer,4098,4
  22              		.section	.text.sniffTask,"ax",%progbits
  23              		.align	2
  24              		.global	sniffTask
  25              		.thumb
  26              		.thumb_func
  27              		.type	sniffTask, %function
  28              	sniffTask:
  29              	.LFB0:
  30              		.file 1 "Tracer\\sniffTask.c"
   1:Tracer/sniffTask.c **** /** \file sniffTask.c
   2:Tracer/sniffTask.c ****  * \brief sniffTask source file.
   3:Tracer/sniffTask.c ****  * \details Implements everything needed for running the SniffTask.
   4:Tracer/sniffTask.c ****  * \author Jonas Mair
   5:Tracer/sniffTask.c ****  * \date 2018
   6:Tracer/sniffTask.c ****  */
   7:Tracer/sniffTask.c **** #include <stdlib.h>
   8:Tracer/sniffTask.c **** 
   9:Tracer/sniffTask.c **** #include <sniffTask.h>
  10:Tracer/sniffTask.c **** #include <sniffHooks.h>
  11:Tracer/sniffTask.c **** #include <sniffPayload.h>
  12:Tracer/sniffTask.c **** #include <sniffFIFO.h>
  13:Tracer/sniffTask.c **** #include <sniffPort.h>
  14:Tracer/sniffTask.c **** 
  15:Tracer/sniffTask.c **** extern void vTaskDelay();
  16:Tracer/sniffTask.c **** 
  17:Tracer/sniffTask.c **** void sniffTask() {
  31              		.loc 1 17 0
  32              		.cfi_startproc
  33              		@ args = 0, pretend = 0, frame = 56
  34              		@ frame_needed = 1, uses_anonymous_args = 0
  35 0000 80B5     		push	{r7, lr}
  36              		.cfi_def_cfa_offset 8
  37              		.cfi_offset 7, -8
  38              		.cfi_offset 14, -4
  39 0002 8EB0     		sub	sp, sp, #56
  40              		.cfi_def_cfa_offset 64
ARM GAS  C:\Users\THUNDE~1\AppData\Local\Temp\ccbcT2qU.s 			page 2


  41 0004 00AF     		add	r7, sp, #0
  42              		.cfi_def_cfa_register 7
  18:Tracer/sniffTask.c **** 
  19:Tracer/sniffTask.c **** 	//Important Variables
  20:Tracer/sniffTask.c **** 	Payload3 payload; // payload for read FIFO
  21:Tracer/sniffTask.c **** 
  22:Tracer/sniffTask.c **** 	Payload3 *currPayload; //Types to cast to depending on the receive payloadType
  23:Tracer/sniffTask.c **** 	PayloadError *currPayloadError;
  24:Tracer/sniffTask.c **** 	uint8_t* currPayloadReceived;
  25:Tracer/sniffTask.c **** 
  26:Tracer/sniffTask.c **** 	payloadType currPayloadType;
  27:Tracer/sniffTask.c **** 	Priority currReadPrio;
  28:Tracer/sniffTask.c **** 	uint8_t packetCounter = 0;
  43              		.loc 1 28 0
  44 0006 0023     		movs	r3, #0
  45 0008 7B71     		strb	r3, [r7, #5]
  29:Tracer/sniffTask.c **** 	ReceiverState receiverState = NORMAL;
  46              		.loc 1 29 0
  47 000a 0023     		movs	r3, #0
  48 000c 87F83730 		strb	r3, [r7, #55]
  30:Tracer/sniffTask.c **** 
  31:Tracer/sniffTask.c **** 	//Miscellanous Variables
  32:Tracer/sniffTask.c **** 	unsigned char const* ptr; // ptr for iterating over payload struct
  33:Tracer/sniffTask.c **** 	unsigned char currSniffFilterByte = 0;
  49              		.loc 1 33 0
  50 0010 0023     		movs	r3, #0
  51 0012 87F82F30 		strb	r3, [r7, #47]
  52              	.L23:
  34:Tracer/sniffTask.c **** 	uint8_t* pSniffIDFilter;
  35:Tracer/sniffTask.c **** 
  36:Tracer/sniffTask.c **** 	while (1) {
  37:Tracer/sniffTask.c **** 
  38:Tracer/sniffTask.c **** 		if (0 == readFIFO((void*) &payload, &currPayloadType, &currReadPrio)) {
  53              		.loc 1 38 0
  54 0016 BA1D     		adds	r2, r7, #6
  55 0018 F91D     		adds	r1, r7, #7
  56 001a 07F10803 		add	r3, r7, #8
  57 001e 1846     		mov	r0, r3
  58 0020 FFF7FEFF 		bl	readFIFO
  59 0024 0346     		mov	r3, r0
  60 0026 002B     		cmp	r3, #0
  61 0028 40F0B280 		bne	.L2
  39:Tracer/sniffTask.c **** 			switch (currReadPrio) {
  62              		.loc 1 39 0
  63 002c BB79     		ldrb	r3, [r7, #6]	@ zero_extendqisi2
  64 002e 012B     		cmp	r3, #1
  65 0030 04D0     		beq	.L4
  66 0032 022B     		cmp	r3, #2
  67 0034 73D0     		beq	.L5
  68 0036 002B     		cmp	r3, #0
  69 0038 3DD0     		beq	.L6
  40:Tracer/sniffTask.c **** 			case prioSTREAM: {
  41:Tracer/sniffTask.c **** 				currPayload = (Payload3*) &payload;
  42:Tracer/sniffTask.c **** 				if (applyInformationIDFilter(
  43:Tracer/sniffTask.c **** 						currPayload->payloadHead.informationID)) {
  44:Tracer/sniffTask.c **** 					currPayload->payloadHead.packetID = packetCounter++;
  45:Tracer/sniffTask.c **** 
ARM GAS  C:\Users\THUNDE~1\AppData\Local\Temp\ccbcT2qU.s 			page 3


  46:Tracer/sniffTask.c **** 					SEND_PREAMBLE
  47:Tracer/sniffTask.c **** 					;
  48:Tracer/sniffTask.c **** 					ptr = (unsigned char*) currPayload;
  49:Tracer/sniffTask.c **** 					for (size_t pos = 0; pos < currPayloadType; pos++) {
  50:Tracer/sniffTask.c **** 						sendByteOverInterface(*ptr);
  51:Tracer/sniffTask.c **** 						ptr++;
  52:Tracer/sniffTask.c **** 					}
  53:Tracer/sniffTask.c **** 				}
  54:Tracer/sniffTask.c **** 			}
  55:Tracer/sniffTask.c **** 				break;
  56:Tracer/sniffTask.c **** 			case prioERROR: {
  57:Tracer/sniffTask.c **** 				currPayloadError = (PayloadError*) &payload;
  58:Tracer/sniffTask.c **** 				currPayloadError->payloadHead.packetID = packetCounter++;
  59:Tracer/sniffTask.c **** 				SEND_PREAMBLE
  60:Tracer/sniffTask.c **** 				;
  61:Tracer/sniffTask.c **** 				ptr = (unsigned char*) currPayloadError;
  62:Tracer/sniffTask.c **** 				for (size_t pos = 0; pos < currPayloadType; pos++) {
  63:Tracer/sniffTask.c **** 					sendByteOverInterface(*ptr);
  64:Tracer/sniffTask.c **** 					ptr++;
  65:Tracer/sniffTask.c **** 				}
  66:Tracer/sniffTask.c **** 			}
  67:Tracer/sniffTask.c **** 				break;
  68:Tracer/sniffTask.c **** 			case prioRECEIVE: {
  69:Tracer/sniffTask.c **** 
  70:Tracer/sniffTask.c **** 				currPayloadReceived = (uint8_t*) &payload;
  71:Tracer/sniffTask.c **** 				#if SEND_WITHOUT_SNIFF_TASK
  72:Tracer/sniffTask.c **** 				uint8_t copySniffIDFilter[SIZE_OF_FILTER];
  73:Tracer/sniffTask.c **** 				#endif
  74:Tracer/sniffTask.c **** 
  75:Tracer/sniffTask.c **** 				switch (receiverState) {
  76:Tracer/sniffTask.c **** 				case NORMAL: {
  77:Tracer/sniffTask.c **** 					switch (*currPayloadReceived) {
  78:Tracer/sniffTask.c **** 					case ID_OBJECT_LIST:
  79:Tracer/sniffTask.c **** 					#if SEND_WITHOUT_SNIFF_TASK // So the Object Send wont get interrupted (Only by errors)
  80:Tracer/sniffTask.c **** 						for (int i = 0; i < SIZE_OF_FILTER; ++i) {
  81:Tracer/sniffTask.c **** 							copySniffIDFilter[i] = sniffIDFilter[i];
  82:Tracer/sniffTask.c **** 							sniffIDFilter[i] = 0;
  83:Tracer/sniffTask.c **** 						}
  84:Tracer/sniffTask.c **** 					#endif
  85:Tracer/sniffTask.c **** 						sendObjectList(&packetCounter);
  86:Tracer/sniffTask.c **** 					#if SEND_WITHOUT_SNIFF_TASK
  87:Tracer/sniffTask.c **** 						for (int i = 0; i < SIZE_OF_FILTER; ++i) {
  88:Tracer/sniffTask.c **** 							sniffIDFilter[i] = copySniffIDFilter[i];
  89:Tracer/sniffTask.c **** 						}
  90:Tracer/sniffTask.c **** 					#endif
  91:Tracer/sniffTask.c **** 						break;
  92:Tracer/sniffTask.c **** 					case ID_SNIFF_FILTER: {
  93:Tracer/sniffTask.c **** 						receiverState = RECEIVE_FILTER;
  94:Tracer/sniffTask.c **** 						pSniffIDFilter = (uint8_t*) sniffIDFilter;
  95:Tracer/sniffTask.c **** 					}
  96:Tracer/sniffTask.c **** 						break;
  97:Tracer/sniffTask.c **** 					default:
  98:Tracer/sniffTask.c **** 						break;
  99:Tracer/sniffTask.c **** 					}
 100:Tracer/sniffTask.c **** 				}
 101:Tracer/sniffTask.c **** 					break;
 102:Tracer/sniffTask.c **** 				case RECEIVE_FILTER: {
ARM GAS  C:\Users\THUNDE~1\AppData\Local\Temp\ccbcT2qU.s 			page 4


 103:Tracer/sniffTask.c **** 
 104:Tracer/sniffTask.c **** 					if (currSniffFilterByte < SIZE_OF_FILTER) {
 105:Tracer/sniffTask.c **** 						*pSniffIDFilter = *currPayloadReceived;
 106:Tracer/sniffTask.c **** 						pSniffIDFilter++;
 107:Tracer/sniffTask.c **** 						currSniffFilterByte++;
 108:Tracer/sniffTask.c **** 						if (currSniffFilterByte >= 13) {
 109:Tracer/sniffTask.c **** 							currSniffFilterByte = 0;
 110:Tracer/sniffTask.c **** 							receiverState = NORMAL;
 111:Tracer/sniffTask.c **** 						}
 112:Tracer/sniffTask.c **** 					}
 113:Tracer/sniffTask.c **** 				}
 114:Tracer/sniffTask.c **** 					break;
 115:Tracer/sniffTask.c **** 				default:
 116:Tracer/sniffTask.c **** 					break;
 117:Tracer/sniffTask.c **** 				}
 118:Tracer/sniffTask.c **** 
 119:Tracer/sniffTask.c **** 			}
 120:Tracer/sniffTask.c **** 				break;
 121:Tracer/sniffTask.c **** 			default:
 122:Tracer/sniffTask.c **** 
 123:Tracer/sniffTask.c **** 				break;
  70              		.loc 1 123 0
  71 003a AEE0     		b	.L22
  72              	.L4:
  41:Tracer/sniffTask.c **** 				if (applyInformationIDFilter(
  73              		.loc 1 41 0
  74 003c 07F10803 		add	r3, r7, #8
  75 0040 FB61     		str	r3, [r7, #28]
  42:Tracer/sniffTask.c **** 						currPayload->payloadHead.informationID)) {
  76              		.loc 1 42 0
  77 0042 FB69     		ldr	r3, [r7, #28]
  78 0044 5B78     		ldrb	r3, [r3, #1]	@ zero_extendqisi2
  79 0046 1846     		mov	r0, r3
  80 0048 FFF7FEFF 		bl	applyInformationIDFilter
  81 004c 0346     		mov	r3, r0
  82 004e 002B     		cmp	r3, #0
  83 0050 00F0A280 		beq	.L24
  44:Tracer/sniffTask.c **** 
  84              		.loc 1 44 0
  85 0054 7B79     		ldrb	r3, [r7, #5]	@ zero_extendqisi2
  86 0056 5A1C     		adds	r2, r3, #1
  87 0058 D2B2     		uxtb	r2, r2
  88 005a 7A71     		strb	r2, [r7, #5]
  89 005c FA69     		ldr	r2, [r7, #28]
  90 005e 1370     		strb	r3, [r2]
  46:Tracer/sniffTask.c **** 					;
  91              		.loc 1 46 0
  92 0060 FD20     		movs	r0, #253
  93 0062 FFF7FEFF 		bl	BufferIn
  94 0066 0120     		movs	r0, #1
  95 0068 FFF7FEFF 		bl	UART_1_SetTxInterruptMode
  96 006c FE20     		movs	r0, #254
  97 006e FFF7FEFF 		bl	BufferIn
  98 0072 0120     		movs	r0, #1
  99 0074 FFF7FEFF 		bl	UART_1_SetTxInterruptMode
 100 0078 FF20     		movs	r0, #255
 101 007a FFF7FEFF 		bl	BufferIn
ARM GAS  C:\Users\THUNDE~1\AppData\Local\Temp\ccbcT2qU.s 			page 5


 102 007e 0120     		movs	r0, #1
 103 0080 FFF7FEFF 		bl	UART_1_SetTxInterruptMode
  48:Tracer/sniffTask.c **** 					for (size_t pos = 0; pos < currPayloadType; pos++) {
 104              		.loc 1 48 0
 105 0084 FB69     		ldr	r3, [r7, #28]
 106 0086 3B63     		str	r3, [r7, #48]
 107              	.LBB2:
  49:Tracer/sniffTask.c **** 						sendByteOverInterface(*ptr);
 108              		.loc 1 49 0
 109 0088 0023     		movs	r3, #0
 110 008a 7B62     		str	r3, [r7, #36]
 111 008c 0DE0     		b	.L8
 112              	.L9:
  50:Tracer/sniffTask.c **** 						ptr++;
 113              		.loc 1 50 0 discriminator 3
 114 008e 3B6B     		ldr	r3, [r7, #48]
 115 0090 1B78     		ldrb	r3, [r3]	@ zero_extendqisi2
 116 0092 1846     		mov	r0, r3
 117 0094 FFF7FEFF 		bl	BufferIn
 118 0098 0120     		movs	r0, #1
 119 009a FFF7FEFF 		bl	UART_1_SetTxInterruptMode
  51:Tracer/sniffTask.c **** 					}
 120              		.loc 1 51 0 discriminator 3
 121 009e 3B6B     		ldr	r3, [r7, #48]
 122 00a0 0133     		adds	r3, r3, #1
 123 00a2 3B63     		str	r3, [r7, #48]
  49:Tracer/sniffTask.c **** 						sendByteOverInterface(*ptr);
 124              		.loc 1 49 0 discriminator 3
 125 00a4 7B6A     		ldr	r3, [r7, #36]
 126 00a6 0133     		adds	r3, r3, #1
 127 00a8 7B62     		str	r3, [r7, #36]
 128              	.L8:
  49:Tracer/sniffTask.c **** 						sendByteOverInterface(*ptr);
 129              		.loc 1 49 0 is_stmt 0 discriminator 1
 130 00aa FB79     		ldrb	r3, [r7, #7]	@ zero_extendqisi2
 131 00ac 1A46     		mov	r2, r3
 132 00ae 7B6A     		ldr	r3, [r7, #36]
 133 00b0 9A42     		cmp	r2, r3
 134 00b2 ECD8     		bhi	.L9
 135              	.LBE2:
  55:Tracer/sniffTask.c **** 			case prioERROR: {
 136              		.loc 1 55 0 is_stmt 1
 137 00b4 70E0     		b	.L24
 138              	.L6:
  57:Tracer/sniffTask.c **** 				currPayloadError->payloadHead.packetID = packetCounter++;
 139              		.loc 1 57 0
 140 00b6 07F10803 		add	r3, r7, #8
 141 00ba BB61     		str	r3, [r7, #24]
  58:Tracer/sniffTask.c **** 				SEND_PREAMBLE
 142              		.loc 1 58 0
 143 00bc 7B79     		ldrb	r3, [r7, #5]	@ zero_extendqisi2
 144 00be 5A1C     		adds	r2, r3, #1
 145 00c0 D2B2     		uxtb	r2, r2
 146 00c2 7A71     		strb	r2, [r7, #5]
 147 00c4 BA69     		ldr	r2, [r7, #24]
 148 00c6 1370     		strb	r3, [r2]
  59:Tracer/sniffTask.c **** 				;
ARM GAS  C:\Users\THUNDE~1\AppData\Local\Temp\ccbcT2qU.s 			page 6


 149              		.loc 1 59 0
 150 00c8 FD20     		movs	r0, #253
 151 00ca FFF7FEFF 		bl	BufferIn
 152 00ce 0120     		movs	r0, #1
 153 00d0 FFF7FEFF 		bl	UART_1_SetTxInterruptMode
 154 00d4 FE20     		movs	r0, #254
 155 00d6 FFF7FEFF 		bl	BufferIn
 156 00da 0120     		movs	r0, #1
 157 00dc FFF7FEFF 		bl	UART_1_SetTxInterruptMode
 158 00e0 FF20     		movs	r0, #255
 159 00e2 FFF7FEFF 		bl	BufferIn
 160 00e6 0120     		movs	r0, #1
 161 00e8 FFF7FEFF 		bl	UART_1_SetTxInterruptMode
  61:Tracer/sniffTask.c **** 				for (size_t pos = 0; pos < currPayloadType; pos++) {
 162              		.loc 1 61 0
 163 00ec BB69     		ldr	r3, [r7, #24]
 164 00ee 3B63     		str	r3, [r7, #48]
 165              	.LBB3:
  62:Tracer/sniffTask.c **** 					sendByteOverInterface(*ptr);
 166              		.loc 1 62 0
 167 00f0 0023     		movs	r3, #0
 168 00f2 3B62     		str	r3, [r7, #32]
 169 00f4 0DE0     		b	.L11
 170              	.L12:
  63:Tracer/sniffTask.c **** 					ptr++;
 171              		.loc 1 63 0 discriminator 3
 172 00f6 3B6B     		ldr	r3, [r7, #48]
 173 00f8 1B78     		ldrb	r3, [r3]	@ zero_extendqisi2
 174 00fa 1846     		mov	r0, r3
 175 00fc FFF7FEFF 		bl	BufferIn
 176 0100 0120     		movs	r0, #1
 177 0102 FFF7FEFF 		bl	UART_1_SetTxInterruptMode
  64:Tracer/sniffTask.c **** 				}
 178              		.loc 1 64 0 discriminator 3
 179 0106 3B6B     		ldr	r3, [r7, #48]
 180 0108 0133     		adds	r3, r3, #1
 181 010a 3B63     		str	r3, [r7, #48]
  62:Tracer/sniffTask.c **** 					sendByteOverInterface(*ptr);
 182              		.loc 1 62 0 discriminator 3
 183 010c 3B6A     		ldr	r3, [r7, #32]
 184 010e 0133     		adds	r3, r3, #1
 185 0110 3B62     		str	r3, [r7, #32]
 186              	.L11:
  62:Tracer/sniffTask.c **** 					sendByteOverInterface(*ptr);
 187              		.loc 1 62 0 is_stmt 0 discriminator 1
 188 0112 FB79     		ldrb	r3, [r7, #7]	@ zero_extendqisi2
 189 0114 1A46     		mov	r2, r3
 190 0116 3B6A     		ldr	r3, [r7, #32]
 191 0118 9A42     		cmp	r2, r3
 192 011a ECD8     		bhi	.L12
 193              	.LBE3:
  67:Tracer/sniffTask.c **** 			case prioRECEIVE: {
 194              		.loc 1 67 0 is_stmt 1
 195 011c 3DE0     		b	.L22
 196              	.L5:
  70:Tracer/sniffTask.c **** 				#if SEND_WITHOUT_SNIFF_TASK
 197              		.loc 1 70 0
ARM GAS  C:\Users\THUNDE~1\AppData\Local\Temp\ccbcT2qU.s 			page 7


 198 011e 07F10803 		add	r3, r7, #8
 199 0122 7B61     		str	r3, [r7, #20]
  75:Tracer/sniffTask.c **** 				case NORMAL: {
 200              		.loc 1 75 0
 201 0124 97F83730 		ldrb	r3, [r7, #55]	@ zero_extendqisi2
 202 0128 002B     		cmp	r3, #0
 203 012a 02D0     		beq	.L14
 204 012c 012B     		cmp	r3, #1
 205 012e 13D0     		beq	.L15
 116:Tracer/sniffTask.c **** 				}
 206              		.loc 1 116 0
 207 0130 2DE0     		b	.L20
 208              	.L14:
  77:Tracer/sniffTask.c **** 					case ID_OBJECT_LIST:
 209              		.loc 1 77 0
 210 0132 7B69     		ldr	r3, [r7, #20]
 211 0134 1B78     		ldrb	r3, [r3]	@ zero_extendqisi2
 212 0136 972B     		cmp	r3, #151
 213 0138 02D0     		beq	.L17
 214 013a 982B     		cmp	r3, #152
 215 013c 05D0     		beq	.L18
  98:Tracer/sniffTask.c **** 					}
 216              		.loc 1 98 0
 217 013e 0AE0     		b	.L19
 218              	.L17:
  85:Tracer/sniffTask.c **** 					#if SEND_WITHOUT_SNIFF_TASK
 219              		.loc 1 85 0
 220 0140 7B1D     		adds	r3, r7, #5
 221 0142 1846     		mov	r0, r3
 222 0144 FFF7FEFF 		bl	sendObjectList
  91:Tracer/sniffTask.c **** 					case ID_SNIFF_FILTER: {
 223              		.loc 1 91 0
 224 0148 05E0     		b	.L19
 225              	.L18:
  93:Tracer/sniffTask.c **** 						pSniffIDFilter = (uint8_t*) sniffIDFilter;
 226              		.loc 1 93 0
 227 014a 0123     		movs	r3, #1
 228 014c 87F83730 		strb	r3, [r7, #55]
  94:Tracer/sniffTask.c **** 					}
 229              		.loc 1 94 0
 230 0150 124B     		ldr	r3, .L26
 231 0152 BB62     		str	r3, [r7, #40]
  96:Tracer/sniffTask.c **** 					default:
 232              		.loc 1 96 0
 233 0154 00BF     		nop
 234              	.L19:
 101:Tracer/sniffTask.c **** 				case RECEIVE_FILTER: {
 235              		.loc 1 101 0 discriminator 3
 236 0156 1AE0     		b	.L20
 237              	.L15:
 104:Tracer/sniffTask.c **** 						*pSniffIDFilter = *currPayloadReceived;
 238              		.loc 1 104 0
 239 0158 97F82F30 		ldrb	r3, [r7, #47]	@ zero_extendqisi2
 240 015c 0C2B     		cmp	r3, #12
 241 015e 15D8     		bhi	.L25
 105:Tracer/sniffTask.c **** 						pSniffIDFilter++;
 242              		.loc 1 105 0
ARM GAS  C:\Users\THUNDE~1\AppData\Local\Temp\ccbcT2qU.s 			page 8


 243 0160 7B69     		ldr	r3, [r7, #20]
 244 0162 1A78     		ldrb	r2, [r3]	@ zero_extendqisi2
 245 0164 BB6A     		ldr	r3, [r7, #40]
 246 0166 1A70     		strb	r2, [r3]
 106:Tracer/sniffTask.c **** 						currSniffFilterByte++;
 247              		.loc 1 106 0
 248 0168 BB6A     		ldr	r3, [r7, #40]
 249 016a 0133     		adds	r3, r3, #1
 250 016c BB62     		str	r3, [r7, #40]
 107:Tracer/sniffTask.c **** 						if (currSniffFilterByte >= 13) {
 251              		.loc 1 107 0
 252 016e 97F82F30 		ldrb	r3, [r7, #47]	@ zero_extendqisi2
 253 0172 0133     		adds	r3, r3, #1
 254 0174 87F82F30 		strb	r3, [r7, #47]
 108:Tracer/sniffTask.c **** 							currSniffFilterByte = 0;
 255              		.loc 1 108 0
 256 0178 97F82F30 		ldrb	r3, [r7, #47]	@ zero_extendqisi2
 257 017c 0C2B     		cmp	r3, #12
 258 017e 05D9     		bls	.L25
 109:Tracer/sniffTask.c **** 							receiverState = NORMAL;
 259              		.loc 1 109 0
 260 0180 0023     		movs	r3, #0
 261 0182 87F82F30 		strb	r3, [r7, #47]
 110:Tracer/sniffTask.c **** 						}
 262              		.loc 1 110 0
 263 0186 0023     		movs	r3, #0
 264 0188 87F83730 		strb	r3, [r7, #55]
 265              	.L25:
 114:Tracer/sniffTask.c **** 				default:
 266              		.loc 1 114 0
 267 018c 00BF     		nop
 268              	.L20:
 120:Tracer/sniffTask.c **** 			default:
 269              		.loc 1 120 0 discriminator 4
 270 018e 04E0     		b	.L22
 271              	.L2:
 124:Tracer/sniffTask.c **** 			}
 125:Tracer/sniffTask.c **** 
 126:Tracer/sniffTask.c **** 		} else {
 127:Tracer/sniffTask.c **** 			vTaskDelay(10);
 272              		.loc 1 127 0
 273 0190 0A20     		movs	r0, #10
 274 0192 FFF7FEFF 		bl	vTaskDelay
 275 0196 3EE7     		b	.L23
 276              	.L24:
  55:Tracer/sniffTask.c **** 			case prioERROR: {
 277              		.loc 1 55 0
 278 0198 00BF     		nop
 279              	.L22:
 128:Tracer/sniffTask.c **** 		}
 129:Tracer/sniffTask.c **** 	}
 280              		.loc 1 129 0 discriminator 9
 281 019a 3CE7     		b	.L23
 282              	.L27:
 283              		.align	2
 284              	.L26:
 285 019c 00000000 		.word	sniffIDFilter
ARM GAS  C:\Users\THUNDE~1\AppData\Local\Temp\ccbcT2qU.s 			page 9


 286              		.cfi_endproc
 287              	.LFE0:
 288              		.size	sniffTask, .-sniffTask
 289              		.text
 290              	.Letext0:
 291              		.file 2 "c:\\program files (x86)\\cypress\\psoc creator\\4.2\\psoc creator\\import\\gnu\\arm\\5.4.
 292              		.file 3 "c:\\program files (x86)\\cypress\\psoc creator\\4.2\\psoc creator\\import\\gnu\\arm\\5.4.
 293              		.file 4 "c:\\program files (x86)\\cypress\\psoc creator\\4.2\\psoc creator\\import\\gnu\\arm\\5.4.
 294              		.file 5 ".\\Tracer/sniffPayload.h"
 295              		.file 6 ".\\Tracer/sniffTask.h"
 296              		.file 7 ".\\Tracer/selfFIFO.h"
 297              		.file 8 "Generated_Source\\PSoC5/cytypes.h"