ARM GAS  C:\Users\THUNDE~1\AppData\Local\Temp\ccz6Qz0h.s 			page 1


   1              		.syntax unified
   2              		.cpu cortex-m3
   3              		.fpu softvfp
   4              		.eabi_attribute 20, 1
   5              		.eabi_attribute 21, 1
   6              		.eabi_attribute 23, 3
   7              		.eabi_attribute 24, 1
   8              		.eabi_attribute 25, 1
   9              		.eabi_attribute 26, 1
  10              		.eabi_attribute 30, 6
  11              		.eabi_attribute 34, 1
  12              		.eabi_attribute 18, 4
  13              		.thumb
  14              		.syntax unified
  15              		.file	"sniffFIFO.c"
  16              		.text
  17              	.Ltext0:
  18              		.cfi_sections	.debug_frame
  19              		.comm	sniffIDFilter,13,4
  20              		.comm	streamFIFO,19512,4
  21              		.comm	receiveFIFO,88,4
  22              		.comm	errorFIFO,12,4
  23              		.section	.text.writeStreamFIFO,"ax",%progbits
  24              		.align	2
  25              		.global	writeStreamFIFO
  26              		.thumb
  27              		.thumb_func
  28              		.type	writeStreamFIFO, %function
  29              	writeStreamFIFO:
  30              	.LFB1:
  31              		.file 1 "Tracer\\sniffFIFO.c"
   1:Tracer/sniffFIFO.c **** /** \file sniffFIFO.c
   2:Tracer/sniffFIFO.c ****  * \brief sniffFIFO source file.
   3:Tracer/sniffFIFO.c ****  * \details Implements the priority FIFO which can be configured in sniffConfig.h.
   4:Tracer/sniffFIFO.c ****  * \author Marco Seiller
   5:Tracer/sniffFIFO.c ****  * \date 2018
   6:Tracer/sniffFIFO.c ****  */
   7:Tracer/sniffFIFO.c **** 
   8:Tracer/sniffFIFO.c **** 
   9:Tracer/sniffFIFO.c **** 
  10:Tracer/sniffFIFO.c **** #include <sys/types.h>
  11:Tracer/sniffFIFO.c **** #include <stdint.h>
  12:Tracer/sniffFIFO.c **** #include <stdlib.h>
  13:Tracer/sniffFIFO.c **** #include <stdio.h>
  14:Tracer/sniffFIFO.c **** #include <string.h>
  15:Tracer/sniffFIFO.c **** 
  16:Tracer/sniffFIFO.c **** #include <sniffPayload.h>
  17:Tracer/sniffFIFO.c **** #include <sniffFIFO.h>
  18:Tracer/sniffFIFO.c **** 
  19:Tracer/sniffFIFO.c **** 
  20:Tracer/sniffFIFO.c **** //TODO: Any possibility to get the different data structures more variable? (Byte vs Payload3)
  21:Tracer/sniffFIFO.c **** #if SEND_WITHOUT_SNIFF_TASK == 0
  22:Tracer/sniffFIFO.c **** StreamFIFO streamFIFO;
  23:Tracer/sniffFIFO.c **** #endif
  24:Tracer/sniffFIFO.c **** ReceiveFIFO receiveFIFO;
  25:Tracer/sniffFIFO.c **** ErrorFIFO errorFIFO;
  26:Tracer/sniffFIFO.c **** 
ARM GAS  C:\Users\THUNDE~1\AppData\Local\Temp\ccz6Qz0h.s 			page 2


  27:Tracer/sniffFIFO.c **** /*
  28:Tracer/sniffFIFO.c **** Push data to FIFO
  29:Tracer/sniffFIFO.c **** Params:
  30:Tracer/sniffFIFO.c **** 	fifo: DUAL_PORT_FIFO instance
  31:Tracer/sniffFIFO.c **** 	data: pointer to data object
  32:Tracer/sniffFIFO.c **** 	len: length of data object (currently ignored)
  33:Tracer/sniffFIFO.c **** 	prio: priority, 1=HP, 0=LP
  34:Tracer/sniffFIFO.c **** return codes:
  35:Tracer/sniffFIFO.c **** 0 -> OK
  36:Tracer/sniffFIFO.c **** 1 -> FULL
  37:Tracer/sniffFIFO.c **** */
  38:Tracer/sniffFIFO.c **** 
  39:Tracer/sniffFIFO.c **** 
  40:Tracer/sniffFIFO.c **** #if SEND_WITHOUT_SNIFF_TASK == 0
  41:Tracer/sniffFIFO.c **** inline uint8_t writeStreamFIFO(void* inData,payloadType pType){
  32              		.loc 1 41 0
  33              		.cfi_startproc
  34              		@ args = 0, pretend = 0, frame = 16
  35              		@ frame_needed = 1, uses_anonymous_args = 0
  36 0000 80B5     		push	{r7, lr}
  37              		.cfi_def_cfa_offset 8
  38              		.cfi_offset 7, -8
  39              		.cfi_offset 14, -4
  40 0002 84B0     		sub	sp, sp, #16
  41              		.cfi_def_cfa_offset 24
  42 0004 00AF     		add	r7, sp, #0
  43              		.cfi_def_cfa_register 7
  44 0006 7860     		str	r0, [r7, #4]
  45 0008 0B46     		mov	r3, r1
  46 000a FB70     		strb	r3, [r7, #3]
  42:Tracer/sniffFIFO.c **** 
  43:Tracer/sniffFIFO.c **** 	size_t nextWptr = (streamFIFO.wptr+1)%streamFIFO.size;
  47              		.loc 1 43 0
  48 000c 174B     		ldr	r3, .L4
  49 000e 1B68     		ldr	r3, [r3]
  50 0010 0133     		adds	r3, r3, #1
  51 0012 164A     		ldr	r2, .L4
  52 0014 9268     		ldr	r2, [r2, #8]
  53 0016 B3FBF2F1 		udiv	r1, r3, r2
  54 001a 02FB01F2 		mul	r2, r2, r1
  55 001e 9B1A     		subs	r3, r3, r2
  56 0020 FB60     		str	r3, [r7, #12]
  44:Tracer/sniffFIFO.c **** 
  45:Tracer/sniffFIFO.c **** 	if ((streamFIFO.rptr)==nextWptr){
  57              		.loc 1 45 0
  58 0022 124B     		ldr	r3, .L4
  59 0024 5A68     		ldr	r2, [r3, #4]
  60 0026 FB68     		ldr	r3, [r7, #12]
  61 0028 9A42     		cmp	r2, r3
  62 002a 01D1     		bne	.L2
  46:Tracer/sniffFIFO.c **** 		return 1;
  63              		.loc 1 46 0
  64 002c 0123     		movs	r3, #1
  65 002e 19E0     		b	.L3
  66              	.L2:
  47:Tracer/sniffFIFO.c **** 	}
  48:Tracer/sniffFIFO.c **** 
ARM GAS  C:\Users\THUNDE~1\AppData\Local\Temp\ccz6Qz0h.s 			page 3


  49:Tracer/sniffFIFO.c **** 	memcpy(&(streamFIFO.Buffer[streamFIFO.wptr]),inData,pType);
  67              		.loc 1 49 0
  68 0030 0E4B     		ldr	r3, .L4
  69 0032 1A68     		ldr	r2, [r3]
  70 0034 1346     		mov	r3, r2
  71 0036 DB00     		lsls	r3, r3, #3
  72 0038 1344     		add	r3, r3, r2
  73 003a 0833     		adds	r3, r3, #8
  74 003c 0B4A     		ldr	r2, .L4
  75 003e 1344     		add	r3, r3, r2
  76 0040 0433     		adds	r3, r3, #4
  77 0042 FA78     		ldrb	r2, [r7, #3]	@ zero_extendqisi2
  78 0044 7968     		ldr	r1, [r7, #4]
  79 0046 1846     		mov	r0, r3
  80 0048 FFF7FEFF 		bl	memcpy
  50:Tracer/sniffFIFO.c **** 
  51:Tracer/sniffFIFO.c **** 	streamFIFO.DataType[streamFIFO.wptr] = pType;
  81              		.loc 1 51 0
  82 004c 074B     		ldr	r3, .L4
  83 004e 1B68     		ldr	r3, [r3]
  84 0050 FA78     		ldrb	r2, [r7, #3]	@ zero_extendqisi2
  85 0052 0649     		ldr	r1, .L4
  86 0054 03F63253 		addw	r3, r3, #3378
  87 0058 41F82320 		str	r2, [r1, r3, lsl #2]
  52:Tracer/sniffFIFO.c **** 	streamFIFO.wptr = nextWptr;
  88              		.loc 1 52 0
  89 005c 034A     		ldr	r2, .L4
  90 005e FB68     		ldr	r3, [r7, #12]
  91 0060 1360     		str	r3, [r2]
  53:Tracer/sniffFIFO.c **** 
  54:Tracer/sniffFIFO.c **** 	return 0;
  92              		.loc 1 54 0
  93 0062 0023     		movs	r3, #0
  94              	.L3:
  55:Tracer/sniffFIFO.c **** }
  95              		.loc 1 55 0
  96 0064 1846     		mov	r0, r3
  97 0066 1037     		adds	r7, r7, #16
  98              		.cfi_def_cfa_offset 8
  99 0068 BD46     		mov	sp, r7
 100              		.cfi_def_cfa_register 13
 101              		@ sp needed
 102 006a 80BD     		pop	{r7, pc}
 103              	.L5:
 104              		.align	2
 105              	.L4:
 106 006c 00000000 		.word	streamFIFO
 107              		.cfi_endproc
 108              	.LFE1:
 109              		.size	writeStreamFIFO, .-writeStreamFIFO
 110              		.section	.text.writeReceiveFIFO,"ax",%progbits
 111              		.align	2
 112              		.global	writeReceiveFIFO
 113              		.thumb
 114              		.thumb_func
 115              		.type	writeReceiveFIFO, %function
 116              	writeReceiveFIFO:
ARM GAS  C:\Users\THUNDE~1\AppData\Local\Temp\ccz6Qz0h.s 			page 4


 117              	.LFB2:
  56:Tracer/sniffFIFO.c **** #endif
  57:Tracer/sniffFIFO.c **** inline uint8_t writeReceiveFIFO(void* inData,payloadType pType){
 118              		.loc 1 57 0
 119              		.cfi_startproc
 120              		@ args = 0, pretend = 0, frame = 16
 121              		@ frame_needed = 1, uses_anonymous_args = 0
 122 0000 80B5     		push	{r7, lr}
 123              		.cfi_def_cfa_offset 8
 124              		.cfi_offset 7, -8
 125              		.cfi_offset 14, -4
 126 0002 84B0     		sub	sp, sp, #16
 127              		.cfi_def_cfa_offset 24
 128 0004 00AF     		add	r7, sp, #0
 129              		.cfi_def_cfa_register 7
 130 0006 7860     		str	r0, [r7, #4]
 131 0008 0B46     		mov	r3, r1
 132 000a FB70     		strb	r3, [r7, #3]
  58:Tracer/sniffFIFO.c **** 
  59:Tracer/sniffFIFO.c **** 	size_t nextWptr = (receiveFIFO.wptr+1)%receiveFIFO.size;
 133              		.loc 1 59 0
 134 000c 164B     		ldr	r3, .L9
 135 000e 1B68     		ldr	r3, [r3]
 136 0010 0133     		adds	r3, r3, #1
 137 0012 154A     		ldr	r2, .L9
 138 0014 9268     		ldr	r2, [r2, #8]
 139 0016 B3FBF2F1 		udiv	r1, r3, r2
 140 001a 02FB01F2 		mul	r2, r2, r1
 141 001e 9B1A     		subs	r3, r3, r2
 142 0020 FB60     		str	r3, [r7, #12]
  60:Tracer/sniffFIFO.c **** 
  61:Tracer/sniffFIFO.c **** 	if ((receiveFIFO.rptr)==nextWptr){
 143              		.loc 1 61 0
 144 0022 114B     		ldr	r3, .L9
 145 0024 5A68     		ldr	r2, [r3, #4]
 146 0026 FB68     		ldr	r3, [r7, #12]
 147 0028 9A42     		cmp	r2, r3
 148 002a 01D1     		bne	.L7
  62:Tracer/sniffFIFO.c **** 		return 1;
 149              		.loc 1 62 0
 150 002c 0123     		movs	r3, #1
 151 002e 16E0     		b	.L8
 152              	.L7:
  63:Tracer/sniffFIFO.c **** 	}
  64:Tracer/sniffFIFO.c **** 	//receiveFIFO.Buffer[receiveFIFO.wptr]=*inData;
  65:Tracer/sniffFIFO.c **** 	memcpy(&(receiveFIFO.Buffer[receiveFIFO.wptr]),inData,pType);
 153              		.loc 1 65 0
 154 0030 0D4B     		ldr	r3, .L9
 155 0032 1B68     		ldr	r3, [r3]
 156 0034 0833     		adds	r3, r3, #8
 157 0036 0C4A     		ldr	r2, .L9
 158 0038 1344     		add	r3, r3, r2
 159 003a 0433     		adds	r3, r3, #4
 160 003c FA78     		ldrb	r2, [r7, #3]	@ zero_extendqisi2
 161 003e 7968     		ldr	r1, [r7, #4]
 162 0040 1846     		mov	r0, r3
 163 0042 FFF7FEFF 		bl	memcpy
ARM GAS  C:\Users\THUNDE~1\AppData\Local\Temp\ccz6Qz0h.s 			page 5


  66:Tracer/sniffFIFO.c **** 
  67:Tracer/sniffFIFO.c **** 	receiveFIFO.DataType[receiveFIFO.wptr] = pType; //TODO: Kein Typ gebraucht nur Bytes
 164              		.loc 1 67 0
 165 0046 084B     		ldr	r3, .L9
 166 0048 1B68     		ldr	r3, [r3]
 167 004a FA78     		ldrb	r2, [r7, #3]	@ zero_extendqisi2
 168 004c 0649     		ldr	r1, .L9
 169 004e 0633     		adds	r3, r3, #6
 170 0050 9B00     		lsls	r3, r3, #2
 171 0052 0B44     		add	r3, r3, r1
 172 0054 5A60     		str	r2, [r3, #4]
  68:Tracer/sniffFIFO.c **** 	receiveFIFO.wptr = nextWptr;
 173              		.loc 1 68 0
 174 0056 044A     		ldr	r2, .L9
 175 0058 FB68     		ldr	r3, [r7, #12]
 176 005a 1360     		str	r3, [r2]
  69:Tracer/sniffFIFO.c **** 
  70:Tracer/sniffFIFO.c **** 	return 0;
 177              		.loc 1 70 0
 178 005c 0023     		movs	r3, #0
 179              	.L8:
  71:Tracer/sniffFIFO.c **** }
 180              		.loc 1 71 0
 181 005e 1846     		mov	r0, r3
 182 0060 1037     		adds	r7, r7, #16
 183              		.cfi_def_cfa_offset 8
 184 0062 BD46     		mov	sp, r7
 185              		.cfi_def_cfa_register 13
 186              		@ sp needed
 187 0064 80BD     		pop	{r7, pc}
 188              	.L10:
 189 0066 00BF     		.align	2
 190              	.L9:
 191 0068 00000000 		.word	receiveFIFO
 192              		.cfi_endproc
 193              	.LFE2:
 194              		.size	writeReceiveFIFO, .-writeReceiveFIFO
 195              		.section	.text.writeErrorFIFO,"ax",%progbits
 196              		.align	2
 197              		.global	writeErrorFIFO
 198              		.thumb
 199              		.thumb_func
 200              		.type	writeErrorFIFO, %function
 201              	writeErrorFIFO:
 202              	.LFB3:
  72:Tracer/sniffFIFO.c **** 
  73:Tracer/sniffFIFO.c **** inline uint8_t writeErrorFIFO(void* inData,payloadType pType){
 203              		.loc 1 73 0
 204              		.cfi_startproc
 205              		@ args = 0, pretend = 0, frame = 16
 206              		@ frame_needed = 1, uses_anonymous_args = 0
 207 0000 80B5     		push	{r7, lr}
 208              		.cfi_def_cfa_offset 8
 209              		.cfi_offset 7, -8
 210              		.cfi_offset 14, -4
 211 0002 84B0     		sub	sp, sp, #16
 212              		.cfi_def_cfa_offset 24
ARM GAS  C:\Users\THUNDE~1\AppData\Local\Temp\ccz6Qz0h.s 			page 6


 213 0004 00AF     		add	r7, sp, #0
 214              		.cfi_def_cfa_register 7
 215 0006 7860     		str	r0, [r7, #4]
 216 0008 0B46     		mov	r3, r1
 217 000a FB70     		strb	r3, [r7, #3]
  74:Tracer/sniffFIFO.c **** 
  75:Tracer/sniffFIFO.c **** 	size_t nextWptr = (errorFIFO.wptr+1)%errorFIFO.size;
 218              		.loc 1 75 0
 219 000c 184B     		ldr	r3, .L14
 220 000e 1B68     		ldr	r3, [r3]
 221 0010 0133     		adds	r3, r3, #1
 222 0012 174A     		ldr	r2, .L14
 223 0014 9268     		ldr	r2, [r2, #8]
 224 0016 B3FBF2F1 		udiv	r1, r3, r2
 225 001a 02FB01F2 		mul	r2, r2, r1
 226 001e 9B1A     		subs	r3, r3, r2
 227 0020 FB60     		str	r3, [r7, #12]
  76:Tracer/sniffFIFO.c **** 
  77:Tracer/sniffFIFO.c **** 	if ((errorFIFO.rptr)==nextWptr){
 228              		.loc 1 77 0
 229 0022 134B     		ldr	r3, .L14
 230 0024 5A68     		ldr	r2, [r3, #4]
 231 0026 FB68     		ldr	r3, [r7, #12]
 232 0028 9A42     		cmp	r2, r3
 233 002a 01D1     		bne	.L12
  78:Tracer/sniffFIFO.c **** 		return 1;
 234              		.loc 1 78 0
 235 002c 0123     		movs	r3, #1
 236 002e 1AE0     		b	.L13
 237              	.L12:
  79:Tracer/sniffFIFO.c **** 	}
  80:Tracer/sniffFIFO.c **** 
  81:Tracer/sniffFIFO.c **** 	memcpy(&(errorFIFO.Buffer[errorFIFO.wptr]),inData,pType);
 238              		.loc 1 81 0
 239 0030 0F4B     		ldr	r3, .L14
 240 0032 1A68     		ldr	r2, [r3]
 241 0034 1346     		mov	r3, r2
 242 0036 5B00     		lsls	r3, r3, #1
 243 0038 1344     		add	r3, r3, r2
 244 003a 5B00     		lsls	r3, r3, #1
 245 003c 0833     		adds	r3, r3, #8
 246 003e 0C4A     		ldr	r2, .L14
 247 0040 1344     		add	r3, r3, r2
 248 0042 0433     		adds	r3, r3, #4
 249 0044 FA78     		ldrb	r2, [r7, #3]	@ zero_extendqisi2
 250 0046 7968     		ldr	r1, [r7, #4]
 251 0048 1846     		mov	r0, r3
 252 004a FFF7FEFF 		bl	memcpy
  82:Tracer/sniffFIFO.c **** 
  83:Tracer/sniffFIFO.c **** 	errorFIFO.DataType[errorFIFO.wptr] = pType;
 253              		.loc 1 83 0
 254 004e 084B     		ldr	r3, .L14
 255 0050 1B68     		ldr	r3, [r3]
 256 0052 FA78     		ldrb	r2, [r7, #3]	@ zero_extendqisi2
 257 0054 0649     		ldr	r1, .L14
 258 0056 0233     		adds	r3, r3, #2
 259 0058 9B00     		lsls	r3, r3, #2
ARM GAS  C:\Users\THUNDE~1\AppData\Local\Temp\ccz6Qz0h.s 			page 7


 260 005a 0B44     		add	r3, r3, r1
 261 005c 5A60     		str	r2, [r3, #4]
  84:Tracer/sniffFIFO.c **** 	errorFIFO.wptr = nextWptr;
 262              		.loc 1 84 0
 263 005e 044A     		ldr	r2, .L14
 264 0060 FB68     		ldr	r3, [r7, #12]
 265 0062 1360     		str	r3, [r2]
  85:Tracer/sniffFIFO.c **** 
  86:Tracer/sniffFIFO.c **** 	return 0;
 266              		.loc 1 86 0
 267 0064 0023     		movs	r3, #0
 268              	.L13:
  87:Tracer/sniffFIFO.c **** }
 269              		.loc 1 87 0
 270 0066 1846     		mov	r0, r3
 271 0068 1037     		adds	r7, r7, #16
 272              		.cfi_def_cfa_offset 8
 273 006a BD46     		mov	sp, r7
 274              		.cfi_def_cfa_register 13
 275              		@ sp needed
 276 006c 80BD     		pop	{r7, pc}
 277              	.L15:
 278 006e 00BF     		.align	2
 279              	.L14:
 280 0070 00000000 		.word	errorFIFO
 281              		.cfi_endproc
 282              	.LFE3:
 283              		.size	writeErrorFIFO, .-writeErrorFIFO
 284              		.section	.text.writeFIFO,"ax",%progbits
 285              		.align	2
 286              		.global	writeFIFO
 287              		.thumb
 288              		.thumb_func
 289              		.type	writeFIFO, %function
 290              	writeFIFO:
 291              	.LFB4:
  88:Tracer/sniffFIFO.c **** 
  89:Tracer/sniffFIFO.c **** inline uint8_t writeFIFO(void* inData,payloadType pType,Priority prio){
 292              		.loc 1 89 0
 293              		.cfi_startproc
 294              		@ args = 0, pretend = 0, frame = 8
 295              		@ frame_needed = 1, uses_anonymous_args = 0
 296 0000 80B5     		push	{r7, lr}
 297              		.cfi_def_cfa_offset 8
 298              		.cfi_offset 7, -8
 299              		.cfi_offset 14, -4
 300 0002 82B0     		sub	sp, sp, #8
 301              		.cfi_def_cfa_offset 16
 302 0004 00AF     		add	r7, sp, #0
 303              		.cfi_def_cfa_register 7
 304 0006 7860     		str	r0, [r7, #4]
 305 0008 0B46     		mov	r3, r1
 306 000a FB70     		strb	r3, [r7, #3]
 307 000c 1346     		mov	r3, r2
 308 000e BB70     		strb	r3, [r7, #2]
  90:Tracer/sniffFIFO.c **** 	switch (prio) {
 309              		.loc 1 90 0
ARM GAS  C:\Users\THUNDE~1\AppData\Local\Temp\ccz6Qz0h.s 			page 8


 310 0010 BB78     		ldrb	r3, [r7, #2]	@ zero_extendqisi2
 311 0012 012B     		cmp	r3, #1
 312 0014 0BD0     		beq	.L18
 313 0016 022B     		cmp	r3, #2
 314 0018 02D0     		beq	.L19
 315 001a 002B     		cmp	r3, #0
 316 001c 0ED0     		beq	.L20
 317 001e 14E0     		b	.L22
 318              	.L19:
  91:Tracer/sniffFIFO.c **** 		case prioRECEIVE:
  92:Tracer/sniffFIFO.c **** 			return writeReceiveFIFO(inData,pType);
 319              		.loc 1 92 0
 320 0020 FB78     		ldrb	r3, [r7, #3]	@ zero_extendqisi2
 321 0022 1946     		mov	r1, r3
 322 0024 7868     		ldr	r0, [r7, #4]
 323 0026 FFF7FEFF 		bl	writeReceiveFIFO
 324 002a 0346     		mov	r3, r0
 325 002c 0EE0     		b	.L21
 326              	.L18:
  93:Tracer/sniffFIFO.c **** 			break;
  94:Tracer/sniffFIFO.c **** #if SEND_WITHOUT_SNIFF_TASK == 0
  95:Tracer/sniffFIFO.c **** 		case prioSTREAM:
  96:Tracer/sniffFIFO.c **** 			return writeStreamFIFO(inData,pType);
 327              		.loc 1 96 0
 328 002e FB78     		ldrb	r3, [r7, #3]	@ zero_extendqisi2
 329 0030 1946     		mov	r1, r3
 330 0032 7868     		ldr	r0, [r7, #4]
 331 0034 FFF7FEFF 		bl	writeStreamFIFO
 332 0038 0346     		mov	r3, r0
 333 003a 07E0     		b	.L21
 334              	.L20:
  97:Tracer/sniffFIFO.c **** 			break;
  98:Tracer/sniffFIFO.c **** #endif
  99:Tracer/sniffFIFO.c **** 		case prioERROR:
 100:Tracer/sniffFIFO.c **** 			return writeErrorFIFO(inData,pType);
 335              		.loc 1 100 0
 336 003c FB78     		ldrb	r3, [r7, #3]	@ zero_extendqisi2
 337 003e 1946     		mov	r1, r3
 338 0040 7868     		ldr	r0, [r7, #4]
 339 0042 FFF7FEFF 		bl	writeErrorFIFO
 340 0046 0346     		mov	r3, r0
 341 0048 00E0     		b	.L21
 342              	.L22:
 101:Tracer/sniffFIFO.c **** 			break;
 102:Tracer/sniffFIFO.c **** 		default:
 103:Tracer/sniffFIFO.c **** 			return 1;
 343              		.loc 1 103 0
 344 004a 0123     		movs	r3, #1
 345              	.L21:
 104:Tracer/sniffFIFO.c **** 			break;
 105:Tracer/sniffFIFO.c **** 	}
 106:Tracer/sniffFIFO.c **** }
 346              		.loc 1 106 0
 347 004c 1846     		mov	r0, r3
 348 004e 0837     		adds	r7, r7, #8
 349              		.cfi_def_cfa_offset 8
 350 0050 BD46     		mov	sp, r7
ARM GAS  C:\Users\THUNDE~1\AppData\Local\Temp\ccz6Qz0h.s 			page 9


 351              		.cfi_def_cfa_register 13
 352              		@ sp needed
 353 0052 80BD     		pop	{r7, pc}
 354              		.cfi_endproc
 355              	.LFE4:
 356              		.size	writeFIFO, .-writeFIFO
 357              		.section	.text.readStreamFIFO,"ax",%progbits
 358              		.align	2
 359              		.global	readStreamFIFO
 360              		.thumb
 361              		.thumb_func
 362              		.type	readStreamFIFO, %function
 363              	readStreamFIFO:
 364              	.LFB5:
 107:Tracer/sniffFIFO.c **** 
 108:Tracer/sniffFIFO.c **** /*
 109:Tracer/sniffFIFO.c **** Behavior:
 110:Tracer/sniffFIFO.c **** Reads data from fifo, highest priority first
 111:Tracer/sniffFIFO.c **** It's up to the user to free the buffer after use
 112:Tracer/sniffFIFO.c **** 
 113:Tracer/sniffFIFO.c **** Params:
 114:Tracer/sniffFIFO.c **** 	fifo: DUAL_PORT_FIFO instance
 115:Tracer/sniffFIFO.c **** 	pData: target buffer for data
 116:Tracer/sniffFIFO.c **** 	pDType: buffer to put read lenght into
 117:Tracer/sniffFIFO.c **** 	pPrio: buffer to put read priority
 118:Tracer/sniffFIFO.c **** return:
 119:Tracer/sniffFIFO.c **** 0: read OK
 120:Tracer/sniffFIFO.c **** 1: read FAIL
 121:Tracer/sniffFIFO.c **** */
 122:Tracer/sniffFIFO.c **** 
 123:Tracer/sniffFIFO.c **** #if SEND_WITHOUT_SNIFF_TASK == 0
 124:Tracer/sniffFIFO.c **** inline uint8_t readStreamFIFO(void* pData, payloadType* pType){
 365              		.loc 1 124 0
 366              		.cfi_startproc
 367              		@ args = 0, pretend = 0, frame = 8
 368              		@ frame_needed = 1, uses_anonymous_args = 0
 369 0000 80B5     		push	{r7, lr}
 370              		.cfi_def_cfa_offset 8
 371              		.cfi_offset 7, -8
 372              		.cfi_offset 14, -4
 373 0002 82B0     		sub	sp, sp, #8
 374              		.cfi_def_cfa_offset 16
 375 0004 00AF     		add	r7, sp, #0
 376              		.cfi_def_cfa_register 7
 377 0006 7860     		str	r0, [r7, #4]
 378 0008 3960     		str	r1, [r7]
 125:Tracer/sniffFIFO.c **** 
 126:Tracer/sniffFIFO.c ****         if (streamFIFO.wptr!=streamFIFO.rptr){
 379              		.loc 1 126 0
 380 000a 194B     		ldr	r3, .L26
 381 000c 1A68     		ldr	r2, [r3]
 382 000e 184B     		ldr	r3, .L26
 383 0010 5B68     		ldr	r3, [r3, #4]
 384 0012 9A42     		cmp	r2, r3
 385 0014 26D0     		beq	.L24
 127:Tracer/sniffFIFO.c ****             *pType= streamFIFO.DataType[streamFIFO.rptr];
 386              		.loc 1 127 0
ARM GAS  C:\Users\THUNDE~1\AppData\Local\Temp\ccz6Qz0h.s 			page 10


 387 0016 164B     		ldr	r3, .L26
 388 0018 5B68     		ldr	r3, [r3, #4]
 389 001a 154A     		ldr	r2, .L26
 390 001c 03F63253 		addw	r3, r3, #3378
 391 0020 52F82330 		ldr	r3, [r2, r3, lsl #2]
 392 0024 DAB2     		uxtb	r2, r3
 393 0026 3B68     		ldr	r3, [r7]
 394 0028 1A70     		strb	r2, [r3]
 128:Tracer/sniffFIFO.c **** 
 129:Tracer/sniffFIFO.c **** 			memcpy(pData,&(streamFIFO.Buffer[streamFIFO.rptr]),*pType);
 395              		.loc 1 129 0
 396 002a 114B     		ldr	r3, .L26
 397 002c 5A68     		ldr	r2, [r3, #4]
 398 002e 1346     		mov	r3, r2
 399 0030 DB00     		lsls	r3, r3, #3
 400 0032 1344     		add	r3, r3, r2
 401 0034 0833     		adds	r3, r3, #8
 402 0036 0E4A     		ldr	r2, .L26
 403 0038 1344     		add	r3, r3, r2
 404 003a 191D     		adds	r1, r3, #4
 405 003c 3B68     		ldr	r3, [r7]
 406 003e 1B78     		ldrb	r3, [r3]	@ zero_extendqisi2
 407 0040 1A46     		mov	r2, r3
 408 0042 7868     		ldr	r0, [r7, #4]
 409 0044 FFF7FEFF 		bl	memcpy
 130:Tracer/sniffFIFO.c **** 
 131:Tracer/sniffFIFO.c ****            // free(fifo[prio].Buffer[fifo[prio].rptr]);
 132:Tracer/sniffFIFO.c ****             //fifo[prio].Buffer[fifo[prio].rptr]=0;
 133:Tracer/sniffFIFO.c **** 			streamFIFO.rptr=(streamFIFO.rptr+1)%streamFIFO.size;
 410              		.loc 1 133 0
 411 0048 094B     		ldr	r3, .L26
 412 004a 5B68     		ldr	r3, [r3, #4]
 413 004c 0133     		adds	r3, r3, #1
 414 004e 084A     		ldr	r2, .L26
 415 0050 9268     		ldr	r2, [r2, #8]
 416 0052 B3FBF2F1 		udiv	r1, r3, r2
 417 0056 02FB01F2 		mul	r2, r2, r1
 418 005a 9B1A     		subs	r3, r3, r2
 419 005c 044A     		ldr	r2, .L26
 420 005e 5360     		str	r3, [r2, #4]
 134:Tracer/sniffFIFO.c ****             return 0;
 421              		.loc 1 134 0
 422 0060 0023     		movs	r3, #0
 423 0062 00E0     		b	.L25
 424              	.L24:
 135:Tracer/sniffFIFO.c ****         }
 136:Tracer/sniffFIFO.c ****     //EMPTY
 137:Tracer/sniffFIFO.c **** 	return 1;
 425              		.loc 1 137 0
 426 0064 0123     		movs	r3, #1
 427              	.L25:
 138:Tracer/sniffFIFO.c **** }
 428              		.loc 1 138 0
 429 0066 1846     		mov	r0, r3
 430 0068 0837     		adds	r7, r7, #8
 431              		.cfi_def_cfa_offset 8
 432 006a BD46     		mov	sp, r7
ARM GAS  C:\Users\THUNDE~1\AppData\Local\Temp\ccz6Qz0h.s 			page 11


 433              		.cfi_def_cfa_register 13
 434              		@ sp needed
 435 006c 80BD     		pop	{r7, pc}
 436              	.L27:
 437 006e 00BF     		.align	2
 438              	.L26:
 439 0070 00000000 		.word	streamFIFO
 440              		.cfi_endproc
 441              	.LFE5:
 442              		.size	readStreamFIFO, .-readStreamFIFO
 443              		.section	.text.readReceiveFIFO,"ax",%progbits
 444              		.align	2
 445              		.global	readReceiveFIFO
 446              		.thumb
 447              		.thumb_func
 448              		.type	readReceiveFIFO, %function
 449              	readReceiveFIFO:
 450              	.LFB6:
 139:Tracer/sniffFIFO.c **** #endif
 140:Tracer/sniffFIFO.c **** 
 141:Tracer/sniffFIFO.c **** inline uint8_t readReceiveFIFO(void* pData, payloadType* pType){
 451              		.loc 1 141 0
 452              		.cfi_startproc
 453              		@ args = 0, pretend = 0, frame = 8
 454              		@ frame_needed = 1, uses_anonymous_args = 0
 455 0000 80B5     		push	{r7, lr}
 456              		.cfi_def_cfa_offset 8
 457              		.cfi_offset 7, -8
 458              		.cfi_offset 14, -4
 459 0002 82B0     		sub	sp, sp, #8
 460              		.cfi_def_cfa_offset 16
 461 0004 00AF     		add	r7, sp, #0
 462              		.cfi_def_cfa_register 7
 463 0006 7860     		str	r0, [r7, #4]
 464 0008 3960     		str	r1, [r7]
 142:Tracer/sniffFIFO.c **** 
 143:Tracer/sniffFIFO.c ****         if (receiveFIFO.wptr!=receiveFIFO.rptr){
 465              		.loc 1 143 0
 466 000a 174B     		ldr	r3, .L31
 467 000c 1A68     		ldr	r2, [r3]
 468 000e 164B     		ldr	r3, .L31
 469 0010 5B68     		ldr	r3, [r3, #4]
 470 0012 9A42     		cmp	r2, r3
 471 0014 23D0     		beq	.L29
 144:Tracer/sniffFIFO.c ****             *pType= receiveFIFO.DataType[receiveFIFO.rptr];
 472              		.loc 1 144 0
 473 0016 144B     		ldr	r3, .L31
 474 0018 5B68     		ldr	r3, [r3, #4]
 475 001a 134A     		ldr	r2, .L31
 476 001c 0633     		adds	r3, r3, #6
 477 001e 9B00     		lsls	r3, r3, #2
 478 0020 1344     		add	r3, r3, r2
 479 0022 5B68     		ldr	r3, [r3, #4]
 480 0024 DAB2     		uxtb	r2, r3
 481 0026 3B68     		ldr	r3, [r7]
 482 0028 1A70     		strb	r2, [r3]
 145:Tracer/sniffFIFO.c **** 
ARM GAS  C:\Users\THUNDE~1\AppData\Local\Temp\ccz6Qz0h.s 			page 12


 146:Tracer/sniffFIFO.c **** 			memcpy(pData,&(receiveFIFO.Buffer[receiveFIFO.rptr]),*pType);
 483              		.loc 1 146 0
 484 002a 0F4B     		ldr	r3, .L31
 485 002c 5B68     		ldr	r3, [r3, #4]
 486 002e 0833     		adds	r3, r3, #8
 487 0030 0D4A     		ldr	r2, .L31
 488 0032 1344     		add	r3, r3, r2
 489 0034 191D     		adds	r1, r3, #4
 490 0036 3B68     		ldr	r3, [r7]
 491 0038 1B78     		ldrb	r3, [r3]	@ zero_extendqisi2
 492 003a 1A46     		mov	r2, r3
 493 003c 7868     		ldr	r0, [r7, #4]
 494 003e FFF7FEFF 		bl	memcpy
 147:Tracer/sniffFIFO.c **** 
 148:Tracer/sniffFIFO.c ****            // free(fifo[prio].Buffer[fifo[prio].rptr]);
 149:Tracer/sniffFIFO.c ****             //fifo[prio].Buffer[fifo[prio].rptr]=0;
 150:Tracer/sniffFIFO.c **** 			receiveFIFO.rptr=(receiveFIFO.rptr+1)%receiveFIFO.size;
 495              		.loc 1 150 0
 496 0042 094B     		ldr	r3, .L31
 497 0044 5B68     		ldr	r3, [r3, #4]
 498 0046 0133     		adds	r3, r3, #1
 499 0048 074A     		ldr	r2, .L31
 500 004a 9268     		ldr	r2, [r2, #8]
 501 004c B3FBF2F1 		udiv	r1, r3, r2
 502 0050 02FB01F2 		mul	r2, r2, r1
 503 0054 9B1A     		subs	r3, r3, r2
 504 0056 044A     		ldr	r2, .L31
 505 0058 5360     		str	r3, [r2, #4]
 151:Tracer/sniffFIFO.c ****             return 0;
 506              		.loc 1 151 0
 507 005a 0023     		movs	r3, #0
 508 005c 00E0     		b	.L30
 509              	.L29:
 152:Tracer/sniffFIFO.c ****         }
 153:Tracer/sniffFIFO.c **** 
 154:Tracer/sniffFIFO.c ****     //EMPTY
 155:Tracer/sniffFIFO.c **** 	return 1;
 510              		.loc 1 155 0
 511 005e 0123     		movs	r3, #1
 512              	.L30:
 156:Tracer/sniffFIFO.c **** }
 513              		.loc 1 156 0
 514 0060 1846     		mov	r0, r3
 515 0062 0837     		adds	r7, r7, #8
 516              		.cfi_def_cfa_offset 8
 517 0064 BD46     		mov	sp, r7
 518              		.cfi_def_cfa_register 13
 519              		@ sp needed
 520 0066 80BD     		pop	{r7, pc}
 521              	.L32:
 522              		.align	2
 523              	.L31:
 524 0068 00000000 		.word	receiveFIFO
 525              		.cfi_endproc
 526              	.LFE6:
 527              		.size	readReceiveFIFO, .-readReceiveFIFO
 528              		.section	.text.readErrorFIFO,"ax",%progbits
ARM GAS  C:\Users\THUNDE~1\AppData\Local\Temp\ccz6Qz0h.s 			page 13


 529              		.align	2
 530              		.global	readErrorFIFO
 531              		.thumb
 532              		.thumb_func
 533              		.type	readErrorFIFO, %function
 534              	readErrorFIFO:
 535              	.LFB7:
 157:Tracer/sniffFIFO.c **** 
 158:Tracer/sniffFIFO.c **** inline uint8_t readErrorFIFO(void* pData, payloadType* pType){
 536              		.loc 1 158 0
 537              		.cfi_startproc
 538              		@ args = 0, pretend = 0, frame = 8
 539              		@ frame_needed = 1, uses_anonymous_args = 0
 540 0000 80B5     		push	{r7, lr}
 541              		.cfi_def_cfa_offset 8
 542              		.cfi_offset 7, -8
 543              		.cfi_offset 14, -4
 544 0002 82B0     		sub	sp, sp, #8
 545              		.cfi_def_cfa_offset 16
 546 0004 00AF     		add	r7, sp, #0
 547              		.cfi_def_cfa_register 7
 548 0006 7860     		str	r0, [r7, #4]
 549 0008 3960     		str	r1, [r7]
 159:Tracer/sniffFIFO.c **** 
 160:Tracer/sniffFIFO.c ****         if (errorFIFO.wptr!=errorFIFO.rptr){
 550              		.loc 1 160 0
 551 000a 194B     		ldr	r3, .L36
 552 000c 1A68     		ldr	r2, [r3]
 553 000e 184B     		ldr	r3, .L36
 554 0010 5B68     		ldr	r3, [r3, #4]
 555 0012 9A42     		cmp	r2, r3
 556 0014 27D0     		beq	.L34
 161:Tracer/sniffFIFO.c ****             *pType= errorFIFO.DataType[errorFIFO.rptr];
 557              		.loc 1 161 0
 558 0016 164B     		ldr	r3, .L36
 559 0018 5B68     		ldr	r3, [r3, #4]
 560 001a 154A     		ldr	r2, .L36
 561 001c 0233     		adds	r3, r3, #2
 562 001e 9B00     		lsls	r3, r3, #2
 563 0020 1344     		add	r3, r3, r2
 564 0022 5B68     		ldr	r3, [r3, #4]
 565 0024 DAB2     		uxtb	r2, r3
 566 0026 3B68     		ldr	r3, [r7]
 567 0028 1A70     		strb	r2, [r3]
 162:Tracer/sniffFIFO.c **** 
 163:Tracer/sniffFIFO.c **** 			memcpy(pData,&(errorFIFO.Buffer[errorFIFO.rptr]),*pType);
 568              		.loc 1 163 0
 569 002a 114B     		ldr	r3, .L36
 570 002c 5A68     		ldr	r2, [r3, #4]
 571 002e 1346     		mov	r3, r2
 572 0030 5B00     		lsls	r3, r3, #1
 573 0032 1344     		add	r3, r3, r2
 574 0034 5B00     		lsls	r3, r3, #1
 575 0036 0833     		adds	r3, r3, #8
 576 0038 0D4A     		ldr	r2, .L36
 577 003a 1344     		add	r3, r3, r2
 578 003c 191D     		adds	r1, r3, #4
ARM GAS  C:\Users\THUNDE~1\AppData\Local\Temp\ccz6Qz0h.s 			page 14


 579 003e 3B68     		ldr	r3, [r7]
 580 0040 1B78     		ldrb	r3, [r3]	@ zero_extendqisi2
 581 0042 1A46     		mov	r2, r3
 582 0044 7868     		ldr	r0, [r7, #4]
 583 0046 FFF7FEFF 		bl	memcpy
 164:Tracer/sniffFIFO.c **** 
 165:Tracer/sniffFIFO.c ****            // free(fifo[prio].Buffer[fifo[prio].rptr]);
 166:Tracer/sniffFIFO.c ****             //fifo[prio].Buffer[fifo[prio].rptr]=0;
 167:Tracer/sniffFIFO.c **** 			errorFIFO.rptr=(errorFIFO.rptr+1)%errorFIFO.size;
 584              		.loc 1 167 0
 585 004a 094B     		ldr	r3, .L36
 586 004c 5B68     		ldr	r3, [r3, #4]
 587 004e 0133     		adds	r3, r3, #1
 588 0050 074A     		ldr	r2, .L36
 589 0052 9268     		ldr	r2, [r2, #8]
 590 0054 B3FBF2F1 		udiv	r1, r3, r2
 591 0058 02FB01F2 		mul	r2, r2, r1
 592 005c 9B1A     		subs	r3, r3, r2
 593 005e 044A     		ldr	r2, .L36
 594 0060 5360     		str	r3, [r2, #4]
 168:Tracer/sniffFIFO.c ****             return 0;
 595              		.loc 1 168 0
 596 0062 0023     		movs	r3, #0
 597 0064 00E0     		b	.L35
 598              	.L34:
 169:Tracer/sniffFIFO.c ****         }
 170:Tracer/sniffFIFO.c **** 
 171:Tracer/sniffFIFO.c ****     //EMPTY
 172:Tracer/sniffFIFO.c **** 	return 1;
 599              		.loc 1 172 0
 600 0066 0123     		movs	r3, #1
 601              	.L35:
 173:Tracer/sniffFIFO.c **** }
 602              		.loc 1 173 0
 603 0068 1846     		mov	r0, r3
 604 006a 0837     		adds	r7, r7, #8
 605              		.cfi_def_cfa_offset 8
 606 006c BD46     		mov	sp, r7
 607              		.cfi_def_cfa_register 13
 608              		@ sp needed
 609 006e 80BD     		pop	{r7, pc}
 610              	.L37:
 611              		.align	2
 612              	.L36:
 613 0070 00000000 		.word	errorFIFO
 614              		.cfi_endproc
 615              	.LFE7:
 616              		.size	readErrorFIFO, .-readErrorFIFO
 617              		.section	.text.readFIFO,"ax",%progbits
 618              		.align	2
 619              		.global	readFIFO
 620              		.thumb
 621              		.thumb_func
 622              		.type	readFIFO, %function
 623              	readFIFO:
 624              	.LFB8:
 174:Tracer/sniffFIFO.c **** 
ARM GAS  C:\Users\THUNDE~1\AppData\Local\Temp\ccz6Qz0h.s 			page 15


 175:Tracer/sniffFIFO.c **** inline uint8_t readFIFO(void* pData, payloadType* pType,Priority* prio){
 625              		.loc 1 175 0
 626              		.cfi_startproc
 627              		@ args = 0, pretend = 0, frame = 16
 628              		@ frame_needed = 1, uses_anonymous_args = 0
 629 0000 80B5     		push	{r7, lr}
 630              		.cfi_def_cfa_offset 8
 631              		.cfi_offset 7, -8
 632              		.cfi_offset 14, -4
 633 0002 84B0     		sub	sp, sp, #16
 634              		.cfi_def_cfa_offset 24
 635 0004 00AF     		add	r7, sp, #0
 636              		.cfi_def_cfa_register 7
 637 0006 F860     		str	r0, [r7, #12]
 638 0008 B960     		str	r1, [r7, #8]
 639 000a 7A60     		str	r2, [r7, #4]
 176:Tracer/sniffFIFO.c **** 	if(readReceiveFIFO(pData,pType)==0){
 640              		.loc 1 176 0
 641 000c B968     		ldr	r1, [r7, #8]
 642 000e F868     		ldr	r0, [r7, #12]
 643 0010 FFF7FEFF 		bl	readReceiveFIFO
 644 0014 0346     		mov	r3, r0
 645 0016 002B     		cmp	r3, #0
 646 0018 04D1     		bne	.L39
 177:Tracer/sniffFIFO.c **** 		*prio = prioRECEIVE;
 647              		.loc 1 177 0
 648 001a 7B68     		ldr	r3, [r7, #4]
 649 001c 0222     		movs	r2, #2
 650 001e 1A70     		strb	r2, [r3]
 178:Tracer/sniffFIFO.c **** 		return 0;
 651              		.loc 1 178 0
 652 0020 0023     		movs	r3, #0
 653 0022 18E0     		b	.L40
 654              	.L39:
 179:Tracer/sniffFIFO.c **** 	}
 180:Tracer/sniffFIFO.c **** #if SEND_WITHOUT_SNIFF_TASK == 0
 181:Tracer/sniffFIFO.c **** 	else if(readStreamFIFO(pData,pType)==0){
 655              		.loc 1 181 0
 656 0024 B968     		ldr	r1, [r7, #8]
 657 0026 F868     		ldr	r0, [r7, #12]
 658 0028 FFF7FEFF 		bl	readStreamFIFO
 659 002c 0346     		mov	r3, r0
 660 002e 002B     		cmp	r3, #0
 661 0030 04D1     		bne	.L41
 182:Tracer/sniffFIFO.c **** 		*prio = prioSTREAM;
 662              		.loc 1 182 0
 663 0032 7B68     		ldr	r3, [r7, #4]
 664 0034 0122     		movs	r2, #1
 665 0036 1A70     		strb	r2, [r3]
 183:Tracer/sniffFIFO.c **** 		return 0;
 666              		.loc 1 183 0
 667 0038 0023     		movs	r3, #0
 668 003a 0CE0     		b	.L40
 669              	.L41:
 184:Tracer/sniffFIFO.c **** 	}
 185:Tracer/sniffFIFO.c **** #endif
 186:Tracer/sniffFIFO.c **** 	else if(readErrorFIFO(pData,pType)==0){
ARM GAS  C:\Users\THUNDE~1\AppData\Local\Temp\ccz6Qz0h.s 			page 16


 670              		.loc 1 186 0
 671 003c B968     		ldr	r1, [r7, #8]
 672 003e F868     		ldr	r0, [r7, #12]
 673 0040 FFF7FEFF 		bl	readErrorFIFO
 674 0044 0346     		mov	r3, r0
 675 0046 002B     		cmp	r3, #0
 676 0048 04D1     		bne	.L42
 187:Tracer/sniffFIFO.c **** 		*prio = prioERROR;
 677              		.loc 1 187 0
 678 004a 7B68     		ldr	r3, [r7, #4]
 679 004c 0022     		movs	r2, #0
 680 004e 1A70     		strb	r2, [r3]
 188:Tracer/sniffFIFO.c **** 		return 0;
 681              		.loc 1 188 0
 682 0050 0023     		movs	r3, #0
 683 0052 00E0     		b	.L40
 684              	.L42:
 189:Tracer/sniffFIFO.c **** 	}
 190:Tracer/sniffFIFO.c **** 	return 1;
 685              		.loc 1 190 0
 686 0054 0123     		movs	r3, #1
 687              	.L40:
 191:Tracer/sniffFIFO.c **** }
 688              		.loc 1 191 0
 689 0056 1846     		mov	r0, r3
 690 0058 1037     		adds	r7, r7, #16
 691              		.cfi_def_cfa_offset 8
 692 005a BD46     		mov	sp, r7
 693              		.cfi_def_cfa_register 13
 694              		@ sp needed
 695 005c 80BD     		pop	{r7, pc}
 696              		.cfi_endproc
 697              	.LFE8:
 698              		.size	readFIFO, .-readFIFO
 699 005e 00BF     		.section	.text.initialiseStreamFIFO,"ax",%progbits
 700              		.align	2
 701              		.global	initialiseStreamFIFO
 702              		.thumb
 703              		.thumb_func
 704              		.type	initialiseStreamFIFO, %function
 705              	initialiseStreamFIFO:
 706              	.LFB9:
 192:Tracer/sniffFIFO.c **** 
 193:Tracer/sniffFIFO.c **** #if SEND_WITHOUT_SNIFF_TASK == 0
 194:Tracer/sniffFIFO.c **** void initialiseStreamFIFO(){
 707              		.loc 1 194 0
 708              		.cfi_startproc
 709              		@ args = 0, pretend = 0, frame = 0
 710              		@ frame_needed = 1, uses_anonymous_args = 0
 711              		@ link register save eliminated.
 712 0000 80B4     		push	{r7}
 713              		.cfi_def_cfa_offset 4
 714              		.cfi_offset 7, -4
 715 0002 00AF     		add	r7, sp, #0
 716              		.cfi_def_cfa_register 7
 195:Tracer/sniffFIFO.c **** 	streamFIFO.wptr=0;
 717              		.loc 1 195 0
ARM GAS  C:\Users\THUNDE~1\AppData\Local\Temp\ccz6Qz0h.s 			page 17


 718 0004 064B     		ldr	r3, .L44
 719 0006 0022     		movs	r2, #0
 720 0008 1A60     		str	r2, [r3]
 196:Tracer/sniffFIFO.c **** 	streamFIFO.rptr=0;
 721              		.loc 1 196 0
 722 000a 054B     		ldr	r3, .L44
 723 000c 0022     		movs	r2, #0
 724 000e 5A60     		str	r2, [r3, #4]
 197:Tracer/sniffFIFO.c **** 	streamFIFO.size=SIZE_OF_STREAM_FIFO;
 725              		.loc 1 197 0
 726 0010 034B     		ldr	r3, .L44
 727 0012 40F2DC52 		movw	r2, #1500
 728 0016 9A60     		str	r2, [r3, #8]
 198:Tracer/sniffFIFO.c **** }
 729              		.loc 1 198 0
 730 0018 00BF     		nop
 731 001a BD46     		mov	sp, r7
 732              		.cfi_def_cfa_register 13
 733              		@ sp needed
 734 001c 80BC     		pop	{r7}
 735              		.cfi_restore 7
 736              		.cfi_def_cfa_offset 0
 737 001e 7047     		bx	lr
 738              	.L45:
 739              		.align	2
 740              	.L44:
 741 0020 00000000 		.word	streamFIFO
 742              		.cfi_endproc
 743              	.LFE9:
 744              		.size	initialiseStreamFIFO, .-initialiseStreamFIFO
 745              		.section	.text.initialiseReceiveFIFO,"ax",%progbits
 746              		.align	2
 747              		.global	initialiseReceiveFIFO
 748              		.thumb
 749              		.thumb_func
 750              		.type	initialiseReceiveFIFO, %function
 751              	initialiseReceiveFIFO:
 752              	.LFB10:
 199:Tracer/sniffFIFO.c **** #endif
 200:Tracer/sniffFIFO.c **** 
 201:Tracer/sniffFIFO.c **** void initialiseReceiveFIFO(){
 753              		.loc 1 201 0
 754              		.cfi_startproc
 755              		@ args = 0, pretend = 0, frame = 0
 756              		@ frame_needed = 1, uses_anonymous_args = 0
 757              		@ link register save eliminated.
 758 0000 80B4     		push	{r7}
 759              		.cfi_def_cfa_offset 4
 760              		.cfi_offset 7, -4
 761 0002 00AF     		add	r7, sp, #0
 762              		.cfi_def_cfa_register 7
 202:Tracer/sniffFIFO.c **** 	receiveFIFO.wptr=0;
 763              		.loc 1 202 0
 764 0004 064B     		ldr	r3, .L47
 765 0006 0022     		movs	r2, #0
 766 0008 1A60     		str	r2, [r3]
 203:Tracer/sniffFIFO.c **** 	receiveFIFO.rptr=0;
ARM GAS  C:\Users\THUNDE~1\AppData\Local\Temp\ccz6Qz0h.s 			page 18


 767              		.loc 1 203 0
 768 000a 054B     		ldr	r3, .L47
 769 000c 0022     		movs	r2, #0
 770 000e 5A60     		str	r2, [r3, #4]
 204:Tracer/sniffFIFO.c **** 	receiveFIFO.size=SIZE_OF_RECEIVE_FIFO;
 771              		.loc 1 204 0
 772 0010 034B     		ldr	r3, .L47
 773 0012 0F22     		movs	r2, #15
 774 0014 9A60     		str	r2, [r3, #8]
 205:Tracer/sniffFIFO.c **** }
 775              		.loc 1 205 0
 776 0016 00BF     		nop
 777 0018 BD46     		mov	sp, r7
 778              		.cfi_def_cfa_register 13
 779              		@ sp needed
 780 001a 80BC     		pop	{r7}
 781              		.cfi_restore 7
 782              		.cfi_def_cfa_offset 0
 783 001c 7047     		bx	lr
 784              	.L48:
 785 001e 00BF     		.align	2
 786              	.L47:
 787 0020 00000000 		.word	receiveFIFO
 788              		.cfi_endproc
 789              	.LFE10:
 790              		.size	initialiseReceiveFIFO, .-initialiseReceiveFIFO
 791              		.section	.text.initialiseErrorFIFO,"ax",%progbits
 792              		.align	2
 793              		.global	initialiseErrorFIFO
 794              		.thumb
 795              		.thumb_func
 796              		.type	initialiseErrorFIFO, %function
 797              	initialiseErrorFIFO:
 798              	.LFB11:
 206:Tracer/sniffFIFO.c **** 
 207:Tracer/sniffFIFO.c **** void initialiseErrorFIFO(){
 799              		.loc 1 207 0
 800              		.cfi_startproc
 801              		@ args = 0, pretend = 0, frame = 0
 802              		@ frame_needed = 1, uses_anonymous_args = 0
 803              		@ link register save eliminated.
 804 0000 80B4     		push	{r7}
 805              		.cfi_def_cfa_offset 4
 806              		.cfi_offset 7, -4
 807 0002 00AF     		add	r7, sp, #0
 808              		.cfi_def_cfa_register 7
 208:Tracer/sniffFIFO.c **** 	errorFIFO.wptr=0;
 809              		.loc 1 208 0
 810 0004 064B     		ldr	r3, .L50
 811 0006 0022     		movs	r2, #0
 812 0008 1A60     		str	r2, [r3]
 209:Tracer/sniffFIFO.c **** 	errorFIFO.rptr=0;
 813              		.loc 1 209 0
 814 000a 054B     		ldr	r3, .L50
 815 000c 0022     		movs	r2, #0
 816 000e 5A60     		str	r2, [r3, #4]
 210:Tracer/sniffFIFO.c **** 	errorFIFO.size=SIZE_OF_ERROR_FIFO;
ARM GAS  C:\Users\THUNDE~1\AppData\Local\Temp\ccz6Qz0h.s 			page 19


 817              		.loc 1 210 0
 818 0010 034B     		ldr	r3, .L50
 819 0012 0022     		movs	r2, #0
 820 0014 9A60     		str	r2, [r3, #8]
 211:Tracer/sniffFIFO.c **** }
 821              		.loc 1 211 0
 822 0016 00BF     		nop
 823 0018 BD46     		mov	sp, r7
 824              		.cfi_def_cfa_register 13
 825              		@ sp needed
 826 001a 80BC     		pop	{r7}
 827              		.cfi_restore 7
 828              		.cfi_def_cfa_offset 0
 829 001c 7047     		bx	lr
 830              	.L51:
 831 001e 00BF     		.align	2
 832              	.L50:
 833 0020 00000000 		.word	errorFIFO
 834              		.cfi_endproc
 835              	.LFE11:
 836              		.size	initialiseErrorFIFO, .-initialiseErrorFIFO
 837              		.section	.text.initialiseFIFO,"ax",%progbits
 838              		.align	2
 839              		.global	initialiseFIFO
 840              		.thumb
 841              		.thumb_func
 842              		.type	initialiseFIFO, %function
 843              	initialiseFIFO:
 844              	.LFB12:
 212:Tracer/sniffFIFO.c **** 
 213:Tracer/sniffFIFO.c **** void initialiseFIFO(){
 845              		.loc 1 213 0
 846              		.cfi_startproc
 847              		@ args = 0, pretend = 0, frame = 0
 848              		@ frame_needed = 1, uses_anonymous_args = 0
 849 0000 80B5     		push	{r7, lr}
 850              		.cfi_def_cfa_offset 8
 851              		.cfi_offset 7, -8
 852              		.cfi_offset 14, -4
 853 0002 00AF     		add	r7, sp, #0
 854              		.cfi_def_cfa_register 7
 214:Tracer/sniffFIFO.c **** #if SEND_WITHOUT_SNIFF_TASK == 0
 215:Tracer/sniffFIFO.c **** initialiseStreamFIFO();
 855              		.loc 1 215 0
 856 0004 FFF7FEFF 		bl	initialiseStreamFIFO
 216:Tracer/sniffFIFO.c **** #endif
 217:Tracer/sniffFIFO.c **** initialiseReceiveFIFO();
 857              		.loc 1 217 0
 858 0008 FFF7FEFF 		bl	initialiseReceiveFIFO
 218:Tracer/sniffFIFO.c **** initialiseErrorFIFO();
 859              		.loc 1 218 0
 860 000c FFF7FEFF 		bl	initialiseErrorFIFO
 219:Tracer/sniffFIFO.c **** }
 861              		.loc 1 219 0
 862 0010 00BF     		nop
 863 0012 80BD     		pop	{r7, pc}
 864              		.cfi_endproc
ARM GAS  C:\Users\THUNDE~1\AppData\Local\Temp\ccz6Qz0h.s 			page 20


 865              	.LFE12:
 866              		.size	initialiseFIFO, .-initialiseFIFO
 867              		.text
 868              	.Letext0:
 869              		.file 2 "c:\\program files (x86)\\cypress\\psoc creator\\4.2\\psoc creator\\import\\gnu\\arm\\5.4.
 870              		.file 3 "c:\\program files (x86)\\cypress\\psoc creator\\4.2\\psoc creator\\import\\gnu\\arm\\5.4.
 871              		.file 4 "c:\\program files (x86)\\cypress\\psoc creator\\4.2\\psoc creator\\import\\gnu\\arm\\5.4.
 872              		.file 5 ".\\Tracer/sniffPayload.h"
 873              		.file 6 ".\\Tracer/sniffFIFO.h"