ARM GAS  C:\Users\THUNDE~1\AppData\Local\Temp\ccznISje.s 			page 1


   1              		.syntax unified
   2              		.cpu cortex-m3
   3              		.fpu softvfp
   4              		.eabi_attribute 20, 1
   5              		.eabi_attribute 21, 1
   6              		.eabi_attribute 23, 3
   7              		.eabi_attribute 24, 1
   8              		.eabi_attribute 25, 1
   9              		.eabi_attribute 26, 1
  10              		.eabi_attribute 30, 6
  11              		.eabi_attribute 34, 1
  12              		.eabi_attribute 18, 4
  13              		.thumb
  14              		.syntax unified
  15              		.file	"Timer_20KHz.c"
  16              		.text
  17              	.Ltext0:
  18              		.cfi_sections	.debug_frame
  19              		.global	Timer_20KHz_initVar
  20              		.bss
  21              		.type	Timer_20KHz_initVar, %object
  22              		.size	Timer_20KHz_initVar, 1
  23              	Timer_20KHz_initVar:
  24 0000 00       		.space	1
  25              		.section	.text.Timer_20KHz_Init,"ax",%progbits
  26              		.align	2
  27              		.global	Timer_20KHz_Init
  28              		.thumb
  29              		.thumb_func
  30              		.type	Timer_20KHz_Init, %function
  31              	Timer_20KHz_Init:
  32              	.LFB0:
  33              		.file 1 "Generated_Source\\PSoC5\\Timer_20KHz.c"
   1:Generated_Source\PSoC5/Timer_20KHz.c **** /*******************************************************************************
   2:Generated_Source\PSoC5/Timer_20KHz.c **** * File Name: Timer_20KHz.c
   3:Generated_Source\PSoC5/Timer_20KHz.c **** * Version 2.70
   4:Generated_Source\PSoC5/Timer_20KHz.c **** *
   5:Generated_Source\PSoC5/Timer_20KHz.c **** * Description:
   6:Generated_Source\PSoC5/Timer_20KHz.c **** *  The Timer component consists of a 8, 16, 24 or 32-bit timer with
   7:Generated_Source\PSoC5/Timer_20KHz.c **** *  a selectable period between 2 and 2^Width - 1.  The timer may free run
   8:Generated_Source\PSoC5/Timer_20KHz.c **** *  or be used as a capture timer as well.  The capture can be initiated
   9:Generated_Source\PSoC5/Timer_20KHz.c **** *  by a positive or negative edge signal as well as via software.
  10:Generated_Source\PSoC5/Timer_20KHz.c **** *  A trigger input can be programmed to enable the timer on rising edge
  11:Generated_Source\PSoC5/Timer_20KHz.c **** *  falling edge, either edge or continous run.
  12:Generated_Source\PSoC5/Timer_20KHz.c **** *  Interrupts may be generated due to a terminal count condition
  13:Generated_Source\PSoC5/Timer_20KHz.c **** *  or a capture event.
  14:Generated_Source\PSoC5/Timer_20KHz.c **** *
  15:Generated_Source\PSoC5/Timer_20KHz.c **** * Note:
  16:Generated_Source\PSoC5/Timer_20KHz.c **** *
  17:Generated_Source\PSoC5/Timer_20KHz.c **** ********************************************************************************
  18:Generated_Source\PSoC5/Timer_20KHz.c **** * Copyright 2008-2014, Cypress Semiconductor Corporation.  All rights reserved.
  19:Generated_Source\PSoC5/Timer_20KHz.c **** * You may use this file only in accordance with the license, terms, conditions,
  20:Generated_Source\PSoC5/Timer_20KHz.c **** * disclaimers, and limitations in the end user license agreement accompanying
  21:Generated_Source\PSoC5/Timer_20KHz.c **** * the software package with which this file was provided.
  22:Generated_Source\PSoC5/Timer_20KHz.c **** ********************************************************************************/
  23:Generated_Source\PSoC5/Timer_20KHz.c **** 
  24:Generated_Source\PSoC5/Timer_20KHz.c **** #include "Timer_20KHz.h"
ARM GAS  C:\Users\THUNDE~1\AppData\Local\Temp\ccznISje.s 			page 2


  25:Generated_Source\PSoC5/Timer_20KHz.c **** 
  26:Generated_Source\PSoC5/Timer_20KHz.c **** uint8 Timer_20KHz_initVar = 0u;
  27:Generated_Source\PSoC5/Timer_20KHz.c **** 
  28:Generated_Source\PSoC5/Timer_20KHz.c **** 
  29:Generated_Source\PSoC5/Timer_20KHz.c **** /*******************************************************************************
  30:Generated_Source\PSoC5/Timer_20KHz.c **** * Function Name: Timer_20KHz_Init
  31:Generated_Source\PSoC5/Timer_20KHz.c **** ********************************************************************************
  32:Generated_Source\PSoC5/Timer_20KHz.c **** *
  33:Generated_Source\PSoC5/Timer_20KHz.c **** * Summary:
  34:Generated_Source\PSoC5/Timer_20KHz.c **** *  Initialize to the schematic state
  35:Generated_Source\PSoC5/Timer_20KHz.c **** *
  36:Generated_Source\PSoC5/Timer_20KHz.c **** * Parameters:
  37:Generated_Source\PSoC5/Timer_20KHz.c **** *  void
  38:Generated_Source\PSoC5/Timer_20KHz.c **** *
  39:Generated_Source\PSoC5/Timer_20KHz.c **** * Return:
  40:Generated_Source\PSoC5/Timer_20KHz.c **** *  void
  41:Generated_Source\PSoC5/Timer_20KHz.c **** *
  42:Generated_Source\PSoC5/Timer_20KHz.c **** *******************************************************************************/
  43:Generated_Source\PSoC5/Timer_20KHz.c **** void Timer_20KHz_Init(void) 
  44:Generated_Source\PSoC5/Timer_20KHz.c **** {
  34              		.loc 1 44 0
  35              		.cfi_startproc
  36              		@ args = 0, pretend = 0, frame = 0
  37              		@ frame_needed = 1, uses_anonymous_args = 0
  38 0000 80B5     		push	{r7, lr}
  39              		.cfi_def_cfa_offset 8
  40              		.cfi_offset 7, -8
  41              		.cfi_offset 14, -4
  42 0002 00AF     		add	r7, sp, #0
  43              		.cfi_def_cfa_register 7
  45:Generated_Source\PSoC5/Timer_20KHz.c ****     #if(!Timer_20KHz_UsingFixedFunction)
  46:Generated_Source\PSoC5/Timer_20KHz.c ****             /* Interrupt State Backup for Critical Region*/
  47:Generated_Source\PSoC5/Timer_20KHz.c ****             uint8 Timer_20KHz_interruptState;
  48:Generated_Source\PSoC5/Timer_20KHz.c ****     #endif /* Interrupt state back up for Fixed Function only */
  49:Generated_Source\PSoC5/Timer_20KHz.c **** 
  50:Generated_Source\PSoC5/Timer_20KHz.c ****     #if (Timer_20KHz_UsingFixedFunction)
  51:Generated_Source\PSoC5/Timer_20KHz.c ****         /* Clear all bits but the enable bit (if it's already set) for Timer operation */
  52:Generated_Source\PSoC5/Timer_20KHz.c ****         Timer_20KHz_CONTROL &= Timer_20KHz_CTRL_ENABLE;
  44              		.loc 1 52 0
  45 0004 224A     		ldr	r2, .L2
  46 0006 224B     		ldr	r3, .L2
  47 0008 1B78     		ldrb	r3, [r3]
  48 000a DBB2     		uxtb	r3, r3
  49 000c 03F00103 		and	r3, r3, #1
  50 0010 DBB2     		uxtb	r3, r3
  51 0012 1370     		strb	r3, [r2]
  53:Generated_Source\PSoC5/Timer_20KHz.c **** 
  54:Generated_Source\PSoC5/Timer_20KHz.c ****         /* Clear the mode bits for continuous run mode */
  55:Generated_Source\PSoC5/Timer_20KHz.c ****         #if (CY_PSOC5A)
  56:Generated_Source\PSoC5/Timer_20KHz.c ****             Timer_20KHz_CONTROL2 &= ((uint8)(~Timer_20KHz_CTRL_MODE_MASK));
  57:Generated_Source\PSoC5/Timer_20KHz.c ****         #endif /* Clear bits in CONTROL2 only in PSOC5A */
  58:Generated_Source\PSoC5/Timer_20KHz.c **** 
  59:Generated_Source\PSoC5/Timer_20KHz.c ****         #if (CY_PSOC3 || CY_PSOC5LP)
  60:Generated_Source\PSoC5/Timer_20KHz.c ****             Timer_20KHz_CONTROL3 &= ((uint8)(~Timer_20KHz_CTRL_MODE_MASK));
  52              		.loc 1 60 0
  53 0014 1F4A     		ldr	r2, .L2+4
  54 0016 1F4B     		ldr	r3, .L2+4
ARM GAS  C:\Users\THUNDE~1\AppData\Local\Temp\ccznISje.s 			page 3


  55 0018 1B78     		ldrb	r3, [r3]
  56 001a DBB2     		uxtb	r3, r3
  57 001c 23F00303 		bic	r3, r3, #3
  58 0020 DBB2     		uxtb	r3, r3
  59 0022 1370     		strb	r3, [r2]
  61:Generated_Source\PSoC5/Timer_20KHz.c ****         #endif /* CONTROL3 register exists only in PSoC3 OR PSoC5LP */
  62:Generated_Source\PSoC5/Timer_20KHz.c **** 
  63:Generated_Source\PSoC5/Timer_20KHz.c ****         /* Check if One Shot mode is enabled i.e. RunMode !=0*/
  64:Generated_Source\PSoC5/Timer_20KHz.c ****         #if (Timer_20KHz_RunModeUsed != 0x0u)
  65:Generated_Source\PSoC5/Timer_20KHz.c ****             /* Set 3rd bit of Control register to enable one shot mode */
  66:Generated_Source\PSoC5/Timer_20KHz.c ****             Timer_20KHz_CONTROL |= 0x04u;
  67:Generated_Source\PSoC5/Timer_20KHz.c ****         #endif /* One Shot enabled only when RunModeUsed is not Continuous*/
  68:Generated_Source\PSoC5/Timer_20KHz.c **** 
  69:Generated_Source\PSoC5/Timer_20KHz.c ****         #if (Timer_20KHz_RunModeUsed == 2)
  70:Generated_Source\PSoC5/Timer_20KHz.c ****             #if (CY_PSOC5A)
  71:Generated_Source\PSoC5/Timer_20KHz.c ****                 /* Set last 2 bits of control2 register if one shot(halt on
  72:Generated_Source\PSoC5/Timer_20KHz.c ****                 interrupt) is enabled*/
  73:Generated_Source\PSoC5/Timer_20KHz.c ****                 Timer_20KHz_CONTROL2 |= 0x03u;
  74:Generated_Source\PSoC5/Timer_20KHz.c ****             #endif /* Set One-Shot Halt on Interrupt bit in CONTROL2 for PSoC5A */
  75:Generated_Source\PSoC5/Timer_20KHz.c **** 
  76:Generated_Source\PSoC5/Timer_20KHz.c ****             #if (CY_PSOC3 || CY_PSOC5LP)
  77:Generated_Source\PSoC5/Timer_20KHz.c ****                 /* Set last 2 bits of control3 register if one shot(halt on
  78:Generated_Source\PSoC5/Timer_20KHz.c ****                 interrupt) is enabled*/
  79:Generated_Source\PSoC5/Timer_20KHz.c ****                 Timer_20KHz_CONTROL3 |= 0x03u;
  80:Generated_Source\PSoC5/Timer_20KHz.c ****             #endif /* Set One-Shot Halt on Interrupt bit in CONTROL3 for PSoC3 or PSoC5LP */
  81:Generated_Source\PSoC5/Timer_20KHz.c **** 
  82:Generated_Source\PSoC5/Timer_20KHz.c ****         #endif /* Remove section if One Shot Halt on Interrupt is not enabled */
  83:Generated_Source\PSoC5/Timer_20KHz.c **** 
  84:Generated_Source\PSoC5/Timer_20KHz.c ****         #if (Timer_20KHz_UsingHWEnable != 0)
  85:Generated_Source\PSoC5/Timer_20KHz.c ****             #if (CY_PSOC5A)
  86:Generated_Source\PSoC5/Timer_20KHz.c ****                 /* Set the default Run Mode of the Timer to Continuous */
  87:Generated_Source\PSoC5/Timer_20KHz.c ****                 Timer_20KHz_CONTROL2 |= Timer_20KHz_CTRL_MODE_PULSEWIDTH;
  88:Generated_Source\PSoC5/Timer_20KHz.c ****             #endif /* Set Continuous Run Mode in CONTROL2 for PSoC5A */
  89:Generated_Source\PSoC5/Timer_20KHz.c **** 
  90:Generated_Source\PSoC5/Timer_20KHz.c ****             #if (CY_PSOC3 || CY_PSOC5LP)
  91:Generated_Source\PSoC5/Timer_20KHz.c ****                 /* Clear and Set ROD and COD bits of CFG2 register */
  92:Generated_Source\PSoC5/Timer_20KHz.c ****                 Timer_20KHz_CONTROL3 &= ((uint8)(~Timer_20KHz_CTRL_RCOD_MASK));
  93:Generated_Source\PSoC5/Timer_20KHz.c ****                 Timer_20KHz_CONTROL3 |= Timer_20KHz_CTRL_RCOD;
  94:Generated_Source\PSoC5/Timer_20KHz.c **** 
  95:Generated_Source\PSoC5/Timer_20KHz.c ****                 /* Clear and Enable the HW enable bit in CFG2 register */
  96:Generated_Source\PSoC5/Timer_20KHz.c ****                 Timer_20KHz_CONTROL3 &= ((uint8)(~Timer_20KHz_CTRL_ENBL_MASK));
  97:Generated_Source\PSoC5/Timer_20KHz.c ****                 Timer_20KHz_CONTROL3 |= Timer_20KHz_CTRL_ENBL;
  98:Generated_Source\PSoC5/Timer_20KHz.c **** 
  99:Generated_Source\PSoC5/Timer_20KHz.c ****                 /* Set the default Run Mode of the Timer to Continuous */
 100:Generated_Source\PSoC5/Timer_20KHz.c ****                 Timer_20KHz_CONTROL3 |= Timer_20KHz_CTRL_MODE_CONTINUOUS;
 101:Generated_Source\PSoC5/Timer_20KHz.c ****             #endif /* Set Continuous Run Mode in CONTROL3 for PSoC3ES3 or PSoC5A */
 102:Generated_Source\PSoC5/Timer_20KHz.c **** 
 103:Generated_Source\PSoC5/Timer_20KHz.c ****         #endif /* Configure Run Mode with hardware enable */
 104:Generated_Source\PSoC5/Timer_20KHz.c **** 
 105:Generated_Source\PSoC5/Timer_20KHz.c ****         /* Clear and Set SYNCTC and SYNCCMP bits of RT1 register */
 106:Generated_Source\PSoC5/Timer_20KHz.c ****         Timer_20KHz_RT1 &= ((uint8)(~Timer_20KHz_RT1_MASK));
  60              		.loc 1 106 0
  61 0024 1C4A     		ldr	r2, .L2+8
  62 0026 1C4B     		ldr	r3, .L2+8
  63 0028 1B78     		ldrb	r3, [r3]
  64 002a DBB2     		uxtb	r3, r3
  65 002c 23F03003 		bic	r3, r3, #48
ARM GAS  C:\Users\THUNDE~1\AppData\Local\Temp\ccznISje.s 			page 4


  66 0030 DBB2     		uxtb	r3, r3
  67 0032 1370     		strb	r3, [r2]
 107:Generated_Source\PSoC5/Timer_20KHz.c ****         Timer_20KHz_RT1 |= Timer_20KHz_SYNC;
  68              		.loc 1 107 0
  69 0034 184A     		ldr	r2, .L2+8
  70 0036 184B     		ldr	r3, .L2+8
  71 0038 1B78     		ldrb	r3, [r3]
  72 003a DBB2     		uxtb	r3, r3
  73 003c 43F03003 		orr	r3, r3, #48
  74 0040 DBB2     		uxtb	r3, r3
  75 0042 1370     		strb	r3, [r2]
 108:Generated_Source\PSoC5/Timer_20KHz.c **** 
 109:Generated_Source\PSoC5/Timer_20KHz.c ****         /*Enable DSI Sync all all inputs of the Timer*/
 110:Generated_Source\PSoC5/Timer_20KHz.c ****         Timer_20KHz_RT1 &= ((uint8)(~Timer_20KHz_SYNCDSI_MASK));
  76              		.loc 1 110 0
  77 0044 144A     		ldr	r2, .L2+8
  78 0046 144B     		ldr	r3, .L2+8
  79 0048 1B78     		ldrb	r3, [r3]
  80 004a DBB2     		uxtb	r3, r3
  81 004c 23F00F03 		bic	r3, r3, #15
  82 0050 DBB2     		uxtb	r3, r3
  83 0052 1370     		strb	r3, [r2]
 111:Generated_Source\PSoC5/Timer_20KHz.c ****         Timer_20KHz_RT1 |= Timer_20KHz_SYNCDSI_EN;
  84              		.loc 1 111 0
  85 0054 104A     		ldr	r2, .L2+8
  86 0056 104B     		ldr	r3, .L2+8
  87 0058 1B78     		ldrb	r3, [r3]
  88 005a DBB2     		uxtb	r3, r3
  89 005c 43F00F03 		orr	r3, r3, #15
  90 0060 DBB2     		uxtb	r3, r3
  91 0062 1370     		strb	r3, [r2]
 112:Generated_Source\PSoC5/Timer_20KHz.c **** 
 113:Generated_Source\PSoC5/Timer_20KHz.c ****         /* Set the IRQ to use the status register interrupts */
 114:Generated_Source\PSoC5/Timer_20KHz.c ****         Timer_20KHz_CONTROL2 |= Timer_20KHz_CTRL2_IRQ_SEL;
  92              		.loc 1 114 0
  93 0064 0D4A     		ldr	r2, .L2+12
  94 0066 0D4B     		ldr	r3, .L2+12
  95 0068 1B78     		ldrb	r3, [r3]
  96 006a DBB2     		uxtb	r3, r3
  97 006c 43F00103 		orr	r3, r3, #1
  98 0070 DBB2     		uxtb	r3, r3
  99 0072 1370     		strb	r3, [r2]
 115:Generated_Source\PSoC5/Timer_20KHz.c ****     #endif /* Configuring registers of fixed function implementation */
 116:Generated_Source\PSoC5/Timer_20KHz.c **** 
 117:Generated_Source\PSoC5/Timer_20KHz.c ****     /* Set Initial values from Configuration */
 118:Generated_Source\PSoC5/Timer_20KHz.c ****     Timer_20KHz_WritePeriod(Timer_20KHz_INIT_PERIOD);
 100              		.loc 1 118 0
 101 0074 40F65F10 		movw	r0, #2399
 102 0078 FFF7FEFF 		bl	Timer_20KHz_WritePeriod
 119:Generated_Source\PSoC5/Timer_20KHz.c ****     Timer_20KHz_WriteCounter(Timer_20KHz_INIT_PERIOD);
 103              		.loc 1 119 0
 104 007c 40F65F10 		movw	r0, #2399
 105 0080 FFF7FEFF 		bl	Timer_20KHz_WriteCounter
 120:Generated_Source\PSoC5/Timer_20KHz.c **** 
 121:Generated_Source\PSoC5/Timer_20KHz.c ****     #if (Timer_20KHz_UsingHWCaptureCounter)/* Capture counter is enabled */
 122:Generated_Source\PSoC5/Timer_20KHz.c ****         Timer_20KHz_CAPTURE_COUNT_CTRL |= Timer_20KHz_CNTR_ENABLE;
 123:Generated_Source\PSoC5/Timer_20KHz.c ****         Timer_20KHz_SetCaptureCount(Timer_20KHz_INIT_CAPTURE_COUNT);
ARM GAS  C:\Users\THUNDE~1\AppData\Local\Temp\ccznISje.s 			page 5


 124:Generated_Source\PSoC5/Timer_20KHz.c ****     #endif /* Configure capture counter value */
 125:Generated_Source\PSoC5/Timer_20KHz.c **** 
 126:Generated_Source\PSoC5/Timer_20KHz.c ****     #if (!Timer_20KHz_UsingFixedFunction)
 127:Generated_Source\PSoC5/Timer_20KHz.c ****         #if (Timer_20KHz_SoftwareCaptureMode)
 128:Generated_Source\PSoC5/Timer_20KHz.c ****             Timer_20KHz_SetCaptureMode(Timer_20KHz_INIT_CAPTURE_MODE);
 129:Generated_Source\PSoC5/Timer_20KHz.c ****         #endif /* Set Capture Mode for UDB implementation if capture mode is software controlled */
 130:Generated_Source\PSoC5/Timer_20KHz.c **** 
 131:Generated_Source\PSoC5/Timer_20KHz.c ****         #if (Timer_20KHz_SoftwareTriggerMode)
 132:Generated_Source\PSoC5/Timer_20KHz.c ****             #if (!Timer_20KHz_UDB_CONTROL_REG_REMOVED)
 133:Generated_Source\PSoC5/Timer_20KHz.c ****                 if (0u == (Timer_20KHz_CONTROL & Timer_20KHz__B_TIMER__TM_SOFTWARE))
 134:Generated_Source\PSoC5/Timer_20KHz.c ****                 {
 135:Generated_Source\PSoC5/Timer_20KHz.c ****                     Timer_20KHz_SetTriggerMode(Timer_20KHz_INIT_TRIGGER_MODE);
 136:Generated_Source\PSoC5/Timer_20KHz.c ****                 }
 137:Generated_Source\PSoC5/Timer_20KHz.c ****             #endif /* (!Timer_20KHz_UDB_CONTROL_REG_REMOVED) */
 138:Generated_Source\PSoC5/Timer_20KHz.c ****         #endif /* Set trigger mode for UDB Implementation if trigger mode is software controlled */
 139:Generated_Source\PSoC5/Timer_20KHz.c **** 
 140:Generated_Source\PSoC5/Timer_20KHz.c ****         /* CyEnterCriticalRegion and CyExitCriticalRegion are used to mark following region critica
 141:Generated_Source\PSoC5/Timer_20KHz.c ****         /* Enter Critical Region*/
 142:Generated_Source\PSoC5/Timer_20KHz.c ****         Timer_20KHz_interruptState = CyEnterCriticalSection();
 143:Generated_Source\PSoC5/Timer_20KHz.c **** 
 144:Generated_Source\PSoC5/Timer_20KHz.c ****         /* Use the interrupt output of the status register for IRQ output */
 145:Generated_Source\PSoC5/Timer_20KHz.c ****         Timer_20KHz_STATUS_AUX_CTRL |= Timer_20KHz_STATUS_ACTL_INT_EN_MASK;
 146:Generated_Source\PSoC5/Timer_20KHz.c **** 
 147:Generated_Source\PSoC5/Timer_20KHz.c ****         /* Exit Critical Region*/
 148:Generated_Source\PSoC5/Timer_20KHz.c ****         CyExitCriticalSection(Timer_20KHz_interruptState);
 149:Generated_Source\PSoC5/Timer_20KHz.c **** 
 150:Generated_Source\PSoC5/Timer_20KHz.c ****         #if (Timer_20KHz_EnableTriggerMode)
 151:Generated_Source\PSoC5/Timer_20KHz.c ****             Timer_20KHz_EnableTrigger();
 152:Generated_Source\PSoC5/Timer_20KHz.c ****         #endif /* Set Trigger enable bit for UDB implementation in the control register*/
 153:Generated_Source\PSoC5/Timer_20KHz.c **** 		
 154:Generated_Source\PSoC5/Timer_20KHz.c **** 		
 155:Generated_Source\PSoC5/Timer_20KHz.c ****         #if (Timer_20KHz_InterruptOnCaptureCount && !Timer_20KHz_UDB_CONTROL_REG_REMOVED)
 156:Generated_Source\PSoC5/Timer_20KHz.c ****             Timer_20KHz_SetInterruptCount(Timer_20KHz_INIT_INT_CAPTURE_COUNT);
 157:Generated_Source\PSoC5/Timer_20KHz.c ****         #endif /* Set interrupt count in UDB implementation if interrupt count feature is checked.*
 158:Generated_Source\PSoC5/Timer_20KHz.c **** 
 159:Generated_Source\PSoC5/Timer_20KHz.c ****         Timer_20KHz_ClearFIFO();
 160:Generated_Source\PSoC5/Timer_20KHz.c ****     #endif /* Configure additional features of UDB implementation */
 161:Generated_Source\PSoC5/Timer_20KHz.c **** 
 162:Generated_Source\PSoC5/Timer_20KHz.c ****     Timer_20KHz_SetInterruptMode(Timer_20KHz_INIT_INTERRUPT_MODE);
 106              		.loc 1 162 0
 107 0084 0020     		movs	r0, #0
 108 0086 FFF7FEFF 		bl	Timer_20KHz_SetInterruptMode
 163:Generated_Source\PSoC5/Timer_20KHz.c **** }
 109              		.loc 1 163 0
 110 008a 00BF     		nop
 111 008c 80BD     		pop	{r7, pc}
 112              	.L3:
 113 008e 00BF     		.align	2
 114              	.L2:
 115 0090 004F0040 		.word	1073762048
 116 0094 024F0040 		.word	1073762050
 117 0098 0B4F0040 		.word	1073762059
 118 009c 014F0040 		.word	1073762049
 119              		.cfi_endproc
 120              	.LFE0:
 121              		.size	Timer_20KHz_Init, .-Timer_20KHz_Init
 122              		.section	.text.Timer_20KHz_Enable,"ax",%progbits
ARM GAS  C:\Users\THUNDE~1\AppData\Local\Temp\ccznISje.s 			page 6


 123              		.align	2
 124              		.global	Timer_20KHz_Enable
 125              		.thumb
 126              		.thumb_func
 127              		.type	Timer_20KHz_Enable, %function
 128              	Timer_20KHz_Enable:
 129              	.LFB1:
 164:Generated_Source\PSoC5/Timer_20KHz.c **** 
 165:Generated_Source\PSoC5/Timer_20KHz.c **** 
 166:Generated_Source\PSoC5/Timer_20KHz.c **** /*******************************************************************************
 167:Generated_Source\PSoC5/Timer_20KHz.c **** * Function Name: Timer_20KHz_Enable
 168:Generated_Source\PSoC5/Timer_20KHz.c **** ********************************************************************************
 169:Generated_Source\PSoC5/Timer_20KHz.c **** *
 170:Generated_Source\PSoC5/Timer_20KHz.c **** * Summary:
 171:Generated_Source\PSoC5/Timer_20KHz.c **** *  Enable the Timer
 172:Generated_Source\PSoC5/Timer_20KHz.c **** *
 173:Generated_Source\PSoC5/Timer_20KHz.c **** * Parameters:
 174:Generated_Source\PSoC5/Timer_20KHz.c **** *  void
 175:Generated_Source\PSoC5/Timer_20KHz.c **** *
 176:Generated_Source\PSoC5/Timer_20KHz.c **** * Return:
 177:Generated_Source\PSoC5/Timer_20KHz.c **** *  void
 178:Generated_Source\PSoC5/Timer_20KHz.c **** *
 179:Generated_Source\PSoC5/Timer_20KHz.c **** *******************************************************************************/
 180:Generated_Source\PSoC5/Timer_20KHz.c **** void Timer_20KHz_Enable(void) 
 181:Generated_Source\PSoC5/Timer_20KHz.c **** {
 130              		.loc 1 181 0
 131              		.cfi_startproc
 132              		@ args = 0, pretend = 0, frame = 0
 133              		@ frame_needed = 1, uses_anonymous_args = 0
 134              		@ link register save eliminated.
 135 0000 80B4     		push	{r7}
 136              		.cfi_def_cfa_offset 4
 137              		.cfi_offset 7, -4
 138 0002 00AF     		add	r7, sp, #0
 139              		.cfi_def_cfa_register 7
 182:Generated_Source\PSoC5/Timer_20KHz.c ****     /* Globally Enable the Fixed Function Block chosen */
 183:Generated_Source\PSoC5/Timer_20KHz.c ****     #if (Timer_20KHz_UsingFixedFunction)
 184:Generated_Source\PSoC5/Timer_20KHz.c ****         Timer_20KHz_GLOBAL_ENABLE |= Timer_20KHz_BLOCK_EN_MASK;
 140              		.loc 1 184 0
 141 0004 0D4A     		ldr	r2, .L5
 142 0006 0D4B     		ldr	r3, .L5
 143 0008 1B78     		ldrb	r3, [r3]
 144 000a DBB2     		uxtb	r3, r3
 145 000c 43F00103 		orr	r3, r3, #1
 146 0010 DBB2     		uxtb	r3, r3
 147 0012 1370     		strb	r3, [r2]
 185:Generated_Source\PSoC5/Timer_20KHz.c ****         Timer_20KHz_GLOBAL_STBY_ENABLE |= Timer_20KHz_BLOCK_STBY_EN_MASK;
 148              		.loc 1 185 0
 149 0014 0A4A     		ldr	r2, .L5+4
 150 0016 0A4B     		ldr	r3, .L5+4
 151 0018 1B78     		ldrb	r3, [r3]
 152 001a DBB2     		uxtb	r3, r3
 153 001c 43F00103 		orr	r3, r3, #1
 154 0020 DBB2     		uxtb	r3, r3
 155 0022 1370     		strb	r3, [r2]
 186:Generated_Source\PSoC5/Timer_20KHz.c ****     #endif /* Set Enable bit for enabling Fixed function timer*/
 187:Generated_Source\PSoC5/Timer_20KHz.c **** 
ARM GAS  C:\Users\THUNDE~1\AppData\Local\Temp\ccznISje.s 			page 7


 188:Generated_Source\PSoC5/Timer_20KHz.c ****     /* Remove assignment if control register is removed */
 189:Generated_Source\PSoC5/Timer_20KHz.c ****     #if (!Timer_20KHz_UDB_CONTROL_REG_REMOVED || Timer_20KHz_UsingFixedFunction)
 190:Generated_Source\PSoC5/Timer_20KHz.c ****         Timer_20KHz_CONTROL |= Timer_20KHz_CTRL_ENABLE;
 156              		.loc 1 190 0
 157 0024 074A     		ldr	r2, .L5+8
 158 0026 074B     		ldr	r3, .L5+8
 159 0028 1B78     		ldrb	r3, [r3]
 160 002a DBB2     		uxtb	r3, r3
 161 002c 43F00103 		orr	r3, r3, #1
 162 0030 DBB2     		uxtb	r3, r3
 163 0032 1370     		strb	r3, [r2]
 191:Generated_Source\PSoC5/Timer_20KHz.c ****     #endif /* Remove assignment if control register is removed */
 192:Generated_Source\PSoC5/Timer_20KHz.c **** }
 164              		.loc 1 192 0
 165 0034 00BF     		nop
 166 0036 BD46     		mov	sp, r7
 167              		.cfi_def_cfa_register 13
 168              		@ sp needed
 169 0038 80BC     		pop	{r7}
 170              		.cfi_restore 7
 171              		.cfi_def_cfa_offset 0
 172 003a 7047     		bx	lr
 173              	.L6:
 174              		.align	2
 175              	.L5:
 176 003c A3430040 		.word	1073759139
 177 0040 B3430040 		.word	1073759155
 178 0044 004F0040 		.word	1073762048
 179              		.cfi_endproc
 180              	.LFE1:
 181              		.size	Timer_20KHz_Enable, .-Timer_20KHz_Enable
 182              		.section	.text.Timer_20KHz_Start,"ax",%progbits
 183              		.align	2
 184              		.global	Timer_20KHz_Start
 185              		.thumb
 186              		.thumb_func
 187              		.type	Timer_20KHz_Start, %function
 188              	Timer_20KHz_Start:
 189              	.LFB2:
 193:Generated_Source\PSoC5/Timer_20KHz.c **** 
 194:Generated_Source\PSoC5/Timer_20KHz.c **** 
 195:Generated_Source\PSoC5/Timer_20KHz.c **** /*******************************************************************************
 196:Generated_Source\PSoC5/Timer_20KHz.c **** * Function Name: Timer_20KHz_Start
 197:Generated_Source\PSoC5/Timer_20KHz.c **** ********************************************************************************
 198:Generated_Source\PSoC5/Timer_20KHz.c **** *
 199:Generated_Source\PSoC5/Timer_20KHz.c **** * Summary:
 200:Generated_Source\PSoC5/Timer_20KHz.c **** *  The start function initializes the timer with the default values, the
 201:Generated_Source\PSoC5/Timer_20KHz.c **** *  enables the timerto begin counting.  It does not enable interrupts,
 202:Generated_Source\PSoC5/Timer_20KHz.c **** *  the EnableInt command should be called if interrupt generation is required.
 203:Generated_Source\PSoC5/Timer_20KHz.c **** *
 204:Generated_Source\PSoC5/Timer_20KHz.c **** * Parameters:
 205:Generated_Source\PSoC5/Timer_20KHz.c **** *  void
 206:Generated_Source\PSoC5/Timer_20KHz.c **** *
 207:Generated_Source\PSoC5/Timer_20KHz.c **** * Return:
 208:Generated_Source\PSoC5/Timer_20KHz.c **** *  void
 209:Generated_Source\PSoC5/Timer_20KHz.c **** *
 210:Generated_Source\PSoC5/Timer_20KHz.c **** * Global variables:
ARM GAS  C:\Users\THUNDE~1\AppData\Local\Temp\ccznISje.s 			page 8


 211:Generated_Source\PSoC5/Timer_20KHz.c **** *  Timer_20KHz_initVar: Is modified when this function is called for the
 212:Generated_Source\PSoC5/Timer_20KHz.c **** *   first time. Is used to ensure that initialization happens only once.
 213:Generated_Source\PSoC5/Timer_20KHz.c **** *
 214:Generated_Source\PSoC5/Timer_20KHz.c **** *******************************************************************************/
 215:Generated_Source\PSoC5/Timer_20KHz.c **** void Timer_20KHz_Start(void) 
 216:Generated_Source\PSoC5/Timer_20KHz.c **** {
 190              		.loc 1 216 0
 191              		.cfi_startproc
 192              		@ args = 0, pretend = 0, frame = 0
 193              		@ frame_needed = 1, uses_anonymous_args = 0
 194 0000 80B5     		push	{r7, lr}
 195              		.cfi_def_cfa_offset 8
 196              		.cfi_offset 7, -8
 197              		.cfi_offset 14, -4
 198 0002 00AF     		add	r7, sp, #0
 199              		.cfi_def_cfa_register 7
 217:Generated_Source\PSoC5/Timer_20KHz.c ****     if(Timer_20KHz_initVar == 0u)
 200              		.loc 1 217 0
 201 0004 064B     		ldr	r3, .L9
 202 0006 1B78     		ldrb	r3, [r3]	@ zero_extendqisi2
 203 0008 002B     		cmp	r3, #0
 204 000a 04D1     		bne	.L8
 218:Generated_Source\PSoC5/Timer_20KHz.c ****     {
 219:Generated_Source\PSoC5/Timer_20KHz.c ****         Timer_20KHz_Init();
 205              		.loc 1 219 0
 206 000c FFF7FEFF 		bl	Timer_20KHz_Init
 220:Generated_Source\PSoC5/Timer_20KHz.c **** 
 221:Generated_Source\PSoC5/Timer_20KHz.c ****         Timer_20KHz_initVar = 1u;   /* Clear this bit for Initialization */
 207              		.loc 1 221 0
 208 0010 034B     		ldr	r3, .L9
 209 0012 0122     		movs	r2, #1
 210 0014 1A70     		strb	r2, [r3]
 211              	.L8:
 222:Generated_Source\PSoC5/Timer_20KHz.c ****     }
 223:Generated_Source\PSoC5/Timer_20KHz.c **** 
 224:Generated_Source\PSoC5/Timer_20KHz.c ****     /* Enable the Timer */
 225:Generated_Source\PSoC5/Timer_20KHz.c ****     Timer_20KHz_Enable();
 212              		.loc 1 225 0
 213 0016 FFF7FEFF 		bl	Timer_20KHz_Enable
 226:Generated_Source\PSoC5/Timer_20KHz.c **** }
 214              		.loc 1 226 0
 215 001a 00BF     		nop
 216 001c 80BD     		pop	{r7, pc}
 217              	.L10:
 218 001e 00BF     		.align	2
 219              	.L9:
 220 0020 00000000 		.word	Timer_20KHz_initVar
 221              		.cfi_endproc
 222              	.LFE2:
 223              		.size	Timer_20KHz_Start, .-Timer_20KHz_Start
 224              		.section	.text.Timer_20KHz_Stop,"ax",%progbits
 225              		.align	2
 226              		.global	Timer_20KHz_Stop
 227              		.thumb
 228              		.thumb_func
 229              		.type	Timer_20KHz_Stop, %function
 230              	Timer_20KHz_Stop:
ARM GAS  C:\Users\THUNDE~1\AppData\Local\Temp\ccznISje.s 			page 9


 231              	.LFB3:
 227:Generated_Source\PSoC5/Timer_20KHz.c **** 
 228:Generated_Source\PSoC5/Timer_20KHz.c **** 
 229:Generated_Source\PSoC5/Timer_20KHz.c **** /*******************************************************************************
 230:Generated_Source\PSoC5/Timer_20KHz.c **** * Function Name: Timer_20KHz_Stop
 231:Generated_Source\PSoC5/Timer_20KHz.c **** ********************************************************************************
 232:Generated_Source\PSoC5/Timer_20KHz.c **** *
 233:Generated_Source\PSoC5/Timer_20KHz.c **** * Summary:
 234:Generated_Source\PSoC5/Timer_20KHz.c **** *  The stop function halts the timer, but does not change any modes or disable
 235:Generated_Source\PSoC5/Timer_20KHz.c **** *  interrupts.
 236:Generated_Source\PSoC5/Timer_20KHz.c **** *
 237:Generated_Source\PSoC5/Timer_20KHz.c **** * Parameters:
 238:Generated_Source\PSoC5/Timer_20KHz.c **** *  void
 239:Generated_Source\PSoC5/Timer_20KHz.c **** *
 240:Generated_Source\PSoC5/Timer_20KHz.c **** * Return:
 241:Generated_Source\PSoC5/Timer_20KHz.c **** *  void
 242:Generated_Source\PSoC5/Timer_20KHz.c **** *
 243:Generated_Source\PSoC5/Timer_20KHz.c **** * Side Effects: If the Enable mode is set to Hardware only then this function
 244:Generated_Source\PSoC5/Timer_20KHz.c **** *               has no effect on the operation of the timer.
 245:Generated_Source\PSoC5/Timer_20KHz.c **** *
 246:Generated_Source\PSoC5/Timer_20KHz.c **** *******************************************************************************/
 247:Generated_Source\PSoC5/Timer_20KHz.c **** void Timer_20KHz_Stop(void) 
 248:Generated_Source\PSoC5/Timer_20KHz.c **** {
 232              		.loc 1 248 0
 233              		.cfi_startproc
 234              		@ args = 0, pretend = 0, frame = 0
 235              		@ frame_needed = 1, uses_anonymous_args = 0
 236              		@ link register save eliminated.
 237 0000 80B4     		push	{r7}
 238              		.cfi_def_cfa_offset 4
 239              		.cfi_offset 7, -4
 240 0002 00AF     		add	r7, sp, #0
 241              		.cfi_def_cfa_register 7
 249:Generated_Source\PSoC5/Timer_20KHz.c ****     /* Disable Timer */
 250:Generated_Source\PSoC5/Timer_20KHz.c ****     #if(!Timer_20KHz_UDB_CONTROL_REG_REMOVED || Timer_20KHz_UsingFixedFunction)
 251:Generated_Source\PSoC5/Timer_20KHz.c ****         Timer_20KHz_CONTROL &= ((uint8)(~Timer_20KHz_CTRL_ENABLE));
 242              		.loc 1 251 0
 243 0004 0D4A     		ldr	r2, .L12
 244 0006 0D4B     		ldr	r3, .L12
 245 0008 1B78     		ldrb	r3, [r3]
 246 000a DBB2     		uxtb	r3, r3
 247 000c 23F00103 		bic	r3, r3, #1
 248 0010 DBB2     		uxtb	r3, r3
 249 0012 1370     		strb	r3, [r2]
 252:Generated_Source\PSoC5/Timer_20KHz.c ****     #endif /* Remove assignment if control register is removed */
 253:Generated_Source\PSoC5/Timer_20KHz.c **** 
 254:Generated_Source\PSoC5/Timer_20KHz.c ****     /* Globally disable the Fixed Function Block chosen */
 255:Generated_Source\PSoC5/Timer_20KHz.c ****     #if (Timer_20KHz_UsingFixedFunction)
 256:Generated_Source\PSoC5/Timer_20KHz.c ****         Timer_20KHz_GLOBAL_ENABLE &= ((uint8)(~Timer_20KHz_BLOCK_EN_MASK));
 250              		.loc 1 256 0
 251 0014 0A4A     		ldr	r2, .L12+4
 252 0016 0A4B     		ldr	r3, .L12+4
 253 0018 1B78     		ldrb	r3, [r3]
 254 001a DBB2     		uxtb	r3, r3
 255 001c 23F00103 		bic	r3, r3, #1
 256 0020 DBB2     		uxtb	r3, r3
 257 0022 1370     		strb	r3, [r2]
ARM GAS  C:\Users\THUNDE~1\AppData\Local\Temp\ccznISje.s 			page 10


 257:Generated_Source\PSoC5/Timer_20KHz.c ****         Timer_20KHz_GLOBAL_STBY_ENABLE &= ((uint8)(~Timer_20KHz_BLOCK_STBY_EN_MASK));
 258              		.loc 1 257 0
 259 0024 074A     		ldr	r2, .L12+8
 260 0026 074B     		ldr	r3, .L12+8
 261 0028 1B78     		ldrb	r3, [r3]
 262 002a DBB2     		uxtb	r3, r3
 263 002c 23F00103 		bic	r3, r3, #1
 264 0030 DBB2     		uxtb	r3, r3
 265 0032 1370     		strb	r3, [r2]
 258:Generated_Source\PSoC5/Timer_20KHz.c ****     #endif /* Disable global enable for the Timer Fixed function block to stop the Timer*/
 259:Generated_Source\PSoC5/Timer_20KHz.c **** }
 266              		.loc 1 259 0
 267 0034 00BF     		nop
 268 0036 BD46     		mov	sp, r7
 269              		.cfi_def_cfa_register 13
 270              		@ sp needed
 271 0038 80BC     		pop	{r7}
 272              		.cfi_restore 7
 273              		.cfi_def_cfa_offset 0
 274 003a 7047     		bx	lr
 275              	.L13:
 276              		.align	2
 277              	.L12:
 278 003c 004F0040 		.word	1073762048
 279 0040 A3430040 		.word	1073759139
 280 0044 B3430040 		.word	1073759155
 281              		.cfi_endproc
 282              	.LFE3:
 283              		.size	Timer_20KHz_Stop, .-Timer_20KHz_Stop
 284              		.section	.text.Timer_20KHz_SetInterruptMode,"ax",%progbits
 285              		.align	2
 286              		.global	Timer_20KHz_SetInterruptMode
 287              		.thumb
 288              		.thumb_func
 289              		.type	Timer_20KHz_SetInterruptMode, %function
 290              	Timer_20KHz_SetInterruptMode:
 291              	.LFB4:
 260:Generated_Source\PSoC5/Timer_20KHz.c **** 
 261:Generated_Source\PSoC5/Timer_20KHz.c **** 
 262:Generated_Source\PSoC5/Timer_20KHz.c **** /*******************************************************************************
 263:Generated_Source\PSoC5/Timer_20KHz.c **** * Function Name: Timer_20KHz_SetInterruptMode
 264:Generated_Source\PSoC5/Timer_20KHz.c **** ********************************************************************************
 265:Generated_Source\PSoC5/Timer_20KHz.c **** *
 266:Generated_Source\PSoC5/Timer_20KHz.c **** * Summary:
 267:Generated_Source\PSoC5/Timer_20KHz.c **** *  This function selects which of the interrupt inputs may cause an interrupt.
 268:Generated_Source\PSoC5/Timer_20KHz.c **** *  The twosources are caputure and terminal.  One, both or neither may
 269:Generated_Source\PSoC5/Timer_20KHz.c **** *  be selected.
 270:Generated_Source\PSoC5/Timer_20KHz.c **** *
 271:Generated_Source\PSoC5/Timer_20KHz.c **** * Parameters:
 272:Generated_Source\PSoC5/Timer_20KHz.c **** *  interruptMode:   This parameter is used to enable interrups on either/or
 273:Generated_Source\PSoC5/Timer_20KHz.c **** *                   terminal count or capture.
 274:Generated_Source\PSoC5/Timer_20KHz.c **** *
 275:Generated_Source\PSoC5/Timer_20KHz.c **** * Return:
 276:Generated_Source\PSoC5/Timer_20KHz.c **** *  void
 277:Generated_Source\PSoC5/Timer_20KHz.c **** *
 278:Generated_Source\PSoC5/Timer_20KHz.c **** *******************************************************************************/
 279:Generated_Source\PSoC5/Timer_20KHz.c **** void Timer_20KHz_SetInterruptMode(uint8 interruptMode) 
ARM GAS  C:\Users\THUNDE~1\AppData\Local\Temp\ccznISje.s 			page 11


 280:Generated_Source\PSoC5/Timer_20KHz.c **** {
 292              		.loc 1 280 0
 293              		.cfi_startproc
 294              		@ args = 0, pretend = 0, frame = 8
 295              		@ frame_needed = 1, uses_anonymous_args = 0
 296              		@ link register save eliminated.
 297 0000 80B4     		push	{r7}
 298              		.cfi_def_cfa_offset 4
 299              		.cfi_offset 7, -4
 300 0002 83B0     		sub	sp, sp, #12
 301              		.cfi_def_cfa_offset 16
 302 0004 00AF     		add	r7, sp, #0
 303              		.cfi_def_cfa_register 7
 304 0006 0346     		mov	r3, r0
 305 0008 FB71     		strb	r3, [r7, #7]
 281:Generated_Source\PSoC5/Timer_20KHz.c ****     Timer_20KHz_STATUS_MASK = interruptMode;
 306              		.loc 1 281 0
 307 000a 044A     		ldr	r2, .L15
 308 000c FB79     		ldrb	r3, [r7, #7]
 309 000e 1370     		strb	r3, [r2]
 282:Generated_Source\PSoC5/Timer_20KHz.c **** }
 310              		.loc 1 282 0
 311 0010 00BF     		nop
 312 0012 0C37     		adds	r7, r7, #12
 313              		.cfi_def_cfa_offset 4
 314 0014 BD46     		mov	sp, r7
 315              		.cfi_def_cfa_register 13
 316              		@ sp needed
 317 0016 80BC     		pop	{r7}
 318              		.cfi_restore 7
 319              		.cfi_def_cfa_offset 0
 320 0018 7047     		bx	lr
 321              	.L16:
 322 001a 00BF     		.align	2
 323              	.L15:
 324 001c 034F0040 		.word	1073762051
 325              		.cfi_endproc
 326              	.LFE4:
 327              		.size	Timer_20KHz_SetInterruptMode, .-Timer_20KHz_SetInterruptMode
 328              		.section	.text.Timer_20KHz_SoftwareCapture,"ax",%progbits
 329              		.align	2
 330              		.global	Timer_20KHz_SoftwareCapture
 331              		.thumb
 332              		.thumb_func
 333              		.type	Timer_20KHz_SoftwareCapture, %function
 334              	Timer_20KHz_SoftwareCapture:
 335              	.LFB5:
 283:Generated_Source\PSoC5/Timer_20KHz.c **** 
 284:Generated_Source\PSoC5/Timer_20KHz.c **** 
 285:Generated_Source\PSoC5/Timer_20KHz.c **** /*******************************************************************************
 286:Generated_Source\PSoC5/Timer_20KHz.c **** * Function Name: Timer_20KHz_SoftwareCapture
 287:Generated_Source\PSoC5/Timer_20KHz.c **** ********************************************************************************
 288:Generated_Source\PSoC5/Timer_20KHz.c **** *
 289:Generated_Source\PSoC5/Timer_20KHz.c **** * Summary:
 290:Generated_Source\PSoC5/Timer_20KHz.c **** *  This function forces a capture independent of the capture signal.
 291:Generated_Source\PSoC5/Timer_20KHz.c **** *
 292:Generated_Source\PSoC5/Timer_20KHz.c **** * Parameters:
ARM GAS  C:\Users\THUNDE~1\AppData\Local\Temp\ccznISje.s 			page 12


 293:Generated_Source\PSoC5/Timer_20KHz.c **** *  void
 294:Generated_Source\PSoC5/Timer_20KHz.c **** *
 295:Generated_Source\PSoC5/Timer_20KHz.c **** * Return:
 296:Generated_Source\PSoC5/Timer_20KHz.c **** *  void
 297:Generated_Source\PSoC5/Timer_20KHz.c **** *
 298:Generated_Source\PSoC5/Timer_20KHz.c **** * Side Effects:
 299:Generated_Source\PSoC5/Timer_20KHz.c **** *  An existing hardware capture could be overwritten.
 300:Generated_Source\PSoC5/Timer_20KHz.c **** *
 301:Generated_Source\PSoC5/Timer_20KHz.c **** *******************************************************************************/
 302:Generated_Source\PSoC5/Timer_20KHz.c **** void Timer_20KHz_SoftwareCapture(void) 
 303:Generated_Source\PSoC5/Timer_20KHz.c **** {
 336              		.loc 1 303 0
 337              		.cfi_startproc
 338              		@ args = 0, pretend = 0, frame = 0
 339              		@ frame_needed = 1, uses_anonymous_args = 0
 340              		@ link register save eliminated.
 341 0000 80B4     		push	{r7}
 342              		.cfi_def_cfa_offset 4
 343              		.cfi_offset 7, -4
 344 0002 00AF     		add	r7, sp, #0
 345              		.cfi_def_cfa_register 7
 304:Generated_Source\PSoC5/Timer_20KHz.c ****     /* Generate a software capture by reading the counter register */
 305:Generated_Source\PSoC5/Timer_20KHz.c ****     #if(Timer_20KHz_UsingFixedFunction)
 306:Generated_Source\PSoC5/Timer_20KHz.c ****         (void)CY_GET_REG16(Timer_20KHz_COUNTER_LSB_PTR);
 346              		.loc 1 306 0
 347 0004 024B     		ldr	r3, .L18
 348 0006 1B88     		ldrh	r3, [r3]	@ movhi
 307:Generated_Source\PSoC5/Timer_20KHz.c ****     #else
 308:Generated_Source\PSoC5/Timer_20KHz.c ****         (void)CY_GET_REG8(Timer_20KHz_COUNTER_LSB_PTR_8BIT);
 309:Generated_Source\PSoC5/Timer_20KHz.c ****     #endif/* (Timer_20KHz_UsingFixedFunction) */
 310:Generated_Source\PSoC5/Timer_20KHz.c ****     /* Capture Data is now in the FIFO */
 311:Generated_Source\PSoC5/Timer_20KHz.c **** }
 349              		.loc 1 311 0
 350 0008 00BF     		nop
 351 000a BD46     		mov	sp, r7
 352              		.cfi_def_cfa_register 13
 353              		@ sp needed
 354 000c 80BC     		pop	{r7}
 355              		.cfi_restore 7
 356              		.cfi_def_cfa_offset 0
 357 000e 7047     		bx	lr
 358              	.L19:
 359              		.align	2
 360              	.L18:
 361 0010 064F0040 		.word	1073762054
 362              		.cfi_endproc
 363              	.LFE5:
 364              		.size	Timer_20KHz_SoftwareCapture, .-Timer_20KHz_SoftwareCapture
 365              		.section	.text.Timer_20KHz_ReadStatusRegister,"ax",%progbits
 366              		.align	2
 367              		.global	Timer_20KHz_ReadStatusRegister
 368              		.thumb
 369              		.thumb_func
 370              		.type	Timer_20KHz_ReadStatusRegister, %function
 371              	Timer_20KHz_ReadStatusRegister:
 372              	.LFB6:
 312:Generated_Source\PSoC5/Timer_20KHz.c **** 
ARM GAS  C:\Users\THUNDE~1\AppData\Local\Temp\ccznISje.s 			page 13


 313:Generated_Source\PSoC5/Timer_20KHz.c **** 
 314:Generated_Source\PSoC5/Timer_20KHz.c **** /*******************************************************************************
 315:Generated_Source\PSoC5/Timer_20KHz.c **** * Function Name: Timer_20KHz_ReadStatusRegister
 316:Generated_Source\PSoC5/Timer_20KHz.c **** ********************************************************************************
 317:Generated_Source\PSoC5/Timer_20KHz.c **** *
 318:Generated_Source\PSoC5/Timer_20KHz.c **** * Summary:
 319:Generated_Source\PSoC5/Timer_20KHz.c **** *  Reads the status register and returns it's state. This function should use
 320:Generated_Source\PSoC5/Timer_20KHz.c **** *  defined types for the bit-field information as the bits in this register may
 321:Generated_Source\PSoC5/Timer_20KHz.c **** *  be permuteable.
 322:Generated_Source\PSoC5/Timer_20KHz.c **** *
 323:Generated_Source\PSoC5/Timer_20KHz.c **** * Parameters:
 324:Generated_Source\PSoC5/Timer_20KHz.c **** *  void
 325:Generated_Source\PSoC5/Timer_20KHz.c **** *
 326:Generated_Source\PSoC5/Timer_20KHz.c **** * Return:
 327:Generated_Source\PSoC5/Timer_20KHz.c **** *  The contents of the status register
 328:Generated_Source\PSoC5/Timer_20KHz.c **** *
 329:Generated_Source\PSoC5/Timer_20KHz.c **** * Side Effects:
 330:Generated_Source\PSoC5/Timer_20KHz.c **** *  Status register bits may be clear on read.
 331:Generated_Source\PSoC5/Timer_20KHz.c **** *
 332:Generated_Source\PSoC5/Timer_20KHz.c **** *******************************************************************************/
 333:Generated_Source\PSoC5/Timer_20KHz.c **** uint8   Timer_20KHz_ReadStatusRegister(void) 
 334:Generated_Source\PSoC5/Timer_20KHz.c **** {
 373              		.loc 1 334 0
 374              		.cfi_startproc
 375              		@ args = 0, pretend = 0, frame = 0
 376              		@ frame_needed = 1, uses_anonymous_args = 0
 377              		@ link register save eliminated.
 378 0000 80B4     		push	{r7}
 379              		.cfi_def_cfa_offset 4
 380              		.cfi_offset 7, -4
 381 0002 00AF     		add	r7, sp, #0
 382              		.cfi_def_cfa_register 7
 335:Generated_Source\PSoC5/Timer_20KHz.c ****     return (Timer_20KHz_STATUS);
 383              		.loc 1 335 0
 384 0004 034B     		ldr	r3, .L22
 385 0006 1B78     		ldrb	r3, [r3]
 386 0008 DBB2     		uxtb	r3, r3
 336:Generated_Source\PSoC5/Timer_20KHz.c **** }
 387              		.loc 1 336 0
 388 000a 1846     		mov	r0, r3
 389 000c BD46     		mov	sp, r7
 390              		.cfi_def_cfa_register 13
 391              		@ sp needed
 392 000e 80BC     		pop	{r7}
 393              		.cfi_restore 7
 394              		.cfi_def_cfa_offset 0
 395 0010 7047     		bx	lr
 396              	.L23:
 397 0012 00BF     		.align	2
 398              	.L22:
 399 0014 034F0040 		.word	1073762051
 400              		.cfi_endproc
 401              	.LFE6:
 402              		.size	Timer_20KHz_ReadStatusRegister, .-Timer_20KHz_ReadStatusRegister
 403              		.section	.text.Timer_20KHz_ReadControlRegister,"ax",%progbits
 404              		.align	2
 405              		.global	Timer_20KHz_ReadControlRegister
ARM GAS  C:\Users\THUNDE~1\AppData\Local\Temp\ccznISje.s 			page 14


 406              		.thumb
 407              		.thumb_func
 408              		.type	Timer_20KHz_ReadControlRegister, %function
 409              	Timer_20KHz_ReadControlRegister:
 410              	.LFB7:
 337:Generated_Source\PSoC5/Timer_20KHz.c **** 
 338:Generated_Source\PSoC5/Timer_20KHz.c **** 
 339:Generated_Source\PSoC5/Timer_20KHz.c **** #if (!Timer_20KHz_UDB_CONTROL_REG_REMOVED) /* Remove API if control register is unused */
 340:Generated_Source\PSoC5/Timer_20KHz.c **** 
 341:Generated_Source\PSoC5/Timer_20KHz.c **** 
 342:Generated_Source\PSoC5/Timer_20KHz.c **** /*******************************************************************************
 343:Generated_Source\PSoC5/Timer_20KHz.c **** * Function Name: Timer_20KHz_ReadControlRegister
 344:Generated_Source\PSoC5/Timer_20KHz.c **** ********************************************************************************
 345:Generated_Source\PSoC5/Timer_20KHz.c **** *
 346:Generated_Source\PSoC5/Timer_20KHz.c **** * Summary:
 347:Generated_Source\PSoC5/Timer_20KHz.c **** *  Reads the control register and returns it's value.
 348:Generated_Source\PSoC5/Timer_20KHz.c **** *
 349:Generated_Source\PSoC5/Timer_20KHz.c **** * Parameters:
 350:Generated_Source\PSoC5/Timer_20KHz.c **** *  void
 351:Generated_Source\PSoC5/Timer_20KHz.c **** *
 352:Generated_Source\PSoC5/Timer_20KHz.c **** * Return:
 353:Generated_Source\PSoC5/Timer_20KHz.c **** *  The contents of the control register
 354:Generated_Source\PSoC5/Timer_20KHz.c **** *
 355:Generated_Source\PSoC5/Timer_20KHz.c **** *******************************************************************************/
 356:Generated_Source\PSoC5/Timer_20KHz.c **** uint8 Timer_20KHz_ReadControlRegister(void) 
 357:Generated_Source\PSoC5/Timer_20KHz.c **** {
 411              		.loc 1 357 0
 412              		.cfi_startproc
 413              		@ args = 0, pretend = 0, frame = 0
 414              		@ frame_needed = 1, uses_anonymous_args = 0
 415              		@ link register save eliminated.
 416 0000 80B4     		push	{r7}
 417              		.cfi_def_cfa_offset 4
 418              		.cfi_offset 7, -4
 419 0002 00AF     		add	r7, sp, #0
 420              		.cfi_def_cfa_register 7
 358:Generated_Source\PSoC5/Timer_20KHz.c ****     #if (!Timer_20KHz_UDB_CONTROL_REG_REMOVED) 
 359:Generated_Source\PSoC5/Timer_20KHz.c ****         return ((uint8)Timer_20KHz_CONTROL);
 421              		.loc 1 359 0
 422 0004 034B     		ldr	r3, .L26
 423 0006 1B78     		ldrb	r3, [r3]
 424 0008 DBB2     		uxtb	r3, r3
 360:Generated_Source\PSoC5/Timer_20KHz.c ****     #else
 361:Generated_Source\PSoC5/Timer_20KHz.c ****         return (0);
 362:Generated_Source\PSoC5/Timer_20KHz.c ****     #endif /* (!Timer_20KHz_UDB_CONTROL_REG_REMOVED) */
 363:Generated_Source\PSoC5/Timer_20KHz.c **** }
 425              		.loc 1 363 0
 426 000a 1846     		mov	r0, r3
 427 000c BD46     		mov	sp, r7
 428              		.cfi_def_cfa_register 13
 429              		@ sp needed
 430 000e 80BC     		pop	{r7}
 431              		.cfi_restore 7
 432              		.cfi_def_cfa_offset 0
 433 0010 7047     		bx	lr
 434              	.L27:
 435 0012 00BF     		.align	2
ARM GAS  C:\Users\THUNDE~1\AppData\Local\Temp\ccznISje.s 			page 15


 436              	.L26:
 437 0014 004F0040 		.word	1073762048
 438              		.cfi_endproc
 439              	.LFE7:
 440              		.size	Timer_20KHz_ReadControlRegister, .-Timer_20KHz_ReadControlRegister
 441              		.section	.text.Timer_20KHz_WriteControlRegister,"ax",%progbits
 442              		.align	2
 443              		.global	Timer_20KHz_WriteControlRegister
 444              		.thumb
 445              		.thumb_func
 446              		.type	Timer_20KHz_WriteControlRegister, %function
 447              	Timer_20KHz_WriteControlRegister:
 448              	.LFB8:
 364:Generated_Source\PSoC5/Timer_20KHz.c **** 
 365:Generated_Source\PSoC5/Timer_20KHz.c **** 
 366:Generated_Source\PSoC5/Timer_20KHz.c **** /*******************************************************************************
 367:Generated_Source\PSoC5/Timer_20KHz.c **** * Function Name: Timer_20KHz_WriteControlRegister
 368:Generated_Source\PSoC5/Timer_20KHz.c **** ********************************************************************************
 369:Generated_Source\PSoC5/Timer_20KHz.c **** *
 370:Generated_Source\PSoC5/Timer_20KHz.c **** * Summary:
 371:Generated_Source\PSoC5/Timer_20KHz.c **** *  Sets the bit-field of the control register.
 372:Generated_Source\PSoC5/Timer_20KHz.c **** *
 373:Generated_Source\PSoC5/Timer_20KHz.c **** * Parameters:
 374:Generated_Source\PSoC5/Timer_20KHz.c **** *  control: The contents of the control register
 375:Generated_Source\PSoC5/Timer_20KHz.c **** *
 376:Generated_Source\PSoC5/Timer_20KHz.c **** * Return:
 377:Generated_Source\PSoC5/Timer_20KHz.c **** *
 378:Generated_Source\PSoC5/Timer_20KHz.c **** *******************************************************************************/
 379:Generated_Source\PSoC5/Timer_20KHz.c **** void Timer_20KHz_WriteControlRegister(uint8 control) 
 380:Generated_Source\PSoC5/Timer_20KHz.c **** {
 449              		.loc 1 380 0
 450              		.cfi_startproc
 451              		@ args = 0, pretend = 0, frame = 8
 452              		@ frame_needed = 1, uses_anonymous_args = 0
 453              		@ link register save eliminated.
 454 0000 80B4     		push	{r7}
 455              		.cfi_def_cfa_offset 4
 456              		.cfi_offset 7, -4
 457 0002 83B0     		sub	sp, sp, #12
 458              		.cfi_def_cfa_offset 16
 459 0004 00AF     		add	r7, sp, #0
 460              		.cfi_def_cfa_register 7
 461 0006 0346     		mov	r3, r0
 462 0008 FB71     		strb	r3, [r7, #7]
 381:Generated_Source\PSoC5/Timer_20KHz.c ****     #if (!Timer_20KHz_UDB_CONTROL_REG_REMOVED) 
 382:Generated_Source\PSoC5/Timer_20KHz.c ****         Timer_20KHz_CONTROL = control;
 463              		.loc 1 382 0
 464 000a 044A     		ldr	r2, .L29
 465 000c FB79     		ldrb	r3, [r7, #7]
 466 000e 1370     		strb	r3, [r2]
 383:Generated_Source\PSoC5/Timer_20KHz.c ****     #else
 384:Generated_Source\PSoC5/Timer_20KHz.c ****         control = 0u;
 385:Generated_Source\PSoC5/Timer_20KHz.c ****     #endif /* (!Timer_20KHz_UDB_CONTROL_REG_REMOVED) */
 386:Generated_Source\PSoC5/Timer_20KHz.c **** }
 467              		.loc 1 386 0
 468 0010 00BF     		nop
 469 0012 0C37     		adds	r7, r7, #12
ARM GAS  C:\Users\THUNDE~1\AppData\Local\Temp\ccznISje.s 			page 16


 470              		.cfi_def_cfa_offset 4
 471 0014 BD46     		mov	sp, r7
 472              		.cfi_def_cfa_register 13
 473              		@ sp needed
 474 0016 80BC     		pop	{r7}
 475              		.cfi_restore 7
 476              		.cfi_def_cfa_offset 0
 477 0018 7047     		bx	lr
 478              	.L30:
 479 001a 00BF     		.align	2
 480              	.L29:
 481 001c 004F0040 		.word	1073762048
 482              		.cfi_endproc
 483              	.LFE8:
 484              		.size	Timer_20KHz_WriteControlRegister, .-Timer_20KHz_WriteControlRegister
 485              		.section	.text.Timer_20KHz_ReadPeriod,"ax",%progbits
 486              		.align	2
 487              		.global	Timer_20KHz_ReadPeriod
 488              		.thumb
 489              		.thumb_func
 490              		.type	Timer_20KHz_ReadPeriod, %function
 491              	Timer_20KHz_ReadPeriod:
 492              	.LFB9:
 387:Generated_Source\PSoC5/Timer_20KHz.c **** 
 388:Generated_Source\PSoC5/Timer_20KHz.c **** #endif /* Remove API if control register is unused */
 389:Generated_Source\PSoC5/Timer_20KHz.c **** 
 390:Generated_Source\PSoC5/Timer_20KHz.c **** 
 391:Generated_Source\PSoC5/Timer_20KHz.c **** /*******************************************************************************
 392:Generated_Source\PSoC5/Timer_20KHz.c **** * Function Name: Timer_20KHz_ReadPeriod
 393:Generated_Source\PSoC5/Timer_20KHz.c **** ********************************************************************************
 394:Generated_Source\PSoC5/Timer_20KHz.c **** *
 395:Generated_Source\PSoC5/Timer_20KHz.c **** * Summary:
 396:Generated_Source\PSoC5/Timer_20KHz.c **** *  This function returns the current value of the Period.
 397:Generated_Source\PSoC5/Timer_20KHz.c **** *
 398:Generated_Source\PSoC5/Timer_20KHz.c **** * Parameters:
 399:Generated_Source\PSoC5/Timer_20KHz.c **** *  void
 400:Generated_Source\PSoC5/Timer_20KHz.c **** *
 401:Generated_Source\PSoC5/Timer_20KHz.c **** * Return:
 402:Generated_Source\PSoC5/Timer_20KHz.c **** *  The present value of the counter.
 403:Generated_Source\PSoC5/Timer_20KHz.c **** *
 404:Generated_Source\PSoC5/Timer_20KHz.c **** *******************************************************************************/
 405:Generated_Source\PSoC5/Timer_20KHz.c **** uint16 Timer_20KHz_ReadPeriod(void) 
 406:Generated_Source\PSoC5/Timer_20KHz.c **** {
 493              		.loc 1 406 0
 494              		.cfi_startproc
 495              		@ args = 0, pretend = 0, frame = 0
 496              		@ frame_needed = 1, uses_anonymous_args = 0
 497              		@ link register save eliminated.
 498 0000 80B4     		push	{r7}
 499              		.cfi_def_cfa_offset 4
 500              		.cfi_offset 7, -4
 501 0002 00AF     		add	r7, sp, #0
 502              		.cfi_def_cfa_register 7
 407:Generated_Source\PSoC5/Timer_20KHz.c ****    #if(Timer_20KHz_UsingFixedFunction)
 408:Generated_Source\PSoC5/Timer_20KHz.c ****        return ((uint16)CY_GET_REG16(Timer_20KHz_PERIOD_LSB_PTR));
 503              		.loc 1 408 0
 504 0004 034B     		ldr	r3, .L33
ARM GAS  C:\Users\THUNDE~1\AppData\Local\Temp\ccznISje.s 			page 17


 505 0006 1B88     		ldrh	r3, [r3]	@ movhi
 506 0008 9BB2     		uxth	r3, r3
 409:Generated_Source\PSoC5/Timer_20KHz.c ****    #else
 410:Generated_Source\PSoC5/Timer_20KHz.c ****        return (CY_GET_REG16(Timer_20KHz_PERIOD_LSB_PTR));
 411:Generated_Source\PSoC5/Timer_20KHz.c ****    #endif /* (Timer_20KHz_UsingFixedFunction) */
 412:Generated_Source\PSoC5/Timer_20KHz.c **** }
 507              		.loc 1 412 0
 508 000a 1846     		mov	r0, r3
 509 000c BD46     		mov	sp, r7
 510              		.cfi_def_cfa_register 13
 511              		@ sp needed
 512 000e 80BC     		pop	{r7}
 513              		.cfi_restore 7
 514              		.cfi_def_cfa_offset 0
 515 0010 7047     		bx	lr
 516              	.L34:
 517 0012 00BF     		.align	2
 518              	.L33:
 519 0014 044F0040 		.word	1073762052
 520              		.cfi_endproc
 521              	.LFE9:
 522              		.size	Timer_20KHz_ReadPeriod, .-Timer_20KHz_ReadPeriod
 523              		.section	.text.Timer_20KHz_WritePeriod,"ax",%progbits
 524              		.align	2
 525              		.global	Timer_20KHz_WritePeriod
 526              		.thumb
 527              		.thumb_func
 528              		.type	Timer_20KHz_WritePeriod, %function
 529              	Timer_20KHz_WritePeriod:
 530              	.LFB10:
 413:Generated_Source\PSoC5/Timer_20KHz.c **** 
 414:Generated_Source\PSoC5/Timer_20KHz.c **** 
 415:Generated_Source\PSoC5/Timer_20KHz.c **** /*******************************************************************************
 416:Generated_Source\PSoC5/Timer_20KHz.c **** * Function Name: Timer_20KHz_WritePeriod
 417:Generated_Source\PSoC5/Timer_20KHz.c **** ********************************************************************************
 418:Generated_Source\PSoC5/Timer_20KHz.c **** *
 419:Generated_Source\PSoC5/Timer_20KHz.c **** * Summary:
 420:Generated_Source\PSoC5/Timer_20KHz.c **** *  This function is used to change the period of the counter.  The new period
 421:Generated_Source\PSoC5/Timer_20KHz.c **** *  will be loaded the next time terminal count is detected.
 422:Generated_Source\PSoC5/Timer_20KHz.c **** *
 423:Generated_Source\PSoC5/Timer_20KHz.c **** * Parameters:
 424:Generated_Source\PSoC5/Timer_20KHz.c **** *  period: This value may be between 1 and (2^Resolution)-1.  A value of 0 will
 425:Generated_Source\PSoC5/Timer_20KHz.c **** *          result in the counter remaining at zero.
 426:Generated_Source\PSoC5/Timer_20KHz.c **** *
 427:Generated_Source\PSoC5/Timer_20KHz.c **** * Return:
 428:Generated_Source\PSoC5/Timer_20KHz.c **** *  void
 429:Generated_Source\PSoC5/Timer_20KHz.c **** *
 430:Generated_Source\PSoC5/Timer_20KHz.c **** *******************************************************************************/
 431:Generated_Source\PSoC5/Timer_20KHz.c **** void Timer_20KHz_WritePeriod(uint16 period) 
 432:Generated_Source\PSoC5/Timer_20KHz.c **** {
 531              		.loc 1 432 0
 532              		.cfi_startproc
 533              		@ args = 0, pretend = 0, frame = 16
 534              		@ frame_needed = 1, uses_anonymous_args = 0
 535              		@ link register save eliminated.
 536 0000 80B4     		push	{r7}
 537              		.cfi_def_cfa_offset 4
ARM GAS  C:\Users\THUNDE~1\AppData\Local\Temp\ccznISje.s 			page 18


 538              		.cfi_offset 7, -4
 539 0002 85B0     		sub	sp, sp, #20
 540              		.cfi_def_cfa_offset 24
 541 0004 00AF     		add	r7, sp, #0
 542              		.cfi_def_cfa_register 7
 543 0006 0346     		mov	r3, r0
 544 0008 FB80     		strh	r3, [r7, #6]	@ movhi
 433:Generated_Source\PSoC5/Timer_20KHz.c ****     #if(Timer_20KHz_UsingFixedFunction)
 434:Generated_Source\PSoC5/Timer_20KHz.c ****         uint16 period_temp = (uint16)period;
 545              		.loc 1 434 0
 546 000a FB88     		ldrh	r3, [r7, #6]	@ movhi
 547 000c FB81     		strh	r3, [r7, #14]	@ movhi
 435:Generated_Source\PSoC5/Timer_20KHz.c ****         CY_SET_REG16(Timer_20KHz_PERIOD_LSB_PTR, period_temp);
 548              		.loc 1 435 0
 549 000e 044A     		ldr	r2, .L36
 550 0010 FB89     		ldrh	r3, [r7, #14]	@ movhi
 551 0012 1380     		strh	r3, [r2]	@ movhi
 436:Generated_Source\PSoC5/Timer_20KHz.c ****     #else
 437:Generated_Source\PSoC5/Timer_20KHz.c ****         CY_SET_REG16(Timer_20KHz_PERIOD_LSB_PTR, period);
 438:Generated_Source\PSoC5/Timer_20KHz.c ****     #endif /*Write Period value with appropriate resolution suffix depending on UDB or fixed functi
 439:Generated_Source\PSoC5/Timer_20KHz.c **** }
 552              		.loc 1 439 0
 553 0014 00BF     		nop
 554 0016 1437     		adds	r7, r7, #20
 555              		.cfi_def_cfa_offset 4
 556 0018 BD46     		mov	sp, r7
 557              		.cfi_def_cfa_register 13
 558              		@ sp needed
 559 001a 80BC     		pop	{r7}
 560              		.cfi_restore 7
 561              		.cfi_def_cfa_offset 0
 562 001c 7047     		bx	lr
 563              	.L37:
 564 001e 00BF     		.align	2
 565              	.L36:
 566 0020 044F0040 		.word	1073762052
 567              		.cfi_endproc
 568              	.LFE10:
 569              		.size	Timer_20KHz_WritePeriod, .-Timer_20KHz_WritePeriod
 570              		.section	.text.Timer_20KHz_ReadCapture,"ax",%progbits
 571              		.align	2
 572              		.global	Timer_20KHz_ReadCapture
 573              		.thumb
 574              		.thumb_func
 575              		.type	Timer_20KHz_ReadCapture, %function
 576              	Timer_20KHz_ReadCapture:
 577              	.LFB11:
 440:Generated_Source\PSoC5/Timer_20KHz.c **** 
 441:Generated_Source\PSoC5/Timer_20KHz.c **** 
 442:Generated_Source\PSoC5/Timer_20KHz.c **** /*******************************************************************************
 443:Generated_Source\PSoC5/Timer_20KHz.c **** * Function Name: Timer_20KHz_ReadCapture
 444:Generated_Source\PSoC5/Timer_20KHz.c **** ********************************************************************************
 445:Generated_Source\PSoC5/Timer_20KHz.c **** *
 446:Generated_Source\PSoC5/Timer_20KHz.c **** * Summary:
 447:Generated_Source\PSoC5/Timer_20KHz.c **** *  This function returns the last value captured.
 448:Generated_Source\PSoC5/Timer_20KHz.c **** *
 449:Generated_Source\PSoC5/Timer_20KHz.c **** * Parameters:
ARM GAS  C:\Users\THUNDE~1\AppData\Local\Temp\ccznISje.s 			page 19


 450:Generated_Source\PSoC5/Timer_20KHz.c **** *  void
 451:Generated_Source\PSoC5/Timer_20KHz.c **** *
 452:Generated_Source\PSoC5/Timer_20KHz.c **** * Return:
 453:Generated_Source\PSoC5/Timer_20KHz.c **** *  Present Capture value.
 454:Generated_Source\PSoC5/Timer_20KHz.c **** *
 455:Generated_Source\PSoC5/Timer_20KHz.c **** *******************************************************************************/
 456:Generated_Source\PSoC5/Timer_20KHz.c **** uint16 Timer_20KHz_ReadCapture(void) 
 457:Generated_Source\PSoC5/Timer_20KHz.c **** {
 578              		.loc 1 457 0
 579              		.cfi_startproc
 580              		@ args = 0, pretend = 0, frame = 0
 581              		@ frame_needed = 1, uses_anonymous_args = 0
 582              		@ link register save eliminated.
 583 0000 80B4     		push	{r7}
 584              		.cfi_def_cfa_offset 4
 585              		.cfi_offset 7, -4
 586 0002 00AF     		add	r7, sp, #0
 587              		.cfi_def_cfa_register 7
 458:Generated_Source\PSoC5/Timer_20KHz.c ****    #if(Timer_20KHz_UsingFixedFunction)
 459:Generated_Source\PSoC5/Timer_20KHz.c ****        return ((uint16)CY_GET_REG16(Timer_20KHz_CAPTURE_LSB_PTR));
 588              		.loc 1 459 0
 589 0004 034B     		ldr	r3, .L40
 590 0006 1B88     		ldrh	r3, [r3]	@ movhi
 591 0008 9BB2     		uxth	r3, r3
 460:Generated_Source\PSoC5/Timer_20KHz.c ****    #else
 461:Generated_Source\PSoC5/Timer_20KHz.c ****        return (CY_GET_REG16(Timer_20KHz_CAPTURE_LSB_PTR));
 462:Generated_Source\PSoC5/Timer_20KHz.c ****    #endif /* (Timer_20KHz_UsingFixedFunction) */
 463:Generated_Source\PSoC5/Timer_20KHz.c **** }
 592              		.loc 1 463 0
 593 000a 1846     		mov	r0, r3
 594 000c BD46     		mov	sp, r7
 595              		.cfi_def_cfa_register 13
 596              		@ sp needed
 597 000e 80BC     		pop	{r7}
 598              		.cfi_restore 7
 599              		.cfi_def_cfa_offset 0
 600 0010 7047     		bx	lr
 601              	.L41:
 602 0012 00BF     		.align	2
 603              	.L40:
 604 0014 084F0040 		.word	1073762056
 605              		.cfi_endproc
 606              	.LFE11:
 607              		.size	Timer_20KHz_ReadCapture, .-Timer_20KHz_ReadCapture
 608              		.section	.text.Timer_20KHz_WriteCounter,"ax",%progbits
 609              		.align	2
 610              		.global	Timer_20KHz_WriteCounter
 611              		.thumb
 612              		.thumb_func
 613              		.type	Timer_20KHz_WriteCounter, %function
 614              	Timer_20KHz_WriteCounter:
 615              	.LFB12:
 464:Generated_Source\PSoC5/Timer_20KHz.c **** 
 465:Generated_Source\PSoC5/Timer_20KHz.c **** 
 466:Generated_Source\PSoC5/Timer_20KHz.c **** /*******************************************************************************
 467:Generated_Source\PSoC5/Timer_20KHz.c **** * Function Name: Timer_20KHz_WriteCounter
 468:Generated_Source\PSoC5/Timer_20KHz.c **** ********************************************************************************
ARM GAS  C:\Users\THUNDE~1\AppData\Local\Temp\ccznISje.s 			page 20


 469:Generated_Source\PSoC5/Timer_20KHz.c **** *
 470:Generated_Source\PSoC5/Timer_20KHz.c **** * Summary:
 471:Generated_Source\PSoC5/Timer_20KHz.c **** *  This funtion is used to set the counter to a specific value
 472:Generated_Source\PSoC5/Timer_20KHz.c **** *
 473:Generated_Source\PSoC5/Timer_20KHz.c **** * Parameters:
 474:Generated_Source\PSoC5/Timer_20KHz.c **** *  counter:  New counter value.
 475:Generated_Source\PSoC5/Timer_20KHz.c **** *
 476:Generated_Source\PSoC5/Timer_20KHz.c **** * Return:
 477:Generated_Source\PSoC5/Timer_20KHz.c **** *  void
 478:Generated_Source\PSoC5/Timer_20KHz.c **** *
 479:Generated_Source\PSoC5/Timer_20KHz.c **** *******************************************************************************/
 480:Generated_Source\PSoC5/Timer_20KHz.c **** void Timer_20KHz_WriteCounter(uint16 counter) 
 481:Generated_Source\PSoC5/Timer_20KHz.c **** {
 616              		.loc 1 481 0
 617              		.cfi_startproc
 618              		@ args = 0, pretend = 0, frame = 8
 619              		@ frame_needed = 1, uses_anonymous_args = 0
 620              		@ link register save eliminated.
 621 0000 80B4     		push	{r7}
 622              		.cfi_def_cfa_offset 4
 623              		.cfi_offset 7, -4
 624 0002 83B0     		sub	sp, sp, #12
 625              		.cfi_def_cfa_offset 16
 626 0004 00AF     		add	r7, sp, #0
 627              		.cfi_def_cfa_register 7
 628 0006 0346     		mov	r3, r0
 629 0008 FB80     		strh	r3, [r7, #6]	@ movhi
 482:Generated_Source\PSoC5/Timer_20KHz.c ****    #if(Timer_20KHz_UsingFixedFunction)
 483:Generated_Source\PSoC5/Timer_20KHz.c ****         /* This functionality is removed until a FixedFunction HW update to
 484:Generated_Source\PSoC5/Timer_20KHz.c ****          * allow this register to be written
 485:Generated_Source\PSoC5/Timer_20KHz.c ****          */
 486:Generated_Source\PSoC5/Timer_20KHz.c ****         CY_SET_REG16(Timer_20KHz_COUNTER_LSB_PTR, (uint16)counter);
 630              		.loc 1 486 0
 631 000a 044A     		ldr	r2, .L43
 632 000c FB88     		ldrh	r3, [r7, #6]	@ movhi
 633 000e 1380     		strh	r3, [r2]	@ movhi
 487:Generated_Source\PSoC5/Timer_20KHz.c ****         
 488:Generated_Source\PSoC5/Timer_20KHz.c ****     #else
 489:Generated_Source\PSoC5/Timer_20KHz.c ****         CY_SET_REG16(Timer_20KHz_COUNTER_LSB_PTR, counter);
 490:Generated_Source\PSoC5/Timer_20KHz.c ****     #endif /* Set Write Counter only for the UDB implementation (Write Counter not available in fix
 491:Generated_Source\PSoC5/Timer_20KHz.c **** }
 634              		.loc 1 491 0
 635 0010 00BF     		nop
 636 0012 0C37     		adds	r7, r7, #12
 637              		.cfi_def_cfa_offset 4
 638 0014 BD46     		mov	sp, r7
 639              		.cfi_def_cfa_register 13
 640              		@ sp needed
 641 0016 80BC     		pop	{r7}
 642              		.cfi_restore 7
 643              		.cfi_def_cfa_offset 0
 644 0018 7047     		bx	lr
 645              	.L44:
 646 001a 00BF     		.align	2
 647              	.L43:
 648 001c 064F0040 		.word	1073762054
 649              		.cfi_endproc
ARM GAS  C:\Users\THUNDE~1\AppData\Local\Temp\ccznISje.s 			page 21


 650              	.LFE12:
 651              		.size	Timer_20KHz_WriteCounter, .-Timer_20KHz_WriteCounter
 652              		.section	.text.Timer_20KHz_ReadCounter,"ax",%progbits
 653              		.align	2
 654              		.global	Timer_20KHz_ReadCounter
 655              		.thumb
 656              		.thumb_func
 657              		.type	Timer_20KHz_ReadCounter, %function
 658              	Timer_20KHz_ReadCounter:
 659              	.LFB13:
 492:Generated_Source\PSoC5/Timer_20KHz.c **** 
 493:Generated_Source\PSoC5/Timer_20KHz.c **** 
 494:Generated_Source\PSoC5/Timer_20KHz.c **** /*******************************************************************************
 495:Generated_Source\PSoC5/Timer_20KHz.c **** * Function Name: Timer_20KHz_ReadCounter
 496:Generated_Source\PSoC5/Timer_20KHz.c **** ********************************************************************************
 497:Generated_Source\PSoC5/Timer_20KHz.c **** *
 498:Generated_Source\PSoC5/Timer_20KHz.c **** * Summary:
 499:Generated_Source\PSoC5/Timer_20KHz.c **** *  This function returns the current counter value.
 500:Generated_Source\PSoC5/Timer_20KHz.c **** *
 501:Generated_Source\PSoC5/Timer_20KHz.c **** * Parameters:
 502:Generated_Source\PSoC5/Timer_20KHz.c **** *  void
 503:Generated_Source\PSoC5/Timer_20KHz.c **** *
 504:Generated_Source\PSoC5/Timer_20KHz.c **** * Return:
 505:Generated_Source\PSoC5/Timer_20KHz.c **** *  Present compare value.
 506:Generated_Source\PSoC5/Timer_20KHz.c **** *
 507:Generated_Source\PSoC5/Timer_20KHz.c **** *******************************************************************************/
 508:Generated_Source\PSoC5/Timer_20KHz.c **** uint16 Timer_20KHz_ReadCounter(void) 
 509:Generated_Source\PSoC5/Timer_20KHz.c **** {
 660              		.loc 1 509 0
 661              		.cfi_startproc
 662              		@ args = 0, pretend = 0, frame = 0
 663              		@ frame_needed = 1, uses_anonymous_args = 0
 664              		@ link register save eliminated.
 665 0000 80B4     		push	{r7}
 666              		.cfi_def_cfa_offset 4
 667              		.cfi_offset 7, -4
 668 0002 00AF     		add	r7, sp, #0
 669              		.cfi_def_cfa_register 7
 510:Generated_Source\PSoC5/Timer_20KHz.c ****     /* Force capture by reading Accumulator */
 511:Generated_Source\PSoC5/Timer_20KHz.c ****     /* Must first do a software capture to be able to read the counter */
 512:Generated_Source\PSoC5/Timer_20KHz.c ****     /* It is up to the user code to make sure there isn't already captured data in the FIFO */
 513:Generated_Source\PSoC5/Timer_20KHz.c ****     #if(Timer_20KHz_UsingFixedFunction)
 514:Generated_Source\PSoC5/Timer_20KHz.c ****         (void)CY_GET_REG16(Timer_20KHz_COUNTER_LSB_PTR);
 670              		.loc 1 514 0
 671 0004 044B     		ldr	r3, .L47
 672 0006 1B88     		ldrh	r3, [r3]	@ movhi
 515:Generated_Source\PSoC5/Timer_20KHz.c ****     #else
 516:Generated_Source\PSoC5/Timer_20KHz.c ****         (void)CY_GET_REG8(Timer_20KHz_COUNTER_LSB_PTR_8BIT);
 517:Generated_Source\PSoC5/Timer_20KHz.c ****     #endif/* (Timer_20KHz_UsingFixedFunction) */
 518:Generated_Source\PSoC5/Timer_20KHz.c **** 
 519:Generated_Source\PSoC5/Timer_20KHz.c ****     /* Read the data from the FIFO (or capture register for Fixed Function)*/
 520:Generated_Source\PSoC5/Timer_20KHz.c ****     #if(Timer_20KHz_UsingFixedFunction)
 521:Generated_Source\PSoC5/Timer_20KHz.c ****         return ((uint16)CY_GET_REG16(Timer_20KHz_CAPTURE_LSB_PTR));
 673              		.loc 1 521 0
 674 0008 044B     		ldr	r3, .L47+4
 675 000a 1B88     		ldrh	r3, [r3]	@ movhi
 676 000c 9BB2     		uxth	r3, r3
ARM GAS  C:\Users\THUNDE~1\AppData\Local\Temp\ccznISje.s 			page 22


 522:Generated_Source\PSoC5/Timer_20KHz.c ****     #else
 523:Generated_Source\PSoC5/Timer_20KHz.c ****         return (CY_GET_REG16(Timer_20KHz_CAPTURE_LSB_PTR));
 524:Generated_Source\PSoC5/Timer_20KHz.c ****     #endif /* (Timer_20KHz_UsingFixedFunction) */
 525:Generated_Source\PSoC5/Timer_20KHz.c **** }
 677              		.loc 1 525 0
 678 000e 1846     		mov	r0, r3
 679 0010 BD46     		mov	sp, r7
 680              		.cfi_def_cfa_register 13
 681              		@ sp needed
 682 0012 80BC     		pop	{r7}
 683              		.cfi_restore 7
 684              		.cfi_def_cfa_offset 0
 685 0014 7047     		bx	lr
 686              	.L48:
 687 0016 00BF     		.align	2
 688              	.L47:
 689 0018 064F0040 		.word	1073762054
 690 001c 084F0040 		.word	1073762056
 691              		.cfi_endproc
 692              	.LFE13:
 693              		.size	Timer_20KHz_ReadCounter, .-Timer_20KHz_ReadCounter
 694              		.text
 695              	.Letext0:
 696              		.file 2 "Generated_Source\\PSoC5\\cytypes.h"
 697              		.section	.debug_info,"",%progbits
 698              	.Ldebug_info0:
 699 0000 41020000 		.4byte	0x241
 700 0004 0400     		.2byte	0x4
 701 0006 00000000 		.4byte	.Ldebug_abbrev0
 702 000a 04       		.byte	0x4
 703 000b 01       		.uleb128 0x1
 704 000c 32000000 		.4byte	.LASF36
 705 0010 0C       		.byte	0xc
 706 0011 9F010000 		.4byte	.LASF37
 707 0015 03010000 		.4byte	.LASF38
 708 0019 00000000 		.4byte	.Ldebug_ranges0+0
 709 001d 00000000 		.4byte	0
 710 0021 00000000 		.4byte	.Ldebug_line0
 711 0025 02       		.uleb128 0x2
 712 0026 01       		.byte	0x1
 713 0027 06       		.byte	0x6
 714 0028 11030000 		.4byte	.LASF0
 715 002c 02       		.uleb128 0x2
 716 002d 01       		.byte	0x1
 717 002e 08       		.byte	0x8
 718 002f 6C010000 		.4byte	.LASF1
 719 0033 02       		.uleb128 0x2
 720 0034 02       		.byte	0x2
 721 0035 05       		.byte	0x5
 722 0036 C0020000 		.4byte	.LASF2
 723 003a 02       		.uleb128 0x2
 724 003b 02       		.byte	0x2
 725 003c 07       		.byte	0x7
 726 003d DF000000 		.4byte	.LASF3
 727 0041 02       		.uleb128 0x2
 728 0042 04       		.byte	0x4
 729 0043 05       		.byte	0x5
ARM GAS  C:\Users\THUNDE~1\AppData\Local\Temp\ccznISje.s 			page 23


 730 0044 F7020000 		.4byte	.LASF4
 731 0048 02       		.uleb128 0x2
 732 0049 04       		.byte	0x4
 733 004a 07       		.byte	0x7
 734 004b 7F010000 		.4byte	.LASF5
 735 004f 02       		.uleb128 0x2
 736 0050 08       		.byte	0x8
 737 0051 05       		.byte	0x5
 738 0052 8C020000 		.4byte	.LASF6
 739 0056 02       		.uleb128 0x2
 740 0057 08       		.byte	0x8
 741 0058 07       		.byte	0x7
 742 0059 2C020000 		.4byte	.LASF7
 743 005d 03       		.uleb128 0x3
 744 005e 04       		.byte	0x4
 745 005f 05       		.byte	0x5
 746 0060 696E7400 		.ascii	"int\000"
 747 0064 02       		.uleb128 0x2
 748 0065 04       		.byte	0x4
 749 0066 07       		.byte	0x7
 750 0067 1F020000 		.4byte	.LASF8
 751 006b 04       		.uleb128 0x4
 752 006c 91010000 		.4byte	.LASF9
 753 0070 02       		.byte	0x2
 754 0071 9201     		.2byte	0x192
 755 0073 2C000000 		.4byte	0x2c
 756 0077 04       		.uleb128 0x4
 757 0078 F7010000 		.4byte	.LASF10
 758 007c 02       		.byte	0x2
 759 007d 9301     		.2byte	0x193
 760 007f 3A000000 		.4byte	0x3a
 761 0083 02       		.uleb128 0x2
 762 0084 04       		.byte	0x4
 763 0085 04       		.byte	0x4
 764 0086 5E010000 		.4byte	.LASF11
 765 008a 02       		.uleb128 0x2
 766 008b 08       		.byte	0x8
 767 008c 04       		.byte	0x4
 768 008d D8010000 		.4byte	.LASF12
 769 0091 02       		.uleb128 0x2
 770 0092 01       		.byte	0x1
 771 0093 08       		.byte	0x8
 772 0094 00030000 		.4byte	.LASF13
 773 0098 04       		.uleb128 0x4
 774 0099 7A010000 		.4byte	.LASF14
 775 009d 02       		.byte	0x2
 776 009e 3C02     		.2byte	0x23c
 777 00a0 A4000000 		.4byte	0xa4
 778 00a4 05       		.uleb128 0x5
 779 00a5 6B000000 		.4byte	0x6b
 780 00a9 04       		.uleb128 0x4
 781 00aa 00000000 		.4byte	.LASF15
 782 00ae 02       		.byte	0x2
 783 00af 3D02     		.2byte	0x23d
 784 00b1 B5000000 		.4byte	0xb5
 785 00b5 05       		.uleb128 0x5
 786 00b6 77000000 		.4byte	0x77
ARM GAS  C:\Users\THUNDE~1\AppData\Local\Temp\ccznISje.s 			page 24


 787 00ba 02       		.uleb128 0x2
 788 00bb 08       		.byte	0x8
 789 00bc 04       		.byte	0x4
 790 00bd 05030000 		.4byte	.LASF16
 791 00c1 02       		.uleb128 0x2
 792 00c2 04       		.byte	0x4
 793 00c3 07       		.byte	0x7
 794 00c4 83020000 		.4byte	.LASF17
 795 00c8 06       		.uleb128 0x6
 796 00c9 E6020000 		.4byte	.LASF18
 797 00cd 01       		.byte	0x1
 798 00ce 2B       		.byte	0x2b
 799 00cf 00000000 		.4byte	.LFB0
 800 00d3 A0000000 		.4byte	.LFE0-.LFB0
 801 00d7 01       		.uleb128 0x1
 802 00d8 9C       		.byte	0x9c
 803 00d9 07       		.uleb128 0x7
 804 00da 06000000 		.4byte	.LASF19
 805 00de 01       		.byte	0x1
 806 00df B4       		.byte	0xb4
 807 00e0 00000000 		.4byte	.LFB1
 808 00e4 48000000 		.4byte	.LFE1-.LFB1
 809 00e8 01       		.uleb128 0x1
 810 00e9 9C       		.byte	0x9c
 811 00ea 06       		.uleb128 0x6
 812 00eb 3D030000 		.4byte	.LASF20
 813 00ef 01       		.byte	0x1
 814 00f0 D7       		.byte	0xd7
 815 00f1 00000000 		.4byte	.LFB2
 816 00f5 24000000 		.4byte	.LFE2-.LFB2
 817 00f9 01       		.uleb128 0x1
 818 00fa 9C       		.byte	0x9c
 819 00fb 07       		.uleb128 0x7
 820 00fc F2000000 		.4byte	.LASF21
 821 0100 01       		.byte	0x1
 822 0101 F7       		.byte	0xf7
 823 0102 00000000 		.4byte	.LFB3
 824 0106 48000000 		.4byte	.LFE3-.LFB3
 825 010a 01       		.uleb128 0x1
 826 010b 9C       		.byte	0x9c
 827 010c 08       		.uleb128 0x8
 828 010d 66020000 		.4byte	.LASF25
 829 0111 01       		.byte	0x1
 830 0112 1701     		.2byte	0x117
 831 0114 00000000 		.4byte	.LFB4
 832 0118 20000000 		.4byte	.LFE4-.LFB4
 833 011c 01       		.uleb128 0x1
 834 011d 9C       		.byte	0x9c
 835 011e 32010000 		.4byte	0x132
 836 0122 09       		.uleb128 0x9
 837 0123 9A020000 		.4byte	.LASF27
 838 0127 01       		.byte	0x1
 839 0128 1701     		.2byte	0x117
 840 012a 6B000000 		.4byte	0x6b
 841 012e 02       		.uleb128 0x2
 842 012f 91       		.byte	0x91
 843 0130 77       		.sleb128 -9
ARM GAS  C:\Users\THUNDE~1\AppData\Local\Temp\ccznISje.s 			page 25


 844 0131 00       		.byte	0
 845 0132 0A       		.uleb128 0xa
 846 0133 CA020000 		.4byte	.LASF22
 847 0137 01       		.byte	0x1
 848 0138 2E01     		.2byte	0x12e
 849 013a 00000000 		.4byte	.LFB5
 850 013e 14000000 		.4byte	.LFE5-.LFB5
 851 0142 01       		.uleb128 0x1
 852 0143 9C       		.byte	0x9c
 853 0144 0B       		.uleb128 0xb
 854 0145 4F030000 		.4byte	.LASF23
 855 0149 01       		.byte	0x1
 856 014a 4D01     		.2byte	0x14d
 857 014c 6B000000 		.4byte	0x6b
 858 0150 00000000 		.4byte	.LFB6
 859 0154 18000000 		.4byte	.LFE6-.LFB6
 860 0158 01       		.uleb128 0x1
 861 0159 9C       		.byte	0x9c
 862 015a 0B       		.uleb128 0xb
 863 015b 1D030000 		.4byte	.LASF24
 864 015f 01       		.byte	0x1
 865 0160 6401     		.2byte	0x164
 866 0162 6B000000 		.4byte	0x6b
 867 0166 00000000 		.4byte	.LFB7
 868 016a 18000000 		.4byte	.LFE7-.LFB7
 869 016e 01       		.uleb128 0x1
 870 016f 9C       		.byte	0x9c
 871 0170 08       		.uleb128 0x8
 872 0171 FE010000 		.4byte	.LASF26
 873 0175 01       		.byte	0x1
 874 0176 7B01     		.2byte	0x17b
 875 0178 00000000 		.4byte	.LFB8
 876 017c 20000000 		.4byte	.LFE8-.LFB8
 877 0180 01       		.uleb128 0x1
 878 0181 9C       		.byte	0x9c
 879 0182 96010000 		.4byte	0x196
 880 0186 09       		.uleb128 0x9
 881 0187 97010000 		.4byte	.LASF28
 882 018b 01       		.byte	0x1
 883 018c 7B01     		.2byte	0x17b
 884 018e 6B000000 		.4byte	0x6b
 885 0192 02       		.uleb128 0x2
 886 0193 91       		.byte	0x91
 887 0194 77       		.sleb128 -9
 888 0195 00       		.byte	0
 889 0196 0B       		.uleb128 0xb
 890 0197 4F020000 		.4byte	.LASF29
 891 019b 01       		.byte	0x1
 892 019c 9501     		.2byte	0x195
 893 019e 77000000 		.4byte	0x77
 894 01a2 00000000 		.4byte	.LFB9
 895 01a6 18000000 		.4byte	.LFE9-.LFB9
 896 01aa 01       		.uleb128 0x1
 897 01ab 9C       		.byte	0x9c
 898 01ac 08       		.uleb128 0x8
 899 01ad C0000000 		.4byte	.LASF30
 900 01b1 01       		.byte	0x1
ARM GAS  C:\Users\THUNDE~1\AppData\Local\Temp\ccznISje.s 			page 26


 901 01b2 AF01     		.2byte	0x1af
 902 01b4 00000000 		.4byte	.LFB10
 903 01b8 24000000 		.4byte	.LFE10-.LFB10
 904 01bc 01       		.uleb128 0x1
 905 01bd 9C       		.byte	0x9c
 906 01be E1010000 		.4byte	0x1e1
 907 01c2 09       		.uleb128 0x9
 908 01c3 D8000000 		.4byte	.LASF31
 909 01c7 01       		.byte	0x1
 910 01c8 AF01     		.2byte	0x1af
 911 01ca 77000000 		.4byte	0x77
 912 01ce 02       		.uleb128 0x2
 913 01cf 91       		.byte	0x91
 914 01d0 6E       		.sleb128 -18
 915 01d1 0C       		.uleb128 0xc
 916 01d2 43020000 		.4byte	.LASF39
 917 01d6 01       		.byte	0x1
 918 01d7 B201     		.2byte	0x1b2
 919 01d9 77000000 		.4byte	0x77
 920 01dd 02       		.uleb128 0x2
 921 01de 91       		.byte	0x91
 922 01df 76       		.sleb128 -10
 923 01e0 00       		.byte	0
 924 01e1 0B       		.uleb128 0xb
 925 01e2 DF010000 		.4byte	.LASF32
 926 01e6 01       		.byte	0x1
 927 01e7 C801     		.2byte	0x1c8
 928 01e9 77000000 		.4byte	0x77
 929 01ed 00000000 		.4byte	.LFB11
 930 01f1 18000000 		.4byte	.LFE11-.LFB11
 931 01f5 01       		.uleb128 0x1
 932 01f6 9C       		.byte	0x9c
 933 01f7 08       		.uleb128 0x8
 934 01f8 19000000 		.4byte	.LASF33
 935 01fc 01       		.byte	0x1
 936 01fd E001     		.2byte	0x1e0
 937 01ff 00000000 		.4byte	.LFB12
 938 0203 20000000 		.4byte	.LFE12-.LFB12
 939 0207 01       		.uleb128 0x1
 940 0208 9C       		.byte	0x9c
 941 0209 1D020000 		.4byte	0x21d
 942 020d 09       		.uleb128 0x9
 943 020e 64010000 		.4byte	.LASF34
 944 0212 01       		.byte	0x1
 945 0213 E001     		.2byte	0x1e0
 946 0215 77000000 		.4byte	0x77
 947 0219 02       		.uleb128 0x2
 948 021a 91       		.byte	0x91
 949 021b 76       		.sleb128 -10
 950 021c 00       		.byte	0
 951 021d 0B       		.uleb128 0xb
 952 021e A8020000 		.4byte	.LASF35
 953 0222 01       		.byte	0x1
 954 0223 FC01     		.2byte	0x1fc
 955 0225 77000000 		.4byte	0x77
 956 0229 00000000 		.4byte	.LFB13
 957 022d 20000000 		.4byte	.LFE13-.LFB13
ARM GAS  C:\Users\THUNDE~1\AppData\Local\Temp\ccznISje.s 			page 27


 958 0231 01       		.uleb128 0x1
 959 0232 9C       		.byte	0x9c
 960 0233 0D       		.uleb128 0xd
 961 0234 C4010000 		.4byte	.LASF40
 962 0238 01       		.byte	0x1
 963 0239 1A       		.byte	0x1a
 964 023a 6B000000 		.4byte	0x6b
 965 023e 05       		.uleb128 0x5
 966 023f 03       		.byte	0x3
 967 0240 00000000 		.4byte	Timer_20KHz_initVar
 968 0244 00       		.byte	0
 969              		.section	.debug_abbrev,"",%progbits
 970              	.Ldebug_abbrev0:
 971 0000 01       		.uleb128 0x1
 972 0001 11       		.uleb128 0x11
 973 0002 01       		.byte	0x1
 974 0003 25       		.uleb128 0x25
 975 0004 0E       		.uleb128 0xe
 976 0005 13       		.uleb128 0x13
 977 0006 0B       		.uleb128 0xb
 978 0007 03       		.uleb128 0x3
 979 0008 0E       		.uleb128 0xe
 980 0009 1B       		.uleb128 0x1b
 981 000a 0E       		.uleb128 0xe
 982 000b 55       		.uleb128 0x55
 983 000c 17       		.uleb128 0x17
 984 000d 11       		.uleb128 0x11
 985 000e 01       		.uleb128 0x1
 986 000f 10       		.uleb128 0x10
 987 0010 17       		.uleb128 0x17
 988 0011 00       		.byte	0
 989 0012 00       		.byte	0
 990 0013 02       		.uleb128 0x2
 991 0014 24       		.uleb128 0x24
 992 0015 00       		.byte	0
 993 0016 0B       		.uleb128 0xb
 994 0017 0B       		.uleb128 0xb
 995 0018 3E       		.uleb128 0x3e
 996 0019 0B       		.uleb128 0xb
 997 001a 03       		.uleb128 0x3
 998 001b 0E       		.uleb128 0xe
 999 001c 00       		.byte	0
 1000 001d 00       		.byte	0
 1001 001e 03       		.uleb128 0x3
 1002 001f 24       		.uleb128 0x24
 1003 0020 00       		.byte	0
 1004 0021 0B       		.uleb128 0xb
 1005 0022 0B       		.uleb128 0xb
 1006 0023 3E       		.uleb128 0x3e
 1007 0024 0B       		.uleb128 0xb
 1008 0025 03       		.uleb128 0x3
 1009 0026 08       		.uleb128 0x8
 1010 0027 00       		.byte	0
 1011 0028 00       		.byte	0
 1012 0029 04       		.uleb128 0x4
 1013 002a 16       		.uleb128 0x16
 1014 002b 00       		.byte	0
ARM GAS  C:\Users\THUNDE~1\AppData\Local\Temp\ccznISje.s 			page 28


 1015 002c 03       		.uleb128 0x3
 1016 002d 0E       		.uleb128 0xe
 1017 002e 3A       		.uleb128 0x3a
 1018 002f 0B       		.uleb128 0xb
 1019 0030 3B       		.uleb128 0x3b
 1020 0031 05       		.uleb128 0x5
 1021 0032 49       		.uleb128 0x49
 1022 0033 13       		.uleb128 0x13
 1023 0034 00       		.byte	0
 1024 0035 00       		.byte	0
 1025 0036 05       		.uleb128 0x5
 1026 0037 35       		.uleb128 0x35
 1027 0038 00       		.byte	0
 1028 0039 49       		.uleb128 0x49
 1029 003a 13       		.uleb128 0x13
 1030 003b 00       		.byte	0
 1031 003c 00       		.byte	0
 1032 003d 06       		.uleb128 0x6
 1033 003e 2E       		.uleb128 0x2e
 1034 003f 00       		.byte	0
 1035 0040 3F       		.uleb128 0x3f
 1036 0041 19       		.uleb128 0x19
 1037 0042 03       		.uleb128 0x3
 1038 0043 0E       		.uleb128 0xe
 1039 0044 3A       		.uleb128 0x3a
 1040 0045 0B       		.uleb128 0xb
 1041 0046 3B       		.uleb128 0x3b
 1042 0047 0B       		.uleb128 0xb
 1043 0048 27       		.uleb128 0x27
 1044 0049 19       		.uleb128 0x19
 1045 004a 11       		.uleb128 0x11
 1046 004b 01       		.uleb128 0x1
 1047 004c 12       		.uleb128 0x12
 1048 004d 06       		.uleb128 0x6
 1049 004e 40       		.uleb128 0x40
 1050 004f 18       		.uleb128 0x18
 1051 0050 9642     		.uleb128 0x2116
 1052 0052 19       		.uleb128 0x19
 1053 0053 00       		.byte	0
 1054 0054 00       		.byte	0
 1055 0055 07       		.uleb128 0x7
 1056 0056 2E       		.uleb128 0x2e
 1057 0057 00       		.byte	0
 1058 0058 3F       		.uleb128 0x3f
 1059 0059 19       		.uleb128 0x19
 1060 005a 03       		.uleb128 0x3
 1061 005b 0E       		.uleb128 0xe
 1062 005c 3A       		.uleb128 0x3a
 1063 005d 0B       		.uleb128 0xb
 1064 005e 3B       		.uleb128 0x3b
 1065 005f 0B       		.uleb128 0xb
 1066 0060 27       		.uleb128 0x27
 1067 0061 19       		.uleb128 0x19
 1068 0062 11       		.uleb128 0x11
 1069 0063 01       		.uleb128 0x1
 1070 0064 12       		.uleb128 0x12
 1071 0065 06       		.uleb128 0x6
ARM GAS  C:\Users\THUNDE~1\AppData\Local\Temp\ccznISje.s 			page 29


 1072 0066 40       		.uleb128 0x40
 1073 0067 18       		.uleb128 0x18
 1074 0068 9742     		.uleb128 0x2117
 1075 006a 19       		.uleb128 0x19
 1076 006b 00       		.byte	0
 1077 006c 00       		.byte	0
 1078 006d 08       		.uleb128 0x8
 1079 006e 2E       		.uleb128 0x2e
 1080 006f 01       		.byte	0x1
 1081 0070 3F       		.uleb128 0x3f
 1082 0071 19       		.uleb128 0x19
 1083 0072 03       		.uleb128 0x3
 1084 0073 0E       		.uleb128 0xe
 1085 0074 3A       		.uleb128 0x3a
 1086 0075 0B       		.uleb128 0xb
 1087 0076 3B       		.uleb128 0x3b
 1088 0077 05       		.uleb128 0x5
 1089 0078 27       		.uleb128 0x27
 1090 0079 19       		.uleb128 0x19
 1091 007a 11       		.uleb128 0x11
 1092 007b 01       		.uleb128 0x1
 1093 007c 12       		.uleb128 0x12
 1094 007d 06       		.uleb128 0x6
 1095 007e 40       		.uleb128 0x40
 1096 007f 18       		.uleb128 0x18
 1097 0080 9742     		.uleb128 0x2117
 1098 0082 19       		.uleb128 0x19
 1099 0083 01       		.uleb128 0x1
 1100 0084 13       		.uleb128 0x13
 1101 0085 00       		.byte	0
 1102 0086 00       		.byte	0
 1103 0087 09       		.uleb128 0x9
 1104 0088 05       		.uleb128 0x5
 1105 0089 00       		.byte	0
 1106 008a 03       		.uleb128 0x3
 1107 008b 0E       		.uleb128 0xe
 1108 008c 3A       		.uleb128 0x3a
 1109 008d 0B       		.uleb128 0xb
 1110 008e 3B       		.uleb128 0x3b
 1111 008f 05       		.uleb128 0x5
 1112 0090 49       		.uleb128 0x49
 1113 0091 13       		.uleb128 0x13
 1114 0092 02       		.uleb128 0x2
 1115 0093 18       		.uleb128 0x18
 1116 0094 00       		.byte	0
 1117 0095 00       		.byte	0
 1118 0096 0A       		.uleb128 0xa
 1119 0097 2E       		.uleb128 0x2e
 1120 0098 00       		.byte	0
 1121 0099 3F       		.uleb128 0x3f
 1122 009a 19       		.uleb128 0x19
 1123 009b 03       		.uleb128 0x3
 1124 009c 0E       		.uleb128 0xe
 1125 009d 3A       		.uleb128 0x3a
 1126 009e 0B       		.uleb128 0xb
 1127 009f 3B       		.uleb128 0x3b
 1128 00a0 05       		.uleb128 0x5
ARM GAS  C:\Users\THUNDE~1\AppData\Local\Temp\ccznISje.s 			page 30


 1129 00a1 27       		.uleb128 0x27
 1130 00a2 19       		.uleb128 0x19
 1131 00a3 11       		.uleb128 0x11
 1132 00a4 01       		.uleb128 0x1
 1133 00a5 12       		.uleb128 0x12
 1134 00a6 06       		.uleb128 0x6
 1135 00a7 40       		.uleb128 0x40
 1136 00a8 18       		.uleb128 0x18
 1137 00a9 9742     		.uleb128 0x2117
 1138 00ab 19       		.uleb128 0x19
 1139 00ac 00       		.byte	0
 1140 00ad 00       		.byte	0
 1141 00ae 0B       		.uleb128 0xb
 1142 00af 2E       		.uleb128 0x2e
 1143 00b0 00       		.byte	0
 1144 00b1 3F       		.uleb128 0x3f
 1145 00b2 19       		.uleb128 0x19
 1146 00b3 03       		.uleb128 0x3
 1147 00b4 0E       		.uleb128 0xe
 1148 00b5 3A       		.uleb128 0x3a
 1149 00b6 0B       		.uleb128 0xb
 1150 00b7 3B       		.uleb128 0x3b
 1151 00b8 05       		.uleb128 0x5
 1152 00b9 27       		.uleb128 0x27
 1153 00ba 19       		.uleb128 0x19
 1154 00bb 49       		.uleb128 0x49
 1155 00bc 13       		.uleb128 0x13
 1156 00bd 11       		.uleb128 0x11
 1157 00be 01       		.uleb128 0x1
 1158 00bf 12       		.uleb128 0x12
 1159 00c0 06       		.uleb128 0x6
 1160 00c1 40       		.uleb128 0x40
 1161 00c2 18       		.uleb128 0x18
 1162 00c3 9742     		.uleb128 0x2117
 1163 00c5 19       		.uleb128 0x19
 1164 00c6 00       		.byte	0
 1165 00c7 00       		.byte	0
 1166 00c8 0C       		.uleb128 0xc
 1167 00c9 34       		.uleb128 0x34
 1168 00ca 00       		.byte	0
 1169 00cb 03       		.uleb128 0x3
 1170 00cc 0E       		.uleb128 0xe
 1171 00cd 3A       		.uleb128 0x3a
 1172 00ce 0B       		.uleb128 0xb
 1173 00cf 3B       		.uleb128 0x3b
 1174 00d0 05       		.uleb128 0x5
 1175 00d1 49       		.uleb128 0x49
 1176 00d2 13       		.uleb128 0x13
 1177 00d3 02       		.uleb128 0x2
 1178 00d4 18       		.uleb128 0x18
 1179 00d5 00       		.byte	0
 1180 00d6 00       		.byte	0
 1181 00d7 0D       		.uleb128 0xd
 1182 00d8 34       		.uleb128 0x34
 1183 00d9 00       		.byte	0
 1184 00da 03       		.uleb128 0x3
 1185 00db 0E       		.uleb128 0xe
ARM GAS  C:\Users\THUNDE~1\AppData\Local\Temp\ccznISje.s 			page 31


 1186 00dc 3A       		.uleb128 0x3a
 1187 00dd 0B       		.uleb128 0xb
 1188 00de 3B       		.uleb128 0x3b
 1189 00df 0B       		.uleb128 0xb
 1190 00e0 49       		.uleb128 0x49
 1191 00e1 13       		.uleb128 0x13
 1192 00e2 3F       		.uleb128 0x3f
 1193 00e3 19       		.uleb128 0x19
 1194 00e4 02       		.uleb128 0x2
 1195 00e5 18       		.uleb128 0x18
 1196 00e6 00       		.byte	0
 1197 00e7 00       		.byte	0
 1198 00e8 00       		.byte	0
 1199              		.section	.debug_aranges,"",%progbits
 1200 0000 84000000 		.4byte	0x84
 1201 0004 0200     		.2byte	0x2
 1202 0006 00000000 		.4byte	.Ldebug_info0
 1203 000a 04       		.byte	0x4
 1204 000b 00       		.byte	0
 1205 000c 0000     		.2byte	0
 1206 000e 0000     		.2byte	0
 1207 0010 00000000 		.4byte	.LFB0
 1208 0014 A0000000 		.4byte	.LFE0-.LFB0
 1209 0018 00000000 		.4byte	.LFB1
 1210 001c 48000000 		.4byte	.LFE1-.LFB1
 1211 0020 00000000 		.4byte	.LFB2
 1212 0024 24000000 		.4byte	.LFE2-.LFB2
 1213 0028 00000000 		.4byte	.LFB3
 1214 002c 48000000 		.4byte	.LFE3-.LFB3
 1215 0030 00000000 		.4byte	.LFB4
 1216 0034 20000000 		.4byte	.LFE4-.LFB4
 1217 0038 00000000 		.4byte	.LFB5
 1218 003c 14000000 		.4byte	.LFE5-.LFB5
 1219 0040 00000000 		.4byte	.LFB6
 1220 0044 18000000 		.4byte	.LFE6-.LFB6
 1221 0048 00000000 		.4byte	.LFB7
 1222 004c 18000000 		.4byte	.LFE7-.LFB7
 1223 0050 00000000 		.4byte	.LFB8
 1224 0054 20000000 		.4byte	.LFE8-.LFB8
 1225 0058 00000000 		.4byte	.LFB9
 1226 005c 18000000 		.4byte	.LFE9-.LFB9
 1227 0060 00000000 		.4byte	.LFB10
 1228 0064 24000000 		.4byte	.LFE10-.LFB10
 1229 0068 00000000 		.4byte	.LFB11
 1230 006c 18000000 		.4byte	.LFE11-.LFB11
 1231 0070 00000000 		.4byte	.LFB12
 1232 0074 20000000 		.4byte	.LFE12-.LFB12
 1233 0078 00000000 		.4byte	.LFB13
 1234 007c 20000000 		.4byte	.LFE13-.LFB13
 1235 0080 00000000 		.4byte	0
 1236 0084 00000000 		.4byte	0
 1237              		.section	.debug_ranges,"",%progbits
 1238              	.Ldebug_ranges0:
 1239 0000 00000000 		.4byte	.LFB0
 1240 0004 A0000000 		.4byte	.LFE0
 1241 0008 00000000 		.4byte	.LFB1
 1242 000c 48000000 		.4byte	.LFE1
ARM GAS  C:\Users\THUNDE~1\AppData\Local\Temp\ccznISje.s 			page 32


 1243 0010 00000000 		.4byte	.LFB2
 1244 0014 24000000 		.4byte	.LFE2
 1245 0018 00000000 		.4byte	.LFB3
 1246 001c 48000000 		.4byte	.LFE3
 1247 0020 00000000 		.4byte	.LFB4
 1248 0024 20000000 		.4byte	.LFE4
 1249 0028 00000000 		.4byte	.LFB5
 1250 002c 14000000 		.4byte	.LFE5
 1251 0030 00000000 		.4byte	.LFB6
 1252 0034 18000000 		.4byte	.LFE6
 1253 0038 00000000 		.4byte	.LFB7
 1254 003c 18000000 		.4byte	.LFE7
 1255 0040 00000000 		.4byte	.LFB8
 1256 0044 20000000 		.4byte	.LFE8
 1257 0048 00000000 		.4byte	.LFB9
 1258 004c 18000000 		.4byte	.LFE9
 1259 0050 00000000 		.4byte	.LFB10
 1260 0054 24000000 		.4byte	.LFE10
 1261 0058 00000000 		.4byte	.LFB11
 1262 005c 18000000 		.4byte	.LFE11
 1263 0060 00000000 		.4byte	.LFB12
 1264 0064 20000000 		.4byte	.LFE12
 1265 0068 00000000 		.4byte	.LFB13
 1266 006c 20000000 		.4byte	.LFE13
 1267 0070 00000000 		.4byte	0
 1268 0074 00000000 		.4byte	0
 1269              		.section	.debug_line,"",%progbits
 1270              	.Ldebug_line0:
 1271 0000 5F010000 		.section	.debug_str,"MS",%progbits,1
 1271      02004800 
 1271      00000201 
 1271      FB0E0D00 
 1271      01010101 
 1272              	.LASF15:
 1273 0000 72656731 		.ascii	"reg16\000"
 1273      3600
 1274              	.LASF19:
 1275 0006 54696D65 		.ascii	"Timer_20KHz_Enable\000"
 1275      725F3230 
 1275      4B487A5F 
 1275      456E6162 
 1275      6C6500
 1276              	.LASF33:
 1277 0019 54696D65 		.ascii	"Timer_20KHz_WriteCounter\000"
 1277      725F3230 
 1277      4B487A5F 
 1277      57726974 
 1277      65436F75 
 1278              	.LASF36:
 1279 0032 474E5520 		.ascii	"GNU C11 5.4.1 20160609 (release) [ARM/embedded-5-br"
 1279      43313120 
 1279      352E342E 
 1279      31203230 
 1279      31363036 
 1280 0065 616E6368 		.ascii	"anch revision 237715] -mcpu=cortex-m3 -mthumb -g -O"
 1280      20726576 
 1280      6973696F 
ARM GAS  C:\Users\THUNDE~1\AppData\Local\Temp\ccznISje.s 			page 33


 1280      6E203233 
 1280      37373135 
 1281 0098 30202D66 		.ascii	"0 -ffunction-sections -ffat-lto-objects\000"
 1281      66756E63 
 1281      74696F6E 
 1281      2D736563 
 1281      74696F6E 
 1282              	.LASF30:
 1283 00c0 54696D65 		.ascii	"Timer_20KHz_WritePeriod\000"
 1283      725F3230 
 1283      4B487A5F 
 1283      57726974 
 1283      65506572 
 1284              	.LASF31:
 1285 00d8 70657269 		.ascii	"period\000"
 1285      6F6400
 1286              	.LASF3:
 1287 00df 73686F72 		.ascii	"short unsigned int\000"
 1287      7420756E 
 1287      7369676E 
 1287      65642069 
 1287      6E7400
 1288              	.LASF21:
 1289 00f2 54696D65 		.ascii	"Timer_20KHz_Stop\000"
 1289      725F3230 
 1289      4B487A5F 
 1289      53746F70 
 1289      00
 1290              	.LASF38:
 1291 0103 463A5C50 		.ascii	"F:\\Programme_Scripts\\PSOC Creator\\FreeRTOS\\Free"
 1291      726F6772 
 1291      616D6D65 
 1291      5F536372 
 1291      69707473 
 1292 0132 52544F53 		.ascii	"RTOS_CY8CKIT_059-master\\FreeRTOS_Demo.cydsn\000"
 1292      5F435938 
 1292      434B4954 
 1292      5F303539 
 1292      2D6D6173 
 1293              	.LASF11:
 1294 015e 666C6F61 		.ascii	"float\000"
 1294      7400
 1295              	.LASF34:
 1296 0164 636F756E 		.ascii	"counter\000"
 1296      74657200 
 1297              	.LASF1:
 1298 016c 756E7369 		.ascii	"unsigned char\000"
 1298      676E6564 
 1298      20636861 
 1298      7200
 1299              	.LASF14:
 1300 017a 72656738 		.ascii	"reg8\000"
 1300      00
 1301              	.LASF5:
 1302 017f 6C6F6E67 		.ascii	"long unsigned int\000"
 1302      20756E73 
 1302      69676E65 
ARM GAS  C:\Users\THUNDE~1\AppData\Local\Temp\ccznISje.s 			page 34


 1302      6420696E 
 1302      7400
 1303              	.LASF9:
 1304 0191 75696E74 		.ascii	"uint8\000"
 1304      3800
 1305              	.LASF28:
 1306 0197 636F6E74 		.ascii	"control\000"
 1306      726F6C00 
 1307              	.LASF37:
 1308 019f 47656E65 		.ascii	"Generated_Source\\PSoC5\\Timer_20KHz.c\000"
 1308      72617465 
 1308      645F536F 
 1308      75726365 
 1308      5C50536F 
 1309              	.LASF40:
 1310 01c4 54696D65 		.ascii	"Timer_20KHz_initVar\000"
 1310      725F3230 
 1310      4B487A5F 
 1310      696E6974 
 1310      56617200 
 1311              	.LASF12:
 1312 01d8 646F7562 		.ascii	"double\000"
 1312      6C6500
 1313              	.LASF32:
 1314 01df 54696D65 		.ascii	"Timer_20KHz_ReadCapture\000"
 1314      725F3230 
 1314      4B487A5F 
 1314      52656164 
 1314      43617074 
 1315              	.LASF10:
 1316 01f7 75696E74 		.ascii	"uint16\000"
 1316      313600
 1317              	.LASF26:
 1318 01fe 54696D65 		.ascii	"Timer_20KHz_WriteControlRegister\000"
 1318      725F3230 
 1318      4B487A5F 
 1318      57726974 
 1318      65436F6E 
 1319              	.LASF8:
 1320 021f 756E7369 		.ascii	"unsigned int\000"
 1320      676E6564 
 1320      20696E74 
 1320      00
 1321              	.LASF7:
 1322 022c 6C6F6E67 		.ascii	"long long unsigned int\000"
 1322      206C6F6E 
 1322      6720756E 
 1322      7369676E 
 1322      65642069 
 1323              	.LASF39:
 1324 0243 70657269 		.ascii	"period_temp\000"
 1324      6F645F74 
 1324      656D7000 
 1325              	.LASF29:
 1326 024f 54696D65 		.ascii	"Timer_20KHz_ReadPeriod\000"
 1326      725F3230 
 1326      4B487A5F 
ARM GAS  C:\Users\THUNDE~1\AppData\Local\Temp\ccznISje.s 			page 35


 1326      52656164 
 1326      50657269 
 1327              	.LASF25:
 1328 0266 54696D65 		.ascii	"Timer_20KHz_SetInterruptMode\000"
 1328      725F3230 
 1328      4B487A5F 
 1328      53657449 
 1328      6E746572 
 1329              	.LASF17:
 1330 0283 73697A65 		.ascii	"sizetype\000"
 1330      74797065 
 1330      00
 1331              	.LASF6:
 1332 028c 6C6F6E67 		.ascii	"long long int\000"
 1332      206C6F6E 
 1332      6720696E 
 1332      7400
 1333              	.LASF27:
 1334 029a 696E7465 		.ascii	"interruptMode\000"
 1334      72727570 
 1334      744D6F64 
 1334      6500
 1335              	.LASF35:
 1336 02a8 54696D65 		.ascii	"Timer_20KHz_ReadCounter\000"
 1336      725F3230 
 1336      4B487A5F 
 1336      52656164 
 1336      436F756E 
 1337              	.LASF2:
 1338 02c0 73686F72 		.ascii	"short int\000"
 1338      7420696E 
 1338      7400
 1339              	.LASF22:
 1340 02ca 54696D65 		.ascii	"Timer_20KHz_SoftwareCapture\000"
 1340      725F3230 
 1340      4B487A5F 
 1340      536F6674 
 1340      77617265 
 1341              	.LASF18:
 1342 02e6 54696D65 		.ascii	"Timer_20KHz_Init\000"
 1342      725F3230 
 1342      4B487A5F 
 1342      496E6974 
 1342      00
 1343              	.LASF4:
 1344 02f7 6C6F6E67 		.ascii	"long int\000"
 1344      20696E74 
 1344      00
 1345              	.LASF13:
 1346 0300 63686172 		.ascii	"char\000"
 1346      00
 1347              	.LASF16:
 1348 0305 6C6F6E67 		.ascii	"long double\000"
 1348      20646F75 
 1348      626C6500 
 1349              	.LASF0:
 1350 0311 7369676E 		.ascii	"signed char\000"
ARM GAS  C:\Users\THUNDE~1\AppData\Local\Temp\ccznISje.s 			page 36


 1350      65642063 
 1350      68617200 
 1351              	.LASF24:
 1352 031d 54696D65 		.ascii	"Timer_20KHz_ReadControlRegister\000"
 1352      725F3230 
 1352      4B487A5F 
 1352      52656164 
 1352      436F6E74 
 1353              	.LASF20:
 1354 033d 54696D65 		.ascii	"Timer_20KHz_Start\000"
 1354      725F3230 
 1354      4B487A5F 
 1354      53746172 
 1354      7400
 1355              	.LASF23:
 1356 034f 54696D65 		.ascii	"Timer_20KHz_ReadStatusRegister\000"
 1356      725F3230 
 1356      4B487A5F 
 1356      52656164 
 1356      53746174 
 1357              		.ident	"GCC: (GNU Tools for ARM Embedded Processors) 5.4.1 20160609 (release) [ARM/embedded-5-bran
