ARM GAS  C:\Users\THUNDE~1\AppData\Local\Temp\ccspCUhO.s 			page 1


   1              		.syntax unified
   2              		.cpu cortex-m3
   3              		.fpu softvfp
   4              		.eabi_attribute 20, 1
   5              		.eabi_attribute 21, 1
   6              		.eabi_attribute 23, 3
   7              		.eabi_attribute 24, 1
   8              		.eabi_attribute 25, 1
   9              		.eabi_attribute 26, 1
  10              		.eabi_attribute 30, 6
  11              		.eabi_attribute 34, 1
  12              		.eabi_attribute 18, 4
  13              		.thumb
  14              		.syntax unified
  15              		.file	"Timer_48MHz_PM.c"
  16              		.text
  17              	.Ltext0:
  18              		.cfi_sections	.debug_frame
  19              		.bss
  20              		.align	2
  21              	Timer_48MHz_backup:
  22 0000 00       		.space	1
  23              		.section	.text.Timer_48MHz_SaveConfig,"ax",%progbits
  24              		.align	2
  25              		.global	Timer_48MHz_SaveConfig
  26              		.thumb
  27              		.thumb_func
  28              		.type	Timer_48MHz_SaveConfig, %function
  29              	Timer_48MHz_SaveConfig:
  30              	.LFB0:
  31              		.file 1 "Generated_Source\\PSoC5\\Timer_48MHz_PM.c"
   1:Generated_Source\PSoC5/Timer_48MHz_PM.c **** /*******************************************************************************
   2:Generated_Source\PSoC5/Timer_48MHz_PM.c **** * File Name: Timer_48MHz_PM.c
   3:Generated_Source\PSoC5/Timer_48MHz_PM.c **** * Version 2.70
   4:Generated_Source\PSoC5/Timer_48MHz_PM.c **** *
   5:Generated_Source\PSoC5/Timer_48MHz_PM.c **** *  Description:
   6:Generated_Source\PSoC5/Timer_48MHz_PM.c **** *     This file provides the power management source code to API for the
   7:Generated_Source\PSoC5/Timer_48MHz_PM.c **** *     Timer.
   8:Generated_Source\PSoC5/Timer_48MHz_PM.c **** *
   9:Generated_Source\PSoC5/Timer_48MHz_PM.c **** *   Note:
  10:Generated_Source\PSoC5/Timer_48MHz_PM.c **** *     None
  11:Generated_Source\PSoC5/Timer_48MHz_PM.c **** *
  12:Generated_Source\PSoC5/Timer_48MHz_PM.c **** *******************************************************************************
  13:Generated_Source\PSoC5/Timer_48MHz_PM.c **** * Copyright 2008-2014, Cypress Semiconductor Corporation.  All rights reserved.
  14:Generated_Source\PSoC5/Timer_48MHz_PM.c **** * You may use this file only in accordance with the license, terms, conditions,
  15:Generated_Source\PSoC5/Timer_48MHz_PM.c **** * disclaimers, and limitations in the end user license agreement accompanying
  16:Generated_Source\PSoC5/Timer_48MHz_PM.c **** * the software package with which this file was provided.
  17:Generated_Source\PSoC5/Timer_48MHz_PM.c **** ********************************************************************************/
  18:Generated_Source\PSoC5/Timer_48MHz_PM.c **** 
  19:Generated_Source\PSoC5/Timer_48MHz_PM.c **** #include "Timer_48MHz.h"
  20:Generated_Source\PSoC5/Timer_48MHz_PM.c **** 
  21:Generated_Source\PSoC5/Timer_48MHz_PM.c **** static Timer_48MHz_backupStruct Timer_48MHz_backup;
  22:Generated_Source\PSoC5/Timer_48MHz_PM.c **** 
  23:Generated_Source\PSoC5/Timer_48MHz_PM.c **** 
  24:Generated_Source\PSoC5/Timer_48MHz_PM.c **** /*******************************************************************************
  25:Generated_Source\PSoC5/Timer_48MHz_PM.c **** * Function Name: Timer_48MHz_SaveConfig
  26:Generated_Source\PSoC5/Timer_48MHz_PM.c **** ********************************************************************************
ARM GAS  C:\Users\THUNDE~1\AppData\Local\Temp\ccspCUhO.s 			page 2


  27:Generated_Source\PSoC5/Timer_48MHz_PM.c **** *
  28:Generated_Source\PSoC5/Timer_48MHz_PM.c **** * Summary:
  29:Generated_Source\PSoC5/Timer_48MHz_PM.c **** *     Save the current user configuration
  30:Generated_Source\PSoC5/Timer_48MHz_PM.c **** *
  31:Generated_Source\PSoC5/Timer_48MHz_PM.c **** * Parameters:
  32:Generated_Source\PSoC5/Timer_48MHz_PM.c **** *  void
  33:Generated_Source\PSoC5/Timer_48MHz_PM.c **** *
  34:Generated_Source\PSoC5/Timer_48MHz_PM.c **** * Return:
  35:Generated_Source\PSoC5/Timer_48MHz_PM.c **** *  void
  36:Generated_Source\PSoC5/Timer_48MHz_PM.c **** *
  37:Generated_Source\PSoC5/Timer_48MHz_PM.c **** * Global variables:
  38:Generated_Source\PSoC5/Timer_48MHz_PM.c **** *  Timer_48MHz_backup:  Variables of this global structure are modified to
  39:Generated_Source\PSoC5/Timer_48MHz_PM.c **** *  store the values of non retention configuration registers when Sleep() API is
  40:Generated_Source\PSoC5/Timer_48MHz_PM.c **** *  called.
  41:Generated_Source\PSoC5/Timer_48MHz_PM.c **** *
  42:Generated_Source\PSoC5/Timer_48MHz_PM.c **** *******************************************************************************/
  43:Generated_Source\PSoC5/Timer_48MHz_PM.c **** void Timer_48MHz_SaveConfig(void) 
  44:Generated_Source\PSoC5/Timer_48MHz_PM.c **** {
  32              		.loc 1 44 0
  33              		.cfi_startproc
  34              		@ args = 0, pretend = 0, frame = 0
  35              		@ frame_needed = 1, uses_anonymous_args = 0
  36              		@ link register save eliminated.
  37 0000 80B4     		push	{r7}
  38              		.cfi_def_cfa_offset 4
  39              		.cfi_offset 7, -4
  40 0002 00AF     		add	r7, sp, #0
  41              		.cfi_def_cfa_register 7
  45:Generated_Source\PSoC5/Timer_48MHz_PM.c ****     #if (!Timer_48MHz_UsingFixedFunction)
  46:Generated_Source\PSoC5/Timer_48MHz_PM.c ****         Timer_48MHz_backup.TimerUdb = Timer_48MHz_ReadCounter();
  47:Generated_Source\PSoC5/Timer_48MHz_PM.c ****         Timer_48MHz_backup.InterruptMaskValue = Timer_48MHz_STATUS_MASK;
  48:Generated_Source\PSoC5/Timer_48MHz_PM.c ****         #if (Timer_48MHz_UsingHWCaptureCounter)
  49:Generated_Source\PSoC5/Timer_48MHz_PM.c ****             Timer_48MHz_backup.TimerCaptureCounter = Timer_48MHz_ReadCaptureCount();
  50:Generated_Source\PSoC5/Timer_48MHz_PM.c ****         #endif /* Back Up capture counter register  */
  51:Generated_Source\PSoC5/Timer_48MHz_PM.c **** 
  52:Generated_Source\PSoC5/Timer_48MHz_PM.c ****         #if(!Timer_48MHz_UDB_CONTROL_REG_REMOVED)
  53:Generated_Source\PSoC5/Timer_48MHz_PM.c ****             Timer_48MHz_backup.TimerControlRegister = Timer_48MHz_ReadControlRegister();
  54:Generated_Source\PSoC5/Timer_48MHz_PM.c ****         #endif /* Backup the enable state of the Timer component */
  55:Generated_Source\PSoC5/Timer_48MHz_PM.c ****     #endif /* Backup non retention registers in UDB implementation. All fixed function registers ar
  56:Generated_Source\PSoC5/Timer_48MHz_PM.c **** }
  42              		.loc 1 56 0
  43 0004 00BF     		nop
  44 0006 BD46     		mov	sp, r7
  45              		.cfi_def_cfa_register 13
  46              		@ sp needed
  47 0008 80BC     		pop	{r7}
  48              		.cfi_restore 7
  49              		.cfi_def_cfa_offset 0
  50 000a 7047     		bx	lr
  51              		.cfi_endproc
  52              	.LFE0:
  53              		.size	Timer_48MHz_SaveConfig, .-Timer_48MHz_SaveConfig
  54              		.section	.text.Timer_48MHz_RestoreConfig,"ax",%progbits
  55              		.align	2
  56              		.global	Timer_48MHz_RestoreConfig
  57              		.thumb
  58              		.thumb_func
ARM GAS  C:\Users\THUNDE~1\AppData\Local\Temp\ccspCUhO.s 			page 3


  59              		.type	Timer_48MHz_RestoreConfig, %function
  60              	Timer_48MHz_RestoreConfig:
  61              	.LFB1:
  57:Generated_Source\PSoC5/Timer_48MHz_PM.c **** 
  58:Generated_Source\PSoC5/Timer_48MHz_PM.c **** 
  59:Generated_Source\PSoC5/Timer_48MHz_PM.c **** /*******************************************************************************
  60:Generated_Source\PSoC5/Timer_48MHz_PM.c **** * Function Name: Timer_48MHz_RestoreConfig
  61:Generated_Source\PSoC5/Timer_48MHz_PM.c **** ********************************************************************************
  62:Generated_Source\PSoC5/Timer_48MHz_PM.c **** *
  63:Generated_Source\PSoC5/Timer_48MHz_PM.c **** * Summary:
  64:Generated_Source\PSoC5/Timer_48MHz_PM.c **** *  Restores the current user configuration.
  65:Generated_Source\PSoC5/Timer_48MHz_PM.c **** *
  66:Generated_Source\PSoC5/Timer_48MHz_PM.c **** * Parameters:
  67:Generated_Source\PSoC5/Timer_48MHz_PM.c **** *  void
  68:Generated_Source\PSoC5/Timer_48MHz_PM.c **** *
  69:Generated_Source\PSoC5/Timer_48MHz_PM.c **** * Return:
  70:Generated_Source\PSoC5/Timer_48MHz_PM.c **** *  void
  71:Generated_Source\PSoC5/Timer_48MHz_PM.c **** *
  72:Generated_Source\PSoC5/Timer_48MHz_PM.c **** * Global variables:
  73:Generated_Source\PSoC5/Timer_48MHz_PM.c **** *  Timer_48MHz_backup:  Variables of this global structure are used to
  74:Generated_Source\PSoC5/Timer_48MHz_PM.c **** *  restore the values of non retention registers on wakeup from sleep mode.
  75:Generated_Source\PSoC5/Timer_48MHz_PM.c **** *
  76:Generated_Source\PSoC5/Timer_48MHz_PM.c **** *******************************************************************************/
  77:Generated_Source\PSoC5/Timer_48MHz_PM.c **** void Timer_48MHz_RestoreConfig(void) 
  78:Generated_Source\PSoC5/Timer_48MHz_PM.c **** {   
  62              		.loc 1 78 0
  63              		.cfi_startproc
  64              		@ args = 0, pretend = 0, frame = 0
  65              		@ frame_needed = 1, uses_anonymous_args = 0
  66              		@ link register save eliminated.
  67 0000 80B4     		push	{r7}
  68              		.cfi_def_cfa_offset 4
  69              		.cfi_offset 7, -4
  70 0002 00AF     		add	r7, sp, #0
  71              		.cfi_def_cfa_register 7
  79:Generated_Source\PSoC5/Timer_48MHz_PM.c ****     #if (!Timer_48MHz_UsingFixedFunction)
  80:Generated_Source\PSoC5/Timer_48MHz_PM.c **** 
  81:Generated_Source\PSoC5/Timer_48MHz_PM.c ****         Timer_48MHz_WriteCounter(Timer_48MHz_backup.TimerUdb);
  82:Generated_Source\PSoC5/Timer_48MHz_PM.c ****         Timer_48MHz_STATUS_MASK =Timer_48MHz_backup.InterruptMaskValue;
  83:Generated_Source\PSoC5/Timer_48MHz_PM.c ****         #if (Timer_48MHz_UsingHWCaptureCounter)
  84:Generated_Source\PSoC5/Timer_48MHz_PM.c ****             Timer_48MHz_SetCaptureCount(Timer_48MHz_backup.TimerCaptureCounter);
  85:Generated_Source\PSoC5/Timer_48MHz_PM.c ****         #endif /* Restore Capture counter register*/
  86:Generated_Source\PSoC5/Timer_48MHz_PM.c **** 
  87:Generated_Source\PSoC5/Timer_48MHz_PM.c ****         #if(!Timer_48MHz_UDB_CONTROL_REG_REMOVED)
  88:Generated_Source\PSoC5/Timer_48MHz_PM.c ****             Timer_48MHz_WriteControlRegister(Timer_48MHz_backup.TimerControlRegister);
  89:Generated_Source\PSoC5/Timer_48MHz_PM.c ****         #endif /* Restore the enable state of the Timer component */
  90:Generated_Source\PSoC5/Timer_48MHz_PM.c ****     #endif /* Restore non retention registers in the UDB implementation only */
  91:Generated_Source\PSoC5/Timer_48MHz_PM.c **** }
  72              		.loc 1 91 0
  73 0004 00BF     		nop
  74 0006 BD46     		mov	sp, r7
  75              		.cfi_def_cfa_register 13
  76              		@ sp needed
  77 0008 80BC     		pop	{r7}
  78              		.cfi_restore 7
  79              		.cfi_def_cfa_offset 0
  80 000a 7047     		bx	lr
ARM GAS  C:\Users\THUNDE~1\AppData\Local\Temp\ccspCUhO.s 			page 4


  81              		.cfi_endproc
  82              	.LFE1:
  83              		.size	Timer_48MHz_RestoreConfig, .-Timer_48MHz_RestoreConfig
  84              		.section	.text.Timer_48MHz_Sleep,"ax",%progbits
  85              		.align	2
  86              		.global	Timer_48MHz_Sleep
  87              		.thumb
  88              		.thumb_func
  89              		.type	Timer_48MHz_Sleep, %function
  90              	Timer_48MHz_Sleep:
  91              	.LFB2:
  92:Generated_Source\PSoC5/Timer_48MHz_PM.c **** 
  93:Generated_Source\PSoC5/Timer_48MHz_PM.c **** 
  94:Generated_Source\PSoC5/Timer_48MHz_PM.c **** /*******************************************************************************
  95:Generated_Source\PSoC5/Timer_48MHz_PM.c **** * Function Name: Timer_48MHz_Sleep
  96:Generated_Source\PSoC5/Timer_48MHz_PM.c **** ********************************************************************************
  97:Generated_Source\PSoC5/Timer_48MHz_PM.c **** *
  98:Generated_Source\PSoC5/Timer_48MHz_PM.c **** * Summary:
  99:Generated_Source\PSoC5/Timer_48MHz_PM.c **** *     Stop and Save the user configuration
 100:Generated_Source\PSoC5/Timer_48MHz_PM.c **** *
 101:Generated_Source\PSoC5/Timer_48MHz_PM.c **** * Parameters:
 102:Generated_Source\PSoC5/Timer_48MHz_PM.c **** *  void
 103:Generated_Source\PSoC5/Timer_48MHz_PM.c **** *
 104:Generated_Source\PSoC5/Timer_48MHz_PM.c **** * Return:
 105:Generated_Source\PSoC5/Timer_48MHz_PM.c **** *  void
 106:Generated_Source\PSoC5/Timer_48MHz_PM.c **** *
 107:Generated_Source\PSoC5/Timer_48MHz_PM.c **** * Global variables:
 108:Generated_Source\PSoC5/Timer_48MHz_PM.c **** *  Timer_48MHz_backup.TimerEnableState:  Is modified depending on the
 109:Generated_Source\PSoC5/Timer_48MHz_PM.c **** *  enable state of the block before entering sleep mode.
 110:Generated_Source\PSoC5/Timer_48MHz_PM.c **** *
 111:Generated_Source\PSoC5/Timer_48MHz_PM.c **** *******************************************************************************/
 112:Generated_Source\PSoC5/Timer_48MHz_PM.c **** void Timer_48MHz_Sleep(void) 
 113:Generated_Source\PSoC5/Timer_48MHz_PM.c **** {
  92              		.loc 1 113 0
  93              		.cfi_startproc
  94              		@ args = 0, pretend = 0, frame = 0
  95              		@ frame_needed = 1, uses_anonymous_args = 0
  96 0000 80B5     		push	{r7, lr}
  97              		.cfi_def_cfa_offset 8
  98              		.cfi_offset 7, -8
  99              		.cfi_offset 14, -4
 100 0002 00AF     		add	r7, sp, #0
 101              		.cfi_def_cfa_register 7
 114:Generated_Source\PSoC5/Timer_48MHz_PM.c ****     #if(!Timer_48MHz_UDB_CONTROL_REG_REMOVED)
 115:Generated_Source\PSoC5/Timer_48MHz_PM.c ****         /* Save Counter's enable state */
 116:Generated_Source\PSoC5/Timer_48MHz_PM.c ****         if(Timer_48MHz_CTRL_ENABLE == (Timer_48MHz_CONTROL & Timer_48MHz_CTRL_ENABLE))
 102              		.loc 1 116 0
 103 0004 094B     		ldr	r3, .L6
 104 0006 1B78     		ldrb	r3, [r3]
 105 0008 DBB2     		uxtb	r3, r3
 106 000a 03F00103 		and	r3, r3, #1
 107 000e 002B     		cmp	r3, #0
 108 0010 03D0     		beq	.L4
 117:Generated_Source\PSoC5/Timer_48MHz_PM.c ****         {
 118:Generated_Source\PSoC5/Timer_48MHz_PM.c ****             /* Timer is enabled */
 119:Generated_Source\PSoC5/Timer_48MHz_PM.c ****             Timer_48MHz_backup.TimerEnableState = 1u;
 109              		.loc 1 119 0
ARM GAS  C:\Users\THUNDE~1\AppData\Local\Temp\ccspCUhO.s 			page 5


 110 0012 074B     		ldr	r3, .L6+4
 111 0014 0122     		movs	r2, #1
 112 0016 1A70     		strb	r2, [r3]
 113 0018 02E0     		b	.L5
 114              	.L4:
 120:Generated_Source\PSoC5/Timer_48MHz_PM.c ****         }
 121:Generated_Source\PSoC5/Timer_48MHz_PM.c ****         else
 122:Generated_Source\PSoC5/Timer_48MHz_PM.c ****         {
 123:Generated_Source\PSoC5/Timer_48MHz_PM.c ****             /* Timer is disabled */
 124:Generated_Source\PSoC5/Timer_48MHz_PM.c ****             Timer_48MHz_backup.TimerEnableState = 0u;
 115              		.loc 1 124 0
 116 001a 054B     		ldr	r3, .L6+4
 117 001c 0022     		movs	r2, #0
 118 001e 1A70     		strb	r2, [r3]
 119              	.L5:
 125:Generated_Source\PSoC5/Timer_48MHz_PM.c ****         }
 126:Generated_Source\PSoC5/Timer_48MHz_PM.c ****     #endif /* Back up enable state from the Timer control register */
 127:Generated_Source\PSoC5/Timer_48MHz_PM.c ****     Timer_48MHz_Stop();
 120              		.loc 1 127 0
 121 0020 FFF7FEFF 		bl	Timer_48MHz_Stop
 128:Generated_Source\PSoC5/Timer_48MHz_PM.c ****     Timer_48MHz_SaveConfig();
 122              		.loc 1 128 0
 123 0024 FFF7FEFF 		bl	Timer_48MHz_SaveConfig
 129:Generated_Source\PSoC5/Timer_48MHz_PM.c **** }
 124              		.loc 1 129 0
 125 0028 00BF     		nop
 126 002a 80BD     		pop	{r7, pc}
 127              	.L7:
 128              		.align	2
 129              	.L6:
 130 002c 0C4F0040 		.word	1073762060
 131 0030 00000000 		.word	Timer_48MHz_backup
 132              		.cfi_endproc
 133              	.LFE2:
 134              		.size	Timer_48MHz_Sleep, .-Timer_48MHz_Sleep
 135              		.section	.text.Timer_48MHz_Wakeup,"ax",%progbits
 136              		.align	2
 137              		.global	Timer_48MHz_Wakeup
 138              		.thumb
 139              		.thumb_func
 140              		.type	Timer_48MHz_Wakeup, %function
 141              	Timer_48MHz_Wakeup:
 142              	.LFB3:
 130:Generated_Source\PSoC5/Timer_48MHz_PM.c **** 
 131:Generated_Source\PSoC5/Timer_48MHz_PM.c **** 
 132:Generated_Source\PSoC5/Timer_48MHz_PM.c **** /*******************************************************************************
 133:Generated_Source\PSoC5/Timer_48MHz_PM.c **** * Function Name: Timer_48MHz_Wakeup
 134:Generated_Source\PSoC5/Timer_48MHz_PM.c **** ********************************************************************************
 135:Generated_Source\PSoC5/Timer_48MHz_PM.c **** *
 136:Generated_Source\PSoC5/Timer_48MHz_PM.c **** * Summary:
 137:Generated_Source\PSoC5/Timer_48MHz_PM.c **** *  Restores and enables the user configuration
 138:Generated_Source\PSoC5/Timer_48MHz_PM.c **** *
 139:Generated_Source\PSoC5/Timer_48MHz_PM.c **** * Parameters:
 140:Generated_Source\PSoC5/Timer_48MHz_PM.c **** *  void
 141:Generated_Source\PSoC5/Timer_48MHz_PM.c **** *
 142:Generated_Source\PSoC5/Timer_48MHz_PM.c **** * Return:
 143:Generated_Source\PSoC5/Timer_48MHz_PM.c **** *  void
ARM GAS  C:\Users\THUNDE~1\AppData\Local\Temp\ccspCUhO.s 			page 6


 144:Generated_Source\PSoC5/Timer_48MHz_PM.c **** *
 145:Generated_Source\PSoC5/Timer_48MHz_PM.c **** * Global variables:
 146:Generated_Source\PSoC5/Timer_48MHz_PM.c **** *  Timer_48MHz_backup.enableState:  Is used to restore the enable state of
 147:Generated_Source\PSoC5/Timer_48MHz_PM.c **** *  block on wakeup from sleep mode.
 148:Generated_Source\PSoC5/Timer_48MHz_PM.c **** *
 149:Generated_Source\PSoC5/Timer_48MHz_PM.c **** *******************************************************************************/
 150:Generated_Source\PSoC5/Timer_48MHz_PM.c **** void Timer_48MHz_Wakeup(void) 
 151:Generated_Source\PSoC5/Timer_48MHz_PM.c **** {
 143              		.loc 1 151 0
 144              		.cfi_startproc
 145              		@ args = 0, pretend = 0, frame = 0
 146              		@ frame_needed = 1, uses_anonymous_args = 0
 147 0000 80B5     		push	{r7, lr}
 148              		.cfi_def_cfa_offset 8
 149              		.cfi_offset 7, -8
 150              		.cfi_offset 14, -4
 151 0002 00AF     		add	r7, sp, #0
 152              		.cfi_def_cfa_register 7
 152:Generated_Source\PSoC5/Timer_48MHz_PM.c ****     Timer_48MHz_RestoreConfig();
 153              		.loc 1 152 0
 154 0004 FFF7FEFF 		bl	Timer_48MHz_RestoreConfig
 153:Generated_Source\PSoC5/Timer_48MHz_PM.c ****     #if(!Timer_48MHz_UDB_CONTROL_REG_REMOVED)
 154:Generated_Source\PSoC5/Timer_48MHz_PM.c ****         if(Timer_48MHz_backup.TimerEnableState == 1u)
 155              		.loc 1 154 0
 156 0008 034B     		ldr	r3, .L11
 157 000a 1B78     		ldrb	r3, [r3]	@ zero_extendqisi2
 158 000c 012B     		cmp	r3, #1
 159 000e 01D1     		bne	.L10
 155:Generated_Source\PSoC5/Timer_48MHz_PM.c ****         {     /* Enable Timer's operation */
 156:Generated_Source\PSoC5/Timer_48MHz_PM.c ****                 Timer_48MHz_Enable();
 160              		.loc 1 156 0
 161 0010 FFF7FEFF 		bl	Timer_48MHz_Enable
 162              	.L10:
 157:Generated_Source\PSoC5/Timer_48MHz_PM.c ****         } /* Do nothing if Timer was disabled before */
 158:Generated_Source\PSoC5/Timer_48MHz_PM.c ****     #endif /* Remove this code section if Control register is removed */
 159:Generated_Source\PSoC5/Timer_48MHz_PM.c **** }
 163              		.loc 1 159 0
 164 0014 00BF     		nop
 165 0016 80BD     		pop	{r7, pc}
 166              	.L12:
 167              		.align	2
 168              	.L11:
 169 0018 00000000 		.word	Timer_48MHz_backup
 170              		.cfi_endproc
 171              	.LFE3:
 172              		.size	Timer_48MHz_Wakeup, .-Timer_48MHz_Wakeup
 173              		.text
 174              	.Letext0:
 175              		.file 2 "Generated_Source\\PSoC5\\cytypes.h"
 176              		.file 3 "Generated_Source\\PSoC5\\Timer_48MHz.h"