ARM GAS  C:\Users\THUNDE~1\AppData\Local\Temp\ccznISje.s 			page 1


   1              		.syntax unified
   2              		.cpu cortex-m3
   3              		.fpu softvfp
   4              		.eabi_attribute 20, 1
   5              		.eabi_attribute 21, 1
   6              		.eabi_attribute 23, 3
   7              		.eabi_attribute 24, 1
   8              		.eabi_attribute 25, 1
   9              		.eabi_attribute 26, 1
  10              		.eabi_attribute 30, 6
  11              		.eabi_attribute 34, 1
  12              		.eabi_attribute 18, 4
  13              		.thumb
  14              		.syntax unified
  15              		.file	"Timer_20KHz.c"
  16              		.text
  17              	.Ltext0:
  18              		.cfi_sections	.debug_frame
  19              		.global	Timer_20KHz_initVar
  20              		.bss
  21              		.type	Timer_20KHz_initVar, %object
  22              		.size	Timer_20KHz_initVar, 1
  23              	Timer_20KHz_initVar:
  24 0000 00       		.space	1
  25              		.section	.text.Timer_20KHz_Init,"ax",%progbits
  26              		.align	2
  27              		.global	Timer_20KHz_Init
  28              		.thumb
  29              		.thumb_func
  30              		.type	Timer_20KHz_Init, %function
  31              	Timer_20KHz_Init:
  32              	.LFB0:
  33              		.file 1 "Generated_Source\\PSoC5\\Timer_20KHz.c"
   1:Generated_Source\PSoC5/Timer_20KHz.c **** /*******************************************************************************
   2:Generated_Source\PSoC5/Timer_20KHz.c **** * File Name: Timer_20KHz.c
   3:Generated_Source\PSoC5/Timer_20KHz.c **** * Version 2.70
   4:Generated_Source\PSoC5/Timer_20KHz.c **** *
   5:Generated_Source\PSoC5/Timer_20KHz.c **** * Description:
   6:Generated_Source\PSoC5/Timer_20KHz.c **** *  The Timer component consists of a 8, 16, 24 or 32-bit timer with
   7:Generated_Source\PSoC5/Timer_20KHz.c **** *  a selectable period between 2 and 2^Width - 1.  The timer may free run
   8:Generated_Source\PSoC5/Timer_20KHz.c **** *  or be used as a capture timer as well.  The capture can be initiated
   9:Generated_Source\PSoC5/Timer_20KHz.c **** *  by a positive or negative edge signal as well as via software.
  10:Generated_Source\PSoC5/Timer_20KHz.c **** *  A trigger input can be programmed to enable the timer on rising edge
  11:Generated_Source\PSoC5/Timer_20KHz.c **** *  falling edge, either edge or continous run.
  12:Generated_Source\PSoC5/Timer_20KHz.c **** *  Interrupts may be generated due to a terminal count condition
  13:Generated_Source\PSoC5/Timer_20KHz.c **** *  or a capture event.
  14:Generated_Source\PSoC5/Timer_20KHz.c **** *
  15:Generated_Source\PSoC5/Timer_20KHz.c **** * Note:
  16:Generated_Source\PSoC5/Timer_20KHz.c **** *
  17:Generated_Source\PSoC5/Timer_20KHz.c **** ********************************************************************************
  18:Generated_Source\PSoC5/Timer_20KHz.c **** * Copyright 2008-2014, Cypress Semiconductor Corporation.  All rights reserved.
  19:Generated_Source\PSoC5/Timer_20KHz.c **** * You may use this file only in accordance with the license, terms, conditions,
  20:Generated_Source\PSoC5/Timer_20KHz.c **** * disclaimers, and limitations in the end user license agreement accompanying
  21:Generated_Source\PSoC5/Timer_20KHz.c **** * the software package with which this file was provided.
  22:Generated_Source\PSoC5/Timer_20KHz.c **** ********************************************************************************/
  23:Generated_Source\PSoC5/Timer_20KHz.c **** 
  24:Generated_Source\PSoC5/Timer_20KHz.c **** #include "Timer_20KHz.h"
ARM GAS  C:\Users\THUNDE~1\AppData\Local\Temp\ccznISje.s 			page 2


  25:Generated_Source\PSoC5/Timer_20KHz.c **** 
  26:Generated_Source\PSoC5/Timer_20KHz.c **** uint8 Timer_20KHz_initVar = 0u;
  27:Generated_Source\PSoC5/Timer_20KHz.c **** 
  28:Generated_Source\PSoC5/Timer_20KHz.c **** 
  29:Generated_Source\PSoC5/Timer_20KHz.c **** /*******************************************************************************
  30:Generated_Source\PSoC5/Timer_20KHz.c **** * Function Name: Timer_20KHz_Init
  31:Generated_Source\PSoC5/Timer_20KHz.c **** ********************************************************************************
  32:Generated_Source\PSoC5/Timer_20KHz.c **** *
  33:Generated_Source\PSoC5/Timer_20KHz.c **** * Summary:
  34:Generated_Source\PSoC5/Timer_20KHz.c **** *  Initialize to the schematic state
  35:Generated_Source\PSoC5/Timer_20KHz.c **** *
  36:Generated_Source\PSoC5/Timer_20KHz.c **** * Parameters:
  37:Generated_Source\PSoC5/Timer_20KHz.c **** *  void
  38:Generated_Source\PSoC5/Timer_20KHz.c **** *
  39:Generated_Source\PSoC5/Timer_20KHz.c **** * Return:
  40:Generated_Source\PSoC5/Timer_20KHz.c **** *  void
  41:Generated_Source\PSoC5/Timer_20KHz.c **** *
  42:Generated_Source\PSoC5/Timer_20KHz.c **** *******************************************************************************/
  43:Generated_Source\PSoC5/Timer_20KHz.c **** void Timer_20KHz_Init(void) 
  44:Generated_Source\PSoC5/Timer_20KHz.c **** {
  34              		.loc 1 44 0
  35              		.cfi_startproc
  36              		@ args = 0, pretend = 0, frame = 0
  37              		@ frame_needed = 1, uses_anonymous_args = 0
  38 0000 80B5     		push	{r7, lr}
  39              		.cfi_def_cfa_offset 8
  40              		.cfi_offset 7, -8
  41              		.cfi_offset 14, -4
  42 0002 00AF     		add	r7, sp, #0
  43              		.cfi_def_cfa_register 7
  45:Generated_Source\PSoC5/Timer_20KHz.c ****     #if(!Timer_20KHz_UsingFixedFunction)
  46:Generated_Source\PSoC5/Timer_20KHz.c ****             /* Interrupt State Backup for Critical Region*/
  47:Generated_Source\PSoC5/Timer_20KHz.c ****             uint8 Timer_20KHz_interruptState;
  48:Generated_Source\PSoC5/Timer_20KHz.c ****     #endif /* Interrupt state back up for Fixed Function only */
  49:Generated_Source\PSoC5/Timer_20KHz.c **** 
  50:Generated_Source\PSoC5/Timer_20KHz.c ****     #if (Timer_20KHz_UsingFixedFunction)
  51:Generated_Source\PSoC5/Timer_20KHz.c ****         /* Clear all bits but the enable bit (if it's already set) for Timer operation */
  52:Generated_Source\PSoC5/Timer_20KHz.c ****         Timer_20KHz_CONTROL &= Timer_20KHz_CTRL_ENABLE;
  44              		.loc 1 52 0
  45 0004 224A     		ldr	r2, .L2
  46 0006 224B     		ldr	r3, .L2
  47 0008 1B78     		ldrb	r3, [r3]
  48 000a DBB2     		uxtb	r3, r3
  49 000c 03F00103 		and	r3, r3, #1
  50 0010 DBB2     		uxtb	r3, r3
  51 0012 1370     		strb	r3, [r2]
  53:Generated_Source\PSoC5/Timer_20KHz.c **** 
  54:Generated_Source\PSoC5/Timer_20KHz.c ****         /* Clear the mode bits for continuous run mode */
  55:Generated_Source\PSoC5/Timer_20KHz.c ****         #if (CY_PSOC5A)
  56:Generated_Source\PSoC5/Timer_20KHz.c ****             Timer_20KHz_CONTROL2 &= ((uint8)(~Timer_20KHz_CTRL_MODE_MASK));
  57:Generated_Source\PSoC5/Timer_20KHz.c ****         #endif /* Clear bits in CONTROL2 only in PSOC5A */
  58:Generated_Source\PSoC5/Timer_20KHz.c **** 
  59:Generated_Source\PSoC5/Timer_20KHz.c ****         #if (CY_PSOC3 || CY_PSOC5LP)
  60:Generated_Source\PSoC5/Timer_20KHz.c ****             Timer_20KHz_CONTROL3 &= ((uint8)(~Timer_20KHz_CTRL_MODE_MASK));
  52              		.loc 1 60 0
  53 0014 1F4A     		ldr	r2, .L2+4
  54 0016 1F4B     		ldr	r3, .L2+4
ARM GAS  C:\Users\THUNDE~1\AppData\Local\Temp\ccznISje.s 			page 3


  55 0018 1B78     		ldrb	r3, [r3]
  56 001a DBB2     		uxtb	r3, r3
  57 001c 23F00303 		bic	r3, r3, #3
  58 0020 DBB2     		uxtb	r3, r3
  59 0022 1370     		strb	r3, [r2]
  61:Generated_Source\PSoC5/Timer_20KHz.c ****         #endif /* CONTROL3 register exists only in PSoC3 OR PSoC5LP */
  62:Generated_Source\PSoC5/Timer_20KHz.c **** 
  63:Generated_Source\PSoC5/Timer_20KHz.c ****         /* Check if One Shot mode is enabled i.e. RunMode !=0*/
  64:Generated_Source\PSoC5/Timer_20KHz.c ****         #if (Timer_20KHz_RunModeUsed != 0x0u)
  65:Generated_Source\PSoC5/Timer_20KHz.c ****             /* Set 3rd bit of Control register to enable one shot mode */
  66:Generated_Source\PSoC5/Timer_20KHz.c ****             Timer_20KHz_CONTROL |= 0x04u;
  67:Generated_Source\PSoC5/Timer_20KHz.c ****         #endif /* One Shot enabled only when RunModeUsed is not Continuous*/
  68:Generated_Source\PSoC5/Timer_20KHz.c **** 
  69:Generated_Source\PSoC5/Timer_20KHz.c ****         #if (Timer_20KHz_RunModeUsed == 2)
  70:Generated_Source\PSoC5/Timer_20KHz.c ****             #if (CY_PSOC5A)
  71:Generated_Source\PSoC5/Timer_20KHz.c ****                 /* Set last 2 bits of control2 register if one shot(halt on
  72:Generated_Source\PSoC5/Timer_20KHz.c ****                 interrupt) is enabled*/
  73:Generated_Source\PSoC5/Timer_20KHz.c ****                 Timer_20KHz_CONTROL2 |= 0x03u;
  74:Generated_Source\PSoC5/Timer_20KHz.c ****             #endif /* Set One-Shot Halt on Interrupt bit in CONTROL2 for PSoC5A */
  75:Generated_Source\PSoC5/Timer_20KHz.c **** 
  76:Generated_Source\PSoC5/Timer_20KHz.c ****             #if (CY_PSOC3 || CY_PSOC5LP)
  77:Generated_Source\PSoC5/Timer_20KHz.c ****                 /* Set last 2 bits of control3 register if one shot(halt on
  78:Generated_Source\PSoC5/Timer_20KHz.c ****                 interrupt) is enabled*/
  79:Generated_Source\PSoC5/Timer_20KHz.c ****                 Timer_20KHz_CONTROL3 |= 0x03u;
  80:Generated_Source\PSoC5/Timer_20KHz.c ****             #endif /* Set One-Shot Halt on Interrupt bit in CONTROL3 for PSoC3 or PSoC5LP */
  81:Generated_Source\PSoC5/Timer_20KHz.c **** 
  82:Generated_Source\PSoC5/Timer_20KHz.c ****         #endif /* Remove section if One Shot Halt on Interrupt is not enabled */
  83:Generated_Source\PSoC5/Timer_20KHz.c **** 
  84:Generated_Source\PSoC5/Timer_20KHz.c ****         #if (Timer_20KHz_UsingHWEnable != 0)
  85:Generated_Source\PSoC5/Timer_20KHz.c ****             #if (CY_PSOC5A)
  86:Generated_Source\PSoC5/Timer_20KHz.c ****                 /* Set the default Run Mode of the Timer to Continuous */
  87:Generated_Source\PSoC5/Timer_20KHz.c ****                 Timer_20KHz_CONTROL2 |= Timer_20KHz_CTRL_MODE_PULSEWIDTH;
  88:Generated_Source\PSoC5/Timer_20KHz.c ****             #endif /* Set Continuous Run Mode in CONTROL2 for PSoC5A */
  89:Generated_Source\PSoC5/Timer_20KHz.c **** 
  90:Generated_Source\PSoC5/Timer_20KHz.c ****             #if (CY_PSOC3 || CY_PSOC5LP)
  91:Generated_Source\PSoC5/Timer_20KHz.c ****                 /* Clear and Set ROD and COD bits of CFG2 register */
  92:Generated_Source\PSoC5/Timer_20KHz.c ****                 Timer_20KHz_CONTROL3 &= ((uint8)(~Timer_20KHz_CTRL_RCOD_MASK));
  93:Generated_Source\PSoC5/Timer_20KHz.c ****                 Timer_20KHz_CONTROL3 |= Timer_20KHz_CTRL_RCOD;
  94:Generated_Source\PSoC5/Timer_20KHz.c **** 
  95:Generated_Source\PSoC5/Timer_20KHz.c ****                 /* Clear and Enable the HW enable bit in CFG2 register */
  96:Generated_Source\PSoC5/Timer_20KHz.c ****                 Timer_20KHz_CONTROL3 &= ((uint8)(~Timer_20KHz_CTRL_ENBL_MASK));
  97:Generated_Source\PSoC5/Timer_20KHz.c ****                 Timer_20KHz_CONTROL3 |= Timer_20KHz_CTRL_ENBL;
  98:Generated_Source\PSoC5/Timer_20KHz.c **** 
  99:Generated_Source\PSoC5/Timer_20KHz.c ****                 /* Set the default Run Mode of the Timer to Continuous */
 100:Generated_Source\PSoC5/Timer_20KHz.c ****                 Timer_20KHz_CONTROL3 |= Timer_20KHz_CTRL_MODE_CONTINUOUS;
 101:Generated_Source\PSoC5/Timer_20KHz.c ****             #endif /* Set Continuous Run Mode in CONTROL3 for PSoC3ES3 or PSoC5A */
 102:Generated_Source\PSoC5/Timer_20KHz.c **** 
 103:Generated_Source\PSoC5/Timer_20KHz.c ****         #endif /* Configure Run Mode with hardware enable */
 104:Generated_Source\PSoC5/Timer_20KHz.c **** 
 105:Generated_Source\PSoC5/Timer_20KHz.c ****         /* Clear and Set SYNCTC and SYNCCMP bits of RT1 register */
 106:Generated_Source\PSoC5/Timer_20KHz.c ****         Timer_20KHz_RT1 &= ((uint8)(~Timer_20KHz_RT1_MASK));
  60              		.loc 1 106 0
  61 0024 1C4A     		ldr	r2, .L2+8
  62 0026 1C4B     		ldr	r3, .L2+8
  63 0028 1B78     		ldrb	r3, [r3]
  64 002a DBB2     		uxtb	r3, r3
  65 002c 23F03003 		bic	r3, r3, #48
ARM GAS  C:\Users\THUNDE~1\AppData\Local\Temp\ccznISje.s 			page 4


  66 0030 DBB2     		uxtb	r3, r3
  67 0032 1370     		strb	r3, [r2]
 107:Generated_Source\PSoC5/Timer_20KHz.c ****         Timer_20KHz_RT1 |= Timer_20KHz_SYNC;
  68              		.loc 1 107 0
  69 0034 184A     		ldr	r2, .L2+8
  70 0036 184B     		ldr	r3, .L2+8
  71 0038 1B78     		ldrb	r3, [r3]
  72 003a DBB2     		uxtb	r3, r3
  73 003c 43F03003 		orr	r3, r3, #48
  74 0040 DBB2     		uxtb	r3, r3
  75 0042 1370     		strb	r3, [r2]
 108:Generated_Source\PSoC5/Timer_20KHz.c **** 
 109:Generated_Source\PSoC5/Timer_20KHz.c ****         /*Enable DSI Sync all all inputs of the Timer*/
 110:Generated_Source\PSoC5/Timer_20KHz.c ****         Timer_20KHz_RT1 &= ((uint8)(~Timer_20KHz_SYNCDSI_MASK));
  76              		.loc 1 110 0
  77 0044 144A     		ldr	r2, .L2+8
  78 0046 144B     		ldr	r3, .L2+8
  79 0048 1B78     		ldrb	r3, [r3]
  80 004a DBB2     		uxtb	r3, r3
  81 004c 23F00F03 		bic	r3, r3, #15
  82 0050 DBB2     		uxtb	r3, r3
  83 0052 1370     		strb	r3, [r2]
 111:Generated_Source\PSoC5/Timer_20KHz.c ****         Timer_20KHz_RT1 |= Timer_20KHz_SYNCDSI_EN;
  84              		.loc 1 111 0
  85 0054 104A     		ldr	r2, .L2+8
  86 0056 104B     		ldr	r3, .L2+8
  87 0058 1B78     		ldrb	r3, [r3]
  88 005a DBB2     		uxtb	r3, r3
  89 005c 43F00F03 		orr	r3, r3, #15
  90 0060 DBB2     		uxtb	r3, r3
  91 0062 1370     		strb	r3, [r2]
 112:Generated_Source\PSoC5/Timer_20KHz.c **** 
 113:Generated_Source\PSoC5/Timer_20KHz.c ****         /* Set the IRQ to use the status register interrupts */
 114:Generated_Source\PSoC5/Timer_20KHz.c ****         Timer_20KHz_CONTROL2 |= Timer_20KHz_CTRL2_IRQ_SEL;
  92              		.loc 1 114 0
  93 0064 0D4A     		ldr	r2, .L2+12
  94 0066 0D4B     		ldr	r3, .L2+12
  95 0068 1B78     		ldrb	r3, [r3]
  96 006a DBB2     		uxtb	r3, r3
  97 006c 43F00103 		orr	r3, r3, #1
  98 0070 DBB2     		uxtb	r3, r3
  99 0072 1370     		strb	r3, [r2]
 115:Generated_Source\PSoC5/Timer_20KHz.c ****     #endif /* Configuring registers of fixed function implementation */
 116:Generated_Source\PSoC5/Timer_20KHz.c **** 
 117:Generated_Source\PSoC5/Timer_20KHz.c ****     /* Set Initial values from Configuration */
 118:Generated_Source\PSoC5/Timer_20KHz.c ****     Timer_20KHz_WritePeriod(Timer_20KHz_INIT_PERIOD);
 100              		.loc 1 118 0
 101 0074 40F65F10 		movw	r0, #2399
 102 0078 FFF7FEFF 		bl	Timer_20KHz_WritePeriod
 119:Generated_Source\PSoC5/Timer_20KHz.c ****     Timer_20KHz_WriteCounter(Timer_20KHz_INIT_PERIOD);
 103              		.loc 1 119 0
 104 007c 40F65F10 		movw	r0, #2399
 105 0080 FFF7FEFF 		bl	Timer_20KHz_WriteCounter
 120:Generated_Source\PSoC5/Timer_20KHz.c **** 
 121:Generated_Source\PSoC5/Timer_20KHz.c ****     #if (Timer_20KHz_UsingHWCaptureCounter)/* Capture counter is enabled */
 122:Generated_Source\PSoC5/Timer_20KHz.c ****         Timer_20KHz_CAPTURE_COUNT_CTRL |= Timer_20KHz_CNTR_ENABLE;
 123:Generated_Source\PSoC5/Timer_20KHz.c ****         Timer_20KHz_SetCaptureCount(Timer_20KHz_INIT_CAPTURE_COUNT);
ARM GAS  C:\Users\THUNDE~1\AppData\Local\Temp\ccznISje.s 			page 5


 124:Generated_Source\PSoC5/Timer_20KHz.c ****     #endif /* Configure capture counter value */
 125:Generated_Source\PSoC5/Timer_20KHz.c **** 
 126:Generated_Source\PSoC5/Timer_20KHz.c ****     #if (!Timer_20KHz_UsingFixedFunction)
 127:Generated_Source\PSoC5/Timer_20KHz.c ****         #if (Timer_20KHz_SoftwareCaptureMode)
 128:Generated_Source\PSoC5/Timer_20KHz.c ****             Timer_20KHz_SetCaptureMode(Timer_20KHz_INIT_CAPTURE_MODE);
 129:Generated_Source\PSoC5/Timer_20KHz.c ****         #endif /* Set Capture Mode for UDB implementation if capture mode is software controlled */
 130:Generated_Source\PSoC5/Timer_20KHz.c **** 
 131:Generated_Source\PSoC5/Timer_20KHz.c ****         #if (Timer_20KHz_SoftwareTriggerMode)
 132:Generated_Source\PSoC5/Timer_20KHz.c ****             #if (!Timer_20KHz_UDB_CONTROL_REG_REMOVED)
 133:Generated_Source\PSoC5/Timer_20KHz.c ****                 if (0u == (Timer_20KHz_CONTROL & Timer_20KHz__B_TIMER__TM_SOFTWARE))
 134:Generated_Source\PSoC5/Timer_20KHz.c ****                 {
 135:Generated_Source\PSoC5/Timer_20KHz.c ****                     Timer_20KHz_SetTriggerMode(Timer_20KHz_INIT_TRIGGER_MODE);
 136:Generated_Source\PSoC5/Timer_20KHz.c ****                 }
 137:Generated_Source\PSoC5/Timer_20KHz.c ****             #endif /* (!Timer_20KHz_UDB_CONTROL_REG_REMOVED) */
 138:Generated_Source\PSoC5/Timer_20KHz.c ****         #endif /* Set trigger mode for UDB Implementation if trigger mode is software controlled */
 139:Generated_Source\PSoC5/Timer_20KHz.c **** 
 140:Generated_Source\PSoC5/Timer_20KHz.c ****         /* CyEnterCriticalRegion and CyExitCriticalRegion are used to mark following region critica
 141:Generated_Source\PSoC5/Timer_20KHz.c ****         /* Enter Critical Region*/
 142:Generated_Source\PSoC5/Timer_20KHz.c ****         Timer_20KHz_interruptState = CyEnterCriticalSection();
 143:Generated_Source\PSoC5/Timer_20KHz.c **** 
 144:Generated_Source\PSoC5/Timer_20KHz.c ****         /* Use the interrupt output of the status register for IRQ output */
 145:Generated_Source\PSoC5/Timer_20KHz.c ****         Timer_20KHz_STATUS_AUX_CTRL |= Timer_20KHz_STATUS_ACTL_INT_EN_MASK;
 146:Generated_Source\PSoC5/Timer_20KHz.c **** 
 147:Generated_Source\PSoC5/Timer_20KHz.c ****         /* Exit Critical Region*/
 148:Generated_Source\PSoC5/Timer_20KHz.c ****         CyExitCriticalSection(Timer_20KHz_interruptState);
 149:Generated_Source\PSoC5/Timer_20KHz.c **** 
 150:Generated_Source\PSoC5/Timer_20KHz.c ****         #if (Timer_20KHz_EnableTriggerMode)
 151:Generated_Source\PSoC5/Timer_20KHz.c ****             Timer_20KHz_EnableTrigger();
 152:Generated_Source\PSoC5/Timer_20KHz.c ****         #endif /* Set Trigger enable bit for UDB implementation in the control register*/
 153:Generated_Source\PSoC5/Timer_20KHz.c **** 		
 154:Generated_Source\PSoC5/Timer_20KHz.c **** 		
 155:Generated_Source\PSoC5/Timer_20KHz.c ****         #if (Timer_20KHz_InterruptOnCaptureCount && !Timer_20KHz_UDB_CONTROL_REG_REMOVED)
 156:Generated_Source\PSoC5/Timer_20KHz.c ****             Timer_20KHz_SetInterruptCount(Timer_20KHz_INIT_INT_CAPTURE_COUNT);
 157:Generated_Source\PSoC5/Timer_20KHz.c ****         #endif /* Set interrupt count in UDB implementation if interrupt count feature is checked.*
 158:Generated_Source\PSoC5/Timer_20KHz.c **** 
 159:Generated_Source\PSoC5/Timer_20KHz.c ****         Timer_20KHz_ClearFIFO();
 160:Generated_Source\PSoC5/Timer_20KHz.c ****     #endif /* Configure additional features of UDB implementation */
 161:Generated_Source\PSoC5/Timer_20KHz.c **** 
 162:Generated_Source\PSoC5/Timer_20KHz.c ****     Timer_20KHz_SetInterruptMode(Timer_20KHz_INIT_INTERRUPT_MODE);
 106              		.loc 1 162 0
 107 0084 0020     		movs	r0, #0
 108 0086 FFF7FEFF 		bl	Timer_20KHz_SetInterruptMode
 163:Generated_Source\PSoC5/Timer_20KHz.c **** }
 109              		.loc 1 163 0
 110 008a 00BF     		nop
 111 008c 80BD     		pop	{r7, pc}
 112              	.L3:
 113 008e 00BF     		.align	2
 114              	.L2:
 115 0090 004F0040 		.word	1073762048
 116 0094 024F0040 		.word	1073762050
 117 0098 0B4F0040 		.word	1073762059
 118 009c 014F0040 		.word	1073762049
 119              		.cfi_endproc
 120              	.LFE0:
 121              		.size	Timer_20KHz_Init, .-Timer_20KHz_Init
 122              		.section	.text.Timer_20KHz_Enable,"ax",%progbits
ARM GAS  C:\Users\THUNDE~1\AppData\Local\Temp\ccznISje.s 			page 6


 123              		.align	2
 124              		.global	Timer_20KHz_Enable
 125              		.thumb
 126              		.thumb_func
 127              		.type	Timer_20KHz_Enable, %function
 128              	Timer_20KHz_Enable:
 129              	.LFB1:
 164:Generated_Source\PSoC5/Timer_20KHz.c **** 
 165:Generated_Source\PSoC5/Timer_20KHz.c **** 
 166:Generated_Source\PSoC5/Timer_20KHz.c **** /*******************************************************************************
 167:Generated_Source\PSoC5/Timer_20KHz.c **** * Function Name: Timer_20KHz_Enable
 168:Generated_Source\PSoC5/Timer_20KHz.c **** ********************************************************************************
 169:Generated_Source\PSoC5/Timer_20KHz.c **** *
 170:Generated_Source\PSoC5/Timer_20KHz.c **** * Summary:
 171:Generated_Source\PSoC5/Timer_20KHz.c **** *  Enable the Timer
 172:Generated_Source\PSoC5/Timer_20KHz.c **** *
 173:Generated_Source\PSoC5/Timer_20KHz.c **** * Parameters:
 174:Generated_Source\PSoC5/Timer_20KHz.c **** *  void
 175:Generated_Source\PSoC5/Timer_20KHz.c **** *
 176:Generated_Source\PSoC5/Timer_20KHz.c **** * Return:
 177:Generated_Source\PSoC5/Timer_20KHz.c **** *  void
 178:Generated_Source\PSoC5/Timer_20KHz.c **** *
 179:Generated_Source\PSoC5/Timer_20KHz.c **** *******************************************************************************/
 180:Generated_Source\PSoC5/Timer_20KHz.c **** void Timer_20KHz_Enable(void) 
 181:Generated_Source\PSoC5/Timer_20KHz.c **** {
 130              		.loc 1 181 0
 131              		.cfi_startproc
 132              		@ args = 0, pretend = 0, frame = 0
 133              		@ frame_needed = 1, uses_anonymous_args = 0
 134              		@ link register save eliminated.
 135 0000 80B4     		push	{r7}
 136              		.cfi_def_cfa_offset 4
 137              		.cfi_offset 7, -4
 138 0002 00AF     		add	r7, sp, #0
 139              		.cfi_def_cfa_register 7
 182:Generated_Source\PSoC5/Timer_20KHz.c ****     /* Globally Enable the Fixed Function Block chosen */
 183:Generated_Source\PSoC5/Timer_20KHz.c ****     #if (Timer_20KHz_UsingFixedFunction)
 184:Generated_Source\PSoC5/Timer_20KHz.c ****         Timer_20KHz_GLOBAL_ENABLE |= Timer_20KHz_BLOCK_EN_MASK;
 140              		.loc 1 184 0
 141 0004 0D4A     		ldr	r2, .L5
 142 0006 0D4B     		ldr	r3, .L5
 143 0008 1B78     		ldrb	r3, [r3]
 144 000a DBB2     		uxtb	r3, r3
 145 000c 43F00103 		orr	r3, r3, #1
 146 0010 DBB2     		uxtb	r3, r3
 147 0012 1370     		strb	r3, [r2]
 185:Generated_Source\PSoC5/Timer_20KHz.c ****         Timer_20KHz_GLOBAL_STBY_ENABLE |= Timer_20KHz_BLOCK_STBY_EN_MASK;
 148              		.loc 1 185 0
 149 0014 0A4A     		ldr	r2, .L5+4
 150 0016 0A4B     		ldr	r3, .L5+4
 151 0018 1B78     		ldrb	r3, [r3]
 152 001a DBB2     		uxtb	r3, r3
 153 001c 43F00103 		orr	r3, r3, #1
 154 0020 DBB2     		uxtb	r3, r3
 155 0022 1370     		strb	r3, [r2]
 186:Generated_Source\PSoC5/Timer_20KHz.c ****     #endif /* Set Enable bit for enabling Fixed function timer*/
 187:Generated_Source\PSoC5/Timer_20KHz.c **** 
ARM GAS  C:\Users\THUNDE~1\AppData\Local\Temp\ccznISje.s 			page 7


 188:Generated_Source\PSoC5/Timer_20KHz.c ****     /* Remove assignment if control register is removed */
 189:Generated_Source\PSoC5/Timer_20KHz.c ****     #if (!Timer_20KHz_UDB_CONTROL_REG_REMOVED || Timer_20KHz_UsingFixedFunction)
 190:Generated_Source\PSoC5/Timer_20KHz.c ****         Timer_20KHz_CONTROL |= Timer_20KHz_CTRL_ENABLE;
 156              		.loc 1 190 0
 157 0024 074A     		ldr	r2, .L5+8
 158 0026 074B     		ldr	r3, .L5+8
 159 0028 1B78     		ldrb	r3, [r3]
 160 002a DBB2     		uxtb	r3, r3
 161 002c 43F00103 		orr	r3, r3, #1
 162 0030 DBB2     		uxtb	r3, r3
 163 0032 1370     		strb	r3, [r2]
 191:Generated_Source\PSoC5/Timer_20KHz.c ****     #endif /* Remove assignment if control register is removed */
 192:Generated_Source\PSoC5/Timer_20KHz.c **** }
 164              		.loc 1 192 0
 165 0034 00BF     		nop
 166 0036 BD46     		mov	sp, r7
 167              		.cfi_def_cfa_register 13
 168              		@ sp needed
 169 0038 80BC     		pop	{r7}
 170              		.cfi_restore 7
 171              		.cfi_def_cfa_offset 0
 172 003a 7047     		bx	lr
 173              	.L6:
 174              		.align	2
 175              	.L5:
 176 003c A3430040 		.word	1073759139
 177 0040 B3430040 		.word	1073759155
 178 0044 004F0040 		.word	1073762048
 179              		.cfi_endproc
 180              	.LFE1:
 181              		.size	Timer_20KHz_Enable, .-Timer_20KHz_Enable
 182              		.section	.text.Timer_20KHz_Start,"ax",%progbits
 183              		.align	2
 184              		.global	Timer_20KHz_Start
 185              		.thumb
 186              		.thumb_func
 187              		.type	Timer_20KHz_Start, %function
 188              	Timer_20KHz_Start:
 189              	.LFB2:
 193:Generated_Source\PSoC5/Timer_20KHz.c **** 
 194:Generated_Source\PSoC5/Timer_20KHz.c **** 
 195:Generated_Source\PSoC5/Timer_20KHz.c **** /*******************************************************************************
 196:Generated_Source\PSoC5/Timer_20KHz.c **** * Function Name: Timer_20KHz_Start
 197:Generated_Source\PSoC5/Timer_20KHz.c **** ********************************************************************************
 198:Generated_Source\PSoC5/Timer_20KHz.c **** *
 199:Generated_Source\PSoC5/Timer_20KHz.c **** * Summary:
 200:Generated_Source\PSoC5/Timer_20KHz.c **** *  The start function initializes the timer with the default values, the
 201:Generated_Source\PSoC5/Timer_20KHz.c **** *  enables the timerto begin counting.  It does not enable interrupts,
 202:Generated_Source\PSoC5/Timer_20KHz.c **** *  the EnableInt command should be called if interrupt generation is required.
 203:Generated_Source\PSoC5/Timer_20KHz.c **** *
 204:Generated_Source\PSoC5/Timer_20KHz.c **** * Parameters:
 205:Generated_Source\PSoC5/Timer_20KHz.c **** *  void
 206:Generated_Source\PSoC5/Timer_20KHz.c **** *
 207:Generated_Source\PSoC5/Timer_20KHz.c **** * Return:
 208:Generated_Source\PSoC5/Timer_20KHz.c **** *  void
 209:Generated_Source\PSoC5/Timer_20KHz.c **** *
 210:Generated_Source\PSoC5/Timer_20KHz.c **** * Global variables:
ARM GAS  C:\Users\THUNDE~1\AppData\Local\Temp\ccznISje.s 			page 8


 211:Generated_Source\PSoC5/Timer_20KHz.c **** *  Timer_20KHz_initVar: Is modified when this function is called for the
 212:Generated_Source\PSoC5/Timer_20KHz.c **** *   first time. Is used to ensure that initialization happens only once.
 213:Generated_Source\PSoC5/Timer_20KHz.c **** *
 214:Generated_Source\PSoC5/Timer_20KHz.c **** *******************************************************************************/
 215:Generated_Source\PSoC5/Timer_20KHz.c **** void Timer_20KHz_Start(void) 
 216:Generated_Source\PSoC5/Timer_20KHz.c **** {
 190              		.loc 1 216 0
 191              		.cfi_startproc
 192              		@ args = 0, pretend = 0, frame = 0
 193              		@ frame_needed = 1, uses_anonymous_args = 0
 194 0000 80B5     		push	{r7, lr}
 195              		.cfi_def_cfa_offset 8
 196              		.cfi_offset 7, -8
 197              		.cfi_offset 14, -4
 198 0002 00AF     		add	r7, sp, #0
 199              		.cfi_def_cfa_register 7
 217:Generated_Source\PSoC5/Timer_20KHz.c ****     if(Timer_20KHz_initVar == 0u)
 200              		.loc 1 217 0
 201 0004 064B     		ldr	r3, .L9
 202 0006 1B78     		ldrb	r3, [r3]	@ zero_extendqisi2
 203 0008 002B     		cmp	r3, #0
 204 000a 04D1     		bne	.L8
 218:Generated_Source\PSoC5/Timer_20KHz.c ****     {
 219:Generated_Source\PSoC5/Timer_20KHz.c ****         Timer_20KHz_Init();
 205              		.loc 1 219 0
 206 000c FFF7FEFF 		bl	Timer_20KHz_Init
 220:Generated_Source\PSoC5/Timer_20KHz.c **** 
 221:Generated_Source\PSoC5/Timer_20KHz.c ****         Timer_20KHz_initVar = 1u;   /* Clear this bit for Initialization */
 207              		.loc 1 221 0
 208 0010 034B     		ldr	r3, .L9
 209 0012 0122     		movs	r2, #1
 210 0014 1A70     		strb	r2, [r3]
 211              	.L8:
 222:Generated_Source\PSoC5/Timer_20KHz.c ****     }
 223:Generated_Source\PSoC5/Timer_20KHz.c **** 
 224:Generated_Source\PSoC5/Timer_20KHz.c ****     /* Enable the Timer */
 225:Generated_Source\PSoC5/Timer_20KHz.c ****     Timer_20KHz_Enable();
 212              		.loc 1 225 0
 213 0016 FFF7FEFF 		bl	Timer_20KHz_Enable
 226:Generated_Source\PSoC5/Timer_20KHz.c **** }
 214              		.loc 1 226 0
 215 001a 00BF     		nop
 216 001c 80BD     		pop	{r7, pc}
 217              	.L10:
 218 001e 00BF     		.align	2
 219              	.L9:
 220 0020 00000000 		.word	Timer_20KHz_initVar
 221              		.cfi_endproc
 222              	.LFE2:
 223              		.size	Timer_20KHz_Start, .-Timer_20KHz_Start
 224              		.section	.text.Timer_20KHz_Stop,"ax",%progbits
 225              		.align	2
 226              		.global	Timer_20KHz_Stop
 227              		.thumb
 228              		.thumb_func
 229              		.type	Timer_20KHz_Stop, %function
 230              	Timer_20KHz_Stop:
ARM GAS  C:\Users\THUNDE~1\AppData\Local\Temp\ccznISje.s 			page 9


 231              	.LFB3:
 227:Generated_Source\PSoC5/Timer_20KHz.c **** 
 228:Generated_Source\PSoC5/Timer_20KHz.c **** 
 229:Generated_Source\PSoC5/Timer_20KHz.c **** /*******************************************************************************
 230:Generated_Source\PSoC5/Timer_20KHz.c **** * Function Name: Timer_20KHz_Stop
 231:Generated_Source\PSoC5/Timer_20KHz.c **** ********************************************************************************
 232:Generated_Source\PSoC5/Timer_20KHz.c **** *
 233:Generated_Source\PSoC5/Timer_20KHz.c **** * Summary:
 234:Generated_Source\PSoC5/Timer_20KHz.c **** *  The stop function halts the timer, but does not change any modes or disable
 235:Generated_Source\PSoC5/Timer_20KHz.c **** *  interrupts.
 236:Generated_Source\PSoC5/Timer_20KHz.c **** *
 237:Generated_Source\PSoC5/Timer_20KHz.c **** * Parameters:
 238:Generated_Source\PSoC5/Timer_20KHz.c **** *  void
 239:Generated_Source\PSoC5/Timer_20KHz.c **** *
 240:Generated_Source\PSoC5/Timer_20KHz.c **** * Return:
 241:Generated_Source\PSoC5/Timer_20KHz.c **** *  void
 242:Generated_Source\PSoC5/Timer_20KHz.c **** *
 243:Generated_Source\PSoC5/Timer_20KHz.c **** * Side Effects: If the Enable mode is set to Hardware only then this function
 244:Generated_Source\PSoC5/Timer_20KHz.c **** *               has no effect on the operation of the timer.
 245:Generated_Source\PSoC5/Timer_20KHz.c **** *
 246:Generated_Source\PSoC5/Timer_20KHz.c **** *******************************************************************************/
 247:Generated_Source\PSoC5/Timer_20KHz.c **** void Timer_20KHz_Stop(void) 
 248:Generated_Source\PSoC5/Timer_20KHz.c **** {
 232              		.loc 1 248 0
 233              		.cfi_startproc
 234              		@ args = 0, pretend = 0, frame = 0
 235              		@ frame_needed = 1, uses_anonymous_args = 0
 236              		@ link register save eliminated.
 237 0000 80B4     		push	{r7}
 238              		.cfi_def_cfa_offset 4
 239              		.cfi_offset 7, -4
 240 0002 00AF     		add	r7, sp, #0
 241              		.cfi_def_cfa_register 7
 249:Generated_Source\PSoC5/Timer_20KHz.c ****     /* Disable Timer */
 250:Generated_Source\PSoC5/Timer_20KHz.c ****     #if(!Timer_20KHz_UDB_CONTROL_REG_REMOVED || Timer_20KHz_UsingFixedFunction)
 251:Generated_Source\PSoC5/Timer_20KHz.c ****         Timer_20KHz_CONTROL &= ((uint8)(~Timer_20KHz_CTRL_ENABLE));
 242              		.loc 1 251 0
 243 0004 0D4A     		ldr	r2, .L12
 244 0006 0D4B     		ldr	r3, .L12
 245 0008 1B78     		ldrb	r3, [r3]
 246 000a DBB2     		uxtb	r3, r3
 247 000c 23F00103 		bic	r3, r3, #1
 248 0010 DBB2     		uxtb	r3, r3
 249 0012 1370     		strb	r3, [r2]
 252:Generated_Source\PSoC5/Timer_20KHz.c ****     #endif /* Remove assignment if control register is removed */
 253:Generated_Source\PSoC5/Timer_20KHz.c **** 
 254:Generated_Source\PSoC5/Timer_20KHz.c ****     /* Globally disable the Fixed Function Block chosen */
 255:Generated_Source\PSoC5/Timer_20KHz.c ****     #if (Timer_20KHz_UsingFixedFunction)
 256:Generated_Source\PSoC5/Timer_20KHz.c ****         Timer_20KHz_GLOBAL_ENABLE &= ((uint8)(~Timer_20KHz_BLOCK_EN_MASK));
 250              		.loc 1 256 0
 251 0014 0A4A     		ldr	r2, .L12+4
 252 0016 0A4B     		ldr	r3, .L12+4
 253 0018 1B78     		ldrb	r3, [r3]
 254 001a DBB2     		uxtb	r3, r3
 255 001c 23F00103 		bic	r3, r3, #1
 256 0020 DBB2     		uxtb	r3, r3
 257 0022 1370     		strb	r3, [r2]
ARM GAS  C:\Users\THUNDE~1\AppData\Local\Temp\ccznISje.s 			page 10


 257:Generated_Source\PSoC5/Timer_20KHz.c ****         Timer_20KHz_GLOBAL_STBY_ENABLE &= ((uint8)(~Timer_20KHz_BLOCK_STBY_EN_MASK));
 258              		.loc 1 257 0
 259 0024 074A     		ldr	r2, .L12+8
 260 0026 074B     		ldr	r3, .L12+8
 261 0028 1B78     		ldrb	r3, [r3]
 262 002a DBB2     		uxtb	r3, r3
 263 002c 23F00103 		bic	r3, r3, #1
 264 0030 DBB2     		uxtb	r3, r3
 265 0032 1370     		strb	r3, [r2]
 258:Generated_Source\PSoC5/Timer_20KHz.c ****     #endif /* Disable global enable for the Timer Fixed function block to stop the Timer*/
 259:Generated_Source\PSoC5/Timer_20KHz.c **** }
 266              		.loc 1 259 0
 267 0034 00BF     		nop
 268 0036 BD46     		mov	sp, r7
 269              		.cfi_def_cfa_register 13
 270              		@ sp needed
 271 0038 80BC     		pop	{r7}
 272              		.cfi_restore 7
 273              		.cfi_def_cfa_offset 0
 274 003a 7047     		bx	lr
 275              	.L13:
 276              		.align	2
 277              	.L12:
 278 003c 004F0040 		.word	1073762048
 279 0040 A3430040 		.word	1073759139
 280 0044 B3430040 		.word	1073759155
 281              		.cfi_endproc
 282              	.LFE3:
 283              		.size	Timer_20KHz_Stop, .-Timer_20KHz_Stop
 284              		.section	.text.Timer_20KHz_SetInterruptMode,"ax",%progbits
 285              		.align	2
 286              		.global	Timer_20KHz_SetInterruptMode
 287              		.thumb
 288              		.thumb_func
 289              		.type	Timer_20KHz_SetInterruptMode, %function
 290              	Timer_20KHz_SetInterruptMode:
 291              	.LFB4:
 260:Generated_Source\PSoC5/Timer_20KHz.c **** 
 261:Generated_Source\PSoC5/Timer_20KHz.c **** 
 262:Generated_Source\PSoC5/Timer_20KHz.c **** /*******************************************************************************
 263:Generated_Source\PSoC5/Timer_20KHz.c **** * Function Name: Timer_20KHz_SetInterruptMode
 264:Generated_Source\PSoC5/Timer_20KHz.c **** ********************************************************************************
 265:Generated_Source\PSoC5/Timer_20KHz.c **** *
 266:Generated_Source\PSoC5/Timer_20KHz.c **** * Summary:
 267:Generated_Source\PSoC5/Timer_20KHz.c **** *  This function selects which of the interrupt inputs may cause an interrupt.
 268:Generated_Source\PSoC5/Timer_20KHz.c **** *  The twosources are caputure and terminal.  One, both or neither may
 269:Generated_Source\PSoC5/Timer_20KHz.c **** *  be selected.
 270:Generated_Source\PSoC5/Timer_20KHz.c **** *
 271:Generated_Source\PSoC5/Timer_20KHz.c **** * Parameters:
 272:Generated_Source\PSoC5/Timer_20KHz.c **** *  interruptMode:   This parameter is used to enable interrups on either/or
 273:Generated_Source\PSoC5/Timer_20KHz.c **** *                   terminal count or capture.
 274:Generated_Source\PSoC5/Timer_20KHz.c **** *
 275:Generated_Source\PSoC5/Timer_20KHz.c **** * Return:
 276:Generated_Source\PSoC5/Timer_20KHz.c **** *  void
 277:Generated_Source\PSoC5/Timer_20KHz.c **** *
 278:Generated_Source\PSoC5/Timer_20KHz.c **** *******************************************************************************/
 279:Generated_Source\PSoC5/Timer_20KHz.c **** void Timer_20KHz_SetInterruptMode(uint8 interruptMode) 
ARM GAS  C:\Users\THUNDE~1\AppData\Local\Temp\ccznISje.s 			page 11


 280:Generated_Source\PSoC5/Timer_20KHz.c **** {
 292              		.loc 1 280 0
 293              		.cfi_startproc
 294              		@ args = 0, pretend = 0, frame = 8
 295              		@ frame_needed = 1, uses_anonymous_args = 0
 296              		@ link register save eliminated.
 297 0000 80B4     		push	{r7}
 298              		.cfi_def_cfa_offset 4
 299              		.cfi_offset 7, -4
 300 0002 83B0     		sub	sp, sp, #12
 301              		.cfi_def_cfa_offset 16
 302 0004 00AF     		add	r7, sp, #0
 303              		.cfi_def_cfa_register 7
 304 0006 0346     		mov	r3, r0
 305 0008 FB71     		strb	r3, [r7, #7]
 281:Generated_Source\PSoC5/Timer_20KHz.c ****     Timer_20KHz_STATUS_MASK = interruptMode;
 306              		.loc 1 281 0
 307 000a 044A     		ldr	r2, .L15
 308 000c FB79     		ldrb	r3, [r7, #7]
 309 000e 1370     		strb	r3, [r2]
 282:Generated_Source\PSoC5/Timer_20KHz.c **** }
 310              		.loc 1 282 0
 311 0010 00BF     		nop
 312 0012 0C37     		adds	r7, r7, #12
 313              		.cfi_def_cfa_offset 4
 314 0014 BD46     		mov	sp, r7
 315              		.cfi_def_cfa_register 13
 316              		@ sp needed
 317 0016 80BC     		pop	{r7}
 318              		.cfi_restore 7
 319              		.cfi_def_cfa_offset 0
 320 0018 7047     		bx	lr
 321              	.L16:
 322 001a 00BF     		.align	2
 323              	.L15:
 324 001c 034F0040 		.word	1073762051
 325              		.cfi_endproc
 326              	.LFE4:
 327              		.size	Timer_20KHz_SetInterruptMode, .-Timer_20KHz_SetInterruptMode
 328              		.section	.text.Timer_20KHz_SoftwareCapture,"ax",%progbits
 329              		.align	2
 330              		.global	Timer_20KHz_SoftwareCapture
 331              		.thumb
 332              		.thumb_func
 333              		.type	Timer_20KHz_SoftwareCapture, %function
 334              	Timer_20KHz_SoftwareCapture:
 335              	.LFB5:
 283:Generated_Source\PSoC5/Timer_20KHz.c **** 
 284:Generated_Source\PSoC5/Timer_20KHz.c **** 
 285:Generated_Source\PSoC5/Timer_20KHz.c **** /*******************************************************************************
 286:Generated_Source\PSoC5/Timer_20KHz.c **** * Function Name: Timer_20KHz_SoftwareCapture
 287:Generated_Source\PSoC5/Timer_20KHz.c **** ********************************************************************************
 288:Generated_Source\PSoC5/Timer_20KHz.c **** *
 289:Generated_Source\PSoC5/Timer_20KHz.c **** * Summary:
 290:Generated_Source\PSoC5/Timer_20KHz.c **** *  This function forces a capture independent of the capture signal.
 291:Generated_Source\PSoC5/Timer_20KHz.c **** *
 292:Generated_Source\PSoC5/Timer_20KHz.c **** * Parameters:
ARM GAS  C:\Users\THUNDE~1\AppData\Local\Temp\ccznISje.s 			page 12


 293:Generated_Source\PSoC5/Timer_20KHz.c **** *  void
 294:Generated_Source\PSoC5/Timer_20KHz.c **** *
 295:Generated_Source\PSoC5/Timer_20KHz.c **** * Return:
 296:Generated_Source\PSoC5/Timer_20KHz.c **** *  void
 297:Generated_Source\PSoC5/Timer_20KHz.c **** *
 298:Generated_Source\PSoC5/Timer_20KHz.c **** * Side Effects:
 299:Generated_Source\PSoC5/Timer_20KHz.c **** *  An existing hardware capture could be overwritten.
 300:Generated_Source\PSoC5/Timer_20KHz.c **** *
 301:Generated_Source\PSoC5/Timer_20KHz.c **** *******************************************************************************/
 302:Generated_Source\PSoC5/Timer_20KHz.c **** void Timer_20KHz_SoftwareCapture(void) 
 303:Generated_Source\PSoC5/Timer_20KHz.c **** {
 336              		.loc 1 303 0
 337              		.cfi_startproc
 338              		@ args = 0, pretend = 0, frame = 0
 339              		@ frame_needed = 1, uses_anonymous_args = 0
 340              		@ link register save eliminated.
 341 0000 80B4     		push	{r7}
 342              		.cfi_def_cfa_offset 4
 343              		.cfi_offset 7, -4
 344 0002 00AF     		add	r7, sp, #0
 345              		.cfi_def_cfa_register 7
 304:Generated_Source\PSoC5/Timer_20KHz.c ****     /* Generate a software capture by reading the counter register */
 305:Generated_Source\PSoC5/Timer_20KHz.c ****     #if(Timer_20KHz_UsingFixedFunction)
 306:Generated_Source\PSoC5/Timer_20KHz.c ****         (void)CY_GET_REG16(Timer_20KHz_COUNTER_LSB_PTR);
 346              		.loc 1 306 0
 347 0004 024B     		ldr	r3, .L18
 348 0006 1B88     		ldrh	r3, [r3]	@ movhi
 307:Generated_Source\PSoC5/Timer_20KHz.c ****     #else
 308:Generated_Source\PSoC5/Timer_20KHz.c ****         (void)CY_GET_REG8(Timer_20KHz_COUNTER_LSB_PTR_8BIT);
 309:Generated_Source\PSoC5/Timer_20KHz.c ****     #endif/* (Timer_20KHz_UsingFixedFunction) */
 310:Generated_Source\PSoC5/Timer_20KHz.c ****     /* Capture Data is now in the FIFO */
 311:Generated_Source\PSoC5/Timer_20KHz.c **** }
 349              		.loc 1 311 0
 350 0008 00BF     		nop
 351 000a BD46     		mov	sp, r7
 352              		.cfi_def_cfa_register 13
 353              		@ sp needed
 354 000c 80BC     		pop	{r7}
 355              		.cfi_restore 7
 356              		.cfi_def_cfa_offset 0
 357 000e 7047     		bx	lr
 358              	.L19:
 359              		.align	2
 360              	.L18:
 361 0010 064F0040 		.word	1073762054
 362              		.cfi_endproc
 363              	.LFE5:
 364              		.size	Timer_20KHz_SoftwareCapture, .-Timer_20KHz_SoftwareCapture
 365              		.section	.text.Timer_20KHz_ReadStatusRegister,"ax",%progbits
 366              		.align	2
 367              		.global	Timer_20KHz_ReadStatusRegister
 368              		.thumb
 369              		.thumb_func
 370              		.type	Timer_20KHz_ReadStatusRegister, %function
 371              	Timer_20KHz_ReadStatusRegister:
 372              	.LFB6:
 312:Generated_Source\PSoC5/Timer_20KHz.c **** 
ARM GAS  C:\Users\THUNDE~1\AppData\Local\Temp\ccznISje.s 			page 13


 313:Generated_Source\PSoC5/Timer_20KHz.c **** 
 314:Generated_Source\PSoC5/Timer_20KHz.c **** /*******************************************************************************
 315:Generated_Source\PSoC5/Timer_20KHz.c **** * Function Name: Timer_20KHz_ReadStatusRegister
 316:Generated_Source\PSoC5/Timer_20KHz.c **** ********************************************************************************
 317:Generated_Source\PSoC5/Timer_20KHz.c **** *
 318:Generated_Source\PSoC5/Timer_20KHz.c **** * Summary:
 319:Generated_Source\PSoC5/Timer_20KHz.c **** *  Reads the status register and returns it's state. This function should use
 320:Generated_Source\PSoC5/Timer_20KHz.c **** *  defined types for the bit-field information as the bits in this register may
 321:Generated_Source\PSoC5/Timer_20KHz.c **** *  be permuteable.
 322:Generated_Source\PSoC5/Timer_20KHz.c **** *
 323:Generated_Source\PSoC5/Timer_20KHz.c **** * Parameters:
 324:Generated_Source\PSoC5/Timer_20KHz.c **** *  void
 325:Generated_Source\PSoC5/Timer_20KHz.c **** *
 326:Generated_Source\PSoC5/Timer_20KHz.c **** * Return:
 327:Generated_Source\PSoC5/Timer_20KHz.c **** *  The contents of the status register
 328:Generated_Source\PSoC5/Timer_20KHz.c **** *
 329:Generated_Source\PSoC5/Timer_20KHz.c **** * Side Effects:
 330:Generated_Source\PSoC5/Timer_20KHz.c **** *  Status register bits may be clear on read.
 331:Generated_Source\PSoC5/Timer_20KHz.c **** *
 332:Generated_Source\PSoC5/Timer_20KHz.c **** *******************************************************************************/
 333:Generated_Source\PSoC5/Timer_20KHz.c **** uint8   Timer_20KHz_ReadStatusRegister(void) 
 334:Generated_Source\PSoC5/Timer_20KHz.c **** {
 373              		.loc 1 334 0
 374              		.cfi_startproc
 375              		@ args = 0, pretend = 0, frame = 0
 376              		@ frame_needed = 1, uses_anonymous_args = 0
 377              		@ link register save eliminated.
 378 0000 80B4     		push	{r7}
 379              		.cfi_def_cfa_offset 4
 380              		.cfi_offset 7, -4
 381 0002 00AF     		add	r7, sp, #0
 382              		.cfi_def_cfa_register 7
 335:Generated_Source\PSoC5/Timer_20KHz.c ****     return (Timer_20KHz_STATUS);
 383              		.loc 1 335 0
 384 0004 034B     		ldr	r3, .L22
 385 0006 1B78     		ldrb	r3, [r3]
 386 0008 DBB2     		uxtb	r3, r3
 336:Generated_Source\PSoC5/Timer_20KHz.c **** }
 387              		.loc 1 336 0
 388 000a 1846     		mov	r0, r3
 389 000c BD46     		mov	sp, r7
 390              		.cfi_def_cfa_register 13
 391              		@ sp needed
 392 000e 80BC     		pop	{r7}
 393              		.cfi_restore 7
 394              		.cfi_def_cfa_offset 0
 395 0010 7047     		bx	lr
 396              	.L23:
 397 0012 00BF     		.align	2
 398              	.L22:
 399 0014 034F0040 		.word	1073762051
 400              		.cfi_endproc
 401              	.LFE6:
 402              		.size	Timer_20KHz_ReadStatusRegister, .-Timer_20KHz_ReadStatusRegister
 403              		.section	.text.Timer_20KHz_ReadControlRegister,"ax",%progbits
 404              		.align	2
 405              		.global	Timer_20KHz_ReadControlRegister
ARM GAS  C:\Users\THUNDE~1\AppData\Local\Temp\ccznISje.s 			page 14


 406              		.thumb
 407              		.thumb_func
 408              		.type	Timer_20KHz_ReadControlRegister, %function
 409              	Timer_20KHz_ReadControlRegister:
 410              	.LFB7:
 337:Generated_Source\PSoC5/Timer_20KHz.c **** 
 338:Generated_Source\PSoC5/Timer_20KHz.c **** 
 339:Generated_Source\PSoC5/Timer_20KHz.c **** #if (!Timer_20KHz_UDB_CONTROL_REG_REMOVED) /* Remove API if control register is unused */
 340:Generated_Source\PSoC5/Timer_20KHz.c **** 
 341:Generated_Source\PSoC5/Timer_20KHz.c **** 
 342:Generated_Source\PSoC5/Timer_20KHz.c **** /*******************************************************************************
 343:Generated_Source\PSoC5/Timer_20KHz.c **** * Function Name: Timer_20KHz_ReadControlRegister
 344:Generated_Source\PSoC5/Timer_20KHz.c **** ********************************************************************************
 345:Generated_Source\PSoC5/Timer_20KHz.c **** *
 346:Generated_Source\PSoC5/Timer_20KHz.c **** * Summary:
 347:Generated_Source\PSoC5/Timer_20KHz.c **** *  Reads the control register and returns it's value.
 348:Generated_Source\PSoC5/Timer_20KHz.c **** *
 349:Generated_Source\PSoC5/Timer_20KHz.c **** * Parameters:
 350:Generated_Source\PSoC5/Timer_20KHz.c **** *  void
 351:Generated_Source\PSoC5/Timer_20KHz.c **** *
 352:Generated_Source\PSoC5/Timer_20KHz.c **** * Return:
 353:Generated_Source\PSoC5/Timer_20KHz.c **** *  The contents of the control register
 354:Generated_Source\PSoC5/Timer_20KHz.c **** *
 355:Generated_Source\PSoC5/Timer_20KHz.c **** *******************************************************************************/
 356:Generated_Source\PSoC5/Timer_20KHz.c **** uint8 Timer_20KHz_ReadControlRegister(void) 
 357:Generated_Source\PSoC5/Timer_20KHz.c **** {
 411              		.loc 1 357 0
 412              		.cfi_startproc
 413              		@ args = 0, pretend = 0, frame = 0
 414              		@ frame_needed = 1, uses_anonymous_args = 0
 415              		@ link register save eliminated.
 416 0000 80B4     		push	{r7}
 417              		.cfi_def_cfa_offset 4
 418              		.cfi_offset 7, -4
 419 0002 00AF     		add	r7, sp, #0
 420              		.cfi_def_cfa_register 7
 358:Generated_Source\PSoC5/Timer_20KHz.c ****     #if (!Timer_20KHz_UDB_CONTROL_REG_REMOVED) 
 359:Generated_Source\PSoC5/Timer_20KHz.c ****         return ((uint8)Timer_20KHz_CONTROL);
 421              		.loc 1 359 0
 422 0004 034B     		ldr	r3, .L26
 423 0006 1B78     		ldrb	r3, [r3]
 424 0008 DBB2     		uxtb	r3, r3
 360:Generated_Source\PSoC5/Timer_20KHz.c ****     #else
 361:Generated_Source\PSoC5/Timer_20KHz.c ****         return (0);
 362:Generated_Source\PSoC5/Timer_20KHz.c ****     #endif /* (!Timer_20KHz_UDB_CONTROL_REG_REMOVED) */
 363:Generated_Source\PSoC5/Timer_20KHz.c **** }
 425              		.loc 1 363 0
 426 000a 1846     		mov	r0, r3
 427 000c BD46     		mov	sp, r7
 428              		.cfi_def_cfa_register 13
 429              		@ sp needed
 430 000e 80BC     		pop	{r7}
 431              		.cfi_restore 7
 432              		.cfi_def_cfa_offset 0
 433 0010 7047     		bx	lr
 434              	.L27:
 435 0012 00BF     		.align	2
ARM GAS  C:\Users\THUNDE~1\AppData\Local\Temp\ccznISje.s 			page 15


 436              	.L26:
 437 0014 004F0040 		.word	1073762048
 438              		.cfi_endproc
 439              	.LFE7:
 440              		.size	Timer_20KHz_ReadControlRegister, .-Timer_20KHz_ReadControlRegister
 441              		.section	.text.Timer_20KHz_WriteControlRegister,"ax",%progbits
 442              		.align	2
 443              		.global	Timer_20KHz_WriteControlRegister
 444              		.thumb
 445              		.thumb_func
 446              		.type	Timer_20KHz_WriteControlRegister, %function
 447              	Timer_20KHz_WriteControlRegister:
 448              	.LFB8:
 364:Generated_Source\PSoC5/Timer_20KHz.c **** 
 365:Generated_Source\PSoC5/Timer_20KHz.c **** 
 366:Generated_Source\PSoC5/Timer_20KHz.c **** /*******************************************************************************
 367:Generated_Source\PSoC5/Timer_20KHz.c **** * Function Name: Timer_20KHz_WriteControlRegister
 368:Generated_Source\PSoC5/Timer_20KHz.c **** ********************************************************************************
 369:Generated_Source\PSoC5/Timer_20KHz.c **** *
 370:Generated_Source\PSoC5/Timer_20KHz.c **** * Summary:
 371:Generated_Source\PSoC5/Timer_20KHz.c **** *  Sets the bit-field of the control register.
 372:Generated_Source\PSoC5/Timer_20KHz.c **** *
 373:Generated_Source\PSoC5/Timer_20KHz.c **** * Parameters:
 374:Generated_Source\PSoC5/Timer_20KHz.c **** *  control: The contents of the control register
 375:Generated_Source\PSoC5/Timer_20KHz.c **** *
 376:Generated_Source\PSoC5/Timer_20KHz.c **** * Return:
 377:Generated_Source\PSoC5/Timer_20KHz.c **** *
 378:Generated_Source\PSoC5/Timer_20KHz.c **** *******************************************************************************/
 379:Generated_Source\PSoC5/Timer_20KHz.c **** void Timer_20KHz_WriteControlRegister(uint8 control) 
 380:Generated_Source\PSoC5/Timer_20KHz.c **** {
 449              		.loc 1 380 0
 450              		.cfi_startproc
 451              		@ args = 0, pretend = 0, frame = 8
 452              		@ frame_needed = 1, uses_anonymous_args = 0
 453              		@ link register save eliminated.
 454 0000 80B4     		push	{r7}
 455              		.cfi_def_cfa_offset 4
 456              		.cfi_offset 7, -4
 457 0002 83B0     		sub	sp, sp, #12
 458              		.cfi_def_cfa_offset 16
 459 0004 00AF     		add	r7, sp, #0
 460              		.cfi_def_cfa_register 7
 461 0006 0346     		mov	r3, r0
 462 0008 FB71     		strb	r3, [r7, #7]
 381:Generated_Source\PSoC5/Timer_20KHz.c ****     #if (!Timer_20KHz_UDB_CONTROL_REG_REMOVED) 
 382:Generated_Source\PSoC5/Timer_20KHz.c ****         Timer_20KHz_CONTROL = control;
 463              		.loc 1 382 0
 464 000a 044A     		ldr	r2, .L29
 465 000c FB79     		ldrb	r3, [r7, #7]
 466 000e 1370     		strb	r3, [r2]
 383:Generated_Source\PSoC5/Timer_20KHz.c ****     #else
 384:Generated_Source\PSoC5/Timer_20KHz.c ****         control = 0u;
 385:Generated_Source\PSoC5/Timer_20KHz.c ****     #endif /* (!Timer_20KHz_UDB_CONTROL_REG_REMOVED) */
 386:Generated_Source\PSoC5/Timer_20KHz.c **** }
 467              		.loc 1 386 0
 468 0010 00BF     		nop
 469 0012 0C37     		adds	r7, r7, #12
ARM GAS  C:\Users\THUNDE~1\AppData\Local\Temp\ccznISje.s 			page 16


 470              		.cfi_def_cfa_offset 4
 471 0014 BD46     		mov	sp, r7
 472              		.cfi_def_cfa_register 13
 473              		@ sp needed
 474 0016 80BC     		pop	{r7}
 475              		.cfi_restore 7
 476              		.cfi_def_cfa_offset 0
 477 0018 7047     		bx	lr
 478              	.L30:
 479 001a 00BF     		.align	2
 480              	.L29:
 481 001c 004F0040 		.word	1073762048
 482              		.cfi_endproc
 483              	.LFE8:
 484              		.size	Timer_20KHz_WriteControlRegister, .-Timer_20KHz_WriteControlRegister
 485              		.section	.text.Timer_20KHz_ReadPeriod,"ax",%progbits
 486              		.align	2
 487              		.global	Timer_20KHz_ReadPeriod
 488              		.thumb
 489              		.thumb_func
 490              		.type	Timer_20KHz_ReadPeriod, %function
 491              	Timer_20KHz_ReadPeriod:
 492              	.LFB9:
 387:Generated_Source\PSoC5/Timer_20KHz.c **** 
 388:Generated_Source\PSoC5/Timer_20KHz.c **** #endif /* Remove API if control register is unused */
 389:Generated_Source\PSoC5/Timer_20KHz.c **** 
 390:Generated_Source\PSoC5/Timer_20KHz.c **** 
 391:Generated_Source\PSoC5/Timer_20KHz.c **** /*******************************************************************************
 392:Generated_Source\PSoC5/Timer_20KHz.c **** * Function Name: Timer_20KHz_ReadPeriod
 393:Generated_Source\PSoC5/Timer_20KHz.c **** ********************************************************************************
 394:Generated_Source\PSoC5/Timer_20KHz.c **** *
 395:Generated_Source\PSoC5/Timer_20KHz.c **** * Summary:
 396:Generated_Source\PSoC5/Timer_20KHz.c **** *  This function returns the current value of the Period.
 397:Generated_Source\PSoC5/Timer_20KHz.c **** *
 398:Generated_Source\PSoC5/Timer_20KHz.c **** * Parameters:
 399:Generated_Source\PSoC5/Timer_20KHz.c **** *  void
 400:Generated_Source\PSoC5/Timer_20KHz.c **** *
 401:Generated_Source\PSoC5/Timer_20KHz.c **** * Return:
 402:Generated_Source\PSoC5/Timer_20KHz.c **** *  The present value of the counter.
 403:Generated_Source\PSoC5/Timer_20KHz.c **** *
 404:Generated_Source\PSoC5/Timer_20KHz.c **** *******************************************************************************/
 405:Generated_Source\PSoC5/Timer_20KHz.c **** uint16 Timer_20KHz_ReadPeriod(void) 
 406:Generated_Source\PSoC5/Timer_20KHz.c **** {
 493              		.loc 1 406 0
 494              		.cfi_startproc
 495              		@ args = 0, pretend = 0, frame = 0
 496              		@ frame_needed = 1, uses_anonymous_args = 0
 497              		@ link register save eliminated.
 498 0000 80B4     		push	{r7}
 499              		.cfi_def_cfa_offset 4
 500              		.cfi_offset 7, -4
 501 0002 00AF     		add	r7, sp, #0
 502              		.cfi_def_cfa_register 7
 407:Generated_Source\PSoC5/Timer_20KHz.c ****    #if(Timer_20KHz_UsingFixedFunction)
 408:Generated_Source\PSoC5/Timer_20KHz.c ****        return ((uint16)CY_GET_REG16(Timer_20KHz_PERIOD_LSB_PTR));
 503              		.loc 1 408 0
 504 0004 034B     		ldr	r3, .L33
ARM GAS  C:\Users\THUNDE~1\AppData\Local\Temp\ccznISje.s 			page 17


 505 0006 1B88     		ldrh	r3, [r3]	@ movhi
 506 0008 9BB2     		uxth	r3, r3
 409:Generated_Source\PSoC5/Timer_20KHz.c ****    #else
 410:Generated_Source\PSoC5/Timer_20KHz.c ****        return (CY_GET_REG16(Timer_20KHz_PERIOD_LSB_PTR));
 411:Generated_Source\PSoC5/Timer_20KHz.c ****    #endif /* (Timer_20KHz_UsingFixedFunction) */
 412:Generated_Source\PSoC5/Timer_20KHz.c **** }
 507              		.loc 1 412 0
 508 000a 1846     		mov	r0, r3
 509 000c BD46     		mov	sp, r7
 510              		.cfi_def_cfa_register 13
 511              		@ sp needed
 512 000e 80BC     		pop	{r7}
 513              		.cfi_restore 7
 514              		.cfi_def_cfa_offset 0
 515 0010 7047     		bx	lr
 516              	.L34:
 517 0012 00BF     		.align	2
 518              	.L33:
 519 0014 044F0040 		.word	1073762052
 520              		.cfi_endproc
 521              	.LFE9:
 522              		.size	Timer_20KHz_ReadPeriod, .-Timer_20KHz_ReadPeriod
 523              		.section	.text.Timer_20KHz_WritePeriod,"ax",%progbits
 524              		.align	2
 525              		.global	Timer_20KHz_WritePeriod
 526              		.thumb
 527              		.thumb_func
 528              		.type	Timer_20KHz_WritePeriod, %function
 529              	Timer_20KHz_WritePeriod:
 530              	.LFB10:
 413:Generated_Source\PSoC5/Timer_20KHz.c **** 
 414:Generated_Source\PSoC5/Timer_20KHz.c **** 
 415:Generated_Source\PSoC5/Timer_20KHz.c **** /*******************************************************************************
 416:Generated_Source\PSoC5/Timer_20KHz.c **** * Function Name: Timer_20KHz_WritePeriod
 417:Generated_Source\PSoC5/Timer_20KHz.c **** ********************************************************************************
 418:Generated_Source\PSoC5/Timer_20KHz.c **** *
 419:Generated_Source\PSoC5/Timer_20KHz.c **** * Summary:
 420:Generated_Source\PSoC5/Timer_20KHz.c **** *  This function is used to change the period of the counter.  The new period
 421:Generated_Source\PSoC5/Timer_20KHz.c **** *  will be loaded the next time terminal count is detected.
 422:Generated_Source\PSoC5/Timer_20KHz.c **** *
 423:Generated_Source\PSoC5/Timer_20KHz.c **** * Parameters:
 424:Generated_Source\PSoC5/Timer_20KHz.c **** *  period: This value may be between 1 and (2^Resolution)-1.  A value of 0 will
 425:Generated_Source\PSoC5/Timer_20KHz.c **** *          result in the counter remaining at zero.
 426:Generated_Source\PSoC5/Timer_20KHz.c **** *
 427:Generated_Source\PSoC5/Timer_20KHz.c **** * Return:
 428:Generated_Source\PSoC5/Timer_20KHz.c **** *  void
 429:Generated_Source\PSoC5/Timer_20KHz.c **** *
 430:Generated_Source\PSoC5/Timer_20KHz.c **** *******************************************************************************/
 431:Generated_Source\PSoC5/Timer_20KHz.c **** void Timer_20KHz_WritePeriod(uint16 period) 
 432:Generated_Source\PSoC5/Timer_20KHz.c **** {
 531              		.loc 1 432 0
 532              		.cfi_startproc
 533              		@ args = 0, pretend = 0, frame = 16
 534              		@ frame_needed = 1, uses_anonymous_args = 0
 535              		@ link register save eliminated.
 536 0000 80B4     		push	{r7}
 537              		.cfi_def_cfa_offset 4
ARM GAS  C:\Users\THUNDE~1\AppData\Local\Temp\ccznISje.s 			page 18


 538              		.cfi_offset 7, -4
 539 0002 85B0     		sub	sp, sp, #20
 540              		.cfi_def_cfa_offset 24
 541 0004 00AF     		add	r7, sp, #0
 542              		.cfi_def_cfa_register 7
 543 0006 0346     		mov	r3, r0
 544 0008 FB80     		strh	r3, [r7, #6]	@ movhi
 433:Generated_Source\PSoC5/Timer_20KHz.c ****     #if(Timer_20KHz_UsingFixedFunction)
 434:Generated_Source\PSoC5/Timer_20KHz.c ****         uint16 period_temp = (uint16)period;
 545              		.loc 1 434 0
 546 000a FB88     		ldrh	r3, [r7, #6]	@ movhi
 547 000c FB81     		strh	r3, [r7, #14]	@ movhi
 435:Generated_Source\PSoC5/Timer_20KHz.c ****         CY_SET_REG16(Timer_20KHz_PERIOD_LSB_PTR, period_temp);
 548              		.loc 1 435 0
 549 000e 044A     		ldr	r2, .L36
 550 0010 FB89     		ldrh	r3, [r7, #14]	@ movhi
 551 0012 1380     		strh	r3, [r2]	@ movhi
 436:Generated_Source\PSoC5/Timer_20KHz.c ****     #else
 437:Generated_Source\PSoC5/Timer_20KHz.c ****         CY_SET_REG16(Timer_20KHz_PERIOD_LSB_PTR, period);
 438:Generated_Source\PSoC5/Timer_20KHz.c ****     #endif /*Write Period value with appropriate resolution suffix depending on UDB or fixed functi
 439:Generated_Source\PSoC5/Timer_20KHz.c **** }
 552              		.loc 1 439 0
 553 0014 00BF     		nop
 554 0016 1437     		adds	r7, r7, #20
 555              		.cfi_def_cfa_offset 4
 556 0018 BD46     		mov	sp, r7
 557              		.cfi_def_cfa_register 13
 558              		@ sp needed
 559 001a 80BC     		pop	{r7}
 560              		.cfi_restore 7
 561              		.cfi_def_cfa_offset 0
 562 001c 7047     		bx	lr
 563              	.L37:
 564 001e 00BF     		.align	2
 565              	.L36:
 566 0020 044F0040 		.word	1073762052
 567              		.cfi_endproc
 568              	.LFE10:
 569              		.size	Timer_20KHz_WritePeriod, .-Timer_20KHz_WritePeriod
 570              		.section	.text.Timer_20KHz_ReadCapture,"ax",%progbits
 571              		.align	2
 572              		.global	Timer_20KHz_ReadCapture
 573              		.thumb
 574              		.thumb_func
 575              		.type	Timer_20KHz_ReadCapture, %function
 576              	Timer_20KHz_ReadCapture:
 577              	.LFB11:
 440:Generated_Source\PSoC5/Timer_20KHz.c **** 
 441:Generated_Source\PSoC5/Timer_20KHz.c **** 
 442:Generated_Source\PSoC5/Timer_20KHz.c **** /*******************************************************************************
 443:Generated_Source\PSoC5/Timer_20KHz.c **** * Function Name: Timer_20KHz_ReadCapture
 444:Generated_Source\PSoC5/Timer_20KHz.c **** ********************************************************************************
 445:Generated_Source\PSoC5/Timer_20KHz.c **** *
 446:Generated_Source\PSoC5/Timer_20KHz.c **** * Summary:
 447:Generated_Source\PSoC5/Timer_20KHz.c **** *  This function returns the last value captured.
 448:Generated_Source\PSoC5/Timer_20KHz.c **** *
 449:Generated_Source\PSoC5/Timer_20KHz.c **** * Parameters:
ARM GAS  C:\Users\THUNDE~1\AppData\Local\Temp\ccznISje.s 			page 19


 450:Generated_Source\PSoC5/Timer_20KHz.c **** *  void
 451:Generated_Source\PSoC5/Timer_20KHz.c **** *
 452:Generated_Source\PSoC5/Timer_20KHz.c **** * Return:
 453:Generated_Source\PSoC5/Timer_20KHz.c **** *  Present Capture value.
 454:Generated_Source\PSoC5/Timer_20KHz.c **** *
 455:Generated_Source\PSoC5/Timer_20KHz.c **** *******************************************************************************/
 456:Generated_Source\PSoC5/Timer_20KHz.c **** uint16 Timer_20KHz_ReadCapture(void) 
 457:Generated_Source\PSoC5/Timer_20KHz.c **** {
 578              		.loc 1 457 0
 579              		.cfi_startproc
 580              		@ args = 0, pretend = 0, frame = 0
 581              		@ frame_needed = 1, uses_anonymous_args = 0
 582              		@ link register save eliminated.
 583 0000 80B4     		push	{r7}
 584              		.cfi_def_cfa_offset 4
 585              		.cfi_offset 7, -4
 586 0002 00AF     		add	r7, sp, #0
 587              		.cfi_def_cfa_register 7
 458:Generated_Source\PSoC5/Timer_20KHz.c ****    #if(Timer_20KHz_UsingFixedFunction)
 459:Generated_Source\PSoC5/Timer_20KHz.c ****        return ((uint16)CY_GET_REG16(Timer_20KHz_CAPTURE_LSB_PTR));
 588              		.loc 1 459 0
 589 0004 034B     		ldr	r3, .L40
 590 0006 1B88     		ldrh	r3, [r3]	@ movhi
 591 0008 9BB2     		uxth	r3, r3
 460:Generated_Source\PSoC5/Timer_20KHz.c ****    #else
 461:Generated_Source\PSoC5/Timer_20KHz.c ****        return (CY_GET_REG16(Timer_20KHz_CAPTURE_LSB_PTR));
 462:Generated_Source\PSoC5/Timer_20KHz.c ****    #endif /* (Timer_20KHz_UsingFixedFunction) */
 463:Generated_Source\PSoC5/Timer_20KHz.c **** }
 592              		.loc 1 463 0
 593 000a 1846     		mov	r0, r3
 594 000c BD46     		mov	sp, r7
 595              		.cfi_def_cfa_register 13
 596              		@ sp needed
 597 000e 80BC     		pop	{r7}
 598              		.cfi_restore 7
 599              		.cfi_def_cfa_offset 0
 600 0010 7047     		bx	lr
 601              	.L41:
 602 0012 00BF     		.align	2
 603              	.L40:
 604 0014 084F0040 		.word	1073762056
 605              		.cfi_endproc
 606              	.LFE11:
 607              		.size	Timer_20KHz_ReadCapture, .-Timer_20KHz_ReadCapture
 608              		.section	.text.Timer_20KHz_WriteCounter,"ax",%progbits
 609              		.align	2
 610              		.global	Timer_20KHz_WriteCounter
 611              		.thumb
 612              		.thumb_func
 613              		.type	Timer_20KHz_WriteCounter, %function
 614              	Timer_20KHz_WriteCounter:
 615              	.LFB12:
 464:Generated_Source\PSoC5/Timer_20KHz.c **** 
 465:Generated_Source\PSoC5/Timer_20KHz.c **** 
 466:Generated_Source\PSoC5/Timer_20KHz.c **** /*******************************************************************************
 467:Generated_Source\PSoC5/Timer_20KHz.c **** * Function Name: Timer_20KHz_WriteCounter
 468:Generated_Source\PSoC5/Timer_20KHz.c **** ********************************************************************************
ARM GAS  C:\Users\THUNDE~1\AppData\Local\Temp\ccznISje.s 			page 20


 469:Generated_Source\PSoC5/Timer_20KHz.c **** *
 470:Generated_Source\PSoC5/Timer_20KHz.c **** * Summary:
 471:Generated_Source\PSoC5/Timer_20KHz.c **** *  This funtion is used to set the counter to a specific value
 472:Generated_Source\PSoC5/Timer_20KHz.c **** *
 473:Generated_Source\PSoC5/Timer_20KHz.c **** * Parameters:
 474:Generated_Source\PSoC5/Timer_20KHz.c **** *  counter:  New counter value.
 475:Generated_Source\PSoC5/Timer_20KHz.c **** *
 476:Generated_Source\PSoC5/Timer_20KHz.c **** * Return:
 477:Generated_Source\PSoC5/Timer_20KHz.c **** *  void
 478:Generated_Source\PSoC5/Timer_20KHz.c **** *
 479:Generated_Source\PSoC5/Timer_20KHz.c **** *******************************************************************************/
 480:Generated_Source\PSoC5/Timer_20KHz.c **** void Timer_20KHz_WriteCounter(uint16 counter) 
 481:Generated_Source\PSoC5/Timer_20KHz.c **** {
 616              		.loc 1 481 0
 617              		.cfi_startproc
 618              		@ args = 0, pretend = 0, frame = 8
 619              		@ frame_needed = 1, uses_anonymous_args = 0
 620              		@ link register save eliminated.
 621 0000 80B4     		push	{r7}
 622              		.cfi_def_cfa_offset 4
 623              		.cfi_offset 7, -4
 624 0002 83B0     		sub	sp, sp, #12
 625              		.cfi_def_cfa_offset 16
 626 0004 00AF     		add	r7, sp, #0
 627              		.cfi_def_cfa_register 7
 628 0006 0346     		mov	r3, r0
 629 0008 FB80     		strh	r3, [r7, #6]	@ movhi
 482:Generated_Source\PSoC5/Timer_20KHz.c ****    #if(Timer_20KHz_UsingFixedFunction)
 483:Generated_Source\PSoC5/Timer_20KHz.c ****         /* This functionality is removed until a FixedFunction HW update to
 484:Generated_Source\PSoC5/Timer_20KHz.c ****          * allow this register to be written
 485:Generated_Source\PSoC5/Timer_20KHz.c ****          */
 486:Generated_Source\PSoC5/Timer_20KHz.c ****         CY_SET_REG16(Timer_20KHz_COUNTER_LSB_PTR, (uint16)counter);
 630              		.loc 1 486 0
 631 000a 044A     		ldr	r2, .L43
 632 000c FB88     		ldrh	r3, [r7, #6]	@ movhi
 633 000e 1380     		strh	r3, [r2]	@ movhi
 487:Generated_Source\PSoC5/Timer_20KHz.c ****         
 488:Generated_Source\PSoC5/Timer_20KHz.c ****     #else
 489:Generated_Source\PSoC5/Timer_20KHz.c ****         CY_SET_REG16(Timer_20KHz_COUNTER_LSB_PTR, counter);
 490:Generated_Source\PSoC5/Timer_20KHz.c ****     #endif /* Set Write Counter only for the UDB implementation (Write Counter not available in fix
 491:Generated_Source\PSoC5/Timer_20KHz.c **** }
 634              		.loc 1 491 0
 635 0010 00BF     		nop
 636 0012 0C37     		adds	r7, r7, #12
 637              		.cfi_def_cfa_offset 4
 638 0014 BD46     		mov	sp, r7
 639              		.cfi_def_cfa_register 13
 640              		@ sp needed
 641 0016 80BC     		pop	{r7}
 642              		.cfi_restore 7
 643              		.cfi_def_cfa_offset 0
 644 0018 7047     		bx	lr
 645              	.L44:
 646 001a 00BF     		.align	2
 647              	.L43:
 648 001c 064F0040 		.word	1073762054
 649              		.cfi_endproc
ARM GAS  C:\Users\THUNDE~1\AppData\Local\Temp\ccznISje.s 			page 21


 650              	.LFE12:
 651              		.size	Timer_20KHz_WriteCounter, .-Timer_20KHz_WriteCounter
 652              		.section	.text.Timer_20KHz_ReadCounter,"ax",%progbits
 653              		.align	2
 654              		.global	Timer_20KHz_ReadCounter
 655              		.thumb
 656              		.thumb_func
 657              		.type	Timer_20KHz_ReadCounter, %function
 658              	Timer_20KHz_ReadCounter:
 659              	.LFB13:
 492:Generated_Source\PSoC5/Timer_20KHz.c **** 
 493:Generated_Source\PSoC5/Timer_20KHz.c **** 
 494:Generated_Source\PSoC5/Timer_20KHz.c **** /*******************************************************************************
 495:Generated_Source\PSoC5/Timer_20KHz.c **** * Function Name: Timer_20KHz_ReadCounter
 496:Generated_Source\PSoC5/Timer_20KHz.c **** ********************************************************************************
 497:Generated_Source\PSoC5/Timer_20KHz.c **** *
 498:Generated_Source\PSoC5/Timer_20KHz.c **** * Summary:
 499:Generated_Source\PSoC5/Timer_20KHz.c **** *  This function returns the current counter value.
 500:Generated_Source\PSoC5/Timer_20KHz.c **** *
 501:Generated_Source\PSoC5/Timer_20KHz.c **** * Parameters:
 502:Generated_Source\PSoC5/Timer_20KHz.c **** *  void
 503:Generated_Source\PSoC5/Timer_20KHz.c **** *
 504:Generated_Source\PSoC5/Timer_20KHz.c **** * Return:
 505:Generated_Source\PSoC5/Timer_20KHz.c **** *  Present compare value.
 506:Generated_Source\PSoC5/Timer_20KHz.c **** *
 507:Generated_Source\PSoC5/Timer_20KHz.c **** *******************************************************************************/
 508:Generated_Source\PSoC5/Timer_20KHz.c **** uint16 Timer_20KHz_ReadCounter(void) 
 509:Generated_Source\PSoC5/Timer_20KHz.c **** {
 660              		.loc 1 509 0
 661              		.cfi_startproc
 662              		@ args = 0, pretend = 0, frame = 0
 663              		@ frame_needed = 1, uses_anonymous_args = 0
 664              		@ link register save eliminated.
 665 0000 80B4     		push	{r7}
 666              		.cfi_def_cfa_offset 4
 667              		.cfi_offset 7, -4
 668 0002 00AF     		add	r7, sp, #0
 669              		.cfi_def_cfa_register 7
 510:Generated_Source\PSoC5/Timer_20KHz.c ****     /* Force capture by reading Accumulator */
 511:Generated_Source\PSoC5/Timer_20KHz.c ****     /* Must first do a software capture to be able to read the counter */
 512:Generated_Source\PSoC5/Timer_20KHz.c ****     /* It is up to the user code to make sure there isn't already captured data in the FIFO */
 513:Generated_Source\PSoC5/Timer_20KHz.c ****     #if(Timer_20KHz_UsingFixedFunction)
 514:Generated_Source\PSoC5/Timer_20KHz.c ****         (void)CY_GET_REG16(Timer_20KHz_COUNTER_LSB_PTR);
 670              		.loc 1 514 0
 671 0004 044B     		ldr	r3, .L47
 672 0006 1B88     		ldrh	r3, [r3]	@ movhi
 515:Generated_Source\PSoC5/Timer_20KHz.c ****     #else
 516:Generated_Source\PSoC5/Timer_20KHz.c ****         (void)CY_GET_REG8(Timer_20KHz_COUNTER_LSB_PTR_8BIT);
 517:Generated_Source\PSoC5/Timer_20KHz.c ****     #endif/* (Timer_20KHz_UsingFixedFunction) */
 518:Generated_Source\PSoC5/Timer_20KHz.c **** 
 519:Generated_Source\PSoC5/Timer_20KHz.c ****     /* Read the data from the FIFO (or capture register for Fixed Function)*/
 520:Generated_Source\PSoC5/Timer_20KHz.c ****     #if(Timer_20KHz_UsingFixedFunction)
 521:Generated_Source\PSoC5/Timer_20KHz.c ****         return ((uint16)CY_GET_REG16(Timer_20KHz_CAPTURE_LSB_PTR));
 673              		.loc 1 521 0
 674 0008 044B     		ldr	r3, .L47+4
 675 000a 1B88     		ldrh	r3, [r3]	@ movhi
 676 000c 9BB2     		uxth	r3, r3
ARM GAS  C:\Users\THUNDE~1\AppData\Local\Temp\ccznISje.s 			page 22


 522:Generated_Source\PSoC5/Timer_20KHz.c ****     #else
 523:Generated_Source\PSoC5/Timer_20KHz.c ****         return (CY_GET_REG16(Timer_20KHz_CAPTURE_LSB_PTR));
 524:Generated_Source\PSoC5/Timer_20KHz.c ****     #endif /* (Timer_20KHz_UsingFixedFunction) */
 525:Generated_Source\PSoC5/Timer_20KHz.c **** }
 677              		.loc 1 525 0
 678 000e 1846     		mov	r0, r3
 679 0010 BD46     		mov	sp, r7
 680              		.cfi_def_cfa_register 13
 681              		@ sp needed
 682 0012 80BC     		pop	{r7}
 683              		.cfi_restore 7
 684              		.cfi_def_cfa_offset 0
 685 0014 7047     		bx	lr
 686              	.L48:
 687 0016 00BF     		.align	2
 688              	.L47:
 689 0018 064F0040 		.word	1073762054
 690 001c 084F0040 		.word	1073762056
 691              		.cfi_endproc
 692              	.LFE13:
 693              		.size	Timer_20KHz_ReadCounter, .-Timer_20KHz_ReadCounter
 694              		.text
 695              	.Letext0:
 696              		.file 2 "Generated_Source\\PSoC5\\cytypes.h"